 PhysXCommon_64

 Timestamp is 640ea07e (Mon Mar 13 00:03:10 2023)

 Preferred load address is 0000000180000000

 Start         Length     Name                   Class
 0001:00000000 000031d0H .text$di                CODE
 0001:000031d0 001ca4e0H .text$mn                CODE
 0001:001cd6b0 00000040H .text$mn$00             CODE
 0001:001cd6f0 00000490H .text$x                 CODE
 0001:001cdb80 0000000fH .text$yd                CODE
 0002:00000000 00000260H .idata$5                DATA
 0002:00000260 00000028H .00cfg                  DATA
 0002:00000288 00000008H .CRT$XCA                DATA
 0002:00000290 000018b0H .CRT$XCU                DATA
 0002:00001b40 00000008H .CRT$XCZ                DATA
 0002:00001b48 00000008H .CRT$XIA                DATA
 0002:00001b50 00000018H .CRT$XIC                DATA
 0002:00001b68 00000008H .CRT$XIZ                DATA
 0002:00001b70 00000008H .CRT$XPA                DATA
 0002:00001b78 00000010H .CRT$XPX                DATA
 0002:00001b88 00000008H .CRT$XPXA               DATA
 0002:00001b90 00000008H .CRT$XPZ                DATA
 0002:00001b98 00000008H .CRT$XTA                DATA
 0002:00001ba0 00000010H .CRT$XTZ                DATA
 0002:00001ba8 00000000H .gehcont$y              DATA
 0002:00001ba8 00000000H .gfids$y                DATA
 0002:00001bb0 00011950H .rdata                  DATA
 0002:00013500 00000000H .rdata$CastGuardVftablesA DATA
 0002:00013500 00000000H .rdata$CastGuardVftablesC DATA
 0002:00013500 0000043cH .rdata$r                DATA
 0002:0001393c 00000100H .rdata$voltmd           DATA
 0002:00013a3c 00000434H .rdata$zzzdbg           DATA
 0002:00013e70 00000008H .rtc$IAA                DATA
 0002:00013e78 00000008H .rtc$IZZ                DATA
 0002:00013e80 00000008H .rtc$TAA                DATA
 0002:00013e88 00000008H .rtc$TZZ                DATA
 0002:00013e90 00014370H .xdata                  DATA
 0002:00028200 00000084H .xdata$x                DATA
 0002:00028284 00000020H .didat$2                DATA
 0002:000282a4 00000024H .didat$3                DATA
 0002:000282c8 000000c0H .didat$4                DATA
 0002:00028388 000003f8H .didat$6                DATA
 0002:00028780 000000c0H .didat$7                DATA
 0002:00028840 0000c3e4H .edata                  DATA
 0002:00034c24 00000014H .idata$2                DATA
 0002:00034c38 00000018H .idata$3                DATA
 0002:00034c50 00000260H .idata$4                DATA
 0002:00034eb0 0000058cH .idata$6                DATA
 0003:00000000 00001c40H .data                   DATA
 0003:00001c40 000010e0H .data$r                 DATA
 0003:00002d20 000000f0H .data$rs                DATA
 0003:00002e10 000000c0H .didat$5                DATA
 0003:00002ed0 000043fcH .bss                    DATA
 0004:00000000 0000bdfcH .pdata                  DATA
 0005:00000000 00002304H _RDATA                  DATA
 0006:00000000 000000a0H .rsrc$01                DATA
 0006:000000a0 000004b0H .rsrc$02                DATA

  Address         Publics by Value              Rva+Base               Lib:Object

 0000:00000000       __arm64x_extra_rfe_table   0000000000000000     <absolute>
 0000:00000000       __guard_fids_count         0000000000000000     <absolute>
 0000:00000000       __guard_iat_count          0000000000000000     <absolute>
 0000:00000000       __arm64x_redirection_metadata 0000000000000000     <absolute>
 0000:00000000       __guard_longjmp_count      0000000000000000     <absolute>
 0000:00000000       __hybrid_code_map          0000000000000000     <absolute>
 0000:00000000       __dynamic_value_reloc_table 0000000000000000     <absolute>
 0000:00000000       __arm64x_extra_rfe_table_size 0000000000000000     <absolute>
 0000:00000000       __hybrid_auxiliary_iat     0000000000000000     <absolute>
 0000:00000000       ___safe_se_handler_count   0000000000000000     <absolute>
 0000:00000000       __hybrid_auxiliary_iat_copy 0000000000000000     <absolute>
 0000:00000000       __x64_code_ranges_to_entry_points 0000000000000000     <absolute>
 0000:00000000       __guard_longjmp_table      0000000000000000     <absolute>
 0000:00000000       __guard_iat_table          0000000000000000     <absolute>
 0000:00000000       __AbsoluteZero             0000000000000000     <absolute>
 0000:00000000       __x64_code_ranges_to_entry_points_count 0000000000000000     <absolute>
 0000:00000000       __guard_check_icall_a64n_fptr 0000000000000000     <absolute>
 0000:00000000       __guard_eh_cont_count      0000000000000000     <absolute>
 0000:00000000       ___safe_se_handler_table   0000000000000000     <absolute>
 0000:00000000       __guard_fids_table         0000000000000000     <absolute>
 0000:00000000       __arm64x_redirection_metadata_count 0000000000000000     <absolute>
 0000:00000000       __enclave_config           0000000000000000     <absolute>
 0000:00000000       __guard_eh_cont_table      0000000000000000     <absolute>
 0000:00000000       __arm64x_native_entrypoint 0000000000000000     <absolute>
 0000:00000000       __hybrid_code_map_count    0000000000000000     <absolute>
 0000:00000100       __guard_flags              0000000000000100     <absolute>
 0000:00000000       __ImageBase                0000000180000000     <linker-defined>
 0001:000031d0       ??0PtrTable@Cm@physx@@QEAA@W4PxEMPTY@2@@Z 00000001800041d0 f i CmPtrTable.obj
 0001:000031f0       ??0PtrTable@Cm@physx@@QEAA@XZ 00000001800041f0 f   CmPtrTable.obj
 0001:00003200       ??1AABBTreeBuildNode@Gu@physx@@QEAA@XZ 0000000180004200 f   GuMeshFactory.obj
 0001:00003200       ?merge@IncrementalAABBPruner@Gu@physx@@UEAAXPEBX@Z 0000000180004200 f   GuIncrementalAABBPruner.obj
 0001:00003200       ?visualize@BasePruner@Gu@physx@@UEBAXAEAVPxRenderOutput@3@II@Z 0000000180004200 f   GuIncrementalAABBPruner.obj
 0001:00003200       _guard_check_icall_nop     0000000180004200 f   LIBCMT:guard_support.obj
 0001:00003200       ?requiresObjects@ConvexMesh@Gu@physx@@UEAAXAEAVPxProcessPxBaseCallback@3@@Z 0000000180004200 f   GuConvexMesh.obj
 0001:00003200       ?merge@BucketPruner@Gu@physx@@UEAAXPEBX@Z 0000000180004200 f   GuBucketPruner.obj
 0001:00003200       ?requiresObjects@TriangleMesh@Gu@physx@@UEAAXAEAVPxProcessPxBaseCallback@3@@Z 0000000180004200 f   GuTriangleMesh.obj
 0001:00003200       ?swapIndex@CompanionPrunerBucket@@UEAAXII@Z 0000000180004200 f   GuSecondaryPruner.obj
 0001:00003200       ?purge@BucketPruner@Gu@physx@@UEAAXXZ 0000000180004200 f   GuBucketPruner.obj
 0001:00003200       ?build@CompanionPrunerIncremental@@UEAAXXZ 0000000180004200 f   GuSecondaryPruner.obj
 0001:00003200       ?timeStampChange@CompanionPrunerBucket@@UEAAXXZ 0000000180004200 f   GuSecondaryPruner.obj
 0001:00003200       ?requiresObjects@HeightField@Gu@physx@@UEAAXAEAVPxProcessPxBaseCallback@3@@Z 0000000180004200 f   GuHeightField.obj
 0001:00003200       ?checkTreeLeaf@IncrementalAABBTree@Gu@physx@@QEAAXPEAVIncrementalAABBTreeNode@23@I@Z 0000000180004200 f   GuIncrementalAABBTree.obj
 0001:00003200       ??1HeightFieldData@Gu@physx@@QEAA@XZ 0000000180004200 f   GuCCTSweepTests.obj
 0001:00003200       ??1Box@Gu@physx@@QEAA@XZ   0000000180004200 f   GuBox.obj
 0001:00003200       ??1PtrTable@Cm@physx@@QEAA@XZ 0000000180004200 f   CmPtrTable.obj
 0001:00003200       ?swapIndex@CompanionPrunerAABBTree@@UEAAXII@Z 0000000180004200 f   GuSecondaryPruner.obj
 0001:00003200       ??1BigConvexDataBuilder@physx@@QEAA@XZ 0000000180004200 f   GuCookingBigConvexDataBuilder.obj
 0001:00003200       ?execute@?$PxThreadT@V?$PxReflectionAllocator@VPxThreadImpl@physx@@@physx@@@physx@@UEAAXXZ 0000000180004200 f   GuSDF.obj
 0001:00003200       ?onMeshIndexFormatChange@TriangleMeshBuilder@physx@@UEAAXXZ 0000000180004200 f   GuCookingTriangleMesh.obj
 0001:00003200       ?execute@PxRunnable@physx@@UEAAXXZ 0000000180004200 f   GuSDF.obj
 0001:00003200       ?requiresObjects@SoftBodyMesh@Gu@physx@@UEAAXAEAVPxProcessPxBaseCallback@3@@Z 0000000180004200 f   GuTetrahedronMesh.obj
 0001:00003200       ?timeStampChange@CompanionPrunerAABBTree@@UEAAXXZ 0000000180004200 f   GuSecondaryPruner.obj
 0001:00003200       ?profile@Callback@RTree@Gu@physx@@UEAAXXZ 0000000180004200 f   GuMidphaseRTree.obj
 0001:00003210       ??4AABBTreeBounds@Gu@physx@@QEAAAEAV012@AEBV012@@Z 0000000180004210 f i GuMeshFactory.obj
 0001:00003210       ??4CmModuleUpdateLoader@Cm@physx@@QEAAAEAV012@AEBV012@@Z 0000000180004210 f i CmWindowsModuleUpdateLoader.obj
 0001:00003210       ??4PtrTable@Cm@physx@@QEAAAEAU012@AEBU012@@Z 0000000180004210 f i CmPtrTable.obj
 0001:00003220       ?add@PtrTable@Cm@physx@@QEAAXPEAXAEAVPtrTableStorageManager@23@@Z 0000000180004220 f   CmPtrTable.obj
 0001:00003330       ?clear@PtrTable@Cm@physx@@QEAAXAEAVPtrTableStorageManager@23@@Z 0000000180004330 f   CmPtrTable.obj
 0001:000033a0       ?exportExtraData@PtrTable@Cm@physx@@QEAAXAEAVPxSerializationContext@3@@Z 00000001800043a0 f   CmPtrTable.obj
 0001:000033f0       ?find@PtrTable@Cm@physx@@QEBAIPEBX@Z 00000001800043f0 f   CmPtrTable.obj
 0001:00003420       ?getBinaryMetaData@PtrTable@Cm@physx@@SAXAEAVPxOutputStream@3@@Z 0000000180004420 f   CmPtrTable.obj
 0001:00003610       ?getCount@PtrTable@Cm@physx@@QEBAIXZ 0000000180004610 f i CmPtrTable.obj
 0001:00003620       ?getPtrs@PtrTable@Cm@physx@@QEAAPEAPEAXXZ 0000000180004620 f i CmPtrTable.obj
 0001:00003620       ?getPtrs@PtrTable@Cm@physx@@QEBAPEBQEAXXZ 0000000180004620 f i CmPtrTable.obj
 0001:00003630       ?importExtraData@PtrTable@Cm@physx@@QEAAXAEAVPxDeserializationContext@3@@Z 0000000180004630 f   CmPtrTable.obj
 0001:00003660       ?realloc@PtrTable@Cm@physx@@AEAAXIIAEAVPtrTableStorageManager@23@@Z 0000000180004660 f   CmPtrTable.obj
 0001:000036f0       ?replaceWithLast@PtrTable@Cm@physx@@QEAAXIAEAVPtrTableStorageManager@23@@Z 00000001800046f0 f   CmPtrTable.obj
 0001:000037f0       ??_ECollection@Cm@physx@@UEAAPEAXI@Z 00000001800047f0 f i CmCollection.obj
 0001:000037f0       ??_GCollection@Cm@physx@@UEAAPEAXI@Z 00000001800047f0 f i CmCollection.obj
 0001:000038a0       ??_GPxCollection@physx@@MEAAPEAXI@Z 00000001800048a0 f i CmCollection.obj
 0001:000038a0       ??_EPxCollection@physx@@MEAAPEAXI@Z 00000001800048a0 f i CmCollection.obj
 0001:000038d0       ?add@Collection@Cm@physx@@UEAAXAEAVPxBase@3@_K@Z 00000001800048d0 f   CmCollection.obj
 0001:000039c0       ?add@Collection@Cm@physx@@UEAAXAEAVPxCollection@3@@Z 00000001800049c0 f   CmCollection.obj
 0001:00003b60       ?addId@Collection@Cm@physx@@UEAAXAEAVPxBase@3@_K@Z 0000000180004b60 f   CmCollection.obj
 0001:00003c90       ?contains@Collection@Cm@physx@@UEBA_NAEAVPxBase@3@@Z 0000000180004c90 f   CmCollection.obj
 0001:00003d40       ?create@?$PxHashBase@V?$PxPair@$$CB_KPEAVPxBase@physx@@@physx@@_KU?$PxHash@_K@2@UGetKey@?$PxHashMapBase@_KPEAVPxBase@physx@@U?$PxHash@_K@2@VPxAllocator@2@@2@VPxAllocator@2@$00@physx@@QEAAPEAV?$PxPair@$$CB_KPEAVPxBase@physx@@@2@AEB_KAEA_N@Z 0000000180004d40 f i CmCollection.obj
 0001:00003d40       ?create@?$PxHashBase@V?$PxPair@QEAVPxBase@physx@@_K@physx@@PEAVPxBase@2@U?$PxHash@PEAVPxBase@physx@@@2@UGetKey@?$PxHashMapBase@PEAVPxBase@physx@@_KU?$PxHash@PEAVPxBase@physx@@@2@VPxAllocator@2@@2@VPxAllocator@2@$00@physx@@QEAAPEAV?$PxPair@QEAVPxBase@physx@@_K@2@AEBQEAVPxBase@2@AEA_N@Z 0000000180004d40 f i CmCollection.obj
 0001:00003ee0       ?erase@?$PxHashBase@V?$PxPair@QEAVPxBase@physx@@_K@physx@@PEAVPxBase@2@U?$PxHash@PEAVPxBase@physx@@@2@UGetKey@?$PxHashMapBase@PEAVPxBase@physx@@_KU?$PxHash@PEAVPxBase@physx@@@2@VPxAllocator@2@@2@VPxAllocator@2@$00@physx@@QEAA_NAEBQEAVPxBase@2@@Z 0000000180004ee0 f i CmCollection.obj
 0001:00003ee0       ?erase@?$PxHashBase@V?$PxPair@$$CB_KPEAVPxBase@physx@@@physx@@_KU?$PxHash@_K@2@UGetKey@?$PxHashMapBase@_KPEAVPxBase@physx@@U?$PxHash@_K@2@VPxAllocator@2@@2@VPxAllocator@2@$00@physx@@QEAA_NAEB_K@Z 0000000180004ee0 f i CmCollection.obj
 0001:00004080       ?find@?$PxHashMapBase@_KPEAVPxBase@physx@@U?$PxHash@_K@2@VPxAllocator@2@@physx@@QEBAPEBV?$PxPair@$$CB_KPEAVPxBase@physx@@@2@AEB_K@Z 0000000180005080 f i CmCollection.obj
 0001:00004120       ?find@Collection@Cm@physx@@UEBAPEAVPxBase@3@_K@Z 0000000180005120 f   CmCollection.obj
 0001:00004150       ?getId@Collection@Cm@physx@@UEBA_KAEBVPxBase@3@@Z 0000000180005150 f   CmCollection.obj
 0001:00004200       ?getIds@Collection@Cm@physx@@UEBAIPEA_KII@Z 0000000180005200 f   CmCollection.obj
 0001:000042c0       ?getNbIds@Collection@Cm@physx@@UEBAIXZ 00000001800052c0 f   CmCollection.obj
 0001:000042d0       ?getNbObjects@Collection@Cm@physx@@UEBAIXZ 00000001800052d0 f   CmCollection.obj
 0001:000042e0       ?getObject@Collection@Cm@physx@@UEBAAEAVPxBase@3@I@Z 00000001800052e0 f   CmCollection.obj
 0001:000042f0       ?getObjects@Collection@Cm@physx@@UEBAIPEAPEAVPxBase@3@II@Z 00000001800052f0 f   CmCollection.obj
 0001:00004340       ?release@Collection@Cm@physx@@UEAAXXZ 0000000180005340 f i CmCollection.obj
 0001:00004360       ?remove@Collection@Cm@physx@@UEAAXAEAVPxBase@3@@Z 0000000180005360 f   CmCollection.obj
 0001:00004450       ?remove@Collection@Cm@physx@@UEAAXAEAVPxCollection@3@@Z 0000000180005450 f   CmCollection.obj
 0001:00004560       ?removeId@Collection@Cm@physx@@UEAAX_K@Z 0000000180005560 f   CmCollection.obj
 0001:000045e0       ?reserveInternal@?$PxHashBase@V?$PxPair@QEAVPxBase@physx@@_K@physx@@PEAVPxBase@2@U?$PxHash@PEAVPxBase@physx@@@2@UGetKey@?$PxHashMapBase@PEAVPxBase@physx@@_KU?$PxHash@PEAVPxBase@physx@@@2@VPxAllocator@2@@2@VPxAllocator@2@$00@physx@@AEAAXI@Z 00000001800055e0 f i CmCollection.obj
 0001:000045e0       ?reserveInternal@?$PxHashBase@V?$PxPair@$$CB_KPEAVPxBase@physx@@@physx@@_KU?$PxHash@_K@2@UGetKey@?$PxHashMapBase@_KPEAVPxBase@physx@@U?$PxHash@_K@2@VPxAllocator@2@@2@VPxAllocator@2@$00@physx@@AEAAXI@Z 00000001800055e0 f i CmCollection.obj
 0001:000047d0       PxCreateCollection         00000001800057d0 f   CmCollection.obj
 0001:000048d0       ??0RadixSort@Cm@physx@@QEAA@XZ 00000001800058d0 f   CmRadixSort.obj
 0001:00004900       ??0RadixSortBuffered@Cm@physx@@QEAA@XZ 0000000180005900 f   CmRadixSort.obj
 0001:00004930       ??1RadixSort@Cm@physx@@UEAA@XZ 0000000180005930 f   CmRadixSort.obj
 0001:00004940       ??1RadixSortBuffered@Cm@physx@@UEAA@XZ 0000000180005940 f   CmRadixSort.obj
 0001:00004970       ??_ERadixSort@Cm@physx@@UEAAPEAXI@Z 0000000180005970 f i CmRadixSort.obj
 0001:00004a00       ??_ERadixSortBuffered@Cm@physx@@UEAAPEAXI@Z 0000000180005a00 f i CmRadixSort.obj
 0001:00004b40       ?CheckResize@RadixSortBuffered@Cm@physx@@AEAAXI@Z 0000000180005b40 f i CmRadixSort.obj
 0001:00004b80       ?GetNbHits@RadixSort@Cm@physx@@QEBAIXZ 0000000180005b80 f i CmRadixSort.obj
 0001:00004b90       ?GetNbTotalCalls@RadixSort@Cm@physx@@QEBAIXZ 0000000180005b90 f i CmRadixSort.obj
 0001:00004ba0       ?getSimulationMesh@SoftBodyMesh@Gu@physx@@UEAAPEAVPxTetrahedronMesh@3@XZ 0000000180005ba0 f i GuTetrahedronMesh.obj
 0001:00004ba0       ?getHeightField@HeightFieldUtil@Gu@physx@@QEBAAEBVHeightField@23@XZ 0000000180005ba0 f i GuCCTSweepTests.obj
 0001:00004ba0       ?GetRanks@RadixSort@Cm@physx@@QEBAPEBIXZ 0000000180005ba0 f i CmRadixSort.obj
 0001:00004ba0       ?getSimulationMesh@SoftBodyMesh@Gu@physx@@UEBAPEBVPxTetrahedronMesh@3@XZ 0000000180005ba0 f i GuTetrahedronMesh.obj
 0001:00004bb0       ?getCollisionMesh@SoftBodyMesh@Gu@physx@@UEAAPEAVPxTetrahedronMesh@3@XZ 0000000180005bb0 f i GuTetrahedronMesh.obj
 0001:00004bb0       ?getVertices@TetrahedronMesh@Gu@physx@@UEBAPEBV?$PxVec3T@M@3@XZ 0000000180005bb0 f i GuTetrahedronMesh.obj
 0001:00004bb0       ?getPos@AABBTreeBuildNode@Gu@physx@@QEBAPEBV123@XZ 0000000180005bb0 f i GuMeshFactory.obj
 0001:00004bb0       ?getCollisionMesh@SoftBodyMesh@Gu@physx@@UEBAPEBVPxTetrahedronMesh@3@XZ 0000000180005bb0 f i GuTetrahedronMesh.obj
 0001:00004bb0       ?getObjects@PruningPool@Gu@physx@@QEBAPEAUPrunerPayload@23@XZ 0000000180005bb0 f i GuIncrementalAABBPrunerCore.obj
 0001:00004bb0       ?getHeightFieldGeometry@HeightFieldUtil@Gu@physx@@QEBAAEBVPxHeightFieldGeometry@3@XZ 0000000180005bb0 f i GuCCTSweepTests.obj
 0001:00004bb0       ?GetRecyclable@RadixSort@Cm@physx@@QEBAPEAIXZ 0000000180005bb0 f i CmRadixSort.obj
 0001:00004bb0       ?getVertices@TriangleMesh@Gu@physx@@UEBAPEBV?$PxVec3T@M@3@XZ 0000000180005bb0 f i GuTriangleMesh.obj
 0001:00004bb0       ?GetValencies@BigConvexData@physx@@QEBAPEBUValency@Gu@2@XZ 0000000180005bb0 f i GuMetaData.obj
 0001:00004bc0       ?Resize@RadixSortBuffered@Cm@physx@@AEAA_NI@Z 0000000180005bc0 f   CmRadixSort.obj
 0001:00004cb0       ?SetBuffers@RadixSort@Cm@physx@@QEAA_NPEAI00PEAPEAI@Z 0000000180005cb0 f   CmRadixSort.obj
 0001:00004cf0       ?Sort@RadixSort@Cm@physx@@QEAAAEAV123@PEBIIW4RadixHint@23@@Z 0000000180005cf0 f   CmRadixSort.obj
 0001:00005340       ?Sort@RadixSort@Cm@physx@@QEAAAEAV123@PEBMI@Z 0000000180006340 f   CmRadixSort.obj
 0001:00005aa0       ?Sort@RadixSortBuffered@Cm@physx@@QEAAAEAV123@PEBIIW4RadixHint@23@@Z 0000000180006aa0 f   CmRadixSort.obj
 0001:00005b40       ?Sort@RadixSortBuffered@Cm@physx@@QEAAAEAV123@PEBMI@Z 0000000180006b40 f   CmRadixSort.obj
 0001:00005bd0       ?invalidateRanks@RadixSort@Cm@physx@@QEAAXXZ 0000000180006bd0 f i CmRadixSort.obj
 0001:00005be0       ?reset@RadixSortBuffered@Cm@physx@@QEAAXXZ 0000000180006be0 f   CmRadixSort.obj
 0001:00005c60       ?ReadHeader@Cm@physx@@YA_NEEEEAEAIAEA_NAEAVPxInputStream@2@@Z 0000000180006c60 f   CmSerialize.obj
 0001:00005dc0       ?ReadIndices@Cm@physx@@YAXGIPEAGAEAVPxInputStream@2@_N@Z 0000000180006dc0 f   CmSerialize.obj
 0001:00005f10       ?StoreIndices@Cm@physx@@YAXGIPEBGAEAVPxOutputStream@2@_N@Z 0000000180006f10 f   CmSerialize.obj
 0001:00005fd0       ?WriteHeader@Cm@physx@@YA_NEEEEI_NAEAVPxOutputStream@2@@Z 0000000180006fd0 f   CmSerialize.obj
 0001:00006100       ?computeMaxIndex@physx@@YAGPEBGI@Z 0000000180007100 f   CmSerialize.obj
 0001:00006130       ?computeMaxIndex@physx@@YAIPEBII@Z 0000000180007130 f   CmSerialize.obj
 0001:00006160       ?readByteBuffer@physx@@YAXPEAEIAEAVPxInputStream@1@@Z 0000000180007160 f   CmSerialize.obj
 0001:00006160       ?writeByteBuffer@physx@@YAXPEBEIAEAVPxOutputStream@1@@Z 0000000180007160 f   CmSerialize.obj
 0001:00006180       ?readChunk@physx@@YAXAEAC000AEAVPxInputStream@1@@Z 0000000180007180 f   CmSerialize.obj
 0001:00006200       ?readDword@physx@@YAI_NAEAVPxInputStream@1@@Z 0000000180007200 f   CmSerialize.obj
 0001:00006260       ?readFloat@physx@@YAM_NAEAVPxInputStream@1@@Z 0000000180007260 f   CmSerialize.obj
 0001:000062c0       ?readFloatBuffer@physx@@YA_NPEAMI_NAEAVPxInputStream@1@@Z 00000001800072c0 f   CmSerialize.obj
 0001:00006340       ?readHeader@physx@@YA_NCCCCAEAIAEA_NAEAVPxInputStream@1@@Z 0000000180007340 f   CmSerialize.obj
 0001:00006490       ?readIndices@physx@@YAXIIPEAIAEAVPxInputStream@1@_N@Z 0000000180007490 f   CmSerialize.obj
 0001:00006580       ?readWord@physx@@YAG_NAEAVPxInputStream@1@@Z 0000000180007580 f   CmSerialize.obj
 0001:000065c0       ?readWordBuffer@physx@@YAXPEAGI_NAEAVPxInputStream@1@@Z 00000001800075c0 f   CmSerialize.obj
 0001:00006630       ?storeIndices@physx@@YAXIIPEBIAEAVPxOutputStream@1@_N@Z 0000000180007630 f   CmSerialize.obj
 0001:00006790       ?writeDword@physx@@YAXI_NAEAVPxOutputStream@1@@Z 0000000180007790 f   CmSerialize.obj
 0001:000067e0       ?writeFloat@physx@@YAXM_NAEAVPxOutputStream@1@@Z 00000001800077e0 f   CmSerialize.obj
 0001:00006830       ?writeFloatBuffer@physx@@YAXPEBMI_NAEAVPxOutputStream@1@@Z 0000000180007830 f   CmSerialize.obj
 0001:000068d0       ?writeHeader@physx@@YA_NCCCCI_NAEAVPxOutputStream@1@@Z 00000001800078d0 f   CmSerialize.obj
 0001:00006a00       ?writeWord@physx@@YAXG_NAEAVPxOutputStream@1@@Z 0000000180007a00 f   CmSerialize.obj
 0001:00006a40       ?writeWordBuffer@physx@@YAXPEBGI_NAEAVPxOutputStream@1@@Z 0000000180007a40 f   CmSerialize.obj
 0001:00006ac0       ??0PxRenderOutput@physx@@QEAA@AEAVPxRenderBuffer@1@@Z 0000000180007ac0 f i CmVisualization.obj
 0001:00006b10       ??0PxRenderOutput@physx@@QEAA@AEBV01@@Z 0000000180007b10 f i CmVisualization.obj
 0001:00006bb0       ??6PxRenderOutput@physx@@QEAAAEAV01@AEBV?$PxMat44T@M@1@@Z 0000000180007bb0 f i CmVisualization.obj
 0001:00006c20       ??6PxRenderOutput@physx@@QEAAAEAV01@AEBV?$PxTransformT@M@1@@Z 0000000180007c20 f i CmVisualization.obj
 0001:00006da0       ??6PxRenderOutput@physx@@QEAAAEAV01@AEBV?$PxVec3T@M@1@@Z 0000000180007da0 f i CmVisualization.obj
 0001:000070a0       ??6PxRenderOutput@physx@@QEAAAEAV01@I@Z 00000001800080a0 f i CmVisualization.obj
 0001:000070b0       ??6PxRenderOutput@physx@@QEAAAEAV01@W4Primitive@01@@Z 00000001800080b0 f i CmVisualization.obj
 0001:000070c0       ?outputCapsule@PxRenderOutput@physx@@QEAAAEAV12@MMAEBV?$PxMat44T@M@2@@Z 00000001800080c0 f i CmVisualization.obj
 0001:00007dd0       ?outputSegment@PxRenderOutput@physx@@QEAAXAEBV?$PxVec3T@M@2@0@Z 0000000180008dd0 f i CmVisualization.obj
 0001:00007e40       ?renderOutputDebugArrow@Cm@physx@@YAXAEAVPxRenderOutput@2@AEBUPxDebugArrow@2@@Z 0000000180008e40 f   CmVisualization.obj
 0001:000081e0       ?renderOutputDebugBasis@Cm@physx@@YAXAEAVPxRenderOutput@2@AEBUPxDebugBasis@2@@Z 00000001800091e0 f   CmVisualization.obj
 0001:000086d0       ?renderOutputDebugBox@Cm@physx@@YAXAEAVPxRenderOutput@2@AEBVPxBounds3@2@@Z 00000001800096d0 f   CmVisualization.obj
 0001:00008940       ?renderOutputDebugCircle@Cm@physx@@YAXAEAVPxRenderOutput@2@IM@Z 0000000180009940 f   CmVisualization.obj
 0001:00008a20       ?reservePoints@PxRenderOutput@physx@@QEAAPEAUPxDebugPoint@2@I@Z 0000000180009a20 f i CmVisualization.obj
 0001:00008a30       ?reserveSegments@PxRenderOutput@physx@@QEAAPEAUPxDebugLine@2@I@Z 0000000180009a30 f i CmVisualization.obj
 0001:00008a40       ?visualizeAngularLimit@Cm@physx@@YAXAEAVPxRenderOutput@2@MAEBV?$PxTransformT@M@2@MM_N@Z 0000000180009a40 f   CmVisualization.obj
 0001:00008be0       ?visualizeDoubleCone@Cm@physx@@YAXAEAVPxRenderOutput@2@MAEBV?$PxTransformT@M@2@M_N@Z 0000000180009be0 f   CmVisualization.obj
 0001:00008df0       ?visualizeJointFrames@Cm@physx@@YAXAEAVPxRenderOutput@2@MAEBV?$PxTransformT@M@2@1@Z 0000000180009df0 f   CmVisualization.obj
 0001:00009800       ?visualizeLimitCone@Cm@physx@@YAXAEAVPxRenderOutput@2@MAEBV?$PxTransformT@M@2@MM_N@Z 000000018000a800 f   CmVisualization.obj
 0001:00009a50       ?visualizeLinearLimit@Cm@physx@@YAXAEAVPxRenderOutput@2@MAEBV?$PxTransformT@M@2@1M_N@Z 000000018000aa50 f   CmVisualization.obj
 0001:0000a050       ??0CmModuleUpdateLoader@Cm@physx@@QEAA@PEBD@Z 000000018000b050 f   CmWindowsModuleUpdateLoader.obj
 0001:0000a090       ??1CmModuleUpdateLoader@Cm@physx@@QEAA@XZ 000000018000b090 f   CmWindowsModuleUpdateLoader.obj
 0001:0000a0c0       ?LoadModule@CmModuleUpdateLoader@Cm@physx@@QEAAPEAUHINSTANCE__@@PEBD0@Z 000000018000b0c0 f   CmWindowsModuleUpdateLoader.obj
 0001:0000a130       __local_stdio_printf_options 000000018000b130 f i CmWindowsModuleUpdateLoader.obj
 0001:0000a140       printf                     000000018000b140 f i CmWindowsModuleUpdateLoader.obj
 0001:0000a1a0       ?commonDelayHook@@YAP6A_JXZIPEAUDelayLoadInfo@@@Z 000000018000b1a0 f   CmWindowsDelayLoadHook.obj
 0001:0000a280       PxSetPhysXCommonDelayLoadHook 000000018000b280 f   CmWindowsDelayLoadHook.obj
 0001:0000a290       ??0?$PxQuatT@M@physx@@QEAA@AEBV?$PxMat33T@M@1@@Z 000000018000b290 f i GuBox.obj
 0001:0000a470       ??0Box@Gu@physx@@QEAA@AEBV012@@Z 000000018000b470 f i GuBox.obj
 0001:0000a470       ??4Box@Gu@physx@@QEAAAEBV012@AEBV012@@Z 000000018000b470 f i GuBox.obj
 0001:0000a4d0       ??0Box@Gu@physx@@QEAA@AEBV?$PxVec3T@M@2@0AEBV?$PxMat33T@M@2@@Z 000000018000b4d0 f i GuBox.obj
 0001:0000a540       ??0Box@Gu@physx@@QEAA@XZ   000000018000b540 f i GuBox.obj
 0001:0000a540       ?getAABB@AABBTreeBuildNode@Gu@physx@@QEBAAEBVPxBounds3@3@XZ 000000018000b540 f i GuMeshFactory.obj
 0001:0000a540       ??0BigConvexData@physx@@QEAA@W4PxEMPTY@1@@Z 000000018000b540 f i GuMetaData.obj
 0001:0000a540       ??0HeightFieldData@Gu@physx@@QEAA@W4PxEMPTY@2@@Z 000000018000b540 f i GuCCTSweepTests.obj
 0001:0000a540       ??$forward@_K@std@@YA$$QEA_KAEA_K@Z 000000018000b540 f i libvcruntime:undname.obj
 0001:0000a540       ??0AABBTreeBuildNode@Gu@physx@@QEAA@XZ 000000018000b540 f i GuMeshFactory.obj
 0001:0000a540       ?getPaddedBounds@HeightFieldData@Gu@physx@@QEBAAEBVCenterExtentsPadded@23@XZ 000000018000b540 f i GuCCTSweepTests.obj
 0001:0000a550       ?computeAABBExtent@Box@Gu@physx@@QEBA?AV?$PxVec3T@M@3@XZ 000000018000b550 f i GuBox.obj
 0001:0000a610       ?computeBoxPoints@Box@Gu@physx@@QEBAXPEIAV?$PxVec3T@M@3@@Z 000000018000b610 f i GuBox.obj
 0001:0000a650       ?computeOBBPoints@Gu@physx@@YAXPEIAV?$PxVec3T@M@2@AEBV32@1111@Z 000000018000b650 f   GuBox.obj
 0001:0000a8d0       ?create@Box@Gu@physx@@QEAAXAEBVCapsule@23@@Z 000000018000b8d0 f   GuBox.obj
 0001:0000ab00       ?getBoxEdges@Gu@physx@@YAPEBEXZ 000000018000bb00 f   GuBox.obj
 0001:0000ab10       ?getTransform@Box@Gu@physx@@QEBA?AV?$PxTransformT@M@3@XZ 000000018000bb10 f i GuBox.obj
 0001:0000ab70       ?isValid@Box@Gu@physx@@QEBA_NXZ 000000018000bb70 f i GuBox.obj
 0001:0000ab90       ?rotate@Box@Gu@physx@@QEBA?AV?$PxVec3T@M@3@AEBV43@@Z 000000018000bb90 f i GuBox.obj
 0001:0000ac20       ?rotateInv@Box@Gu@physx@@QEBA?AV?$PxVec3T@M@3@AEBV43@@Z 000000018000bc20 f i GuBox.obj
 0001:0000acb0       ?setAxes@Box@Gu@physx@@QEAAXAEBV?$PxVec3T@M@3@00@Z 000000018000bcb0 f i GuBox.obj
 0001:0000acf0       ?setEmpty@Box@Gu@physx@@QEAAXXZ 000000018000bcf0 f i GuBox.obj
 0001:0000ad30       ?transform@Box@Gu@physx@@QEBA?AV?$PxVec3T@M@3@AEBV43@@Z 000000018000bd30 f i GuBox.obj
 0001:0000add0       ?PxComputeBasisVectors@physx@@YAXAEBV?$PxVec3T@M@1@0AEAV21@11@Z 000000018000bdd0 f i GuCapsule.obj
 0001:0000af70       ?computeBoxAroundCapsule@Gu@physx@@YAXAEBVCapsule@12@AEAVBox@12@@Z 000000018000bf70 f   GuCapsule.obj
 0001:0000b0c0       ??0HeightFieldData@Gu@physx@@QEAA@$$QEAU012@@Z 000000018000c0c0 f i GuCCTSweepTests.obj
 0001:0000b0c0       ??0HeightFieldData@Gu@physx@@QEAA@AEBU012@@Z 000000018000c0c0 f i GuCCTSweepTests.obj
 0001:0000b0c0       ??4HeightFieldData@Gu@physx@@QEAAAEAU012@$$QEAU012@@Z 000000018000c0c0 f i GuCCTSweepTests.obj
 0001:0000b0c0       ??4HeightFieldData@Gu@physx@@QEAAAEAU012@AEBU012@@Z 000000018000c0c0 f i GuCCTSweepTests.obj
 0001:0000b120       ??0HeightFieldData@Gu@physx@@QEAA@XZ 000000018000c120 f i GuCCTSweepTests.obj
 0001:0000b130       ??0HeightFieldTraceUtil@Gu@physx@@QEAA@AEBVPxHeightFieldGeometry@2@@Z 000000018000c130 f i GuCCTSweepTests.obj
 0001:0000b130       ??0HeightFieldUtil@Gu@physx@@QEAA@AEBVPxHeightFieldGeometry@2@@Z 000000018000c130 f i GuCCTSweepTests.obj
 0001:0000b170       ??4HeightFieldTraceUtil@Gu@physx@@QEAAAEAV012@AEBV012@@Z 000000018000c170 f i GuCCTSweepTests.obj
 0001:0000b170       ??4AABBTreeBuildParams@Gu@physx@@QEAAAEAV012@AEBV012@@Z 000000018000c170 f i GuMeshFactory.obj
 0001:0000b170       ??4HeightFieldTraceUtil@Gu@physx@@QEAAAEAV012@$$QEAV012@@Z 000000018000c170 f i GuCCTSweepTests.obj
 0001:0000b170       ??4HeightFieldUtil@Gu@physx@@QEAAAEAV012@AEBV012@@Z 000000018000c170 f i GuCCTSweepTests.obj
 0001:0000b190       ??4HeightFieldUtil@Gu@physx@@QEAAAEAV012@$$QEAV012@@Z 000000018000c190 f i GuCCTSweepTests.obj
 0001:0000b1f0       ??_EOverlapCallback@PxBVH@physx@@UEAAPEAXI@Z 000000018000c1f0 f i GuQuerySystem.obj
 0001:0000b1f0       ??_GEntityReport@Gu@physx@@UEAAPEAXI@Z 000000018000c1f0 f i GuSweepsHF.obj
 0001:0000b1f0       ??_EEntityReport@Gu@physx@@UEAAPEAXI@Z 000000018000c1f0 f i GuSweepsHF.obj
 0001:0000b1f0       ??_GRemapCallback@RTreeCooker@physx@@UEAAPEAXI@Z 000000018000c1f0 f i GuCookingTriangleMesh.obj
 0001:0000b1f0       ??_EOverlapReport@Gu@physx@@UEAAPEAXI@Z 000000018000c1f0 f i GuCCTSweepTests.obj
 0001:0000b1f0       ??_GRaycastCallback@PxBVH@physx@@UEAAPEAXI@Z 000000018000c1f0 f i GuQuerySystem.obj
 0001:0000b1f0       ??_ERemapCallback@RTreeCooker@physx@@UEAAPEAXI@Z 000000018000c1f0 f i GuCookingTriangleMesh.obj
 0001:0000b1f0       ??_ERaycastCallback@PxBVH@physx@@UEAAPEAXI@Z 000000018000c1f0 f i GuQuerySystem.obj
 0001:0000b1f0       ??_GOverlapReport@Gu@physx@@UEAAPEAXI@Z 000000018000c1f0 f i GuCCTSweepTests.obj
 0001:0000b1f0       ??_GOverlapCallback@PxBVH@physx@@UEAAPEAXI@Z 000000018000c1f0 f i GuQuerySystem.obj
 0001:0000b220       ??_H@YAXPEAX_K1P6APEAX0@Z@Z 000000018000c220 f i GuCCTSweepTests.obj
 0001:0000b270       ?ceilUp@HeightFieldTraceUtil@Gu@physx@@SAMM@Z 000000018000c270 f i GuCCTSweepTests.obj
 0001:0000b2b0       ?floorDown@HeightFieldTraceUtil@Gu@physx@@SAMM@Z 000000018000c2b0 f i GuCCTSweepTests.obj
 0001:0000b2f0       ?getHeightAtShapePoint@HeightFieldUtil@Gu@physx@@QEBAMMM@Z 000000018000c2f0 f i GuCCTSweepTests.obj
 0001:0000b350       ?getHeightInternal2@HeightField@Gu@physx@@QEBAMIMM@Z 000000018000c350 f i GuCCTSweepTests.obj
 0001:0000b4c0       ?getNormalAtShapePoint@HeightFieldUtil@Gu@physx@@QEBA?AV?$PxVec3T@M@3@MM@Z 000000018000c4c0 f i GuCCTSweepTests.obj
 0001:0000b580       ?getNormal_2@HeightField@Gu@physx@@QEBA?AV?$PxVec3T@M@3@IMMMMM@Z 000000018000c580 f i GuCCTSweepTests.obj
 0001:0000b6a0       ?getOneOverColumnScale@HeightFieldUtil@Gu@physx@@QEBAMXZ 000000018000c6a0 f i GuCCTSweepTests.obj
 0001:0000b6b0       ?getOneOverHeightScale@HeightFieldUtil@Gu@physx@@QEBAMXZ 000000018000c6b0 f i GuCCTSweepTests.obj
 0001:0000b6c0       ?getOneOverRowScale@HeightFieldUtil@Gu@physx@@QEBAMXZ 000000018000c6c0 f i GuCCTSweepTests.obj
 0001:0000b6d0       ?hf2shapen@HeightFieldUtil@Gu@physx@@QEBA?AV?$PxVec3T@M@3@AEBV43@@Z 000000018000c6d0 f i GuCCTSweepTests.obj
 0001:0000b6d0       ?shape2hfp@HeightFieldUtil@Gu@physx@@QEBA?AV?$PxVec3T@M@3@AEBV43@@Z 000000018000c6d0 f i GuCCTSweepTests.obj
 0001:0000b710       ?hf2shapep@HeightFieldUtil@Gu@physx@@QEBA?AV?$PxVec3T@M@3@AEBV43@@Z 000000018000c710 f i GuCCTSweepTests.obj
 0001:0000b750       ?hf2worldn@HeightFieldUtil@Gu@physx@@QEBA?AV?$PxVec3T@M@3@AEBV?$PxTransformT@M@3@AEBV43@@Z 000000018000c750 f i GuCCTSweepTests.obj
 0001:0000b8c0       ?hf2worldp@HeightFieldUtil@Gu@physx@@QEBA?AV?$PxVec3T@M@3@AEBV?$PxTransformT@M@3@AEBV43@@Z 000000018000c8c0 f i GuCCTSweepTests.obj
 0001:0000ba40       ?overlapAABBTriangles0to1@HeightFieldUtil@Gu@physx@@QEBAXAEBV?$PxTransformT@M@3@AEBVPxBounds3@3@AEAVOverlapReport@23@I@Z 000000018000ca40 f i GuCCTSweepTests.obj
 0001:0000bdc0       ?overlapAABBTriangles@HeightFieldUtil@Gu@physx@@QEBAXAEBV?$PxTransformT@M@3@0AEBVPxBounds3@3@AEAVOverlapReport@23@I@Z 000000018000cdc0 f i GuCCTSweepTests.obj
 0001:0000c3d0       ?overlapAABBTriangles@HeightFieldUtil@Gu@physx@@QEBAXAEBV?$PxTransformT@M@3@AEBVPxBounds3@3@AEAVOverlapReport@23@I@Z 000000018000d3d0 f i GuCCTSweepTests.obj
 0001:0000ca80       ?sweepBoxTriangles_Precise@Gu@physx@@YA_NIPEBVPxTriangle@2@_NAEBVPxBoxGeometry@2@AEBV?$PxTransformT@M@2@AEBV?$PxVec3T@M@2@MAEAUPxGeomSweepHit@2@PEBIMV?$PxFlags@W4Enum@PxHitFlag@physx@@G@2@@Z 000000018000da80 f   GuCCTSweepTests.obj
 0001:0000d800       ?sweepBox_BoxGeom_Precise@@YA_NAEBVPxGeometry@physx@@AEBV?$PxTransformT@M@2@AEBVPxBoxGeometry@2@1AEBVBox@Gu@2@AEBV?$PxVec3T@M@2@MAEAUPxGeomSweepHit@2@V?$PxFlags@W4Enum@PxHitFlag@physx@@G@2@MPEAUPxQueryThreadContext@2@@Z 000000018000e800 f   GuCCTSweepTests.obj
 0001:0000d9c0       ?sweepBox_CapsuleGeom_Precise@@YA_NAEBVPxGeometry@physx@@AEBV?$PxTransformT@M@2@AEBVPxBoxGeometry@2@1AEBVBox@Gu@2@AEBV?$PxVec3T@M@2@MAEAUPxGeomSweepHit@2@V?$PxFlags@W4Enum@PxHitFlag@physx@@G@2@MPEAUPxQueryThreadContext@2@@Z 000000018000e9c0 f   GuCCTSweepTests.obj
 0001:0000dd90       ?sweepBox_HeightFieldGeom_Precise@@YA_NAEBVPxGeometry@physx@@AEBV?$PxTransformT@M@2@AEBVPxBoxGeometry@2@1AEBVBox@Gu@2@AEBV?$PxVec3T@M@2@MAEAUPxGeomSweepHit@2@V?$PxFlags@W4Enum@PxHitFlag@physx@@G@2@MPEAUPxQueryThreadContext@2@@Z 000000018000ed90 f   GuCCTSweepTests.obj
 0001:0000e590       ?sweepBox_SphereGeom_Precise@@YA_NAEBVPxGeometry@physx@@AEBV?$PxTransformT@M@2@AEBVPxBoxGeometry@2@1AEBVBox@Gu@2@AEBV?$PxVec3T@M@2@MAEAUPxGeomSweepHit@2@V?$PxFlags@W4Enum@PxHitFlag@physx@@G@2@MPEAUPxQueryThreadContext@2@@Z 000000018000f590 f   GuCCTSweepTests.obj
 0001:0000e870       ?sweepCapsule_BoxGeom_Precise@@YA_NAEBVPxGeometry@physx@@AEBV?$PxTransformT@M@2@AEBVPxCapsuleGeometry@2@1AEBVCapsule@Gu@2@AEBV?$PxVec3T@M@2@MAEAUPxGeomSweepHit@2@V?$PxFlags@W4Enum@PxHitFlag@physx@@G@2@MPEAUPxQueryThreadContext@2@@Z 000000018000f870 f   GuCCTSweepTests.obj
 0001:0000eed0       ??0?$CacheMap@UCachedEdge@Gu@physx@@$0IA@@Gu@physx@@QEAA@XZ 000000018000fed0 f i GuGeometryQuery.obj
 0001:0000ef90       ??0?$CacheMap@UCachedVertex@Gu@physx@@$0IA@@Gu@physx@@QEAA@XZ 000000018000ff90 f i GuGeometryQuery.obj
 0001:0000f050       ??0MultiplePersistentContactManifold@Gu@physx@@QEAA@XZ 0000000180010050 f i GuGeometryQuery.obj
 0001:0000f0a0       ??0PCMMeshContactGeneration@Gu@physx@@QEAA@AEBT__m128@@0AEBVPxTransformV@aos@2@1AEAVMultiplePersistentContactManifold@12@AEAVPxContactBuffer@2@PEAV?$PxInlineArray@I$0DMA@V?$PxReflectionAllocator@I@physx@@@2@PEAVPxRenderOutput@2@@Z 00000001800100a0 f i GuGeometryQuery.obj
 0001:0000f9c0       ??0PolygonalBox@Gu@physx@@QEAA@AEBV012@@Z 00000001800109c0 f i GuGeometryQuery.obj
 0001:0000fc40       ??4MultiplePersistentContactManifold@Gu@physx@@QEAAAEAV012@$$QEAV012@@Z 0000000180010c40 f i GuGeometryQuery.obj
 0001:0000ff50       ??4MultiplePersistentContactManifold@Gu@physx@@QEAAAEAV012@AEBV012@@Z 0000000180010f50 f i GuGeometryQuery.obj
 0001:0000ff70       ??_E?$SupportLocalImpl@VBoxV@Gu@physx@@@Gu@physx@@UEAAPEAXI@Z 0000000180010f70 f i GuGeometryQuery.obj
 0001:0000ff70       ??_E?$SupportLocalImpl@VConvexHullV@Gu@physx@@@Gu@physx@@UEAAPEAXI@Z 0000000180010f70 f i GuGeometryQuery.obj
 0001:0000ff70       ??_G?$SupportLocalImpl@VConvexHullV@Gu@physx@@@Gu@physx@@UEAAPEAXI@Z 0000000180010f70 f i GuGeometryQuery.obj
 0001:0000ff70       ??_G?$SupportLocalImpl@VConvexHullNoScaleV@Gu@physx@@@Gu@physx@@UEAAPEAXI@Z 0000000180010f70 f i GuMTD.obj
 0001:0000ff70       ??_G?$SupportLocalImpl@VTriangleV@Gu@physx@@@Gu@physx@@UEAAPEAXI@Z 0000000180010f70 f i GuPCMContactConvexCommon.obj
 0001:0000ff70       ??_G?$SupportLocalImpl@VBoxV@Gu@physx@@@Gu@physx@@UEAAPEAXI@Z 0000000180010f70 f i GuGeometryQuery.obj
 0001:0000ff70       ??_E?$SupportLocalImpl@VConvexHullNoScaleV@Gu@physx@@@Gu@physx@@UEAAPEAXI@Z 0000000180010f70 f i GuMTD.obj
 0001:0000ff70       ??_E?$SupportLocalImpl@VTriangleV@Gu@physx@@@Gu@physx@@UEAAPEAXI@Z 0000000180010f70 f i GuPCMContactConvexCommon.obj
 0001:0000ffa0       ??_GSupportLocal@Gu@physx@@UEAAPEAXI@Z 0000000180010fa0 f i GuGeometryQuery.obj
 0001:0000ffa0       ??_ESupportLocal@Gu@physx@@UEAAPEAXI@Z 0000000180010fa0 f i GuGeometryQuery.obj
 0001:0000ffd0       ?clearManifold@MultiplePersistentContactManifold@Gu@physx@@QEAAXXZ 0000000180010fd0 f i GuGeometryQuery.obj
 0001:00010030       ?computeGeomBounds@PxGeometryQuery@physx@@SAXAEAVPxBounds3@2@AEBVPxGeometry@2@AEBV?$PxTransformT@M@2@MMV?$PxFlags@W4Enum@PxGeometryQueryFlag@physx@@I@2@@Z 0000000180011030 f   GuGeometryQuery.obj
 0001:000100b0       ?computePenetration@PxGeometryQuery@physx@@SA_NAEAV?$PxVec3T@M@2@AEAMAEBVPxGeometry@2@AEBV?$PxTransformT@M@2@23V?$PxFlags@W4Enum@PxGeometryQueryFlag@physx@@I@2@@Z 00000001800110b0 f   GuGeometryQuery.obj
 0001:000101f0       ?doSupport@?$SupportLocalImpl@VBoxV@Gu@physx@@@Gu@physx@@UEBA?AT__m128@@AEBT4@@Z 00000001800111f0 f i GuGeometryQuery.obj
 0001:00010220       ?doSupport@?$SupportLocalImpl@VBoxV@Gu@physx@@@Gu@physx@@UEBAXAEBT__m128@@AEAT4@1@Z 0000000180011220 f i GuGeometryQuery.obj
 0001:00010270       ?doSupport@?$SupportLocalImpl@VConvexHullV@Gu@physx@@@Gu@physx@@UEBA?AT__m128@@AEBT4@@Z 0000000180011270 f i GuGeometryQuery.obj
 0001:00010350       ?doSupport@?$SupportLocalImpl@VConvexHullV@Gu@physx@@@Gu@physx@@UEBAXAEBT__m128@@AEAT4@1@Z 0000000180011350 f i GuGeometryQuery.obj
 0001:000106b0       ?generateTriangleContacts@PxGeometryQuery@physx@@SA_NAEBVPxGeometry@2@AEBV?$PxTransformT@M@2@QEBV?$PxVec3T@M@2@IMMMAEAVPxContactBuffer@2@@Z 00000001800116b0 f   GuGeometryQuery.obj
 0001:00011fb0       ?getEmptyManifold@MultiplePersistentContactManifold@Gu@physx@@QEAAPEAVSinglePersistentContactManifold@23@XZ 0000000180012fb0 f i GuGeometryQuery.obj
 0001:00011fd0       ?getManifold@MultiplePersistentContactManifold@Gu@physx@@QEAAPEAVSinglePersistentContactManifold@23@I@Z 0000000180012fd0 f i GuGeometryQuery.obj
 0001:00011ff0       ?getUniqueID@PxCustomGeometry@physx@@SAIXZ 0000000180012ff0 f   GuGeometryQuery.obj
 0001:00012010       ?getWorldBounds@PxGeometryQuery@physx@@SA?AVPxBounds3@2@AEBVPxGeometry@2@AEBV?$PxTransformT@M@2@M@Z 0000000180013010 f   GuGeometryQuery.obj
 0001:00012080       ?hillClimbing@ConvexHullV@Gu@physx@@QEBAIAEBT__m128@@@Z 0000000180013080 f i GuGeometryQuery.obj
 0001:000122b0       ?initialize@MultiplePersistentContactManifold@Gu@physx@@QEAAXXZ 00000001800132b0 f i GuGeometryQuery.obj
 0001:00012310       ?invalidate@MultiplePersistentContactManifold@Gu@physx@@QEAAIAEBVPxTransformV@aos@3@AEBT__m128@@1@Z 0000000180013310 f i GuGeometryQuery.obj
 0001:00012380       ?invalidate@MultiplePersistentContactManifold@Gu@physx@@QEAAIAEBVPxTransformV@aos@3@AEBT__m128@@@Z 0000000180013380 f i GuGeometryQuery.obj
 0001:000123f0       ?isUnit@?$PxQuatT@M@physx@@QEBA_NXZ 00000001800133f0 f i GuGeometryQuery.obj
 0001:000124b0       ?isValid@PxGeometryQuery@physx@@SA_NAEBVPxGeometry@2@@Z 00000001800134b0 f   GuGeometryQuery.obj
 0001:000127a0       ?maxTransformPositionDelta@MultiplePersistentContactManifold@Gu@physx@@QEAA?AT__m128@@AEBT4@@Z 00000001800137a0 f i GuGeometryQuery.obj
 0001:000127e0       ?maxTransformQuatDelta@MultiplePersistentContactManifold@Gu@physx@@QEAA?AT__m128@@AEBT4@@Z 00000001800137e0 f i GuGeometryQuery.obj
 0001:00012820       ?overlap@PxGeometryQuery@physx@@SA_NAEBVPxGeometry@2@AEBV?$PxTransformT@M@2@01V?$PxFlags@W4Enum@PxGeometryQueryFlag@physx@@I@2@PEAUPxQueryThreadContext@2@@Z 0000000180013820 f   GuGeometryQuery.obj
 0001:00012900       ?pointDistance@PxGeometryQuery@physx@@SAMAEBV?$PxVec3T@M@2@AEBVPxGeometry@2@AEBV?$PxTransformT@M@2@PEAV32@PEAIV?$PxFlags@W4Enum@PxGeometryQueryFlag@physx@@I@2@@Z 0000000180013900 f   GuGeometryQuery.obj
 0001:00013080       ?populateVerts@?$SupportLocalImpl@VBoxV@Gu@physx@@@Gu@physx@@UEBAXPEBEIPEBV?$PxVec3T@M@3@PEAT__m128@@@Z 0000000180014080 f i GuGeometryQuery.obj
 0001:000130c0       ?populateVerts@?$SupportLocalImpl@VConvexHullV@Gu@physx@@@Gu@physx@@UEBAXPEBEIPEBV?$PxVec3T@M@3@PEAT__m128@@@Z 00000001800140c0 f i GuGeometryQuery.obj
 0001:00013120       ?raycast@PxGeometryQuery@physx@@SAIAEBV?$PxVec3T@M@2@0AEBVPxGeometry@2@AEBV?$PxTransformT@M@2@MV?$PxFlags@W4Enum@PxHitFlag@physx@@G@2@IPEIAUPxGeomRaycastHit@2@IV?$PxFlags@W4Enum@PxGeometryQueryFlag@physx@@I@2@PEAUPxQueryThreadContext@2@@Z 0000000180014120 f   GuGeometryQuery.obj
 0001:00013220       ?reduceManifoldContactsInDifferentPatches@MultiplePersistentContactManifold@Gu@physx@@QEAAIPEAPEAUPCMContactPatch@23@IPEAVMeshPersistentContact@23@IAEBT__m128@@@Z 0000000180014220 f i GuGeometryQuery.obj
 0001:00013380       ?refineContactPatchConnective@MultiplePersistentContactManifold@Gu@physx@@QEAAXPEAPEAUPCMContactPatch@23@IPEAVMeshPersistentContact@23@AEBT__m128@@@Z 0000000180014380 f i GuGeometryQuery.obj
 0001:00013470       ?refreshManifold@MultiplePersistentContactManifold@Gu@physx@@QEAAXAEBVPxMatTransformV@aos@3@AEBT__m128@@1@Z 0000000180014470 f i GuGeometryQuery.obj
 0001:00013570       ?setRelativeTransform@MultiplePersistentContactManifold@Gu@physx@@QEAAXAEBVPxTransformV@aos@3@@Z 0000000180014570 f i GuGeometryQuery.obj
 0001:00013580       ?supportVertexIndex@ConvexHullV@Gu@physx@@QEBAIAEBT__m128@@@Z 0000000180014580 f i GuGeometryQuery.obj
 0001:00013800       ?sweep@PxGeometryQuery@physx@@SA_NAEBV?$PxVec3T@M@2@MAEBVPxGeometry@2@AEBV?$PxTransformT@M@2@12AEAUPxGeomSweepHit@2@V?$PxFlags@W4Enum@PxHitFlag@physx@@G@2@MV?$PxFlags@W4Enum@PxGeometryQueryFlag@physx@@I@2@PEAUPxQueryThreadContext@2@@Z 0000000180014800 f   GuGeometryQuery.obj
 0001:00013ca0       ?toBuffer@MultiplePersistentContactManifold@Gu@physx@@QEAAXPEIAE@Z 0000000180014ca0 f i GuGeometryQuery.obj
 0001:00013d80       ?computeBoxPoints@Gu@physx@@YAXAEBVPxBounds3@2@PEIAV?$PxVec3T@M@2@@Z 0000000180014d80 f   GuInternal.obj
 0001:00013e20       ?computeSweptBox@Gu@physx@@YAXAEAVBox@12@AEBV?$PxVec3T@M@2@1AEBV?$PxMat33T@M@2@1M@Z 0000000180014e20 f   GuInternal.obj
 0001:00014350       ?getPlane@Gu@physx@@YA?AVPxPlane@2@AEBV?$PxTransformT@M@2@@Z 0000000180015350 f   GuInternal.obj
 0001:000147d0       ??_GCallbackRaycast@RTree@Gu@physx@@UEAAPEAXI@Z 00000001800157d0 f i GuMidphaseRTree.obj
 0001:000147d0       ??_GPxInsertionCallback@physx@@MEAAPEAXI@Z 00000001800157d0 f i GuMeshFactory.obj
 0001:000147d0       ??_ECallbackRefit@RTree@Gu@physx@@UEAAPEAXI@Z 00000001800157d0 f i GuTriangleMeshRTree.obj
 0001:000147d0       ??_ECallbackRaycast@RTree@Gu@physx@@UEAAPEAXI@Z 00000001800157d0 f i GuMidphaseRTree.obj
 0001:000147d0       ??_EPxInsertionCallback@physx@@MEAAPEAXI@Z 00000001800157d0 f i GuMeshFactory.obj
 0001:000147d0       ??_GCallbackRefit@RTree@Gu@physx@@UEAAPEAXI@Z 00000001800157d0 f i GuTriangleMeshRTree.obj
 0001:00014800       ??$copy@V?$PxReflectionAllocator@USlab@NodeAllocator@Gu@physx@@@physx@@@?$PxArray@USlab@NodeAllocator@Gu@physx@@V?$PxReflectionAllocator@USlab@NodeAllocator@Gu@physx@@@4@@physx@@IEAAXAEBV01@@Z 0000000180015800 f i GuMeshFactory.obj
 0001:000148c0       ??0AABBTreeBounds@Gu@physx@@QEAA@XZ 00000001800158c0 f i GuMeshFactory.obj
 0001:000148d0       ??4AABBTreeBuildNode@Gu@physx@@QEAAAEAV012@AEBV012@@Z 00000001800158d0 f i GuMeshFactory.obj
 0001:000148d0       ??0AABBTreeBuildNode@Gu@physx@@QEAA@AEBV012@@Z 00000001800158d0 f i GuMeshFactory.obj
 0001:00014910       ??0AABBTreeBuildParams@Gu@physx@@QEAA@IIPEBVAABBTreeBounds@12@W4BVHBuildStrategy@12@@Z 0000000180015910 f i GuMeshFactory.obj
 0001:00014930       ??0MeshFactory@Gu@physx@@QEAA@XZ 0000000180015930 f   GuMeshFactory.obj
 0001:00014b30       ??0NodeAllocator@Gu@physx@@QEAA@AEBV012@@Z 0000000180015b30 f i GuMeshFactory.obj
 0001:00014b70       ??0TriangleMeshData@Gu@physx@@QEAA@XZ 0000000180015b70 f i GuMeshFactory.obj
 0001:00014c80       ??1AABBTreeBounds@Gu@physx@@QEAA@XZ 0000000180015c80 f i GuMeshFactory.obj
 0001:00014c90       ?reset@AABBTreeBuildParams@Gu@physx@@QEAAXXZ 0000000180015c90 f i GuMeshFactory.obj
 0001:00014c90       ??1AABBTreeBuildParams@Gu@physx@@QEAA@XZ 0000000180015c90 f i GuMeshFactory.obj
 0001:00014ce0       ??1CollisionMeshMappingData@Gu@physx@@UEAA@XZ 0000000180015ce0 f i GuMeshFactory.obj
 0001:00014e20       ??1MeshDataBase@Gu@physx@@UEAA@XZ 0000000180015e20 f i GuMeshFactory.obj
 0001:00014f60       ??1MeshFactory@Gu@physx@@MEAA@XZ 0000000180015f60 f   GuMeshFactory.obj
 0001:00015090       ??1RTreeTriangleData@Gu@physx@@UEAA@XZ 0000000180016090 f i GuMeshFactory.obj
 0001:00015100       ??1SoftBodyCollisionData@Gu@physx@@UEAA@XZ 0000000180016100 f i GuMeshFactory.obj
 0001:00015230       ??1SoftBodySimulationData@Gu@physx@@UEAA@XZ 0000000180016230 f i GuMeshFactory.obj
 0001:00015340       ??1TetrahedronMeshData@Gu@physx@@QEAA@XZ 0000000180016340 f i GuMeshFactory.obj
 0001:000153d0       ??1TriangleMeshData@Gu@physx@@UEAA@XZ 00000001800163d0 f i GuMeshFactory.obj
 0001:00015500       ??4NodeAllocator@Gu@physx@@QEAAAEAV012@AEBV012@@Z 0000000180016500 f i GuMeshFactory.obj
 0001:000155b0       ??_EMeshFactory@Gu@physx@@MEAAPEAXI@Z 00000001800165b0 f i GuMeshFactory.obj
 0001:000156c0       ??_FAABBTreeBuildParams@Gu@physx@@QEAAXXZ 00000001800166c0 f i GuMeshFactory.obj
 0001:000156e0       ??_EBV4TriangleData@Gu@physx@@UEAAPEAXI@Z 00000001800166e0 f i GuMeshFactory.obj
 0001:000156e0       ??_GBV4TriangleData@Gu@physx@@UEAAPEAXI@Z 00000001800166e0 f i GuMeshFactory.obj
 0001:00015770       ??_ECollisionMeshMappingData@Gu@physx@@UEAAPEAXI@Z 0000000180016770 f i GuMeshFactory.obj
 0001:00015770       ??_GCollisionMeshMappingData@Gu@physx@@UEAAPEAXI@Z 0000000180016770 f i GuMeshFactory.obj
 0001:000157e0       ??_GMeshDataBase@Gu@physx@@UEAAPEAXI@Z 00000001800167e0 f i GuMeshFactory.obj
 0001:000157e0       ??_EMeshDataBase@Gu@physx@@UEAAPEAXI@Z 00000001800167e0 f i GuMeshFactory.obj
 0001:00015850       ??_EPxCollisionMeshMappingData@physx@@UEAAPEAXI@Z 0000000180016850 f i GuMeshFactory.obj
 0001:00015850       ??_GPxCollisionMeshMappingData@physx@@UEAAPEAXI@Z 0000000180016850 f i GuMeshFactory.obj
 0001:000158a0       ??_ERTreeTriangleData@Gu@physx@@UEAAPEAXI@Z 00000001800168a0 f i GuMeshFactory.obj
 0001:000158a0       ??_GRTreeTriangleData@Gu@physx@@UEAAPEAXI@Z 00000001800168a0 f i GuMeshFactory.obj
 0001:00015950       ??_GSoftBodyCollisionData@Gu@physx@@UEAAPEAXI@Z 0000000180016950 f i GuMeshFactory.obj
 0001:00015950       ??_ESoftBodyCollisionData@Gu@physx@@UEAAPEAXI@Z 0000000180016950 f i GuMeshFactory.obj
 0001:000159c0       ??_ESoftBodySimulationData@Gu@physx@@UEAAPEAXI@Z 00000001800169c0 f i GuMeshFactory.obj
 0001:000159c0       ??_GSoftBodySimulationData@Gu@physx@@UEAAPEAXI@Z 00000001800169c0 f i GuMeshFactory.obj
 0001:00015a30       ??_ETriangleMeshData@Gu@physx@@UEAAPEAXI@Z 0000000180016a30 f i GuMeshFactory.obj
 0001:00015a30       ??_GTriangleMeshData@Gu@physx@@UEAAPEAXI@Z 0000000180016a30 f i GuMeshFactory.obj
 0001:00015aa0       ?__global_delete@@YAXPEAX_K@Z 0000000180016aa0 f i GuMeshFactory.obj
 0001:00015aa0       ??_V@YAXPEAX_K@Z           0000000180016aa0 f i LIBCMT:delete_array_size.obj
 0001:00015ab0       ?addBVH@MeshFactory@Gu@physx@@QEAAXPEAVBVH@23@_N@Z 0000000180016ab0 f   GuMeshFactory.obj
 0001:00015b30       ?addConvexMesh@MeshFactory@Gu@physx@@QEAAXPEAVConvexMesh@23@_N@Z 0000000180016b30 f   GuMeshFactory.obj
 0001:00015bb0       ?addFactoryListener@MeshFactory@Gu@physx@@QEAAXAEAVMeshFactoryListener@23@@Z 0000000180016bb0 f   GuMeshFactory.obj
 0001:00015c20       ?addHeightField@MeshFactory@Gu@physx@@QEAAXPEAVHeightField@23@_N@Z 0000000180016c20 f   GuMeshFactory.obj
 0001:00015ca0       ?addSoftBodyMesh@MeshFactory@Gu@physx@@QEAAXPEAVSoftBodyMesh@23@_N@Z 0000000180016ca0 f   GuMeshFactory.obj
 0001:00015d20       ?addTetrahedronMesh@MeshFactory@Gu@physx@@QEAAXPEAVTetrahedronMesh@23@_N@Z 0000000180016d20 f   GuMeshFactory.obj
 0001:00015da0       ?addTriangleMesh@MeshFactory@Gu@physx@@QEAAXPEAVTriangleMesh@23@_N@Z 0000000180016da0 f   GuMeshFactory.obj
 0001:00015e20       ?allocate@?$PxArray@USlab@NodeAllocator@Gu@physx@@V?$PxReflectionAllocator@USlab@NodeAllocator@Gu@physx@@@4@@physx@@IEAAPEAUSlab@NodeAllocator@Gu@2@I@Z 0000000180016e20 f i GuMeshFactory.obj
 0001:00015ec0       ?allocateAdjacencies@TriangleMeshData@Gu@physx@@QEAAPEAIXZ 0000000180016ec0 f i GuMeshFactory.obj
 0001:00015f30       ?allocateExtraTrigData@TriangleMeshData@Gu@physx@@QEAAPEAEXZ 0000000180016f30 f i GuMeshFactory.obj
 0001:00015fa0       ?allocateFaceRemap@TriangleMeshData@Gu@physx@@QEAAPEAIXZ 0000000180016fa0 f i GuMeshFactory.obj
 0001:00016010       ?allocateGridModelData@SoftBodySimulationData@Gu@physx@@QEAAXIIIIIII@Z 0000000180017010 f i GuMeshFactory.obj
 0001:00016280       ?allocateMaterials@TetrahedronMeshData@Gu@physx@@QEAAPEAGXZ 0000000180017280 f i GuMeshFactory.obj
 0001:000162f0       ?allocateMaterials@TriangleMeshData@Gu@physx@@QEAAPEAGXZ 00000001800172f0 f i GuMeshFactory.obj
 0001:00016360       ?allocateTetrahedrons@TetrahedronMeshData@Gu@physx@@QEAAXII@Z 0000000180017360 f i GuMeshFactory.obj
 0001:000163f0       ?allocateTriangles@TriangleMeshData@Gu@physx@@QEAAPEAXI_NI@Z 00000001800173f0 f i GuMeshFactory.obj
 0001:000164e0       ?allocateVertices@MeshDataBase@Gu@physx@@QEAAPEAV?$PxVec3T@M@3@I@Z 00000001800174e0 f i GuMeshFactory.obj
 0001:00016550       ?allocateVertices@TetrahedronMeshData@Gu@physx@@QEAAPEAV?$PxVec3T@M@3@II@Z 0000000180017550 f i GuMeshFactory.obj
 0001:000165f0       ?allocatemappingData@CollisionMeshMappingData@Gu@physx@@QEAAXIIII@Z 00000001800175f0 f i GuMeshFactory.obj
 0001:000167c0       ?create@?$PxHashBase@PEAVHeightField@Gu@physx@@PEAV123@U?$PxHash@PEAVHeightField@Gu@physx@@@3@UGetKey@?$PxHashSetBase@PEAVHeightField@Gu@physx@@U?$PxHash@PEAVHeightField@Gu@physx@@@3@VPxAllocator@3@$00@3@VPxAllocator@3@$00@physx@@QEAAPEAPEAVHeightField@Gu@2@AEBQEAV342@AEA_N@Z 00000001800177c0 f i GuMeshFactory.obj
 0001:000167c0       ?create@?$PxHashBase@PEAVBVH@Gu@physx@@PEAV123@U?$PxHash@PEAVBVH@Gu@physx@@@3@UGetKey@?$PxHashSetBase@PEAVBVH@Gu@physx@@U?$PxHash@PEAVBVH@Gu@physx@@@3@VPxAllocator@3@$00@3@VPxAllocator@3@$00@physx@@QEAAPEAPEAVBVH@Gu@2@AEBQEAV342@AEA_N@Z 00000001800177c0 f i GuMeshFactory.obj
 0001:000167c0       ?create@?$PxHashBase@PEAVTriangleMesh@Gu@physx@@PEAV123@U?$PxHash@PEAVTriangleMesh@Gu@physx@@@3@UGetKey@?$PxHashSetBase@PEAVTriangleMesh@Gu@physx@@U?$PxHash@PEAVTriangleMesh@Gu@physx@@@3@VPxAllocator@3@$00@3@VPxAllocator@3@$00@physx@@QEAAPEAPEAVTriangleMesh@Gu@2@AEBQEAV342@AEA_N@Z 00000001800177c0 f i GuMeshFactory.obj
 0001:000167c0       ?create@?$PxHashBase@PEAVConvexMesh@Gu@physx@@PEAV123@U?$PxHash@PEAVConvexMesh@Gu@physx@@@3@UGetKey@?$PxHashSetBase@PEAVConvexMesh@Gu@physx@@U?$PxHash@PEAVConvexMesh@Gu@physx@@@3@VPxAllocator@3@$00@3@VPxAllocator@3@$00@physx@@QEAAPEAPEAVConvexMesh@Gu@2@AEBQEAV342@AEA_N@Z 00000001800177c0 f i GuMeshFactory.obj
 0001:000167c0       ?create@?$PxHashBase@PEAVSoftBodyMesh@Gu@physx@@PEAV123@U?$PxHash@PEAVSoftBodyMesh@Gu@physx@@@3@UGetKey@?$PxHashSetBase@PEAVSoftBodyMesh@Gu@physx@@U?$PxHash@PEAVSoftBodyMesh@Gu@physx@@@3@VPxAllocator@3@$00@3@VPxAllocator@3@$00@physx@@QEAAPEAPEAVSoftBodyMesh@Gu@2@AEBQEAV342@AEA_N@Z 00000001800177c0 f i GuMeshFactory.obj
 0001:000167c0       ?create@?$PxHashBase@PEAVTetrahedronMesh@Gu@physx@@PEAV123@U?$PxHash@PEAVTetrahedronMesh@Gu@physx@@@3@UGetKey@?$PxHashSetBase@PEAVTetrahedronMesh@Gu@physx@@U?$PxHash@PEAVTetrahedronMesh@Gu@physx@@@3@VPxAllocator@3@$00@3@VPxAllocator@3@$00@physx@@QEAAPEAPEAVTetrahedronMesh@Gu@2@AEBQEAV342@AEA_N@Z 00000001800177c0 f i GuMeshFactory.obj
 0001:00016960       ?createBVH@MeshFactory@Gu@physx@@IEAAPEAVPxBVH@3@AEAVBVHData@23@@Z 0000000180017960 f   GuMeshFactory.obj
 0001:00016a60       ?createBVH@MeshFactory@Gu@physx@@QEAAPEAVPxBVH@3@AEAVPxInputStream@3@@Z 0000000180017a60 f   GuMeshFactory.obj
 0001:00016b80       ?createBVH@MeshFactory@Gu@physx@@QEAAPEAVPxBVH@3@PEAX@Z 0000000180017b80 f   GuMeshFactory.obj
 0001:00016b90       ?createConvexMesh@MeshFactory@Gu@physx@@IEAAPEAVPxConvexMesh@3@AEAUConvexHullInitData@23@@Z 0000000180017b90 f   GuMeshFactory.obj
 0001:00016c90       ?createConvexMesh@MeshFactory@Gu@physx@@QEAAPEAVPxConvexMesh@3@AEAVPxInputStream@3@@Z 0000000180017c90 f   GuMeshFactory.obj
 0001:00016db0       ?createConvexMesh@MeshFactory@Gu@physx@@QEAAPEAVPxConvexMesh@3@PEAX@Z 0000000180017db0 f   GuMeshFactory.obj
 0001:00016dc0       ?createHeightField@MeshFactory@Gu@physx@@QEAAPEAVPxHeightField@3@AEAVPxInputStream@3@@Z 0000000180017dc0 f   GuMeshFactory.obj
 0001:00016ee0       ?createHeightField@MeshFactory@Gu@physx@@QEAAPEAVPxHeightField@3@PEAX@Z 0000000180017ee0 f   GuMeshFactory.obj
 0001:00016fe0       ?createSoftBodyMesh@MeshFactory@Gu@physx@@IEAAPEAVPxSoftBodyMesh@3@AEAVSoftBodyMeshData@23@@Z 0000000180017fe0 f   GuMeshFactory.obj
 0001:000170e0       ?createSoftBodyMesh@MeshFactory@Gu@physx@@QEAAPEAVPxSoftBodyMesh@3@AEAVPxInputStream@3@@Z 00000001800180e0 f   GuMeshFactory.obj
 0001:000176a0       ?createSoftBodyMesh@MeshFactory@Gu@physx@@QEAAPEAVPxSoftBodyMesh@3@PEAX@Z 00000001800186a0 f   GuMeshFactory.obj
 0001:000176b0       ?createTetrahedronMesh@MeshFactory@Gu@physx@@IEAAPEAVPxTetrahedronMesh@3@AEAVTetrahedronMeshData@23@@Z 00000001800186b0 f   GuMeshFactory.obj
 0001:000177a0       ?createTetrahedronMesh@MeshFactory@Gu@physx@@QEAAPEAVPxTetrahedronMesh@3@AEAVPxInputStream@3@@Z 00000001800187a0 f   GuMeshFactory.obj
 0001:00017800       ?createTetrahedronMesh@MeshFactory@Gu@physx@@QEAAPEAVPxTetrahedronMesh@3@PEAX@Z 0000000180018800 f   GuMeshFactory.obj
 0001:00017810       ?createTriangleMesh@MeshFactory@Gu@physx@@IEAAPEAVPxTriangleMesh@3@AEAVTriangleMeshData@23@@Z 0000000180018810 f   GuMeshFactory.obj
 0001:000179a0       ?createTriangleMesh@MeshFactory@Gu@physx@@QEAAPEAVPxTriangleMesh@3@AEAVPxInputStream@3@@Z 00000001800189a0 f   GuMeshFactory.obj
 0001:00017a00       ?createTriangleMesh@MeshFactory@Gu@physx@@QEAAPEAVPxTriangleMesh@3@PEAX@Z 0000000180018a00 f   GuMeshFactory.obj
 0001:00017a10       ?erase@?$PxHashBase@PEAVHeightField@Gu@physx@@PEAV123@U?$PxHash@PEAVHeightField@Gu@physx@@@3@UGetKey@?$PxHashSetBase@PEAVHeightField@Gu@physx@@U?$PxHash@PEAVHeightField@Gu@physx@@@3@VPxAllocator@3@$00@3@VPxAllocator@3@$00@physx@@QEAA_NAEBQEAVHeightField@Gu@2@@Z 0000000180018a10 f i GuMeshFactory.obj
 0001:00017a10       ?erase@?$PxHashBase@PEAVSoftBodyMesh@Gu@physx@@PEAV123@U?$PxHash@PEAVSoftBodyMesh@Gu@physx@@@3@UGetKey@?$PxHashSetBase@PEAVSoftBodyMesh@Gu@physx@@U?$PxHash@PEAVSoftBodyMesh@Gu@physx@@@3@VPxAllocator@3@$00@3@VPxAllocator@3@$00@physx@@QEAA_NAEBQEAVSoftBodyMesh@Gu@2@@Z 0000000180018a10 f i GuMeshFactory.obj
 0001:00017a10       ?erase@?$PxHashBase@PEAVTriangleMesh@Gu@physx@@PEAV123@U?$PxHash@PEAVTriangleMesh@Gu@physx@@@3@UGetKey@?$PxHashSetBase@PEAVTriangleMesh@Gu@physx@@U?$PxHash@PEAVTriangleMesh@Gu@physx@@@3@VPxAllocator@3@$00@3@VPxAllocator@3@$00@physx@@QEAA_NAEBQEAVTriangleMesh@Gu@2@@Z 0000000180018a10 f i GuMeshFactory.obj
 0001:00017a10       ?erase@?$PxHashBase@PEAVConvexMesh@Gu@physx@@PEAV123@U?$PxHash@PEAVConvexMesh@Gu@physx@@@3@UGetKey@?$PxHashSetBase@PEAVConvexMesh@Gu@physx@@U?$PxHash@PEAVConvexMesh@Gu@physx@@@3@VPxAllocator@3@$00@3@VPxAllocator@3@$00@physx@@QEAA_NAEBQEAVConvexMesh@Gu@2@@Z 0000000180018a10 f i GuMeshFactory.obj
 0001:00017a10       ?erase@?$PxHashBase@PEAVTetrahedronMesh@Gu@physx@@PEAV123@U?$PxHash@PEAVTetrahedronMesh@Gu@physx@@@3@UGetKey@?$PxHashSetBase@PEAVTetrahedronMesh@Gu@physx@@U?$PxHash@PEAVTetrahedronMesh@Gu@physx@@@3@VPxAllocator@3@$00@3@VPxAllocator@3@$00@physx@@QEAA_NAEBQEAVTetrahedronMesh@Gu@2@@Z 0000000180018a10 f i GuMeshFactory.obj
 0001:00017a10       ?erase@?$PxHashBase@PEAVBVH@Gu@physx@@PEAV123@U?$PxHash@PEAVBVH@Gu@physx@@@3@UGetKey@?$PxHashSetBase@PEAVBVH@Gu@physx@@U?$PxHash@PEAVBVH@Gu@physx@@@3@VPxAllocator@3@$00@3@VPxAllocator@3@$00@physx@@QEAA_NAEBQEAVBVH@Gu@2@@Z 0000000180018a10 f i GuMeshFactory.obj
 0001:00017b80       ?getBVHs@MeshFactory@Gu@physx@@QEBAIPEAPEAVPxBVH@3@II@Z 0000000180018b80 f   GuMeshFactory.obj
 0001:00017c20       ?getBounds@AABBTreeBounds@Gu@physx@@QEAAPEAVPxBounds3@3@XZ 0000000180018c20 f i GuMeshFactory.obj
 0001:00017c20       ?getBounds@AABBTreeBounds@Gu@physx@@QEBAPEBVPxBounds3@3@XZ 0000000180018c20 f i GuMeshFactory.obj
 0001:00017c30       ?getConvexMeshes@MeshFactory@Gu@physx@@QEBAIPEAPEAVPxConvexMesh@3@II@Z 0000000180018c30 f   GuMeshFactory.obj
 0001:00017cd0       ?getHeightFields@MeshFactory@Gu@physx@@QEBAIPEAPEAVPxHeightField@3@II@Z 0000000180018cd0 f   GuMeshFactory.obj
 0001:00017d70       ?getNbBVHs@MeshFactory@Gu@physx@@QEBAIXZ 0000000180018d70 f   GuMeshFactory.obj
 0001:00017db0       ?getNbConvexMeshes@MeshFactory@Gu@physx@@QEBAIXZ 0000000180018db0 f   GuMeshFactory.obj
 0001:00017df0       ?getNbHeightFields@MeshFactory@Gu@physx@@QEBAIXZ 0000000180018df0 f   GuMeshFactory.obj
 0001:00017e30       ?getNbPrimitives@AABBTreeBuildNode@Gu@physx@@QEBAIXZ 0000000180018e30 f i GuMeshFactory.obj
 0001:00017e30       ?getNbRuntimePrimitives@AABBTreeBuildNode@Gu@physx@@QEBAIXZ 0000000180018e30 f i GuMeshFactory.obj
 0001:00017e40       ?getNbSoftBodyMeshes@MeshFactory@Gu@physx@@QEBAIXZ 0000000180018e40 f   GuMeshFactory.obj
 0001:00017e80       ?getNbTetrahedronMeshes@MeshFactory@Gu@physx@@QEBAIXZ 0000000180018e80 f   GuMeshFactory.obj
 0001:00017ec0       ?getNbTriangleMeshes@MeshFactory@Gu@physx@@QEBAIXZ 0000000180018ec0 f   GuMeshFactory.obj
 0001:00017f00       ?getNeg@AABBTreeBuildNode@Gu@physx@@QEBAPEBV123@XZ 0000000180018f00 f i GuMeshFactory.obj
 0001:00017f20       ?getPrimitives@AABBTreeBuildNode@Gu@physx@@QEAAPEAIPEAI@Z 0000000180018f20 f i GuMeshFactory.obj
 0001:00017f20       ?getPrimitives@AABBTreeBuildNode@Gu@physx@@QEBAPEBIPEBI@Z 0000000180018f20 f i GuMeshFactory.obj
 0001:00017f30       ?getSoftBodyMeshes@MeshFactory@Gu@physx@@QEBAIPEAPEAVPxSoftBodyMesh@3@II@Z 0000000180018f30 f   GuMeshFactory.obj
 0001:00017fd0       ?getTetrahedronMeshes@MeshFactory@Gu@physx@@QEBAIPEAPEAVPxTetrahedronMesh@3@II@Z 0000000180018fd0 f   GuMeshFactory.obj
 0001:00018060       ?getTriangleMeshes@MeshFactory@Gu@physx@@QEBAIPEAPEAVPxTriangleMesh@3@II@Z 0000000180019060 f   GuMeshFactory.obj
 0001:000180f0       ?growAndPushBack@?$PxArray@PEAVMeshFactoryListener@Gu@physx@@V?$PxReflectionAllocator@PEAVMeshFactoryListener@Gu@physx@@@3@@physx@@IEAAAEAPEAVMeshFactoryListener@Gu@2@AEBQEAV342@@Z 00000001800190f0 f i GuMeshFactory.obj
 0001:00018210       ?isLeaf@AABBTreeBuildNode@Gu@physx@@QEBA_NXZ 0000000180019210 f i GuMeshFactory.obj
 0001:00019ca0       ?moveFrom@AABBTreeBounds@Gu@physx@@QEAAXAEAV123@@Z 000000018001aca0 f i GuMeshFactory.obj
 0001:00019cb0       ?notifyFactoryListener@MeshFactory@Gu@physx@@QEAAXPEBVPxBase@3@G@Z 000000018001acb0 f   GuMeshFactory.obj
 0001:00019d20       ?ownsMemory@AABBTreeBounds@Gu@physx@@QEBA_NXZ 000000018001ad20 f i GuMeshFactory.obj
 0001:00019fa0       ?recreate@?$PxArray@USlab@NodeAllocator@Gu@physx@@V?$PxReflectionAllocator@USlab@NodeAllocator@Gu@physx@@@4@@physx@@IEAAXI@Z 000000018001afa0 f i GuMeshFactory.obj
 0001:0001a050       ?release@CollisionMeshMappingData@Gu@physx@@UEAAXXZ 000000018001b050 f i GuMeshFactory.obj
 0001:0001a070       ?release@MeshFactory@Gu@physx@@QEAAXXZ 000000018001b070 f   GuMeshFactory.obj
 0001:0001a160       ?remove@MeshFactory@Gu@physx@@QEAA_NAEAVPxBase@3@@Z 000000018001b160 f   GuMeshFactory.obj
 0001:0001a260       ?removeBVH@MeshFactory@Gu@physx@@QEAA_NAEAVPxBVH@3@@Z 000000018001b260 f   GuMeshFactory.obj
 0001:0001a2b0       ?removeConvexMesh@MeshFactory@Gu@physx@@QEAA_NAEAVPxConvexMesh@3@@Z 000000018001b2b0 f   GuMeshFactory.obj
 0001:0001a300       ?removeFactoryListener@MeshFactory@Gu@physx@@QEAAXAEAVMeshFactoryListener@23@@Z 000000018001b300 f   GuMeshFactory.obj
 0001:0001a390       ?removeHeightField@MeshFactory@Gu@physx@@QEAA_NAEAVPxHeightField@3@@Z 000000018001b390 f   GuMeshFactory.obj
 0001:0001a3e0       ?removeSoftBodyMesh@MeshFactory@Gu@physx@@QEAA_NAEAVPxSoftBodyMesh@3@@Z 000000018001b3e0 f   GuMeshFactory.obj
 0001:0001a430       ?removeTetrahedronMesh@MeshFactory@Gu@physx@@QEAA_NAEAVPxTetrahedronMesh@3@@Z 000000018001b430 f   GuMeshFactory.obj
 0001:0001a480       ?removeTriangleMesh@MeshFactory@Gu@physx@@QEAA_NAEAVPxTriangleMesh@3@@Z 000000018001b480 f   GuMeshFactory.obj
 0001:0001a4d0       ?reserveInternal@?$PxHashBase@PEAVConvexMesh@Gu@physx@@PEAV123@U?$PxHash@PEAVConvexMesh@Gu@physx@@@3@UGetKey@?$PxHashSetBase@PEAVConvexMesh@Gu@physx@@U?$PxHash@PEAVConvexMesh@Gu@physx@@@3@VPxAllocator@3@$00@3@VPxAllocator@3@$00@physx@@AEAAXI@Z 000000018001b4d0 f i GuMeshFactory.obj
 0001:0001a4d0       ?reserveInternal@?$PxHashBase@PEAVTetrahedronMesh@Gu@physx@@PEAV123@U?$PxHash@PEAVTetrahedronMesh@Gu@physx@@@3@UGetKey@?$PxHashSetBase@PEAVTetrahedronMesh@Gu@physx@@U?$PxHash@PEAVTetrahedronMesh@Gu@physx@@@3@VPxAllocator@3@$00@3@VPxAllocator@3@$00@physx@@AEAAXI@Z 000000018001b4d0 f i GuMeshFactory.obj
 0001:0001a4d0       ?reserveInternal@?$PxHashBase@PEAVTriangleMesh@Gu@physx@@PEAV123@U?$PxHash@PEAVTriangleMesh@Gu@physx@@@3@UGetKey@?$PxHashSetBase@PEAVTriangleMesh@Gu@physx@@U?$PxHash@PEAVTriangleMesh@Gu@physx@@@3@VPxAllocator@3@$00@3@VPxAllocator@3@$00@physx@@AEAAXI@Z 000000018001b4d0 f i GuMeshFactory.obj
 0001:0001a4d0       ?reserveInternal@?$PxHashBase@PEAVBVH@Gu@physx@@PEAV123@U?$PxHash@PEAVBVH@Gu@physx@@@3@UGetKey@?$PxHashSetBase@PEAVBVH@Gu@physx@@U?$PxHash@PEAVBVH@Gu@physx@@@3@VPxAllocator@3@$00@3@VPxAllocator@3@$00@physx@@AEAAXI@Z 000000018001b4d0 f i GuMeshFactory.obj
 0001:0001a4d0       ?reserveInternal@?$PxHashBase@PEAVHeightField@Gu@physx@@PEAV123@U?$PxHash@PEAVHeightField@Gu@physx@@@3@UGetKey@?$PxHashSetBase@PEAVHeightField@Gu@physx@@U?$PxHash@PEAVHeightField@Gu@physx@@@3@VPxAllocator@3@$00@3@VPxAllocator@3@$00@physx@@AEAAXI@Z 000000018001b4d0 f i GuMeshFactory.obj
 0001:0001a4d0       ?reserveInternal@?$PxHashBase@PEAVSoftBodyMesh@Gu@physx@@PEAV123@U?$PxHash@PEAVSoftBodyMesh@Gu@physx@@@3@UGetKey@?$PxHashSetBase@PEAVSoftBodyMesh@Gu@physx@@U?$PxHash@PEAVSoftBodyMesh@Gu@physx@@@3@VPxAllocator@3@$00@3@VPxAllocator@3@$00@physx@@AEAAXI@Z 000000018001b4d0 f i GuMeshFactory.obj
 0001:0001a6a0       ?setBounds@AABBTreeBounds@Gu@physx@@QEAAXPEAVPxBounds3@3@@Z 000000018001b6a0 f i GuMeshFactory.obj
 0001:0001a6b0       ?setNbRunTimePrimitives@AABBTreeBuildNode@Gu@physx@@QEAAXI@Z 000000018001b6b0 f i GuMeshFactory.obj
 0001:0001a6c0       ?takeOwnership@AABBTreeBounds@Gu@physx@@QEAAXXZ 000000018001b6c0 f i GuMeshFactory.obj
 0001:0001a6d0       getInsertionCallback       000000018001b6d0 f   GuMeshFactory.obj
 0001:0001a6e0       ??4BigConvexData@physx@@QEAAAEAV01@AEBV01@@Z 000000018001b6e0 f i GuMetaData.obj
 0001:0001a700       ?GetAdjacentVerts@BigConvexData@physx@@QEBAPEBEXZ 000000018001b700 f i GuMetaData.obj
 0001:0001a700       ?getSoftBodyAuxData@SoftBodyMesh@Gu@physx@@UEAAPEAVPxSoftBodyAuxData@3@XZ 000000018001b700 f i GuTetrahedronMesh.obj
 0001:0001a700       ?getTransforms@PruningPool@Gu@physx@@QEAAPEAV?$PxTransformT@M@3@XZ 000000018001b700 f i GuIncrementalAABBPrunerCore.obj
 0001:0001a700       ?getSoftBodyAuxData@SoftBodyMesh@Gu@physx@@UEBAPEBVPxSoftBodyAuxData@3@XZ 000000018001b700 f i GuTetrahedronMesh.obj
 0001:0001a700       ?getTriangles@TriangleMesh@Gu@physx@@UEBAPEBXXZ 000000018001b700 f i GuTriangleMesh.obj
 0001:0001a700       ?getTransforms@PruningPool@Gu@physx@@QEBAPEBV?$PxTransformT@M@3@XZ 000000018001b700 f i GuIncrementalAABBPrunerCore.obj
 0001:0001a710       ?GetNbNeighbors@BigConvexData@physx@@QEBAGI@Z 000000018001b710 f i GuMetaData.obj
 0001:0001a710       ?GetValency@BigConvexData@physx@@QEBAGI@Z 000000018001b710 f i GuMetaData.obj
 0001:0001a720       ?GetNbSamples@BigConvexData@physx@@QEBAIXZ 000000018001b720 f i GuMetaData.obj
 0001:0001a730       ?length@pcharNode@@UEBAHXZ 000000018001b730 f i libvcruntime:undname.obj
 0001:0001a730       ?getNbVertices@TetrahedronMesh@Gu@physx@@UEBAIXZ 000000018001b730 f i GuTetrahedronMesh.obj
 0001:0001a730       ?GetNbVerts@BigConvexData@physx@@QEBAIXZ 000000018001b730 f i GuMetaData.obj
 0001:0001a730       ?raw_length@pcharNode@@UEBAHXZ 000000018001b730 f i libvcruntime:undname.obj
 0001:0001a730       ?getNbVertices@TriangleMesh@Gu@physx@@UEBAIXZ 000000018001b730 f i GuTriangleMesh.obj
 0001:0001a740       ?GetNeighbors@BigConvexData@physx@@QEBAPEBEI@Z 000000018001b740 f i GuMetaData.obj
 0001:0001a750       ?GetOffset@BigConvexData@physx@@QEBAGI@Z 000000018001b750 f i GuMetaData.obj
 0001:0001a760       ?GetSubdiv@BigConvexData@physx@@QEBAIXZ 000000018001b760 f i GuMetaData.obj
 0001:0001a770       ?getBinaryMetaData@BV4Tree@Gu@physx@@SAXAEAVPxOutputStream@3@@Z 000000018001b770 f   GuMetaData.obj
 0001:0001ad10       ?getBinaryMetaData@BV4TriangleMesh@Gu@physx@@SAXAEAVPxOutputStream@3@@Z 000000018001bd10 f   GuMetaData.obj
 0001:0001b090       ?getBinaryMetaData@BigConvexData@physx@@SAXAEAVPxOutputStream@2@@Z 000000018001c090 f   GuMetaData.obj
 0001:0001b350       ?getBinaryMetaData@ConvexMesh@Gu@physx@@SAXAEAVPxOutputStream@3@@Z 000000018001c350 f   GuMetaData.obj
 0001:0001b9e0       ?getBinaryMetaData@HeightField@Gu@physx@@SAXAEAVPxOutputStream@3@@Z 000000018001c9e0 f   GuMetaData.obj
 0001:0001bdd0       ?getBinaryMetaData@RTree@Gu@physx@@SAXAEAVPxOutputStream@3@@Z 000000018001cdd0 f   GuMetaData.obj
 0001:0001c100       ?getBinaryMetaData@RTreeTriangleMesh@Gu@physx@@SAXAEAVPxOutputStream@3@@Z 000000018001d100 f   GuMetaData.obj
 0001:0001c1e0       ?getBinaryMetaData@TriangleMesh@Gu@physx@@SAXAEAVPxOutputStream@3@@Z 000000018001d1e0 f   GuMetaData.obj
 0001:0001dd20       ?doSupport@?$SupportLocalImpl@VConvexHullNoScaleV@Gu@physx@@@Gu@physx@@UEBA?AT__m128@@AEBT4@@Z 000000018001ed20 f i GuMTD.obj
 0001:0001dd70       ?doSupport@?$SupportLocalImpl@VConvexHullNoScaleV@Gu@physx@@@Gu@physx@@UEBAXAEBT__m128@@AEAT4@1@Z 000000018001ed70 f i GuMTD.obj
 0001:0001def0       ?populateVerts@?$SupportLocalImpl@VConvexHullNoScaleV@Gu@physx@@@Gu@physx@@UEBAXPEBEIPEBV?$PxVec3T@M@3@PEAT__m128@@@Z 000000018001eef0 f i GuMTD.obj
 0001:0001df30       ?isDynamic@Pruner@Gu@physx@@UEBA_NXZ 000000018001ef30 f   GuIncrementalAABBPruner.obj
 0001:0001df30       ?getInternalData@TriangleMesh@Gu@physx@@UEBA_NAEAUPxTriangleMeshInternalData@3@_N@Z 000000018001ef30 f   GuTriangleMesh.obj
 0001:0001faf0       ??$gjk@U?$LocalConvex@VCapsuleV@Gu@physx@@@Gu@physx@@U?$LocalConvex@VConvexHullV@Gu@physx@@@23@@Gu@physx@@YA?AW4GjkStatus@01@AEBU?$LocalConvex@VCapsuleV@Gu@physx@@@01@AEBU?$LocalConvex@VConvexHullV@Gu@physx@@@01@AEBT__m128@@2AEAT5@333@Z 0000000180020af0 f i GuMTD.obj
 0001:00020850       ??0SeparatingAxes@Gu@physx@@QEAA@AEBV012@@Z 0000000180021850 f i GuMTD.obj
 0001:00020850       ??0SeparatingAxes@Gu@physx@@QEAA@$$QEAV012@@Z 0000000180021850 f i GuMTD.obj
 0001:00020960       ??0SeparatingAxes@Gu@physx@@QEAA@XZ 0000000180021960 f i GuMTD.obj
 0001:00020970       ??4SeparatingAxes@Gu@physx@@QEAAAEAV012@$$QEAV012@@Z 0000000180021970 f i GuMTD.obj
 0001:00020970       ??4SeparatingAxes@Gu@physx@@QEAAAEAV012@AEBV012@@Z 0000000180021970 f i GuMTD.obj
 0001:00020a80       ??_G?$LocalConvex@VTetrahedronV@Gu@physx@@@Gu@physx@@UEAAPEAXI@Z 0000000180021a80 f i GuCookingTetrahedronMesh.obj
 0001:00020a80       ??_E?$LocalConvex@VTriangleV@Gu@physx@@@Gu@physx@@UEAAPEAXI@Z 0000000180021a80 f i GuSweepTests.obj
 0001:00020a80       ??_GGjkConvex@Gu@physx@@UEAAPEAXI@Z 0000000180021a80 f i GuMTD.obj
 0001:00020a80       ??_G?$LocalConvex@VBoxV@Gu@physx@@@Gu@physx@@UEAAPEAXI@Z 0000000180021a80 f i GuSweepTests.obj
 0001:00020a80       ??_G?$LocalConvex@VCapsuleV@Gu@physx@@@Gu@physx@@UEAAPEAXI@Z 0000000180021a80 f i GuMTD.obj
 0001:00020a80       ??_G?$LocalConvex@UCustomConvexV@@@Gu@physx@@UEAAPEAXI@Z 0000000180021a80 f i GuGjkQuery.obj
 0001:00020a80       ??_E?$LocalConvex@VConvexHullV@Gu@physx@@@Gu@physx@@UEAAPEAXI@Z 0000000180021a80 f i GuMTD.obj
 0001:00020a80       ??_G?$LocalConvex@VTriangleV@Gu@physx@@@Gu@physx@@UEAAPEAXI@Z 0000000180021a80 f i GuSweepTests.obj
 0001:00020a80       ??_G?$LocalConvex@VConvexHullNoScaleV@Gu@physx@@@Gu@physx@@UEAAPEAXI@Z 0000000180021a80 f i GuPCMContactBoxConvex.obj
 0001:00020a80       ??_E?$LocalConvex@VTetrahedronV@Gu@physx@@@Gu@physx@@UEAAPEAXI@Z 0000000180021a80 f i GuCookingTetrahedronMesh.obj
 0001:00020a80       ??_E?$LocalConvex@VBoxV@Gu@physx@@@Gu@physx@@UEAAPEAXI@Z 0000000180021a80 f i GuSweepTests.obj
 0001:00020a80       ??_E?$LocalConvex@UPointConvexV@@@Gu@physx@@UEAAPEAXI@Z 0000000180021a80 f i GuGjkQuery.obj
 0001:00020a80       ??_G?$LocalConvex@UPointConvexV@@@Gu@physx@@UEAAPEAXI@Z 0000000180021a80 f i GuGjkQuery.obj
 0001:00020a80       ??_E?$LocalConvex@VConvexHullNoScaleV@Gu@physx@@@Gu@physx@@UEAAPEAXI@Z 0000000180021a80 f i GuPCMContactBoxConvex.obj
 0001:00020a80       ??_E?$LocalConvex@UCustomConvexV@@@Gu@physx@@UEAAPEAXI@Z 0000000180021a80 f i GuGjkQuery.obj
 0001:00020a80       ??_E?$LocalConvex@VCapsuleV@Gu@physx@@@Gu@physx@@UEAAPEAXI@Z 0000000180021a80 f i GuMTD.obj
 0001:00020a80       ??_G?$LocalConvex@VConvexHullV@Gu@physx@@@Gu@physx@@UEAAPEAXI@Z 0000000180021a80 f i GuMTD.obj
 0001:00020a80       ??_EGjkConvex@Gu@physx@@UEAAPEAXI@Z 0000000180021a80 f i GuMTD.obj
 0001:00024ee0       ?getAxes@SeparatingAxes@Gu@physx@@QEBAPEBV?$PxVec3T@M@3@XZ 0000000180025ee0 f i GuMTD.obj
 0001:00024ef0       ?getCenter@?$LocalConvex@VConvexHullV@Gu@physx@@@Gu@physx@@UEBA?AT__m128@@XZ 0000000180025ef0 f i GuMTD.obj
 0001:00024ef0       ?getCenter@?$LocalConvex@VTetrahedronV@Gu@physx@@@Gu@physx@@UEBA?AT__m128@@XZ 0000000180025ef0 f i GuCookingTetrahedronMesh.obj
 0001:00024ef0       ?getCenter@?$LocalConvex@UCustomConvexV@@@Gu@physx@@UEBA?AT__m128@@XZ 0000000180025ef0 f i GuGjkQuery.obj
 0001:00024ef0       ?getCenter@?$LocalConvex@VBoxV@Gu@physx@@@Gu@physx@@UEBA?AT__m128@@XZ 0000000180025ef0 f i GuSweepTests.obj
 0001:00024ef0       ?getCenter@?$LocalConvex@VCapsuleV@Gu@physx@@@Gu@physx@@UEBA?AT__m128@@XZ 0000000180025ef0 f i GuMTD.obj
 0001:00024ef0       ?getCenter@?$LocalConvex@VConvexHullNoScaleV@Gu@physx@@@Gu@physx@@UEBA?AT__m128@@XZ 0000000180025ef0 f i GuPCMContactBoxConvex.obj
 0001:00024ef0       ?getCenter@?$LocalConvex@VTriangleV@Gu@physx@@@Gu@physx@@UEBA?AT__m128@@XZ 0000000180025ef0 f i GuSweepTests.obj
 0001:00024ef0       ?getCenter@?$LocalConvex@UPointConvexV@@@Gu@physx@@UEBA?AT__m128@@XZ 0000000180025ef0 f i GuGjkQuery.obj
 0001:00024f00       ?getNumAxes@SeparatingAxes@Gu@physx@@QEBAIXZ 0000000180025f00 f i GuMTD.obj
 0001:00024f00       ?getCount@BuildStats@Gu@physx@@QEBAIXZ 0000000180025f00 f i GuBV4Build.obj
 0001:00024f00       ?getNbActiveObjects@PruningPool@Gu@physx@@QEBAIXZ 0000000180025f00 f i GuIncrementalAABBPrunerCore.obj
 0001:00024f10       ?getSweepMargin@?$LocalConvex@VCapsuleV@Gu@physx@@@Gu@physx@@UEBA?AT__m128@@XZ 0000000180025f10 f i GuMTD.obj
 0001:00024f10       ?getSweepMargin@?$RelativeConvex@VCapsuleV@Gu@physx@@@Gu@physx@@UEBA?AT__m128@@XZ 0000000180025f10 f i GuCCDSweepPrimitives.obj
 0001:00024f20       ?getSweepMargin@?$RelativeConvex@UCustomConvexV@@@Gu@physx@@UEBA?AT__m128@@XZ 0000000180025f20 f i GuGjkQuery.obj
 0001:00024f20       ?getSweepMargin@?$LocalConvex@UPointConvexV@@@Gu@physx@@UEBA?AT__m128@@XZ 0000000180025f20 f i GuGjkQuery.obj
 0001:00024f20       ?getSweepMargin@?$RelativeConvex@VConvexHullV@Gu@physx@@@Gu@physx@@UEBA?AT__m128@@XZ 0000000180025f20 f i GuOverlapTests.obj
 0001:00024f20       ?getSweepMargin@?$RelativeConvex@VConvexHullNoScaleV@Gu@physx@@@Gu@physx@@UEBA?AT__m128@@XZ 0000000180025f20 f i GuPCMContactConvexConvex.obj
 0001:00024f20       ?getSweepMargin@?$LocalConvex@VConvexHullNoScaleV@Gu@physx@@@Gu@physx@@UEBA?AT__m128@@XZ 0000000180025f20 f i GuPCMContactBoxConvex.obj
 0001:00024f20       ?getSweepMargin@?$RelativeConvex@VBoxV@Gu@physx@@@Gu@physx@@UEBA?AT__m128@@XZ 0000000180025f20 f i GuOverlapTests.obj
 0001:00024f20       ?getSweepMargin@?$LocalConvex@VConvexHullV@Gu@physx@@@Gu@physx@@UEBA?AT__m128@@XZ 0000000180025f20 f i GuMTD.obj
 0001:00024f20       ?getSweepMargin@?$LocalConvex@UCustomConvexV@@@Gu@physx@@UEBA?AT__m128@@XZ 0000000180025f20 f i GuGjkQuery.obj
 0001:00024f20       ?getSweepMargin@?$LocalConvex@VBoxV@Gu@physx@@@Gu@physx@@UEBA?AT__m128@@XZ 0000000180025f20 f i GuSweepTests.obj
 0001:00024f40       ?getSweepMargin@GjkConvex@Gu@physx@@UEBA?AT__m128@@XZ 0000000180025f40 f i GuMTD.obj
 0001:00024f60       ?pointConvexDistance@@YA_NAEAV?$PxVec3T@M@physx@@0AEAMAEBV12@PEBVConvexMesh@Gu@2@AEBVPxMeshScale@2@AEBV?$PxTransformT@M@2@@Z 0000000180025f60 f   GuMTD.obj
 0001:00025cc0       ?reset@SeparatingAxes@Gu@physx@@QEAAXXZ 0000000180026cc0 f i GuMTD.obj
 0001:00025cd0       ?support@?$LocalConvex@VCapsuleV@Gu@physx@@@Gu@physx@@UEBA?AT__m128@@AEBT4@@Z 0000000180026cd0 f i GuMTD.obj
 0001:00025d30       ?support@?$LocalConvex@VCapsuleV@Gu@physx@@@Gu@physx@@UEBA?AT__m128@@AEBT4@AEAH@Z 0000000180026d30 f i GuMTD.obj
 0001:00025da0       ?support@?$LocalConvex@VConvexHullV@Gu@physx@@@Gu@physx@@UEBA?AT__m128@@AEBT4@@Z 0000000180026da0 f i GuMTD.obj
 0001:00025e80       ?support@?$LocalConvex@VConvexHullV@Gu@physx@@@Gu@physx@@UEBA?AT__m128@@AEBT4@AEAH@Z 0000000180026e80 f i GuMTD.obj
 0001:00025f50       ?support@GjkConvex@Gu@physx@@UEBA?AT__m128@@AEBT4@@Z 0000000180026f50 f i GuMTD.obj
 0001:00025f70       ?support@GjkConvex@Gu@physx@@UEBA?AT__m128@@AEBT4@AEAH@Z 0000000180026f70 f i GuMTD.obj
 0001:00025f90       ?supportPoint@?$LocalConvex@VCapsuleV@Gu@physx@@@Gu@physx@@UEBA?AT__m128@@H@Z 0000000180026f90 f i GuMTD.obj
 0001:00025fc0       ?supportPoint@?$LocalConvex@VConvexHullV@Gu@physx@@@Gu@physx@@UEBA?AT__m128@@H@Z 0000000180026fc0 f i GuMTD.obj
 0001:00026010       ?supportPoint@GjkConvex@Gu@physx@@UEBA?AT__m128@@H@Z 0000000180027010 f i GuMTD.obj
 0001:00026030       ?supportPoint@?$RelativeConvex@VBoxV@Gu@physx@@@Gu@physx@@UEBA?AT__m128@@H@Z 0000000180027030 f i GuOverlapTests.obj
 0001:000260a0       ?support@?$RelativeConvex@VBoxV@Gu@physx@@@Gu@physx@@UEBA?AT__m128@@AEBT4@@Z 00000001800270a0 f i GuOverlapTests.obj
 0001:00026120       ?support@?$RelativeConvex@VBoxV@Gu@physx@@@Gu@physx@@UEBA?AT__m128@@AEBT4@AEAH@Z 0000000180027120 f i GuOverlapTests.obj
 0001:000261b0       ?getCenter@?$RelativeConvex@VConvexHullV@Gu@physx@@@Gu@physx@@UEBA?AT__m128@@XZ 00000001800271b0 f i GuOverlapTests.obj
 0001:000261b0       ?getCenter@?$RelativeConvex@VTriangleV@Gu@physx@@@Gu@physx@@UEBA?AT__m128@@XZ 00000001800271b0 f i GuCCDSweepPrimitives.obj
 0001:000261b0       ?getCenter@?$RelativeConvex@UCustomConvexV@@@Gu@physx@@UEBA?AT__m128@@XZ 00000001800271b0 f i GuGjkQuery.obj
 0001:000261b0       ?getCenter@?$RelativeConvex@VBoxV@Gu@physx@@@Gu@physx@@UEBA?AT__m128@@XZ 00000001800271b0 f i GuOverlapTests.obj
 0001:000261b0       ?getCenter@?$RelativeConvex@VConvexHullNoScaleV@Gu@physx@@@Gu@physx@@UEBA?AT__m128@@XZ 00000001800271b0 f i GuPCMContactConvexConvex.obj
 0001:000261b0       ?getCenter@?$RelativeConvex@VCapsuleV@Gu@physx@@@Gu@physx@@UEBA?AT__m128@@XZ 00000001800271b0 f i GuCCDSweepPrimitives.obj
 0001:000261f0       ??_G?$RelativeConvex@VCapsuleV@Gu@physx@@@Gu@physx@@UEAAPEAXI@Z 00000001800271f0 f i GuCCDSweepPrimitives.obj
 0001:000261f0       ??_G?$RelativeConvex@VConvexHullV@Gu@physx@@@Gu@physx@@UEAAPEAXI@Z 00000001800271f0 f i GuOverlapTests.obj
 0001:000261f0       ??_G?$RelativeConvex@VTriangleV@Gu@physx@@@Gu@physx@@UEAAPEAXI@Z 00000001800271f0 f i GuCCDSweepPrimitives.obj
 0001:000261f0       ??_E?$RelativeConvex@VTriangleV@Gu@physx@@@Gu@physx@@UEAAPEAXI@Z 00000001800271f0 f i GuCCDSweepPrimitives.obj
 0001:000261f0       ??_E?$RelativeConvex@VConvexHullV@Gu@physx@@@Gu@physx@@UEAAPEAXI@Z 00000001800271f0 f i GuOverlapTests.obj
 0001:000261f0       ??_E?$RelativeConvex@UCustomConvexV@@@Gu@physx@@UEAAPEAXI@Z 00000001800271f0 f i GuGjkQuery.obj
 0001:000261f0       ??_G?$RelativeConvex@VConvexHullNoScaleV@Gu@physx@@@Gu@physx@@UEAAPEAXI@Z 00000001800271f0 f i GuPCMContactConvexConvex.obj
 0001:000261f0       ??_G?$RelativeConvex@UCustomConvexV@@@Gu@physx@@UEAAPEAXI@Z 00000001800271f0 f i GuGjkQuery.obj
 0001:000261f0       ??_E?$RelativeConvex@VCapsuleV@Gu@physx@@@Gu@physx@@UEAAPEAXI@Z 00000001800271f0 f i GuCCDSweepPrimitives.obj
 0001:000261f0       ??_E?$RelativeConvex@VBoxV@Gu@physx@@@Gu@physx@@UEAAPEAXI@Z 00000001800271f0 f i GuOverlapTests.obj
 0001:000261f0       ??_G?$RelativeConvex@VBoxV@Gu@physx@@@Gu@physx@@UEAAPEAXI@Z 00000001800271f0 f i GuOverlapTests.obj
 0001:000261f0       ??_E?$RelativeConvex@VConvexHullNoScaleV@Gu@physx@@@Gu@physx@@UEAAPEAXI@Z 00000001800271f0 f i GuPCMContactConvexConvex.obj
 0001:00028360       ?supportPoint@?$RelativeConvex@VConvexHullV@Gu@physx@@@Gu@physx@@UEBA?AT__m128@@H@Z 0000000180029360 f i GuOverlapTests.obj
 0001:000283e0       ?support@?$RelativeConvex@VConvexHullV@Gu@physx@@@Gu@physx@@UEBA?AT__m128@@AEBT4@@Z 00000001800293e0 f i GuOverlapTests.obj
 0001:00028510       ?support@?$RelativeConvex@VConvexHullV@Gu@physx@@@Gu@physx@@UEBA?AT__m128@@AEBT4@AEAH@Z 0000000180029510 f i GuOverlapTests.obj
 0001:000286e0       ??$gjk@U?$RelativeConvex@VBoxV@Gu@physx@@@Gu@physx@@U?$LocalConvex@VConvexHullV@Gu@physx@@@23@@Gu@physx@@YA?AW4GjkStatus@01@AEBU?$RelativeConvex@VBoxV@Gu@physx@@@01@AEBU?$LocalConvex@VConvexHullV@Gu@physx@@@01@AEBT__m128@@2AEAT5@333@Z 00000001800296e0 f i GuOverlapTests.obj
 0001:000294a0       ??$gjk@U?$RelativeConvex@VConvexHullV@Gu@physx@@@Gu@physx@@U?$LocalConvex@VConvexHullV@Gu@physx@@@23@@Gu@physx@@YA?AW4GjkStatus@01@AEBU?$RelativeConvex@VConvexHullV@Gu@physx@@@01@AEBU?$LocalConvex@VConvexHullV@Gu@physx@@@01@AEBT__m128@@2AEAT5@333@Z 000000018002a4a0 f i GuOverlapTests.obj
 0001:0002a320       ?ComputeCubemapNearestOffset@physx@@YAIAEBV?$PxVec3T@M@1@I@Z 000000018002b320 f i GuOverlapTests.obj
 0001:0002a420       ?getOverlapFuncTable@Gu@physx@@YAPEAY0L@Q6A_NAEBVPxGeometry@2@AEBV?$PxTransformT@M@2@01PEAUTriggerCache@12@PEAUPxQueryThreadContext@2@@ZXZ 000000018002b420 f   GuOverlapTests.obj
 0001:0002bfc0       ?registerHeightFields@Gu@physx@@YAXXZ 000000018002cfc0 f   GuOverlapTests.obj
 0001:0002c010       ?raycast_box@@YAIAEBVPxGeometry@physx@@AEBV?$PxTransformT@M@2@AEBV?$PxVec3T@M@2@2MV?$PxFlags@W4Enum@PxHitFlag@physx@@G@2@IPEIAUPxGeomRaycastHit@2@IPEAUPxQueryThreadContext@2@@Z 000000018002d010 f   GuRaycastTests.obj
 0001:0002c640       ?raycast_sphere@@YAIAEBVPxGeometry@physx@@AEBV?$PxTransformT@M@2@AEBV?$PxVec3T@M@2@2MV?$PxFlags@W4Enum@PxHitFlag@physx@@G@2@IPEIAUPxGeomRaycastHit@2@IPEAUPxQueryThreadContext@2@@Z 000000018002d640 f   GuRaycastTests.obj
 0001:0002c7d0       ?raycast_capsule@@YAIAEBVPxGeometry@physx@@AEBV?$PxTransformT@M@2@AEBV?$PxVec3T@M@2@2MV?$PxFlags@W4Enum@PxHitFlag@physx@@G@2@IPEIAUPxGeomRaycastHit@2@IPEAUPxQueryThreadContext@2@@Z 000000018002d7d0 f   GuRaycastTests.obj
 0001:0002cd30       ?raycast_plane@@YAIAEBVPxGeometry@physx@@AEBV?$PxTransformT@M@2@AEBV?$PxVec3T@M@2@2MV?$PxFlags@W4Enum@PxHitFlag@physx@@G@2@IPEIAUPxGeomRaycastHit@2@IPEAUPxQueryThreadContext@2@@Z 000000018002dd30 f   GuRaycastTests.obj
 0001:0002cea0       ?raycast_convexMesh@@YAIAEBVPxGeometry@physx@@AEBV?$PxTransformT@M@2@AEBV?$PxVec3T@M@2@2MV?$PxFlags@W4Enum@PxHitFlag@physx@@G@2@IPEIAUPxGeomRaycastHit@2@IPEAUPxQueryThreadContext@2@@Z 000000018002dea0 f   GuRaycastTests.obj
 0001:0002d9b0       ?getMidphaseID@RTreeTriangleMeshBuilder@physx@@UEBA?AW4Enum@PxMeshMidPhase@2@XZ 000000018002e9b0 f   GuCookingTriangleMesh.obj
 0001:0002d9b0       ?raycast_hairsystem@@YAIAEBVPxGeometry@physx@@AEBV?$PxTransformT@M@2@AEBV?$PxVec3T@M@2@2MV?$PxFlags@W4Enum@PxHitFlag@physx@@G@2@IPEIAUPxGeomRaycastHit@2@IPEAUPxQueryThreadContext@2@@Z 000000018002e9b0 f   GuRaycastTests.obj
 0001:0002d9b0       ?raycast_particlesystem@@YAIAEBVPxGeometry@physx@@AEBV?$PxTransformT@M@2@AEBV?$PxVec3T@M@2@2MV?$PxFlags@W4Enum@PxHitFlag@physx@@G@2@IPEIAUPxGeomRaycastHit@2@IPEAUPxQueryThreadContext@2@@Z 000000018002e9b0 f   GuRaycastTests.obj
 0001:0002d9b0       ?getMidphaseID@RTreeTriangleMesh@Gu@physx@@UEBA?AW4Enum@PxMeshMidPhase@3@XZ 000000018002e9b0 f   GuTriangleMeshRTree.obj
 0001:0002d9b0       ?getTetrahedraRemap@TetrahedronMesh@Gu@physx@@UEBAPEBIXZ 000000018002e9b0 f   GuTetrahedronMesh.obj
 0001:0002d9b0       ?raycast_softbody@@YAIAEBVPxGeometry@physx@@AEBV?$PxTransformT@M@2@AEBV?$PxVec3T@M@2@2MV?$PxFlags@W4Enum@PxHitFlag@physx@@G@2@IPEIAUPxGeomRaycastHit@2@IPEAUPxQueryThreadContext@2@@Z 000000018002e9b0 f   GuRaycastTests.obj
 0001:0002d9c0       ?raycast_triangleMesh@@YAIAEBVPxGeometry@physx@@AEBV?$PxTransformT@M@2@AEBV?$PxVec3T@M@2@2MV?$PxFlags@W4Enum@PxHitFlag@physx@@G@2@IPEIAUPxGeomRaycastHit@2@IPEAUPxQueryThreadContext@2@@Z 000000018002e9c0 f   GuRaycastTests.obj
 0001:0002eda0       ??Dphysx@@YA?AV?$PxMat34T@M@0@AEBVPxMeshScale@0@AEBV?$PxTransformT@M@0@@Z 000000018002fda0 f i GuRaycastTests.obj
 0001:0002f880       ?getRaycastFuncTable@Gu@physx@@YAAEAY0L@Q6AIAEBVPxGeometry@2@AEBV?$PxTransformT@M@2@AEBV?$PxVec3T@M@2@2MV?$PxFlags@W4Enum@PxHitFlag@physx@@G@2@IPEIAUPxGeomRaycastHit@2@IPEAUPxQueryThreadContext@2@@ZXZ 0000000180030880 f   GuRaycastTests.obj
 0001:0002f890       ?raycast_heightField@@YAIAEBVPxGeometry@physx@@AEBV?$PxTransformT@M@2@AEBV?$PxVec3T@M@2@2MV?$PxFlags@W4Enum@PxHitFlag@physx@@G@2@IPEIAUPxGeomRaycastHit@2@IPEAUPxQueryThreadContext@2@@Z 0000000180030890 f   GuRaycastTests.obj
 0001:0002ffd0       ?registerHeightFields_Raycasts@@YAXXZ 0000000180030fd0 f   GuRaycastTests.obj
 0001:0002ffe0       ??Dphysx@@YA?AV?$PxMat34T@M@0@AEBV?$PxTransformT@M@0@AEBVPxMeshScale@0@@Z 0000000180030fe0 f i GuSweepMTD.obj
 0001:00030520       ??_E?$MeshHitCallback@UPxGeomRaycastHit@physx@@@Gu@physx@@UEAAPEAXI@Z 0000000180031520 f i GuSweepMTD.obj
 0001:00030520       ??_G?$MeshHitCallback@UPxGeomRaycastHit@physx@@@Gu@physx@@UEAAPEAXI@Z 0000000180031520 f i GuSweepMTD.obj
 0001:00030550       ??_EMeshMTDGenerationCallback@@UEAAPEAXI@Z 0000000180031550 f i GuSweepMTD.obj
 0001:00030550       ??_GMeshMTDGenerationCallback@@UEAAPEAXI@Z 0000000180031550 f i GuSweepMTD.obj
 0001:00030580       ??_GRTreeCookerRemap@@UEAAPEAXI@Z 0000000180031580 f i GuCookingTriangleMesh.obj
 0001:00030580       ??_ERTreeCookerRemap@@UEAAPEAXI@Z 0000000180031580 f i GuCookingTriangleMesh.obj
 0001:00030580       ??_GMidPhaseQueryLocalReport@@UEAAPEAXI@Z 0000000180031580 f i GuSweepMTD.obj
 0001:00030580       ??_EMidPhaseQueryLocalReport@@UEAAPEAXI@Z 0000000180031580 f i GuSweepMTD.obj
 0001:000305b0       ?allocate@?$PxArray@IV?$PxReflectionAllocator@I@physx@@@physx@@IEAAPEAII@Z 00000001800315b0 f i GuSweepMTD.obj
 0001:00030650       ?computeBox_HeightFieldMTD@Gu@physx@@YA_NAEBVPxHeightFieldGeometry@2@AEBV?$PxTransformT@M@2@AEBVBox@12@1M_NAEAUPxGeomSweepHit@2@@Z 0000000180031650 f   GuSweepMTD.obj
 0001:000313d0       ?computeBox_TriangleMeshMTD@Gu@physx@@YA_NAEBVPxTriangleMeshGeometry@2@AEBV?$PxTransformT@M@2@AEBVBox@12@1M_NAEAUPxGeomSweepHit@2@@Z 00000001800323d0 f   GuSweepMTD.obj
 0001:00032380       ?computeCapsule_CapsuleMTD@Gu@physx@@YA_NAEBVCapsule@12@0AEAUPxGeomSweepHit@2@@Z 0000000180033380 f   GuSweepMTD.obj
 0001:000325c0       ?computeCapsule_HeightFieldMTD@Gu@physx@@YA_NAEBVPxHeightFieldGeometry@2@AEBV?$PxTransformT@M@2@AEAVCapsuleV@12@M_NAEAUPxGeomSweepHit@2@@Z 00000001800335c0 f   GuSweepMTD.obj
 0001:00032da0       ?computeCapsule_TriangleMeshMTD@Gu@physx@@YA_NAEBVPxTriangleMeshGeometry@2@AEBV?$PxTransformT@M@2@AEAVCapsuleV@12@M_NAEAUPxGeomSweepHit@2@@Z 0000000180033da0 f   GuSweepMTD.obj
 0001:00033660       ?computeConvex_HeightFieldMTD@Gu@physx@@YA_NAEBVPxHeightFieldGeometry@2@AEBV?$PxTransformT@M@2@AEBVPxConvexMeshGeometry@2@1M_NAEAUPxGeomSweepHit@2@@Z 0000000180034660 f   GuSweepMTD.obj
 0001:00034930       ?computeConvex_TriangleMeshMTD@Gu@physx@@YA_NAEBVPxTriangleMeshGeometry@2@AEBV?$PxTransformT@M@2@AEBVPxConvexMeshGeometry@2@1M_NAEAUPxGeomSweepHit@2@@Z 0000000180035930 f   GuSweepMTD.obj
 0001:00035eb0       ?computePlane_BoxMTD@Gu@physx@@YA_NAEBVPxPlane@2@AEBVBox@12@AEAUPxGeomSweepHit@2@@Z 0000000180036eb0 f   GuSweepMTD.obj
 0001:000361e0       ?computePlane_CapsuleMTD@Gu@physx@@YA_NAEBVPxPlane@2@AEBVCapsule@12@AEAUPxGeomSweepHit@2@@Z 00000001800371e0 f   GuSweepMTD.obj
 0001:00036300       ?computePlane_ConvexMTD@Gu@physx@@YA_NAEBVPxPlane@2@AEBVPxConvexMeshGeometry@2@AEBV?$PxTransformT@M@2@AEAUPxGeomSweepHit@2@@Z 0000000180037300 f   GuSweepMTD.obj
 0001:00036e70       ?computeSphere_CapsuleMTD@Gu@physx@@YA_NAEBVSphere@12@AEBVCapsule@12@AEAUPxGeomSweepHit@2@@Z 0000000180037e70 f   GuSweepMTD.obj
 0001:00037020       ?computeSphere_SphereMTD@Gu@physx@@YA_NAEBVSphere@12@0AEAUPxGeomSweepHit@2@@Z 0000000180038020 f   GuSweepMTD.obj
 0001:00037110       ?getInverse@?$PxMat33T@M@physx@@QEBA?BV12@XZ 0000000180038110 f i GuSweepMTD.obj
 0001:00037360       ?growAndPushBack@?$PxArray@IV?$PxReflectionAllocator@I@physx@@@physx@@IEAAAEAIAEBI@Z 0000000180038360 f i GuSweepMTD.obj
 0001:00037420       ?init@FastVertex2ShapeScaling@Cm@physx@@QEAAXAEBV?$PxVec3T@M@3@AEBV?$PxQuatT@M@3@@Z 0000000180038420 f i GuSweepMTD.obj
 0001:00037cf0       ?processHit@MeshMTDGenerationCallback@@UEAA_NAEBUPxGeomRaycastHit@physx@@AEBV?$PxVec3T@M@3@11AEAMPEBI@Z 0000000180038cf0 f i GuSweepMTD.obj
 0001:00037d40       ?recreate@?$PxArray@IV?$PxReflectionAllocator@I@physx@@@physx@@IEAAXI@Z 0000000180038d40 f i GuSweepMTD.obj
 0001:00037de0       ?reportTouchedTris@MidPhaseQueryLocalReport@@UEAA_NIPEBI@Z 0000000180038de0 f i GuSweepMTD.obj
 0001:00037e50       ??$gjkPenetration@U?$LocalConvex@VCapsuleV@Gu@physx@@@Gu@physx@@U?$LocalConvex@VConvexHullV@Gu@physx@@@23@@Gu@physx@@YA?AW4GjkStatus@01@AEBU?$LocalConvex@VCapsuleV@Gu@physx@@@01@AEBU?$LocalConvex@VConvexHullV@Gu@physx@@@01@AEBT__m128@@2_NPEIAE4AEAEAEAUGjkOutput@01@@Z 0000000180038e50 f i GuSweepSharedTests.obj
 0001:00037ec0       ??$gjkPenetration@U?$LocalConvex@VCapsuleV@Gu@physx@@@Gu@physx@@U?$LocalConvex@VConvexHullV@Gu@physx@@@23@@Gu@physx@@YA?AW4GjkStatus@01@AEBU?$LocalConvex@VCapsuleV@Gu@physx@@@01@AEBU?$LocalConvex@VConvexHullV@Gu@physx@@@01@AEBT__m128@@2_NPEIAE4PEIAT5@5AEAEAEAUGjkOutput@01@@Z 0000000180038ec0 f i GuSweepSharedTests.obj
 0001:000393e0       ??$gjkPenetration@U?$RelativeConvex@VBoxV@Gu@physx@@@Gu@physx@@U?$LocalConvex@VConvexHullV@Gu@physx@@@23@@Gu@physx@@YA?AW4GjkStatus@01@AEBU?$RelativeConvex@VBoxV@Gu@physx@@@01@AEBU?$LocalConvex@VConvexHullV@Gu@physx@@@01@AEBT__m128@@2_NPEIAE4AEAEAEAUGjkOutput@01@@Z 000000018003a3e0 f i GuSweepSharedTests.obj
 0001:00039450       ??$gjkPenetration@U?$RelativeConvex@VBoxV@Gu@physx@@@Gu@physx@@U?$LocalConvex@VConvexHullV@Gu@physx@@@23@@Gu@physx@@YA?AW4GjkStatus@01@AEBU?$RelativeConvex@VBoxV@Gu@physx@@@01@AEBU?$LocalConvex@VConvexHullV@Gu@physx@@@01@AEBT__m128@@2_NPEIAE4PEIAT5@5AEAEAEAUGjkOutput@01@@Z 000000018003a450 f i GuSweepSharedTests.obj
 0001:0003a9b0       ??$gjkPenetration@U?$RelativeConvex@VConvexHullV@Gu@physx@@@Gu@physx@@U?$LocalConvex@VConvexHullV@Gu@physx@@@23@@Gu@physx@@YA?AW4GjkStatus@01@AEBU?$RelativeConvex@VConvexHullV@Gu@physx@@@01@AEBU?$LocalConvex@VConvexHullV@Gu@physx@@@01@AEBT__m128@@2_NPEIAE4AEAEAEAUGjkOutput@01@@Z 000000018003b9b0 f i GuSweepSharedTests.obj
 0001:0003aa20       ??$gjkPenetration@U?$RelativeConvex@VConvexHullV@Gu@physx@@@Gu@physx@@U?$LocalConvex@VConvexHullV@Gu@physx@@@23@@Gu@physx@@YA?AW4GjkStatus@01@AEBU?$RelativeConvex@VConvexHullV@Gu@physx@@@01@AEBU?$LocalConvex@VConvexHullV@Gu@physx@@@01@AEBT__m128@@2_NPEIAE4PEIAT5@5AEAEAEAUGjkOutput@01@@Z 000000018003ba20 f i GuSweepSharedTests.obj
 0001:0003c030       ??$gjkRaycast@U?$LocalConvex@VCapsuleV@Gu@physx@@@Gu@physx@@U?$LocalConvex@VConvexHullV@Gu@physx@@@23@@Gu@physx@@YA_NAEBU?$LocalConvex@VCapsuleV@Gu@physx@@@01@AEBU?$LocalConvex@VConvexHullV@Gu@physx@@@01@AEBT__m128@@222AEAT4@33M@Z 000000018003d030 f i GuSweepSharedTests.obj
 0001:0003cd40       ??$gjkRaycast@U?$RelativeConvex@VBoxV@Gu@physx@@@Gu@physx@@U?$LocalConvex@VConvexHullV@Gu@physx@@@23@@Gu@physx@@YA_NAEBU?$RelativeConvex@VBoxV@Gu@physx@@@01@AEBU?$LocalConvex@VConvexHullV@Gu@physx@@@01@AEBT__m128@@222AEAT4@33M@Z 000000018003dd40 f i GuSweepSharedTests.obj
 0001:0003daf0       ??$gjkRaycast@U?$RelativeConvex@VConvexHullV@Gu@physx@@@Gu@physx@@U?$LocalConvex@VConvexHullV@Gu@physx@@@23@@Gu@physx@@YA_NAEBU?$RelativeConvex@VConvexHullV@Gu@physx@@@01@AEBU?$LocalConvex@VConvexHullV@Gu@physx@@@01@AEBT__m128@@222AEAT4@33M@Z 000000018003eaf0 f i GuSweepSharedTests.obj
 0001:0003e990       ??$gjkRaycastPenetration@U?$RelativeConvex@VConvexHullV@Gu@physx@@@Gu@physx@@U?$LocalConvex@VConvexHullV@Gu@physx@@@23@@Gu@physx@@YA_NAEBU?$RelativeConvex@VConvexHullV@Gu@physx@@@01@AEBU?$LocalConvex@VConvexHullV@Gu@physx@@@01@AEBT__m128@@222AEAT4@33M_N@Z 000000018003f990 f i GuSweepSharedTests.obj
 0001:0003f5c0       ?sweepBox_ConvexGeom@@YA_NAEBVPxGeometry@physx@@AEBV?$PxTransformT@M@2@AEBVPxBoxGeometry@2@1AEBVBox@Gu@2@AEBV?$PxVec3T@M@2@MAEAUPxGeomSweepHit@2@V?$PxFlags@W4Enum@PxHitFlag@physx@@G@2@MPEAUPxQueryThreadContext@2@@Z 00000001800405c0 f   GuSweepSharedTests.obj
 0001:000403c0       ?sweepBox_PlaneGeom@@YA_NAEBVPxGeometry@physx@@AEBV?$PxTransformT@M@2@AEBVPxBoxGeometry@2@1AEBVBox@Gu@2@AEBV?$PxVec3T@M@2@MAEAUPxGeomSweepHit@2@V?$PxFlags@W4Enum@PxHitFlag@physx@@G@2@MPEAUPxQueryThreadContext@2@@Z 00000001800413c0 f   GuSweepSharedTests.obj
 0001:00040860       ?sweepCapsuleTriangles@Gu@physx@@YA_NIPEBVPxTriangle@2@_NAEBVPxCapsuleGeometry@2@AEBV?$PxTransformT@M@2@AEBV?$PxVec3T@M@2@MAEAUPxGeomSweepHit@2@PEBIMV?$PxFlags@W4Enum@PxHitFlag@physx@@G@2@@Z 0000000180041860 f   GuSweepSharedTests.obj
 0001:00040a50       ?sweepCapsule_CapsuleGeom@@YA_NAEBVPxGeometry@physx@@AEBV?$PxTransformT@M@2@AEBVPxCapsuleGeometry@2@1AEBVCapsule@Gu@2@AEBV?$PxVec3T@M@2@MAEAUPxGeomSweepHit@2@V?$PxFlags@W4Enum@PxHitFlag@physx@@G@2@MPEAUPxQueryThreadContext@2@@Z 0000000180041a50 f   GuSweepSharedTests.obj
 0001:00040c30       ?sweepCapsule_ConvexGeom@@YA_NAEBVPxGeometry@physx@@AEBV?$PxTransformT@M@2@AEBVPxCapsuleGeometry@2@1AEBVCapsule@Gu@2@AEBV?$PxVec3T@M@2@MAEAUPxGeomSweepHit@2@V?$PxFlags@W4Enum@PxHitFlag@physx@@G@2@MPEAUPxQueryThreadContext@2@@Z 0000000180041c30 f   GuSweepSharedTests.obj
 0001:00041980       ?sweepCapsule_PlaneGeom@@YA_NAEBVPxGeometry@physx@@AEBV?$PxTransformT@M@2@AEBVPxCapsuleGeometry@2@1AEBVCapsule@Gu@2@AEBV?$PxVec3T@M@2@MAEAUPxGeomSweepHit@2@V?$PxFlags@W4Enum@PxHitFlag@physx@@G@2@MPEAUPxQueryThreadContext@2@@Z 0000000180042980 f   GuSweepSharedTests.obj
 0001:00041c70       ?sweepCapsule_SphereGeom@@YA_NAEBVPxGeometry@physx@@AEBV?$PxTransformT@M@2@AEBVPxCapsuleGeometry@2@1AEBVCapsule@Gu@2@AEBV?$PxVec3T@M@2@MAEAUPxGeomSweepHit@2@V?$PxFlags@W4Enum@PxHitFlag@physx@@G@2@MPEAUPxQueryThreadContext@2@@Z 0000000180042c70 f   GuSweepSharedTests.obj
 0001:00041e00       ?sweepConvex_BoxGeom@@YA_NAEBVPxGeometry@physx@@AEBV?$PxTransformT@M@2@AEBVPxConvexMeshGeometry@2@1AEBV?$PxVec3T@M@2@MAEAUPxGeomSweepHit@2@V?$PxFlags@W4Enum@PxHitFlag@physx@@G@2@MPEAUPxQueryThreadContext@2@@Z 0000000180042e00 f   GuSweepSharedTests.obj
 0001:00042020       ?sweepConvex_CapsuleGeom@@YA_NAEBVPxGeometry@physx@@AEBV?$PxTransformT@M@2@AEBVPxConvexMeshGeometry@2@1AEBV?$PxVec3T@M@2@MAEAUPxGeomSweepHit@2@V?$PxFlags@W4Enum@PxHitFlag@physx@@G@2@MPEAUPxQueryThreadContext@2@@Z 0000000180043020 f   GuSweepSharedTests.obj
 0001:00042250       ?sweepConvex_ConvexGeom@@YA_NAEBVPxGeometry@physx@@AEBV?$PxTransformT@M@2@AEBVPxConvexMeshGeometry@2@1AEBV?$PxVec3T@M@2@MAEAUPxGeomSweepHit@2@V?$PxFlags@W4Enum@PxHitFlag@physx@@G@2@MPEAUPxQueryThreadContext@2@@Z 0000000180043250 f   GuSweepSharedTests.obj
 0001:000431c0       ?sweepConvex_PlaneGeom@@YA_NAEBVPxGeometry@physx@@AEBV?$PxTransformT@M@2@AEBVPxConvexMeshGeometry@2@1AEBV?$PxVec3T@M@2@MAEAUPxGeomSweepHit@2@V?$PxFlags@W4Enum@PxHitFlag@physx@@G@2@MPEAUPxQueryThreadContext@2@@Z 00000001800441c0 f   GuSweepSharedTests.obj
 0001:00043610       ?sweepConvex_SphereGeom@@YA_NAEBVPxGeometry@physx@@AEBV?$PxTransformT@M@2@AEBVPxConvexMeshGeometry@2@1AEBV?$PxVec3T@M@2@MAEAUPxGeomSweepHit@2@V?$PxFlags@W4Enum@PxHitFlag@physx@@G@2@MPEAUPxQueryThreadContext@2@@Z 0000000180044610 f   GuSweepSharedTests.obj
 0001:00044210       ?sweepCapsule_BoxGeom@@YA_NAEBVPxGeometry@physx@@AEBV?$PxTransformT@M@2@AEBVPxCapsuleGeometry@2@1AEBVCapsule@Gu@2@AEBV?$PxVec3T@M@2@MAEAUPxGeomSweepHit@2@V?$PxFlags@W4Enum@PxHitFlag@physx@@G@2@MPEAUPxQueryThreadContext@2@@Z 0000000180045210 f   GuSweepTests.obj
 0001:00044ac0       ?sweepBox_SphereGeom@@YA_NAEBVPxGeometry@physx@@AEBV?$PxTransformT@M@2@AEBVPxBoxGeometry@2@1AEBVBox@Gu@2@AEBV?$PxVec3T@M@2@MAEAUPxGeomSweepHit@2@V?$PxFlags@W4Enum@PxHitFlag@physx@@G@2@MPEAUPxQueryThreadContext@2@@Z 0000000180045ac0 f   GuSweepTests.obj
 0001:000451a0       ?sweepBox_CapsuleGeom@@YA_NAEBVPxGeometry@physx@@AEBV?$PxTransformT@M@2@AEBVPxBoxGeometry@2@1AEBVBox@Gu@2@AEBV?$PxVec3T@M@2@MAEAUPxGeomSweepHit@2@V?$PxFlags@W4Enum@PxHitFlag@physx@@G@2@MPEAUPxQueryThreadContext@2@@Z 00000001800461a0 f   GuSweepTests.obj
 0001:00045a50       ?sweepBox_BoxGeom@@YA_NAEBVPxGeometry@physx@@AEBV?$PxTransformT@M@2@AEBVPxBoxGeometry@2@1AEBVBox@Gu@2@AEBV?$PxVec3T@M@2@MAEAUPxGeomSweepHit@2@V?$PxFlags@W4Enum@PxHitFlag@physx@@G@2@MPEAUPxQueryThreadContext@2@@Z 0000000180046a50 f   GuSweepTests.obj
 0001:00046530       ??$gjkPenetration@U?$LocalConvex@VCapsuleV@Gu@physx@@@Gu@physx@@U?$LocalConvex@VBoxV@Gu@physx@@@23@@Gu@physx@@YA?AW4GjkStatus@01@AEBU?$LocalConvex@VCapsuleV@Gu@physx@@@01@AEBU?$LocalConvex@VBoxV@Gu@physx@@@01@AEBT__m128@@2_NPEIAE4AEAEAEAUGjkOutput@01@@Z 0000000180047530 f i GuSweepTests.obj
 0001:000465a0       ??$gjkPenetration@U?$LocalConvex@VCapsuleV@Gu@physx@@@Gu@physx@@U?$LocalConvex@VBoxV@Gu@physx@@@23@@Gu@physx@@YA?AW4GjkStatus@01@AEBU?$LocalConvex@VCapsuleV@Gu@physx@@@01@AEBU?$LocalConvex@VBoxV@Gu@physx@@@01@AEBT__m128@@2_NPEIAE4PEIAT5@5AEAEAEAUGjkOutput@01@@Z 00000001800475a0 f i GuSweepTests.obj
 0001:000479e0       ??$gjkPenetration@U?$RelativeConvex@VBoxV@Gu@physx@@@Gu@physx@@U?$LocalConvex@VBoxV@Gu@physx@@@23@@Gu@physx@@YA?AW4GjkStatus@01@AEBU?$RelativeConvex@VBoxV@Gu@physx@@@01@AEBU?$LocalConvex@VBoxV@Gu@physx@@@01@AEBT__m128@@2_NPEIAE4AEAEAEAUGjkOutput@01@@Z 00000001800489e0 f i GuSweepTests.obj
 0001:00047a50       ??$gjkPenetration@U?$RelativeConvex@VBoxV@Gu@physx@@@Gu@physx@@U?$LocalConvex@VBoxV@Gu@physx@@@23@@Gu@physx@@YA?AW4GjkStatus@01@AEBU?$RelativeConvex@VBoxV@Gu@physx@@@01@AEBU?$LocalConvex@VBoxV@Gu@physx@@@01@AEBT__m128@@2_NPEIAE4PEIAT5@5AEAEAEAUGjkOutput@01@@Z 0000000180048a50 f i GuSweepTests.obj
 0001:00048ee0       ??$gjkRaycast@U?$LocalConvex@VCapsuleV@Gu@physx@@@Gu@physx@@U?$LocalConvex@VBoxV@Gu@physx@@@23@@Gu@physx@@YA_NAEBU?$LocalConvex@VCapsuleV@Gu@physx@@@01@AEBU?$LocalConvex@VBoxV@Gu@physx@@@01@AEBT__m128@@222AEAT4@33M@Z 0000000180049ee0 f i GuSweepTests.obj
 0001:00049a80       ??$gjkRaycast@U?$LocalConvex@VTriangleV@Gu@physx@@@Gu@physx@@U?$LocalConvex@VBoxV@Gu@physx@@@23@@Gu@physx@@YA_NAEBU?$LocalConvex@VTriangleV@Gu@physx@@@01@AEBU?$LocalConvex@VBoxV@Gu@physx@@@01@AEBT__m128@@222AEAT4@33M@Z 000000018004aa80 f i GuSweepTests.obj
 0001:0004a6e0       ??$gjkRaycast@U?$RelativeConvex@VBoxV@Gu@physx@@@Gu@physx@@U?$LocalConvex@VBoxV@Gu@physx@@@23@@Gu@physx@@YA_NAEBU?$RelativeConvex@VBoxV@Gu@physx@@@01@AEBU?$LocalConvex@VBoxV@Gu@physx@@@01@AEBT__m128@@222AEAT4@33M@Z 000000018004b6e0 f i GuSweepTests.obj
 0001:0004b310       ?getSweepFuncTable@Gu@physx@@YAAEBUGeomSweepFuncs@12@XZ 000000018004c310 f   GuSweepTests.obj
 0001:0004b320       ?getSweepMargin@?$LocalConvex@VTetrahedronV@Gu@physx@@@Gu@physx@@UEBA?AT__m128@@XZ 000000018004c320 f i GuCookingTetrahedronMesh.obj
 0001:0004b320       ?getSweepMargin@?$LocalConvex@VTriangleV@Gu@physx@@@Gu@physx@@UEBA?AT__m128@@XZ 000000018004c320 f i GuSweepTests.obj
 0001:0004b320       ?getSweepMargin@?$RelativeConvex@VTriangleV@Gu@physx@@@Gu@physx@@UEBA?AT__m128@@XZ 000000018004c320 f i GuCCDSweepPrimitives.obj
 0001:0004b330       ?registerHeightFields_Sweeps@@YAXXZ 000000018004c330 f   GuSweepTests.obj
 0001:0004b370       ?support@?$LocalConvex@VBoxV@Gu@physx@@@Gu@physx@@UEBA?AT__m128@@AEBT4@@Z 000000018004c370 f i GuSweepTests.obj
 0001:0004b3a0       ?support@?$LocalConvex@VBoxV@Gu@physx@@@Gu@physx@@UEBA?AT__m128@@AEBT4@AEAH@Z 000000018004c3a0 f i GuSweepTests.obj
 0001:0004b3e0       ?support@?$LocalConvex@VTriangleV@Gu@physx@@@Gu@physx@@UEBA?AT__m128@@AEBT4@@Z 000000018004c3e0 f i GuSweepTests.obj
 0001:0004b470       ?support@?$LocalConvex@VTriangleV@Gu@physx@@@Gu@physx@@UEBA?AT__m128@@AEBT4@AEAH@Z 000000018004c470 f i GuSweepTests.obj
 0001:0004b550       ?supportPoint@?$LocalConvex@VBoxV@Gu@physx@@@Gu@physx@@UEBA?AT__m128@@H@Z 000000018004c550 f i GuSweepTests.obj
 0001:0004b590       ?supportPoint@?$LocalConvex@VTetrahedronV@Gu@physx@@@Gu@physx@@UEBA?AT__m128@@H@Z 000000018004c590 f i GuCookingTetrahedronMesh.obj
 0001:0004b590       ?supportPoint@?$LocalConvex@VTriangleV@Gu@physx@@@Gu@physx@@UEBA?AT__m128@@H@Z 000000018004c590 f i GuSweepTests.obj
 0001:0004b5b0       ?sweepBoxTriangles@Gu@physx@@YA_NIPEBVPxTriangle@2@_NAEBVPxBoxGeometry@2@AEBV?$PxTransformT@M@2@AEBV?$PxVec3T@M@2@MAEAUPxGeomSweepHit@2@PEBIMV?$PxFlags@W4Enum@PxHitFlag@physx@@G@2@@Z 000000018004c5b0 f   GuSweepTests.obj
 0001:0004c020       ??$traverseBVH@VClosestDistanceToTrimeshTraversalController@Gu@physx@@@Gu@physx@@YAXPEBUBVHNode@01@AEAVClosestDistanceToTrimeshTraversalController@01@H@Z 000000018004d020 f i GuSDF.obj
 0001:0004c420       ??$traverseBVH@VLineSegmentTrimeshIntersectionTraversalController@Gu@physx@@@Gu@physx@@YAXPEBUBVHNode@01@AEAVLineSegmentTrimeshIntersectionTraversalController@01@H@Z 000000018004d420 f i GuSDF.obj
 0001:0004c910       ??1SDF@Gu@physx@@QEAA@XZ   000000018004d910 f   GuSDF.obj
 0001:0004c9a0       ??_G?$PxThreadT@V?$PxReflectionAllocator@VPxThreadImpl@physx@@@physx@@@physx@@UEAAPEAXI@Z 000000018004d9a0 f i GuSDF.obj
 0001:0004c9a0       ??_E?$PxThreadT@V?$PxReflectionAllocator@VPxThreadImpl@physx@@@physx@@@physx@@UEAAPEAXI@Z 000000018004d9a0 f i GuSDF.obj
 0001:0004ca40       ??_GPxRunnable@physx@@UEAAPEAXI@Z 000000018004da40 f i GuSDF.obj
 0001:0004ca40       ??_EPxRunnable@physx@@UEAAPEAXI@Z 000000018004da40 f i GuSDF.obj
 0001:0004ca70       ?SDFUsingWindingNumbers@Gu@physx@@YAXAEAV?$PxArray@UBVHNode@Gu@physx@@V?$PxReflectionAllocator@UBVHNode@Gu@physx@@@3@@2@AEAV?$PxHashMap@IU?$ClusterApproximationT@MV?$PxVec3T@M@physx@@@Gu@physx@@U?$PxHash@I@3@VPxAllocator@3@@2@PEBV?$PxVec3T@M@2@PEBIIIIIPEAMAEAVGridQueryPointSampler@12@PEAV52@I_N7@Z 000000018004da70 f   GuSDF.obj
 0001:0004cf70       ?SDFUsingWindingNumbers@Gu@physx@@YAXPEBV?$PxVec3T@M@2@PEBIIIIIPEAMV32@3PEAV32@_NI@Z 000000018004df70 f   GuSDF.obj
 0001:0004d280       ?SDFUsingWindingNumbersSparse@Gu@physx@@YAXPEBV?$PxVec3T@M@2@PEBIIIIIAEBV32@2MIAEAV?$PxArray@MV?$PxReflectionAllocator@M@physx@@@2@AEAV?$PxArray@IV?$PxReflectionAllocator@I@physx@@@2@33AEAM5I@Z 000000018004e280 f   GuSDF.obj
 0001:0004e0a0       ?allocate@?$PxArray@HV?$PxInlineAllocator@$0EAA@V?$PxReflectionAllocator@H@physx@@@physx@@@physx@@IEAAPEAHI@Z 000000018004f0a0 f i GuSDF.obj
 0001:0004e160       ?allocate@?$PxArray@MV?$PxReflectionAllocator@M@physx@@@physx@@IEAAPEAMI@Z 000000018004f160 f i GuSDF.obj
 0001:0004e200       ?allocateSdfs@SDF@Gu@physx@@QEAAPEAMAEBV?$PxVec3T@M@3@AEBMIIIIIIIMMI@Z 000000018004f200 f   GuSDF.obj
 0001:0004e410       ?buildTree@Gu@physx@@YAXPEBIIPEBV?$PxVec3T@M@2@AEAV?$PxArray@UBVHNode@Gu@physx@@V?$PxReflectionAllocator@UBVHNode@Gu@physx@@@3@@2@M@Z 000000018004f410 f   GuSDF.obj
 0001:0004e640       ?computeSDFThreadJob@Gu@physx@@YAPEAXPEAX@Z 000000018004f640 f   GuSDF.obj
 0001:0004f120       ?convertSparseSDFTo3DTextureLayout@Gu@physx@@YAXIIIIPEAIPEBMIAEAV?$PxArray@MV?$PxReflectionAllocator@M@physx@@@2@AEAI33@Z 0000000180050120 f   GuSDF.obj
 0001:0004f490       ?createTriangles@Gu@physx@@YAXHHHMQEAMAEBV?$PxHashMap@_KIU?$PxHash@_K@physx@@VPxAllocator@2@@2@AEBV?$PxArray@V?$PxVec3T@M@physx@@V?$PxReflectionAllocator@V?$PxVec3T@M@physx@@@2@@2@AEAV?$PxArray@IV?$PxReflectionAllocator@I@physx@@@2@@Z 0000000180050490 f   GuSDF.obj
 0001:0004fcc0       ?extractIsosurfaceFromSDF@Gu@physx@@YAXAEBVSDF@12@AEAV?$PxArray@V?$PxVec3T@M@physx@@V?$PxReflectionAllocator@V?$PxVec3T@M@physx@@@2@@2@AEAV?$PxArray@IV?$PxReflectionAllocator@I@physx@@@2@@Z 0000000180050cc0 f   GuSDF.obj
 0001:00051d10       ?fixSdfForNonClosedGeometry@Gu@physx@@YAXIIIPEAMAEBV?$PxVec3T@M@2@@Z 0000000180052d10 f   GuSDF.obj
 0001:00052dc0       ?generatePointInCell@Gu@physx@@YA_NAEBVSDF@12@HHHAEAV?$PxVec3T@M@2@QEAY111M@Z 0000000180053dc0 f   GuSDF.obj
 0001:00053220       ?growAndPushBack@?$PxArray@HV?$PxInlineAllocator@$0EAA@V?$PxReflectionAllocator@H@physx@@@physx@@@physx@@IEAAAEAHAEBH@Z 0000000180054220 f i GuSDF.obj
 0001:00053310       ?growAndPushBack@?$PxArray@MV?$PxReflectionAllocator@M@physx@@@physx@@IEAAAEAMAEBM@Z 0000000180054310 f i GuSDF.obj
 0001:000533f0       ?growAndPushBack@?$PxArray@PEAV?$PxThreadT@V?$PxReflectionAllocator@VPxThreadImpl@physx@@@physx@@@physx@@V?$PxReflectionAllocator@PEAV?$PxThreadT@V?$PxReflectionAllocator@VPxThreadImpl@physx@@@physx@@@physx@@@2@@physx@@IEAAAEAPEAV?$PxThreadT@V?$PxReflectionAllocator@VPxThreadImpl@physx@@@physx@@@2@AEBQEAV32@@Z 00000001800543f0 f i GuSDF.obj
 0001:00053510       ?growAndPushBack@?$PxArray@UMutation@Gu@physx@@V?$PxReflectionAllocator@UMutation@Gu@physx@@@3@@physx@@IEAAAEAUMutation@Gu@2@AEBU342@@Z 0000000180054510 f i GuSDF.obj
 0001:00053650       ?growAndPushBack@?$PxArray@URange@Gu@physx@@V?$PxReflectionAllocator@URange@Gu@physx@@@3@@physx@@IEAAAEAURange@Gu@2@AEBU342@@Z 0000000180054650 f i GuSDF.obj
 0001:000537a0       ?growAndPushBack@?$PxArray@USDFCalculationData@Gu@physx@@V?$PxReflectionAllocator@USDFCalculationData@Gu@physx@@@3@@physx@@IEAAAEAUSDFCalculationData@Gu@2@AEBU342@@Z 00000001800547a0 f i GuSDF.obj
 0001:00053930       ?growAndPushBack@?$PxArray@V?$PxVec3T@M@physx@@V?$PxReflectionAllocator@V?$PxVec3T@M@physx@@@2@@physx@@IEAAAEAV?$PxVec3T@M@2@AEBV32@@Z 0000000180054930 f i GuSDF.obj
 0001:00053b00       ?recreate@?$PxArray@MV?$PxReflectionAllocator@M@physx@@@physx@@IEAAXI@Z 0000000180054b00 f i GuSDF.obj
 0001:00053be0       ?reserveInternal@?$PxHashBase@V?$PxPair@$$CBIU?$ClusterApproximationT@MV?$PxVec3T@M@physx@@@Gu@physx@@@physx@@IU?$PxHash@I@2@UGetKey@?$PxHashMapBase@IU?$ClusterApproximationT@MV?$PxVec3T@M@physx@@@Gu@physx@@U?$PxHash@I@3@VPxAllocator@3@@2@VPxAllocator@2@$00@physx@@AEAAXI@Z 0000000180054be0 f i GuSDF.obj
 0001:00053df0       ?reserveInternal@?$PxHashBase@V?$PxPair@$$CB_KH@physx@@_KU?$PxHash@_K@2@UGetKey@?$PxHashMapBase@_KHU?$PxHash@_K@physx@@VPxAllocator@2@@2@VPxAllocator@2@$00@physx@@AEAAXI@Z 0000000180054df0 f i GuMeshAnalysis.obj
 0001:00053df0       ?reserveInternal@?$PxHashBase@V?$PxPair@$$CB_KI@physx@@_KU?$PxHash@_K@2@UGetKey@?$PxHashMapBase@_KIU?$PxHash@_K@physx@@VPxAllocator@2@@2@VPxAllocator@2@$00@physx@@AEAAXI@Z 0000000180054df0 f i GuSDF.obj
 0001:00053fe0       ?resize@?$PxArray@MV?$PxReflectionAllocator@M@physx@@@physx@@QEAAXIAEBM@Z 0000000180054fe0 f i GuSDF.obj
 0001:000540f0       ?sampleSDFDirect@?$DenseSDF@M@Gu@physx@@QEAAMAEBV?$PxVec3T@M@3@@Z 00000001800550f0 f i GuSDF.obj
 0001:00054280       ?windingNumbers@Gu@physx@@YAXPEBV?$PxVec3T@M@2@PEBIIIIIPEAMV32@3PEAV32@@Z 0000000180055280 f   GuSDF.obj
 0001:00054610       ?windingNumbersInsideCheck@Gu@physx@@YAXPEBV?$PxVec3T@M@2@PEBIIIIIPEA_NV32@3PEAV32@@Z 0000000180055610 f   GuSDF.obj
 0001:00054f50       ??0MeshData@physx@@QEAA@AEBVPxTriangleMeshDesc@1@@Z 0000000180055f50 f i GuCookingSDF.obj
 0001:00055030       ?GetBounds@MeshData@physx@@QEBAXAEAV?$PxVec3T@M@2@0@Z 0000000180056030 f i GuCookingSDF.obj
 0001:000552d0       ?buildSDF@physx@@YA_NAEAVPxTriangleMeshDesc@1@AEAV?$PxArray@MV?$PxReflectionAllocator@M@physx@@@1@AEAV?$PxArray@EV?$PxReflectionAllocator@E@physx@@@1@AEAV?$PxArray@IV?$PxReflectionAllocator@I@physx@@@1@@Z 00000001800562d0 f   GuCookingSDF.obj
 0001:00055c00       ?quantizeSparseSDF@physx@@YAXW4Enum@PxSdfBitsPerSubgridPixel@1@AEBV?$PxArray@MV?$PxReflectionAllocator@M@physx@@@1@AEAV?$PxArray@EV?$PxReflectionAllocator@E@physx@@@1@MM@Z 0000000180056c00 f   GuCookingSDF.obj
 0001:00055ce0       ?recreate@?$PxArray@EV?$PxReflectionAllocator@E@physx@@@physx@@IEAAXI@Z 0000000180056ce0 f i GuCookingSDF.obj
 0001:00055df0       ?recreate@?$PxArray@V?$PxVec3T@M@physx@@V?$PxReflectionAllocator@V?$PxVec3T@M@physx@@@2@@physx@@IEAAXI@Z 0000000180056df0 f i GuCookingSDF.obj
 0001:00055fa0       ?resize@?$PxArray@EV?$PxReflectionAllocator@E@physx@@@physx@@QEAAXIAEBE@Z 0000000180056fa0 f i GuCookingSDF.obj
 0001:00056060       ?resize@?$PxArray@IV?$PxReflectionAllocator@I@physx@@@physx@@QEAAXIAEBI@Z 0000000180057060 f i GuCookingSDF.obj
 0001:00056120       ?resize@?$PxArray@V?$PxVec3T@M@physx@@V?$PxReflectionAllocator@V?$PxVec3T@M@physx@@@2@@physx@@QEAAXIAEBV?$PxVec3T@M@2@@Z 0000000180057120 f i GuCookingSDF.obj
 0001:00056210       ??$gjk@U?$RelativeConvex@UCustomConvexV@@@Gu@physx@@U?$LocalConvex@UCustomConvexV@@@23@@Gu@physx@@YA?AW4GjkStatus@01@AEBU?$RelativeConvex@UCustomConvexV@@@01@AEBU?$LocalConvex@UCustomConvexV@@@01@AEBT__m128@@2AEAT5@333@Z 0000000180057210 f i GuGjkQuery.obj
 0001:00056f90       ??$gjkPenetration@U?$RelativeConvex@UCustomConvexV@@@Gu@physx@@U?$LocalConvex@UCustomConvexV@@@23@@Gu@physx@@YA?AW4GjkStatus@01@AEBU?$RelativeConvex@UCustomConvexV@@@01@AEBU?$LocalConvex@UCustomConvexV@@@01@AEBT__m128@@2_NPEIAE4PEIAT5@5AEAEAEAUGjkOutput@01@@Z 0000000180057f90 f i GuGjkQuery.obj
 0001:000584d0       ??$gjkPenetration@U?$RelativeConvex@UCustomConvexV@@@Gu@physx@@U?$LocalConvex@UCustomConvexV@@@23@@Gu@physx@@YA?AW4GjkStatus@01@AEBU?$RelativeConvex@UCustomConvexV@@@01@AEBU?$LocalConvex@UCustomConvexV@@@01@AEBT__m128@@2_NPEIAT5@4AEAEAEAUGjkOutput@01@@Z 00000001800594d0 f i GuGjkQuery.obj
 0001:00058530       ??$gjkRaycast@U?$RelativeConvex@UCustomConvexV@@@Gu@physx@@U?$LocalConvex@UCustomConvexV@@@23@@Gu@physx@@YA_NAEBU?$RelativeConvex@UCustomConvexV@@@01@AEBU?$LocalConvex@UCustomConvexV@@@01@AEBT__m128@@222AEAT4@33M@Z 0000000180059530 f i GuGjkQuery.obj
 0001:00059280       ??$gjkRaycast@U?$RelativeConvex@UCustomConvexV@@@Gu@physx@@U?$LocalConvex@UPointConvexV@@@23@@Gu@physx@@YA_NAEBU?$RelativeConvex@UCustomConvexV@@@01@AEBU?$LocalConvex@UPointConvexV@@@01@AEBT__m128@@222AEAT4@33M@Z 000000018005a280 f i GuGjkQuery.obj
 0001:00059ed0       ?overlap@PxGjkQuery@physx@@SA_NAEBUSupport@12@0AEBV?$PxTransformT@M@2@1@Z 000000018005aed0 f   GuGjkQuery.obj
 0001:0005a250       ?proximityInfo@PxGjkQuery@physx@@SA_NAEBUSupport@12@0AEBV?$PxTransformT@M@2@1MMAEAV?$PxVec3T@M@2@22AEAM@Z 000000018005b250 f   GuGjkQuery.obj
 0001:0005af90       ?raycast@PxGjkQuery@physx@@SA_NAEBUSupport@12@AEBV?$PxTransformT@M@2@AEBV?$PxVec3T@M@2@2MAEAMAEAV52@4@Z 000000018005bf90 f   GuGjkQuery.obj
 0001:0005b430       ?support@?$LocalConvex@UCustomConvexV@@@Gu@physx@@UEBA?AT__m128@@AEBT4@@Z 000000018005c430 f i GuGjkQuery.obj
 0001:0005b4b0       ?support@?$LocalConvex@UCustomConvexV@@@Gu@physx@@UEBA?AT__m128@@AEBT4@AEAH@Z 000000018005c4b0 f i GuGjkQuery.obj
 0001:0005b530       ?supportPoint@?$LocalConvex@UPointConvexV@@@Gu@physx@@UEBA?AT__m128@@H@Z 000000018005c530 f i GuGjkQuery.obj
 0001:0005b530       ?support@?$LocalConvex@UPointConvexV@@@Gu@physx@@UEBA?AT__m128@@AEBT4@@Z 000000018005c530 f i GuGjkQuery.obj
 0001:0005b540       ?support@?$LocalConvex@UPointConvexV@@@Gu@physx@@UEBA?AT__m128@@AEBT4@AEAH@Z 000000018005c540 f i GuGjkQuery.obj
 0001:0005b560       ?support@?$RelativeConvex@UCustomConvexV@@@Gu@physx@@UEBA?AT__m128@@AEBT4@@Z 000000018005c560 f i GuGjkQuery.obj
 0001:0005b630       ?support@?$RelativeConvex@UCustomConvexV@@@Gu@physx@@UEBA?AT__m128@@AEBT4@AEAH@Z 000000018005c630 f i GuGjkQuery.obj
 0001:0005b710       ?supportPoint@?$LocalConvex@UCustomConvexV@@@Gu@physx@@UEBA?AT__m128@@H@Z 000000018005c710 f i GuGjkQuery.obj
 0001:0005b780       ?supportPoint@?$RelativeConvex@UCustomConvexV@@@Gu@physx@@UEBA?AT__m128@@H@Z 000000018005c780 f i GuGjkQuery.obj
 0001:0005b820       ?sweep@PxGjkQuery@physx@@SA_NAEBUSupport@12@0AEBV?$PxTransformT@M@2@1AEBV?$PxVec3T@M@2@MAEAMAEAV52@4@Z 000000018005c820 f   GuGjkQuery.obj
 0001:0005bfc0       ??$approximateCluster@MV?$PxVec3T@M@physx@@@Gu@physx@@YAXAEBV?$PxArray@HV?$PxReflectionAllocator@H@physx@@@1@IIPEBIPEBV?$PxVec3T@M@1@AEBV?$PxArray@MV?$PxReflectionAllocator@M@physx@@@1@AEBV?$PxArray@V?$PxVec3T@M@physx@@V?$PxReflectionAllocator@V?$PxVec3T@M@physx@@@2@@1@4AEAU?$ClusterApproximationT@MV?$PxVec3T@M@physx@@@01@@Z 000000018005cfc0 f i GuWindingNumber.obj
 0001:0005c800       ??$copy@V?$PxReflectionAllocator@M@physx@@@?$PxArray@MV?$PxReflectionAllocator@M@physx@@@physx@@IEAAXAEBV01@@Z 000000018005d800 f i GuWindingNumber.obj
 0001:0005c860       ??$precomputeClusterInformation@MV?$PxVec3T@M@physx@@@Gu@physx@@YAXHPEBUBVHNode@01@PEBIIPEBV?$PxVec3T@M@1@AEAV?$PxHashMap@IU?$ClusterApproximationT@MV?$PxVec3T@M@physx@@@Gu@physx@@U?$PxHash@I@3@VPxAllocator@3@@1@V?$PxArray@MV?$PxReflectionAllocator@M@physx@@@1@AEBV?$PxArray@V?$PxVec3T@M@physx@@V?$PxReflectionAllocator@V?$PxVec3T@M@physx@@@2@@1@5@Z 000000018005d860 f i GuWindingNumber.obj
 0001:0005cc20       ??$precomputeClusterInformation@MV?$PxVec3T@M@physx@@@Gu@physx@@YAXPEBUBVHNode@01@PEBIIPEBV?$PxVec3T@M@1@AEAV?$PxHashMap@IU?$ClusterApproximationT@MV?$PxVec3T@M@physx@@@Gu@physx@@U?$PxHash@I@3@VPxAllocator@3@@1@H@Z 000000018005dc20 f i GuWindingNumber.obj
 0001:0005d020       ??$traverseBVH@V?$WindingNumberTraversalController@MV?$PxVec3T@M@physx@@@Gu@physx@@@Gu@physx@@YAXPEBUBVHNode@01@AEAV?$WindingNumberTraversalController@MV?$PxVec3T@M@physx@@@01@H@Z 000000018005e020 f i GuWindingNumber.obj
 0001:0005d570       ?allocate@?$PxArray@HV?$PxReflectionAllocator@H@physx@@@physx@@IEAAPEAHI@Z 000000018005e570 f i GuWindingNumber.obj
 0001:0005d610       ?computeWindingNumber@Gu@physx@@YAMPEBUBVHNode@12@AEBV?$PxVec3T@M@2@AEBV?$PxHashMap@IU?$ClusterApproximationT@MV?$PxVec3T@M@physx@@@Gu@physx@@U?$PxHash@I@3@VPxAllocator@3@@2@PEBIPEBV42@@Z 000000018005e610 f   GuWindingNumber.obj
 0001:0005d680       ?computeWindingNumber@Gu@physx@@YAMPEBUBVHNode@12@AEBV?$PxVec3T@M@2@MAEBV?$PxHashMap@IU?$ClusterApproximationT@MV?$PxVec3T@M@physx@@@Gu@physx@@U?$PxHash@I@3@VPxAllocator@3@@2@PEBIPEBV42@@Z 000000018005e680 f   GuWindingNumber.obj
 0001:0005d6f0       ?copy@?$PxArray@MV?$PxReflectionAllocator@M@physx@@@physx@@KAXPEAM0PEBM@Z 000000018005e6f0 f i GuWindingNumber.obj
 0001:0005d750       ?create@?$PxHashBase@V?$PxPair@$$CBIU?$ClusterApproximationT@MV?$PxVec3T@M@physx@@@Gu@physx@@@physx@@IU?$PxHash@I@2@UGetKey@?$PxHashMapBase@IU?$ClusterApproximationT@MV?$PxVec3T@M@physx@@@Gu@physx@@U?$PxHash@I@3@VPxAllocator@3@@2@VPxAllocator@2@$00@physx@@QEAAPEAV?$PxPair@$$CBIU?$ClusterApproximationT@MV?$PxVec3T@M@physx@@@Gu@physx@@@2@AEBIAEA_N@Z 000000018005e750 f i GuWindingNumber.obj
 0001:0005d8b0       ?growAndPushBack@?$PxArray@HV?$PxReflectionAllocator@H@physx@@@physx@@IEAAAEAHAEBH@Z 000000018005e8b0 f i GuWindingNumber.obj
 0001:0005d970       ?growAndPushBack@?$PxArray@USection@Gu@physx@@V?$PxReflectionAllocator@USection@Gu@physx@@@3@@physx@@IEAAAEAUSection@Gu@2@AEBU342@@Z 000000018005e970 f i GuWindingNumber.obj
 0001:0005da90       ?precomputeClusterInformation@Gu@physx@@YAXPEBUBVHNode@12@PEBIIPEBV?$PxVec3T@M@2@AEAV?$PxHashMap@IU?$ClusterApproximationT@MV?$PxVec3T@M@physx@@@Gu@physx@@U?$PxHash@I@3@VPxAllocator@3@@2@H@Z 000000018005ea90 f   GuWindingNumber.obj
 0001:0005daa0       ?recreate@?$PxArray@HV?$PxReflectionAllocator@H@physx@@@physx@@IEAAXI@Z 000000018005eaa0 f i GuWindingNumber.obj
 0001:0005dbd0       ?SweepAnyShapeHeightfield@Gu@physx@@YAMAEBUCCDShape@12@0AEBV?$PxTransformT@M@2@111MAEAV?$PxVec3T@M@2@2MAEAIM@Z 000000018005ebd0 f   GuCCDSweepConvexMesh.obj
 0001:0005f140       ?SweepAnyShapeMesh@Gu@physx@@YAMAEBUCCDShape@12@0AEBV?$PxTransformT@M@2@111MAEAV?$PxVec3T@M@2@2MAEAIM@Z 0000000180060140 f   GuCCDSweepConvexMesh.obj
 0001:00060700       ?SweepEstimateAnyShapeHeightfield@Gu@physx@@YAMAEBUCCDShape@12@0MM@Z 0000000180061700 f   GuCCDSweepConvexMesh.obj
 0001:00061360       ?SweepEstimateAnyShapeMesh@Gu@physx@@YAMAEBUCCDShape@12@0MM@Z 0000000180062360 f   GuCCDSweepConvexMesh.obj
 0001:00061600       ?allocate@?$PxArray@IV?$PxInlineAllocator@$0BAA@V?$PxReflectionAllocator@I@physx@@@physx@@@physx@@IEAAPEAII@Z 0000000180062600 f i GuCCDSweepConvexMesh.obj
 0001:000620d0       ?growAndPushBack@?$PxArray@IV?$PxInlineAllocator@$0BAA@V?$PxReflectionAllocator@I@physx@@@physx@@@physx@@IEAAAEAIAEBI@Z 00000001800630d0 f i GuCCDSweepConvexMesh.obj
 0001:00062710       ?recreate@?$PxArray@IV?$PxInlineAllocator@$0BAA@V?$PxReflectionAllocator@I@physx@@@physx@@@physx@@IEAAXI@Z 0000000180063710 f i GuCCDSweepConvexMesh.obj
 0001:00062840       ?resize@?$PxArray@IV?$PxInlineAllocator@$0BAA@V?$PxReflectionAllocator@I@physx@@@physx@@@physx@@QEAAXIAEBI@Z 0000000180063840 f i GuCCDSweepConvexMesh.obj
 0001:00062910       ?transformBoxOrthonormal@physx@@YA?AVBox@Gu@1@AEBV231@AEBV?$PxTransformT@M@1@@Z 0000000180063910 f i GuCCDSweepConvexMesh.obj
 0001:00062da0       ?UnimplementedSweep@Gu@physx@@YAMAEBUCCDShape@12@0AEBV?$PxTransformT@M@2@111MAEAV?$PxVec3T@M@2@2MAEAIM@Z 0000000180063da0 f   GuCCDSweepPrimitives.obj
 0001:00066930       ?UnimplementedTriangleSweep@Gu@physx@@YAMAEBVPxGeometry@2@0AEBV?$PxTransformT@M@2@111MAEAV?$PxVec3T@M@2@2AEBVFastVertex2ShapeScaling@Cm@2@AEAVTriangleV@12@M@Z 0000000180067930 f   GuCCDSweepPrimitives.obj
 0001:00066940       ??$SweepGeomTriangles@VCapsuleV@Gu@physx@@@Gu@physx@@YAMAEBVPxGeometry@1@0AEBV?$PxTransformT@M@1@111MAEAV?$PxVec3T@M@1@2AEBVFastVertex2ShapeScaling@Cm@1@AEAVTriangleV@01@M@Z 0000000180067940 f i GuCCDSweepPrimitives.obj
 0001:00067070       ??$SweepGeomTriangles@VBoxV@Gu@physx@@@Gu@physx@@YAMAEBVPxGeometry@1@0AEBV?$PxTransformT@M@1@111MAEAV?$PxVec3T@M@1@2AEBVFastVertex2ShapeScaling@Cm@1@AEAVTriangleV@01@M@Z 0000000180068070 f i GuCCDSweepPrimitives.obj
 0001:000677c0       ??$SweepGeomTriangles@VConvexHullV@Gu@physx@@@Gu@physx@@YAMAEBVPxGeometry@1@0AEBV?$PxTransformT@M@1@111MAEAV?$PxVec3T@M@1@2AEBVFastVertex2ShapeScaling@Cm@1@AEAVTriangleV@01@M@Z 00000001800687c0 f i GuCCDSweepPrimitives.obj
 0001:000682b0       ?supportPoint@?$RelativeConvex@VCapsuleV@Gu@physx@@@Gu@physx@@UEBA?AT__m128@@H@Z 00000001800692b0 f i GuCCDSweepPrimitives.obj
 0001:00068310       ?support@?$RelativeConvex@VCapsuleV@Gu@physx@@@Gu@physx@@UEBA?AT__m128@@AEBT4@@Z 0000000180069310 f i GuCCDSweepPrimitives.obj
 0001:000683c0       ?support@?$RelativeConvex@VCapsuleV@Gu@physx@@@Gu@physx@@UEBA?AT__m128@@AEBT4@AEAH@Z 00000001800693c0 f i GuCCDSweepPrimitives.obj
 0001:00068480       ?supportPoint@?$RelativeConvex@VTriangleV@Gu@physx@@@Gu@physx@@UEBA?AT__m128@@H@Z 0000000180069480 f i GuCCDSweepPrimitives.obj
 0001:000684d0       ?support@?$RelativeConvex@VTriangleV@Gu@physx@@@Gu@physx@@UEBA?AT__m128@@AEBT4@@Z 00000001800694d0 f i GuCCDSweepPrimitives.obj
 0001:000685d0       ?support@?$RelativeConvex@VTriangleV@Gu@physx@@@Gu@physx@@UEBA?AT__m128@@AEBT4@AEAH@Z 00000001800695d0 f i GuCCDSweepPrimitives.obj
 0001:00068710       ??$gjkPenetration@U?$RelativeConvex@VCapsuleV@Gu@physx@@@Gu@physx@@U?$LocalConvex@VBoxV@Gu@physx@@@23@@Gu@physx@@YA?AW4GjkStatus@01@AEBU?$RelativeConvex@VCapsuleV@Gu@physx@@@01@AEBU?$LocalConvex@VBoxV@Gu@physx@@@01@AEBT__m128@@2_NPEIAE4AEAEAEAUGjkOutput@01@@Z 0000000180069710 f i GuCCDSweepPrimitives.obj
 0001:00068780       ??$gjkPenetration@U?$RelativeConvex@VCapsuleV@Gu@physx@@@Gu@physx@@U?$LocalConvex@VBoxV@Gu@physx@@@23@@Gu@physx@@YA?AW4GjkStatus@01@AEBU?$RelativeConvex@VCapsuleV@Gu@physx@@@01@AEBU?$LocalConvex@VBoxV@Gu@physx@@@01@AEBT__m128@@2_NPEIAE4PEIAT5@5AEAEAEAUGjkOutput@01@@Z 0000000180069780 f i GuCCDSweepPrimitives.obj
 0001:00069c30       ??$gjkPenetration@U?$RelativeConvex@VCapsuleV@Gu@physx@@@Gu@physx@@U?$LocalConvex@VCapsuleV@Gu@physx@@@23@@Gu@physx@@YA?AW4GjkStatus@01@AEBU?$RelativeConvex@VCapsuleV@Gu@physx@@@01@AEBU?$LocalConvex@VCapsuleV@Gu@physx@@@01@AEBT__m128@@2_NPEIAE4AEAEAEAUGjkOutput@01@@Z 000000018006ac30 f i GuCCDSweepPrimitives.obj
 0001:00069ca0       ??$gjkPenetration@U?$RelativeConvex@VCapsuleV@Gu@physx@@@Gu@physx@@U?$LocalConvex@VCapsuleV@Gu@physx@@@23@@Gu@physx@@YA?AW4GjkStatus@01@AEBU?$RelativeConvex@VCapsuleV@Gu@physx@@@01@AEBU?$LocalConvex@VCapsuleV@Gu@physx@@@01@AEBT__m128@@2_NPEIAE4PEIAT5@5AEAEAEAUGjkOutput@01@@Z 000000018006aca0 f i GuCCDSweepPrimitives.obj
 0001:0006b140       ??$gjkPenetration@U?$RelativeConvex@VCapsuleV@Gu@physx@@@Gu@physx@@U?$LocalConvex@VConvexHullV@Gu@physx@@@23@@Gu@physx@@YA?AW4GjkStatus@01@AEBU?$RelativeConvex@VCapsuleV@Gu@physx@@@01@AEBU?$LocalConvex@VConvexHullV@Gu@physx@@@01@AEBT__m128@@2_NPEIAE4AEAEAEAUGjkOutput@01@@Z 000000018006c140 f i GuCCDSweepPrimitives.obj
 0001:0006b1b0       ??$gjkPenetration@U?$RelativeConvex@VCapsuleV@Gu@physx@@@Gu@physx@@U?$LocalConvex@VConvexHullV@Gu@physx@@@23@@Gu@physx@@YA?AW4GjkStatus@01@AEBU?$RelativeConvex@VCapsuleV@Gu@physx@@@01@AEBU?$LocalConvex@VConvexHullV@Gu@physx@@@01@AEBT__m128@@2_NPEIAE4PEIAT5@5AEAEAEAUGjkOutput@01@@Z 000000018006c1b0 f i GuCCDSweepPrimitives.obj
 0001:0006c730       ??$gjkPenetration@U?$RelativeConvex@VTriangleV@Gu@physx@@@Gu@physx@@U?$LocalConvex@VBoxV@Gu@physx@@@23@@Gu@physx@@YA?AW4GjkStatus@01@AEBU?$RelativeConvex@VTriangleV@Gu@physx@@@01@AEBU?$LocalConvex@VBoxV@Gu@physx@@@01@AEBT__m128@@2_NPEIAE4AEAEAEAUGjkOutput@01@@Z 000000018006d730 f i GuCCDSweepPrimitives.obj
 0001:0006c7a0       ??$gjkPenetration@U?$RelativeConvex@VTriangleV@Gu@physx@@@Gu@physx@@U?$LocalConvex@VBoxV@Gu@physx@@@23@@Gu@physx@@YA?AW4GjkStatus@01@AEBU?$RelativeConvex@VTriangleV@Gu@physx@@@01@AEBU?$LocalConvex@VBoxV@Gu@physx@@@01@AEBT__m128@@2_NPEIAE4PEIAT5@5AEAEAEAUGjkOutput@01@@Z 000000018006d7a0 f i GuCCDSweepPrimitives.obj
 0001:0006dc90       ??$gjkPenetration@U?$RelativeConvex@VTriangleV@Gu@physx@@@Gu@physx@@U?$LocalConvex@VCapsuleV@Gu@physx@@@23@@Gu@physx@@YA?AW4GjkStatus@01@AEBU?$RelativeConvex@VTriangleV@Gu@physx@@@01@AEBU?$LocalConvex@VCapsuleV@Gu@physx@@@01@AEBT__m128@@2_NPEIAE4AEAEAEAUGjkOutput@01@@Z 000000018006ec90 f i GuCCDSweepPrimitives.obj
 0001:0006dd00       ??$gjkPenetration@U?$RelativeConvex@VTriangleV@Gu@physx@@@Gu@physx@@U?$LocalConvex@VCapsuleV@Gu@physx@@@23@@Gu@physx@@YA?AW4GjkStatus@01@AEBU?$RelativeConvex@VTriangleV@Gu@physx@@@01@AEBU?$LocalConvex@VCapsuleV@Gu@physx@@@01@AEBT__m128@@2_NPEIAE4PEIAT5@5AEAEAEAUGjkOutput@01@@Z 000000018006ed00 f i GuCCDSweepPrimitives.obj
 0001:0006f200       ??$gjkPenetration@U?$RelativeConvex@VTriangleV@Gu@physx@@@Gu@physx@@U?$LocalConvex@VConvexHullV@Gu@physx@@@23@@Gu@physx@@YA?AW4GjkStatus@01@AEBU?$RelativeConvex@VTriangleV@Gu@physx@@@01@AEBU?$LocalConvex@VConvexHullV@Gu@physx@@@01@AEBT__m128@@2_NPEIAE4AEAEAEAUGjkOutput@01@@Z 0000000180070200 f i GuCCDSweepPrimitives.obj
 0001:0006f270       ??$gjkPenetration@U?$RelativeConvex@VTriangleV@Gu@physx@@@Gu@physx@@U?$LocalConvex@VConvexHullV@Gu@physx@@@23@@Gu@physx@@YA?AW4GjkStatus@01@AEBU?$RelativeConvex@VTriangleV@Gu@physx@@@01@AEBU?$LocalConvex@VConvexHullV@Gu@physx@@@01@AEBT__m128@@2_NPEIAE4PEIAT5@5AEAEAEAUGjkOutput@01@@Z 0000000180070270 f i GuCCDSweepPrimitives.obj
 0001:00070820       ??$gjkRaycast@U?$RelativeConvex@VCapsuleV@Gu@physx@@@Gu@physx@@U?$LocalConvex@VBoxV@Gu@physx@@@23@@Gu@physx@@YA_NAEBU?$RelativeConvex@VCapsuleV@Gu@physx@@@01@AEBU?$LocalConvex@VBoxV@Gu@physx@@@01@AEBT__m128@@222AEAT4@33M@Z 0000000180071820 f i GuCCDSweepPrimitives.obj
 0001:00071470       ??$gjkRaycast@U?$RelativeConvex@VCapsuleV@Gu@physx@@@Gu@physx@@U?$LocalConvex@VCapsuleV@Gu@physx@@@23@@Gu@physx@@YA_NAEBU?$RelativeConvex@VCapsuleV@Gu@physx@@@01@AEBU?$LocalConvex@VCapsuleV@Gu@physx@@@01@AEBT__m128@@222AEAT4@33M@Z 0000000180072470 f i GuCCDSweepPrimitives.obj
 0001:00072140       ??$gjkRaycast@U?$RelativeConvex@VCapsuleV@Gu@physx@@@Gu@physx@@U?$LocalConvex@VConvexHullV@Gu@physx@@@23@@Gu@physx@@YA_NAEBU?$RelativeConvex@VCapsuleV@Gu@physx@@@01@AEBU?$LocalConvex@VConvexHullV@Gu@physx@@@01@AEBT__m128@@222AEAT4@33M@Z 0000000180073140 f i GuCCDSweepPrimitives.obj
 0001:00072f50       ??$gjkRaycast@U?$RelativeConvex@VTriangleV@Gu@physx@@@Gu@physx@@U?$LocalConvex@VBoxV@Gu@physx@@@23@@Gu@physx@@YA_NAEBU?$RelativeConvex@VTriangleV@Gu@physx@@@01@AEBU?$LocalConvex@VBoxV@Gu@physx@@@01@AEBT__m128@@222AEAT4@33M@Z 0000000180073f50 f i GuCCDSweepPrimitives.obj
 0001:00073c50       ??$gjkRaycast@U?$RelativeConvex@VTriangleV@Gu@physx@@@Gu@physx@@U?$LocalConvex@VCapsuleV@Gu@physx@@@23@@Gu@physx@@YA_NAEBU?$RelativeConvex@VTriangleV@Gu@physx@@@01@AEBU?$LocalConvex@VCapsuleV@Gu@physx@@@01@AEBT__m128@@222AEAT4@33M@Z 0000000180074c50 f i GuCCDSweepPrimitives.obj
 0001:000749d0       ??$gjkRaycast@U?$RelativeConvex@VTriangleV@Gu@physx@@@Gu@physx@@U?$LocalConvex@VConvexHullV@Gu@physx@@@23@@Gu@physx@@YA_NAEBU?$RelativeConvex@VTriangleV@Gu@physx@@@01@AEBU?$LocalConvex@VConvexHullV@Gu@physx@@@01@AEBT__m128@@222AEAT4@33M@Z 00000001800759d0 f i GuCCDSweepPrimitives.obj
 0001:00075840       ?SweepShapeShape@Gu@physx@@YAMAEBUCCDShape@12@0AEBV?$PxTransformT@M@2@111MAEAV?$PxVec3T@M@2@2MAEAIM@Z 0000000180076840 f   GuCCDSweepPrimitives.obj
 0001:00075860       ?SweepShapeTriangle@Gu@physx@@YAMAEBVPxGeometry@2@0AEBV?$PxTransformT@M@2@111MAEAV?$PxVec3T@M@2@2AEBVFastVertex2ShapeScaling@Cm@2@AEAVTriangleV@12@M@Z 0000000180076860 f   GuCCDSweepPrimitives.obj
 0001:00075880       ?barycentricCoordinates@Gu@physx@@YAXAEBT__m128@@000AEAT3@1@Z 0000000180076880 f   GuBarycentricCoordinates.obj
 0001:000759c0       ?barycentricCoordinates@Gu@physx@@YAXAEBT__m128@@00AEAT3@@Z 00000001800769c0 f   GuBarycentricCoordinates.obj
 0001:00075a30       ??$?_UV?$PxReflectionAllocator@VAdjTriangle@Gu@physx@@@physx@@@PxUserAllocated@physx@@SAPEAX_KV?$PxReflectionAllocator@VAdjTriangle@Gu@physx@@@1@PEBDH@Z 0000000180076a30 f i GuAdjacencies.obj
 0001:00075b10       ??0AdjacenciesBuilder@Gu@physx@@QEAA@XZ 0000000180076b10 f   GuAdjacencies.obj
 0001:00075b20       ??1AdjacenciesBuilder@Gu@physx@@QEAA@XZ 0000000180076b20 f   GuAdjacencies.obj
 0001:00075b70       ?ComputeNbBoundaryEdges@Adjacencies@Gu@physx@@QEBAIXZ 0000000180076b70 f   GuAdjacencies.obj
 0001:00075e00       ?Init@AdjacenciesBuilder@Gu@physx@@QEAA_NAEBUADJACENCIESCREATE@23@@Z 0000000180076e00 f   GuAdjacencies.obj
 0001:000763d0       ??0EdgeList@Gu@physx@@QEAA@XZ 00000001800773d0 f   GuEdgeList.obj
 0001:000763f0       ??1EdgeList@Gu@physx@@QEAA@XZ 00000001800773f0 f   GuEdgeList.obj
 0001:000764a0       ?computeActiveEdges@EdgeList@Gu@physx@@AEAA_NIPEBIPEBGPEBV?$PxVec3T@M@3@M@Z 00000001800774a0 f   GuEdgeList.obj
 0001:00077830       ?createEdgesToFaces@EdgeList@Gu@physx@@AEAA_NIPEBIPEBG@Z 0000000180078830 f   GuEdgeList.obj
 0001:00077a90       ?createFacesToEdges@EdgeList@Gu@physx@@AEAA_NIPEBIPEBG@Z 0000000180078a90 f   GuEdgeList.obj
 0001:00077ec0       ?init@EdgeList@Gu@physx@@QEAA_NAEBUEDGELISTCREATE@23@@Z 0000000180078ec0 f   GuEdgeList.obj
 0001:00077ff0       ?addAxis@SeparatingAxes@Gu@physx@@QEAA_NAEBV?$PxVec3T@M@3@@Z 0000000180078ff0 f   GuSeparatingAxes.obj
 0001:000780b0       ??$kmeans_cluster@V?$PxVec3T@M@physx@@M@@YAIPEBV?$PxVec3T@M@physx@@IIPEAV01@PEAIMM@Z 00000001800790b0 f i GuQuantizer.obj
 0001:000789d0       ??_GQuantizer@Gu@physx@@MEAAPEAXI@Z 00000001800799d0 f i GuQuantizer.obj
 0001:000789d0       ??_EQuantizer@Gu@physx@@MEAAPEAXI@Z 00000001800799d0 f i GuQuantizer.obj
 0001:00078a00       ??_GQuantizerImpl@@EEAAPEAXI@Z 0000000180079a00 f i GuQuantizer.obj
 0001:00078a00       ??_EQuantizerImpl@@EEAAPEAXI@Z 0000000180079a00 f i GuQuantizer.obj
 0001:00078ad0       ?createQuantizer@Gu@physx@@YAPEAVQuantizer@12@XZ 0000000180079ad0 f   GuQuantizer.obj
 0001:00078b80       ?getDenormalizeCenter@QuantizerImpl@@UEBAAEBV?$PxVec3T@M@physx@@XZ 0000000180079b80 f i GuQuantizer.obj
 0001:00078b90       ?getDenormalizeScale@QuantizerImpl@@UEBAAEBV?$PxVec3T@M@physx@@XZ 0000000180079b90 f i GuQuantizer.obj
 0001:00078b90       ?getCurrentAABBTreeBounds@PruningPool@Gu@physx@@QEBAAEBVAABBTreeBounds@23@XZ 0000000180079b90 f i GuIncrementalAABBPrunerCore.obj
 0001:00078ba0       ?kmeansQuantize3D@QuantizerImpl@@UEAAPEBV?$PxVec3T@M@physx@@IPEBV23@I_NIAEAI@Z 0000000180079ba0 f i GuQuantizer.obj
 0001:00078e00       ?normalizeInput@QuantizerImpl@@AEAAXIPEBV?$PxVec3T@M@physx@@I@Z 0000000180079e00 f i GuQuantizer.obj
 0001:00079230       ?release@QuantizerImpl@@UEAAXXZ 000000018007a230 f i GuQuantizer.obj
 0001:00079250       ??0MeshCleaner@Gu@physx@@QEAA@IPEBV?$PxVec3T@M@2@IPEBIM@Z 000000018007a250 f   GuMeshCleaner.obj
 0001:00079bf0       ??1MeshCleaner@Gu@physx@@QEAA@XZ 000000018007abf0 f   GuMeshCleaner.obj
 0001:00079c80       ??0ReducedVertexCloud@Gu@physx@@QEAA@PEBV?$PxVec3T@M@2@I@Z 000000018007ac80 f   GuVertexReducer.obj
 0001:00079ca0       ??1ReducedVertexCloud@Gu@physx@@QEAA@XZ 000000018007aca0 f   GuVertexReducer.obj
 0001:00079cb0       ?clean@ReducedVertexCloud@Gu@physx@@QEAAAEAV123@XZ 000000018007acb0 f   GuVertexReducer.obj
 0001:00079d20       ?reduce@ReducedVertexCloud@Gu@physx@@QEAA_NPEAUREDUCEDCLOUD@23@@Z 000000018007ad20 f   GuVertexReducer.obj
 0001:00079fc0       ??$copy@V?$PxReflectionAllocator@H@physx@@@?$PxArray@HV?$PxReflectionAllocator@H@physx@@@physx@@IEAAXAEBV01@@Z 000000018007afc0 f i GuMeshAnalysis.obj
 0001:0007a030       ?buildTriangleAdjacency@MeshAnalyzer@Gu@physx@@SA_NPEBU?$IndexedTriangleT@H@23@IAEAV?$PxArray@HV?$PxReflectionAllocator@H@physx@@@3@AEAV?$PxHashMap@_KHU?$PxHash@_K@physx@@VPxAllocator@2@@3@@Z 000000018007b030 f   GuMeshAnalysis.obj
 0001:0007a4f0       ?checkConsistentTriangleOrientation@MeshAnalyzer@Gu@physx@@SA_NPEBU?$IndexedTriangleT@H@23@IAEAV?$PxArray@_NV?$PxReflectionAllocator@_N@physx@@@3@AEAV?$PxHashMap@_KHU?$PxHash@_K@physx@@VPxAllocator@2@@3@@Z 000000018007b4f0 f   GuMeshAnalysis.obj
 0001:0007a920       ?checkMeshWatertightness@MeshAnalyzer@Gu@physx@@SA_NPEBU?$IndexedTriangleT@H@23@I@Z 000000018007b920 f   GuMeshAnalysis.obj
 0001:0007aa50       ?create@?$PxHashBase@V?$PxPair@$$CB_KH@physx@@_KU?$PxHash@_K@2@UGetKey@?$PxHashMapBase@_KHU?$PxHash@_K@physx@@VPxAllocator@2@@2@VPxAllocator@2@$00@physx@@QEAAPEAV?$PxPair@$$CB_KH@2@AEB_KAEA_N@Z 000000018007ba50 f i GuMeshAnalysis.obj
 0001:0007abf0       ?growAndPushBack@?$PxArray@V?$PxArray@HV?$PxReflectionAllocator@H@physx@@@physx@@V?$PxReflectionAllocator@V?$PxArray@HV?$PxReflectionAllocator@H@physx@@@physx@@@2@@physx@@IEAAAEAV?$PxArray@HV?$PxReflectionAllocator@H@physx@@@2@AEBV32@@Z 000000018007bbf0 f i GuMeshAnalysis.obj
 0001:0007ad80       ?makeTriOrientationConsistent@MeshAnalyzer@Gu@physx@@SA_NPEAU?$IndexedTriangleT@H@23@I_N@Z 000000018007bd80 f   GuMeshAnalysis.obj
 0001:0007ae90       ?recreate@?$PxArray@_NV?$PxReflectionAllocator@_N@physx@@@physx@@IEAAXI@Z 000000018007be90 f i GuMeshAnalysis.obj
 0001:0007afa0       ?resize@?$PxArray@HV?$PxReflectionAllocator@H@physx@@@physx@@QEAAXIAEBH@Z 000000018007bfa0 f i GuMeshAnalysis.obj
 0001:0007b060       ?resize@?$PxArray@_NV?$PxReflectionAllocator@_N@physx@@@physx@@QEAAXIAEB_N@Z 000000018007c060 f i GuMeshAnalysis.obj
 0001:0007b120       ?contactBoxBox@Gu@physx@@YA_NAEBVPxGeometry@2@0AEBV?$PxTransformT@M@2@1AEBUNarrowPhaseParams@12@AEAUCache@12@AEAVPxContactBuffer@2@PEAVPxRenderOutput@2@@Z 000000018007c120 f   GuContactBoxBox.obj
 0001:0007f530       ?contactCapsuleBox@Gu@physx@@YA_NAEBVPxGeometry@2@0AEBV?$PxTransformT@M@2@1AEBUNarrowPhaseParams@12@AEAUCache@12@AEAVPxContactBuffer@2@PEAVPxRenderOutput@2@@Z 0000000180080530 f   GuContactCapsuleBox.obj
 0001:0007fad0       ?contactCapsuleCapsule@Gu@physx@@YA_NAEBVPxGeometry@2@0AEBV?$PxTransformT@M@2@1AEBUNarrowPhaseParams@12@AEAUCache@12@AEAVPxContactBuffer@2@PEAVPxRenderOutput@2@@Z 0000000180080ad0 f   GuContactCapsuleCapsule.obj
 0001:00082390       ?contactCapsuleConvex@Gu@physx@@YA_NAEBVPxGeometry@2@0AEBV?$PxTransformT@M@2@1AEBUNarrowPhaseParams@12@AEAUCache@12@AEAVPxContactBuffer@2@PEAVPxRenderOutput@2@@Z 0000000180083390 f   GuContactCapsuleConvex.obj
 0001:000848a0       ?contactCapsuleHeightfield@Gu@physx@@YA_NAEBVPxGeometry@2@0AEBV?$PxTransformT@M@2@1AEBUNarrowPhaseParams@12@AEAUCache@12@AEAVPxContactBuffer@2@PEAVPxRenderOutput@2@@Z 00000001800858a0 f   GuContactCapsuleMesh.obj
 0001:000850b0       ?contactCapsuleMesh@Gu@physx@@YA_NAEBVPxGeometry@2@0AEBV?$PxTransformT@M@2@1AEBUNarrowPhaseParams@12@AEAUCache@12@AEAVPxContactBuffer@2@PEAVPxRenderOutput@2@@Z 00000001800860b0 f   GuContactCapsuleMesh.obj
 0001:00086230       ?transformQueryBounds@FastVertex2ShapeScaling@Cm@physx@@QEBAXAEAV?$PxVec3T@M@3@0AEAV?$PxMat33T@M@3@@Z 0000000180087230 f i GuContactCapsuleMesh.obj
 0001:0008a540       ?contactBoxConvex@Gu@physx@@YA_NAEBVPxGeometry@2@0AEBV?$PxTransformT@M@2@1AEBUNarrowPhaseParams@12@AEAUCache@12@AEAVPxContactBuffer@2@PEAVPxRenderOutput@2@@Z 000000018008b540 f   GuContactConvexConvex.obj
 0001:0008a710       ?contactConvexConvex@Gu@physx@@YA_NAEBVPxGeometry@2@0AEBV?$PxTransformT@M@2@1AEBUNarrowPhaseParams@12@AEAUCache@12@AEAVPxContactBuffer@2@PEAVPxRenderOutput@2@@Z 000000018008b710 f   GuContactConvexConvex.obj
 0001:0008ab90       ?transformPlaneToShapeSpace@FastVertex2ShapeScaling@Cm@physx@@QEBAXAEBV?$PxVec3T@M@3@MAEAV43@AEAM@Z 000000018008bb90 f i GuContactConvexConvex.obj
 0001:0008b040       ??_EConvexMeshContactGenerationCallback@@UEAAPEAXI@Z 000000018008c040 f i GuContactConvexMesh.obj
 0001:0008b040       ??_GConvexMeshContactGenerationCallback@@UEAAPEAXI@Z 000000018008c040 f i GuContactConvexMesh.obj
 0001:0008b0a0       ?addData@?$CacheMap@UCachedEdge@Gu@physx@@$0IA@@Gu@physx@@QEAA_NAEBUCachedEdge@23@@Z 000000018008c0a0 f i GuContactConvexMesh.obj
 0001:0008b180       ?addData@?$CacheMap@UCachedVertex@Gu@physx@@$0IA@@Gu@physx@@QEAA_NAEBUCachedVertex@23@@Z 000000018008c180 f i GuContactConvexMesh.obj
 0001:0008b210       ?allocate@?$PxArray@IV?$PxInlineAllocator@$0BBAA@V?$PxReflectionAllocator@I@physx@@@physx@@@physx@@IEAAPEAII@Z 000000018008c210 f i GuContactConvexMesh.obj
 0001:0008b610       ?contactBoxHeightfield@Gu@physx@@YA_NAEBVPxGeometry@2@0AEBV?$PxTransformT@M@2@1AEBUNarrowPhaseParams@12@AEAUCache@12@AEAVPxContactBuffer@2@PEAVPxRenderOutput@2@@Z 000000018008c610 f   GuContactConvexMesh.obj
 0001:0008b790       ?contactBoxMesh@Gu@physx@@YA_NAEBVPxGeometry@2@0AEBV?$PxTransformT@M@2@1AEBUNarrowPhaseParams@12@AEAUCache@12@AEAVPxContactBuffer@2@PEAVPxRenderOutput@2@@Z 000000018008c790 f   GuContactConvexMesh.obj
 0001:0008b960       ?contactConvexHeightfield@Gu@physx@@YA_NAEBVPxGeometry@2@0AEBV?$PxTransformT@M@2@1AEBUNarrowPhaseParams@12@AEAUCache@12@AEAVPxContactBuffer@2@PEAVPxRenderOutput@2@@Z 000000018008c960 f   GuContactConvexMesh.obj
 0001:0008bab0       ?contactConvexMesh@Gu@physx@@YA_NAEBVPxGeometry@2@0AEBV?$PxTransformT@M@2@1AEBUNarrowPhaseParams@12@AEAUCache@12@AEAVPxContactBuffer@2@PEAVPxRenderOutput@2@@Z 000000018008cab0 f   GuContactConvexMesh.obj
 0001:0008f210       ?processHit@ConvexMeshContactGenerationCallback@@UEAA_NAEBUPxGeomRaycastHit@physx@@AEBV?$PxVec3T@M@3@11AEAMPEBI@Z 0000000180090210 f i GuContactConvexMesh.obj
 0001:0008fb80       ?recreate@?$PxArray@IV?$PxInlineAllocator@$0BBAA@V?$PxReflectionAllocator@I@physx@@@physx@@@physx@@IEAAXI@Z 0000000180090b80 f i GuContactConvexMesh.obj
 0001:00090fb0       ?contactPlaneBox@Gu@physx@@YA_NAEBVPxGeometry@2@0AEBV?$PxTransformT@M@2@1AEBUNarrowPhaseParams@12@AEAUCache@12@AEAVPxContactBuffer@2@PEAVPxRenderOutput@2@@Z 0000000180091fb0 f   GuContactPlaneBox.obj
 0001:00091c40       ?contactPlaneCapsule@Gu@physx@@YA_NAEBVPxGeometry@2@0AEBV?$PxTransformT@M@2@1AEBUNarrowPhaseParams@12@AEAUCache@12@AEAVPxContactBuffer@2@PEAVPxRenderOutput@2@@Z 0000000180092c40 f   GuContactPlaneCapsule.obj
 0001:000922e0       ?contactPlaneConvex@Gu@physx@@YA_NAEBVPxGeometry@2@0AEBV?$PxTransformT@M@2@1AEBUNarrowPhaseParams@12@AEAUCache@12@AEAVPxContactBuffer@2@PEAVPxRenderOutput@2@@Z 00000001800932e0 f   GuContactPlaneConvex.obj
 0001:00094090       ?contactPolygonPolygonExt@Gu@physx@@YA_NIPEBV?$PxVec3T@M@2@PEBEAEBV?$PxMat34T@M@2@AEBVPxPlane@2@AEBV?$PxMat33T@M@2@I01234AEBV32@22IIAEAVPxContactBuffer@2@_N5M@Z 0000000180095090 f   GuContactPolygonPolygon.obj
 0001:000957e0       ?findRotationMatrixFromZ@Gu@physx@@YA?AV?$PxMat33T@M@2@AEBV?$PxVec3T@M@2@@Z 00000001800967e0 f   GuContactPolygonPolygon.obj
 0001:00096210       ?contactSphereBox@Gu@physx@@YA_NAEBVPxGeometry@2@0AEBV?$PxTransformT@M@2@1AEBUNarrowPhaseParams@12@AEAUCache@12@AEAVPxContactBuffer@2@PEAVPxRenderOutput@2@@Z 0000000180097210 f   GuContactSphereBox.obj
 0001:000967f0       ?contactSphereCapsule@Gu@physx@@YA_NAEBVPxGeometry@2@0AEBV?$PxTransformT@M@2@1AEBUNarrowPhaseParams@12@AEAUCache@12@AEAVPxContactBuffer@2@PEAVPxRenderOutput@2@@Z 00000001800977f0 f   GuContactSphereCapsule.obj
 0001:000975d0       ?contactSphereHeightfield@Gu@physx@@YA_NAEBVPxGeometry@2@0AEBV?$PxTransformT@M@2@1AEBUNarrowPhaseParams@12@AEAUCache@12@AEAVPxContactBuffer@2@PEAVPxRenderOutput@2@@Z 00000001800985d0 f   GuContactSphereMesh.obj
 0001:00097f90       ?contactSphereMesh@Gu@physx@@YA_NAEBVPxGeometry@2@0AEBV?$PxTransformT@M@2@1AEBUNarrowPhaseParams@12@AEAUCache@12@AEAVPxContactBuffer@2@PEAVPxRenderOutput@2@@Z 0000000180098f90 f   GuContactSphereMesh.obj
 0001:0009a230       ?contactSpherePlane@Gu@physx@@YA_NAEBVPxGeometry@2@0AEBV?$PxTransformT@M@2@1AEBUNarrowPhaseParams@12@AEAUCache@12@AEAVPxContactBuffer@2@PEAVPxRenderOutput@2@@Z 000000018009b230 f   GuContactSpherePlane.obj
 0001:0009a440       ?contactSphereSphere@Gu@physx@@YA_NAEBVPxGeometry@2@0AEBV?$PxTransformT@M@2@1AEBUNarrowPhaseParams@12@AEAUCache@12@AEAVPxContactBuffer@2@PEAVPxRenderOutput@2@@Z 000000018009b440 f   GuContactSphereSphere.obj
 0001:0009a5c0       ?contactCustomGeometryGeometry@Gu@physx@@YA_NAEBVPxGeometry@2@0AEBV?$PxTransformT@M@2@1AEBUNarrowPhaseParams@12@AEAUCache@12@AEAVPxContactBuffer@2@PEAVPxRenderOutput@2@@Z 000000018009b5c0 f   GuContactCustomGeometry.obj
 0001:0009a620       ?contactGeometryCustomGeometry@Gu@physx@@YA_NAEBVPxGeometry@2@0AEBV?$PxTransformT@M@2@1AEBUNarrowPhaseParams@12@AEAUCache@12@AEAVPxContactBuffer@2@PEAVPxRenderOutput@2@@Z 000000018009b620 f   GuContactCustomGeometry.obj
 0001:0009a6e0       ?selectNormal@Gu@physx@@YA_NEMM@Z 000000018009b6e0 f   GuFeatureCode.obj
 0001:0009a760       ??0BigConvexData@physx@@QEAA@XZ 000000018009b760 f   GuBigConvexData.obj
 0001:0009a780       ??1BigConvexData@physx@@QEAA@XZ 000000018009b780 f   GuBigConvexData.obj
 0001:0009a840       ?ComputeNearestOffset@BigConvexData@physx@@QEBAIAEBV?$PxVec3T@M@2@@Z 000000018009b840 f   GuBigConvexData.obj
 0001:0009a940       ?ComputeOffset@BigConvexData@physx@@QEBAIAEBV?$PxVec3T@M@2@@Z 000000018009b940 f   GuBigConvexData.obj
 0001:0009aa40       ?CreateOffsets@BigConvexData@physx@@IEAAXXZ 000000018009ba40 f   GuBigConvexData.obj
 0001:0009aa90       ?Load@BigConvexData@physx@@QEAA_NAEAVPxInputStream@2@@Z 000000018009ba90 f   GuBigConvexData.obj
 0001:0009aba0       ?VLoad@BigConvexData@physx@@IEAA_NAEAVPxInputStream@2@@Z 000000018009bba0 f   GuBigConvexData.obj
 0001:0009ad40       ?exportExtraData@BigConvexData@physx@@QEAAXAEAVPxSerializationContext@2@@Z 000000018009bd40 f   GuBigConvexData.obj
 0001:0009adc0       ?importExtraData@BigConvexData@physx@@QEAAXAEAVPxDeserializationContext@2@@Z 000000018009bdc0 f   GuBigConvexData.obj
 0001:0009ae30       ?findUniqueConvexEdges@Gu@physx@@YAIIPEIAUConvexEdge@12@IPEIBUHullPolygonData@12@PEIBE@Z 000000018009be30 f   GuConvexHelper.obj
 0001:0009af70       ?getConvexData@Gu@physx@@YA_NAEBVPxConvexMeshGeometry@2@AEAVFastVertex2ShapeScaling@Cm@2@AEAVPxBounds3@2@AEAUPolygonalData@12@@Z 000000018009bf70 f   GuConvexHelper.obj
 0001:0009b1f0       ?getScaledConvex@Gu@physx@@YAXAEAPEAV?$PxVec3T@M@2@AEAPEAEPEAV32@PEAE_NPEBV32@PEBEIAEBVFastVertex2ShapeScaling@Cm@2@@Z 000000018009c1f0 f   GuConvexHelper.obj
 0001:0009b320       ??0ConvexMesh@Gu@physx@@QEAA@PEAVMeshFactory@12@@Z 000000018009c320 f   GuConvexMesh.obj
 0001:0009b3b0       ??0ConvexMesh@Gu@physx@@QEAA@PEAVMeshFactory@12@AEAUConvexHullInitData@12@@Z 000000018009c3b0 f   GuConvexMesh.obj
 0001:0009b4d0       ??_GConvexMesh@Gu@physx@@UEAAPEAXI@Z 000000018009c4d0 f i GuConvexMesh.obj
 0001:0009b4d0       ??_EConvexMesh@Gu@physx@@UEAAPEAXI@Z 000000018009c4d0 f i GuConvexMesh.obj
 0001:0009b5d0       ??_GPxBVH@physx@@MEAAPEAXI@Z 000000018009c5d0 f i GuBVH.obj
 0001:0009b5d0       ??_GPxBase@physx@@MEAAPEAXI@Z 000000018009c5d0 f i GuConvexMesh.obj
 0001:0009b5d0       ??_EPxBase@physx@@MEAAPEAXI@Z 000000018009c5d0 f i GuConvexMesh.obj
 0001:0009b5d0       ??_EPxBVH@physx@@MEAAPEAXI@Z 000000018009c5d0 f i GuBVH.obj
 0001:0009b600       ?acquireReference@ConvexMesh@Gu@physx@@UEAAXXZ 000000018009c600 f   GuConvexMesh.obj
 0001:0009b600       ?acquireReference@TriangleMesh@Gu@physx@@UEAAXXZ 000000018009c600 f   GuTriangleMesh.obj
 0001:0009b600       ?acquireReference@SoftBodyMesh@Gu@physx@@UEAAXXZ 000000018009c600 f   GuTetrahedronMesh.obj
 0001:0009b600       ?acquireReference@SoftBodyAuxData@Gu@physx@@UEAAXXZ 000000018009c600 f   GuTetrahedronMesh.obj
 0001:0009b600       ?acquireReference@TetrahedronMesh@Gu@physx@@UEAAXXZ 000000018009c600 f   GuTetrahedronMesh.obj
 0001:0009b600       ?acquireReference@HeightField@Gu@physx@@UEAAXXZ 000000018009c600 f   GuHeightField.obj
 0001:0009bad0       ?createObject@ConvexMesh@Gu@physx@@SAPEAV123@AEAPEAEAEAVPxDeserializationContext@3@@Z 000000018009cad0 f   GuConvexMesh.obj
 0001:0009bbc0       ?exportExtraData@ConvexMesh@Gu@physx@@UEAAXAEAVPxSerializationContext@3@@Z 000000018009cbc0 f   GuConvexMesh.obj
 0001:0009bc90       ?getConcreteTypeName@PxConvexMesh@physx@@UEBAPEBDXZ 000000018009cc90 f i GuConvexMesh.obj
 0001:0009bca0       ?getIndexBuffer@ConvexMesh@Gu@physx@@UEBAPEBEXZ 000000018009cca0 f i GuConvexMesh.obj
 0001:0009bce0       ?getLocalBounds@ConvexMesh@Gu@physx@@UEBA?AVPxBounds3@3@XZ 000000018009cce0 f   GuConvexMesh.obj
 0001:0009bd70       ?getMassInformation@ConvexMesh@Gu@physx@@UEBAXAEAMAEAV?$PxMat33T@M@3@AEAV?$PxVec3T@M@3@@Z 000000018009cd70 f   GuConvexMesh.obj
 0001:0009bde0       ?getNbPolygons@ConvexMesh@Gu@physx@@UEBAIXZ 000000018009cde0 f i GuConvexMesh.obj
 0001:0009bdf0       ?getNbVertices@ConvexMesh@Gu@physx@@UEBAIXZ 000000018009cdf0 f i GuConvexMesh.obj
 0001:0009be00       ?getPolygonData@ConvexMesh@Gu@physx@@UEBA_NIAEAUPxHullPolygon@3@@Z 000000018009ce00 f   GuConvexMesh.obj
 0001:0009be50       ?getReferenceCount@HeightField@Gu@physx@@UEBAIXZ 000000018009ce50 f   GuHeightField.obj
 0001:0009be50       ?getReferenceCount@ConvexMesh@Gu@physx@@UEBAIXZ 000000018009ce50 f   GuConvexMesh.obj
 0001:0009be50       ?getReferenceCount@SoftBodyMesh@Gu@physx@@UEBAIXZ 000000018009ce50 f   GuTetrahedronMesh.obj
 0001:0009be50       ?getReferenceCount@TetrahedronMesh@Gu@physx@@UEBAIXZ 000000018009ce50 f   GuTetrahedronMesh.obj
 0001:0009be50       ?getReferenceCount@SoftBodyAuxData@Gu@physx@@UEBAIXZ 000000018009ce50 f   GuTetrahedronMesh.obj
 0001:0009be50       ?getReferenceCount@TriangleMesh@Gu@physx@@UEBAIXZ 000000018009ce50 f   GuTriangleMesh.obj
 0001:0009be50       ?raw_length@DNameStatusNode@@UEBAHXZ 000000018009ce50 f   libvcruntime:undname.obj
 0001:0009be50       ?length@DNameStatusNode@@UEBAHXZ 000000018009ce50 f   libvcruntime:undname.obj
 0001:0009be60       ?getSDF@ConvexMesh@Gu@physx@@UEBAPEBMXZ 000000018009ce60 f   GuConvexMesh.obj
 0001:0009be70       ?getVertices@ConvexMesh@Gu@physx@@UEBAPEBV?$PxVec3T@M@3@XZ 000000018009ce70 f i GuConvexMesh.obj
 0001:0009be90       ?isGpuCompatible@ConvexMesh@Gu@physx@@UEBA_NXZ 000000018009ce90 f   GuConvexMesh.obj
 0001:0009bed0       ?isKindOf@PxBase@physx@@MEBA_NPEBD@Z 000000018009ced0 f i GuConvexMesh.obj
 0001:0009bf00       ?isKindOf@PxConvexMesh@physx@@MEBA_NPEBD@Z 000000018009cf00 f i GuConvexMesh.obj
 0001:0009bf70       ?isReleasable@PxBase@physx@@UEBA_NXZ 000000018009cf70 f i GuConvexMesh.obj
 0001:0009bf80       ?load@ConvexMesh@Gu@physx@@QEAA_NAEAVPxInputStream@3@@Z 000000018009cf80 f   GuConvexMesh.obj
 0001:0009c4e0       ?onRefCountZero@ConvexMesh@Gu@physx@@UEAAXXZ 000000018009d4e0 f   GuConvexMesh.obj
 0001:0009c610       ?release@TetrahedronMesh@Gu@physx@@UEAAXXZ 000000018009d610 f   GuTetrahedronMesh.obj
 0001:0009c610       ?release@TriangleMesh@Gu@physx@@UEAAXXZ 000000018009d610 f   GuTriangleMesh.obj
 0001:0009c610       ?release@SoftBodyMesh@Gu@physx@@UEAAXXZ 000000018009d610 f   GuTetrahedronMesh.obj
 0001:0009c610       ?release@HeightField@Gu@physx@@UEAAXXZ 000000018009d610 f   GuHeightField.obj
 0001:0009c610       ?release@ConvexMesh@Gu@physx@@UEAAXXZ 000000018009d610 f   GuConvexMesh.obj
 0001:0009c610       ?release@SoftBodyAuxData@Gu@physx@@UEAAXXZ 000000018009d610 f   GuTetrahedronMesh.obj
 0001:0009c640       ??Dphysx@@YA?AV?$PxMat34T@M@0@AEBVPxMeshScale@0@AEBV10@@Z 000000018009d640 f i GuConvexUtilsInternal.obj
 0001:0009cbb0       ?computeHullOBB@Gu@physx@@YAXAEAVBox@12@AEBVPxBounds3@2@MAEBV?$PxMat34T@M@2@2AEBVFastVertex2ShapeScaling@Cm@2@_N@Z 000000018009dbb0 f   GuConvexUtilsInternal.obj
 0001:0009d060       ?computeOBBAroundConvex@Gu@physx@@YAXAEAVBox@12@AEBVPxConvexMeshGeometry@2@PEBVPxConvexMesh@2@AEBV?$PxTransformT@M@2@@Z 000000018009e060 f   GuConvexUtilsInternal.obj
 0001:0009d8c0       ?computeVertexSpaceOBB@Gu@physx@@YAXAEAVBox@12@AEBV312@AEBV?$PxTransformT@M@2@AEBVPxMeshScale@2@@Z 000000018009e8c0 f   GuConvexUtilsInternal.obj
 0001:0009dbf0       ?transform@physx@@YA?AVBox@Gu@1@AEBV?$PxMat34T@M@1@AEBV231@@Z 000000018009ebf0 f i GuConvexUtilsInternal.obj
 0001:0009de40       ?localSearch@physx@@YAXAEAIAEBV?$PxVec3T@M@1@PEBV21@PEBUBigConvexRawData@Gu@1@@Z 000000018009ee40 f   GuHillClimbing.obj
 0001:0009df70       ??0PCMPolygonalBox@Gu@physx@@QEAA@AEBV?$PxVec3T@M@2@@Z 000000018009ef70 f   GuPCMShapeConvex.obj
 0001:0009df70       ??0PolygonalBox@Gu@physx@@QEAA@AEBV?$PxVec3T@M@2@@Z 000000018009ef70 f   GuShapeConvex.obj
 0001:0009f430       ?getPolygonalData@PolygonalBox@Gu@physx@@QEBAXPEIAUPolygonalData@23@@Z 00000001800a0430 f   GuShapeConvex.obj
 0001:0009f4a0       ?getPolygonalData_Convex@Gu@physx@@YAXPEIAUPolygonalData@12@PEIBUConvexHullData@12@AEBVFastVertex2ShapeScaling@Cm@2@@Z 00000001800a04a0 f   GuShapeConvex.obj
 0001:0009f600       ?distancePointBoxSquared@Gu@physx@@YAMAEBV?$PxVec3T@M@2@00AEBV?$PxMat33T@M@2@PEAV32@@Z 00000001800a0600 f   GuDistancePointBox.obj
 0001:0009f750       ?closestPtPointTriangle@Gu@physx@@YA?AV?$PxVec3T@M@2@AEBV32@000AEAM1@Z 00000001800a0750 f   GuDistancePointTriangle.obj
 0001:0009fc70       ?distancePointTriangleSquared@Gu@physx@@YA?AT__m128@@AEBT3@000AEAT3@11@Z 00000001800a0c70 f   GuDistancePointTriangle.obj
 0001:000a09c0       ?distanceSegmentBoxSquared@Gu@physx@@YAMAEBV?$PxVec3T@M@2@000AEBV?$PxMat33T@M@2@PEAMPEAV32@@Z 00000001800a19c0 f   GuDistanceSegmentBox.obj
 0001:000a1240       ?distanceSegmentSegmentSquared4@Gu@physx@@YA?AT__m128@@AEBT3@000000000AEAT3@1@Z 00000001800a2240 f   GuDistanceSegmentSegment.obj
 0001:000a1560       ?distanceSegmentSegmentSquared@Gu@physx@@YA?AT__m128@@AEBT3@000AEAT3@1@Z 00000001800a2560 f   GuDistanceSegmentSegment.obj
 0001:000a1720       ?distanceSegmentSegmentSquared@Gu@physx@@YAMAEBV?$PxVec3T@M@2@000PEAM1@Z 00000001800a2720 f   GuDistanceSegmentSegment.obj
 0001:000a19b0       ?distanceSegmentSegmentSquared@Gu@physx@@YAMAEBV?$PxVec3T@M@2@0M00MPEAM1@Z 00000001800a29b0 f   GuDistanceSegmentSegment.obj
 0001:000a2100       ?distanceSegmentTriangleSquared@Gu@physx@@YA?AT__m128@@AEBT3@0000AEAT3@1@Z 00000001800a3100 f   GuDistanceSegmentTriangle.obj
 0001:000a2840       ?distanceSegmentTriangleSquared@Gu@physx@@YAMAEBV?$PxVec3T@M@2@0000PEAM11@Z 00000001800a3840 f   GuDistanceSegmentTriangle.obj
 0001:000a3ed0       ?PointOutsideOfPlane4@Gu@physx@@YA?AV?$PxVec4T@M@2@AEBV?$PxVec3T@M@2@0000@Z 00000001800a4ed0 f   GuDistancePointTetrahedron.obj
 0001:000a4340       ?closestPtPointTetrahedron@Gu@physx@@YA?AV?$PxVec3T@M@2@AEBV32@0000AEBV?$PxVec4T@M@2@@Z 00000001800a5340 f   GuDistancePointTetrahedron.obj
 0001:000a5430       ?PenetrationDepth@EPA@Gu@physx@@QEAA?AW4GjkStatus@23@AEBUGjkConvex@23@0PEIBT__m128@@1E_NT6@AEAUGjkOutput@23@@Z 00000001800a6430 f   GuEPA.obj
 0001:000a5f10       ?addFacet@EPA@Gu@physx@@QEAAPEAVFacet@23@IIIAEBT__m128@@@Z 00000001800a6f10 f   GuEPA.obj
 0001:000a6350       ?epaPenetration@Gu@physx@@YA?AW4GjkStatus@12@AEBUGjkConvex@12@0PEIBE1E_NT__m128@@AEAUGjkOutput@12@@Z 00000001800a7350 f   GuEPA.obj
 0001:000a64c0       ?epaPenetration@Gu@physx@@YA?AW4GjkStatus@12@AEBUGjkConvex@12@0PEIBT__m128@@1E_NT5@AEAUGjkOutput@12@@Z 00000001800a74c0 f   GuEPA.obj
 0001:000a6570       ?silhouette@Facet@Gu@physx@@QEAAXAEBT__m128@@PEIBT4@1AEAVEdgeBuffer@23@AEAV?$InlineDeferredIDPool@$0EA@@Cm@3@@Z 00000001800a7570 f   GuEPA.obj
 0001:000a6740       ?closestPtPointTetrahedron@Gu@physx@@YA?AT__m128@@PEIAT3@00AEAI@Z 00000001800a7740 f   GuGJKSimplex.obj
 0001:000a6eb0       ?closestPtPointTetrahedron@Gu@physx@@YA?AT__m128@@PEIAT3@00PEIAH1AEAI@Z 00000001800a7eb0 f   GuGJKSimplex.obj
 0001:000a8940       ??$gjk@UGjkConvex@Gu@physx@@U123@@Gu@physx@@YA?AW4GjkStatus@01@AEBUGjkConvex@01@0AEBT__m128@@1AEAT4@222@Z 00000001800a9940 f i GuGJKTest.obj
 0001:000a9560       ??$gjkPenetration@UGjkConvex@Gu@physx@@U123@@Gu@physx@@YA?AW4GjkStatus@01@AEBUGjkConvex@01@0AEBT__m128@@1_NPEIAE3AEAEAEAUGjkOutput@01@@Z 00000001800aa560 f i GuGJKTest.obj
 0001:000a95d0       ??$gjkPenetration@UGjkConvex@Gu@physx@@U123@@Gu@physx@@YA?AW4GjkStatus@01@AEBUGjkConvex@01@0AEBT__m128@@1_NPEIAE3PEIAT4@4AEAEAEAUGjkOutput@01@@Z 00000001800aa5d0 f i GuGJKTest.obj
 0001:000aa9f0       ?testEpaPenetration@Gu@physx@@YA?AW4GjkStatus@12@AEBUGjkConvex@12@0PEBE1EAEAUGjkOutput@12@@Z 00000001800ab9f0 f   GuGJKTest.obj
 0001:000aaa40       ?testGjk@Gu@physx@@YA?AW4GjkStatus@12@AEBUGjkConvex@12@0AEBT__m128@@1AEAT5@222@Z 00000001800aba40 f   GuGJKTest.obj
 0001:000aaa50       ?testGjkPenetration@Gu@physx@@YA?AW4GjkStatus@12@AEBUGjkConvex@12@0AEBT__m128@@1PEAE2AEAEAEAUGjkOutput@12@@Z 00000001800aba50 f   GuGJKTest.obj
 0001:000aaaa0       ??0HeightField@Gu@physx@@QEAA@PEAVMeshFactory@12@@Z 00000001800abaa0 f   GuHeightField.obj
 0001:000aaaf0       ??0HeightField@Gu@physx@@QEAA@PEAVMeshFactory@12@AEAUHeightFieldData@12@@Z 00000001800abaf0 f   GuHeightField.obj
 0001:000aaba0       ??1HeightField@Gu@physx@@UEAA@XZ 00000001800abba0 f   GuHeightField.obj
 0001:000aac20       ??_GHeightField@Gu@physx@@UEAAPEAXI@Z 00000001800abc20 f i GuHeightField.obj
 0001:000aac20       ??_EHeightField@Gu@physx@@UEAAPEAXI@Z 00000001800abc20 f i GuHeightField.obj
 0001:000aacc0       ?computeCellCoordinates@HeightField@Gu@physx@@QEBAIMMAEAM0@Z 00000001800abcc0 f   GuHeightField.obj
 0001:000aade0       ?createObject@HeightField@Gu@physx@@SAPEAV123@AEAPEAEAEAVPxDeserializationContext@3@@Z 00000001800abde0 f   GuHeightField.obj
 0001:000aae40       ?exportExtraData@HeightField@Gu@physx@@UEAAXAEAVPxSerializationContext@3@@Z 00000001800abe40 f   GuHeightField.obj
 0001:000aae90       ?getConcreteTypeName@PxHeightField@physx@@UEBAPEBDXZ 00000001800abe90 f i GuHeightField.obj
 0001:000aaea0       ?getConvexEdgeThreshold@HeightField@Gu@physx@@UEBAMXZ 00000001800abea0 f i GuHeightField.obj
 0001:000aaeb0       ?getFlags@HeightField@Gu@physx@@UEBA?AV?$PxFlags@W4Enum@PxHeightFieldFlag@physx@@G@3@XZ 00000001800abeb0 f i GuHeightField.obj
 0001:000aaec0       ?getFormat@HeightField@Gu@physx@@UEBA?AW4Enum@PxHeightFieldFormat@3@XZ 00000001800abec0 f i GuHeightField.obj
 0001:000aaed0       ?getHeight@HeightField@Gu@physx@@UEBAMMM@Z 00000001800abed0 f i GuHeightField.obj
 0001:000aaff0       ?getNbColumns@HeightField@Gu@physx@@UEBAIXZ 00000001800abff0 f i GuHeightField.obj
 0001:000ab000       ?getNbPrimitives@TetrahedronSourceMesh@Gu@physx@@UEBAIXZ 00000001800ac000 f i GuBV4.obj
 0001:000ab000       ?getNbRows@HeightField@Gu@physx@@UEBAIXZ 00000001800ac000 f i GuHeightField.obj
 0001:000ab000       ?getNbBounds@BVH@Gu@physx@@UEBAIXZ 00000001800ac000 f i GuBVH.obj
 0001:000ab000       ?getNbPrimitives@SourceMesh@Gu@physx@@UEBAIXZ 00000001800ac000 f i GuBV4.obj
 0001:000ab010       ?getSample@HeightField@Gu@physx@@UEBAAEBUPxHeightFieldSample@3@II@Z 00000001800ac010 f i GuHeightField.obj
 0001:000ab020       ?getSampleStride@HeightField@Gu@physx@@UEBAIXZ 00000001800ac020 f i GuHeightField.obj
 0001:000ab030       ?getTimestamp@HeightField@Gu@physx@@UEBAIXZ 00000001800ac030 f i GuHeightField.obj
 0001:000ab040       ?getTriangleMaterialIndex@HeightField@Gu@physx@@UEBAGI@Z 00000001800ac040 f i GuHeightField.obj
 0001:000ab070       ?getTriangleNormal@HeightField@Gu@physx@@UEBA?AV?$PxVec3T@M@3@I@Z 00000001800ac070 f i GuHeightField.obj
 0001:000ab350       ?isCollisionVertexPreca@HeightField@Gu@physx@@QEBA_NIIIG@Z 00000001800ac350 f   GuHeightField.obj
 0001:000ab3f0       ?isConvexVertex@HeightField@Gu@physx@@QEBA_NIII@Z 00000001800ac3f0 f i GuHeightField.obj
 0001:000ab4c0       ?isKindOf@PxHeightField@physx@@MEBA_NPEBD@Z 00000001800ac4c0 f i GuHeightField.obj
 0001:000ab530       ?isSolidVertex@HeightField@Gu@physx@@QEBA_NIIIGAEA_N@Z 00000001800ac530 f   GuHeightField.obj
 0001:000ab7c0       ?load@HeightField@Gu@physx@@QEAA_NAEAVPxInputStream@3@@Z 00000001800ac7c0 f   GuHeightField.obj
 0001:000abb20       ?loadFromDesc@HeightField@Gu@physx@@QEAA_NAEBVPxHeightFieldDesc@3@@Z 00000001800acb20 f   GuHeightField.obj
 0001:000abd20       ?modifySamples@HeightField@Gu@physx@@UEAA_NHHAEBVPxHeightFieldDesc@3@_N@Z 00000001800acd20 f   GuHeightField.obj
 0001:000ac080       ?onRefCountZero@HeightField@Gu@physx@@UEAAXXZ 00000001800ad080 f   GuHeightField.obj
 0001:000ac150       ?parseTrianglesForCollisionVertices@HeightField@Gu@physx@@QEAAXG@Z 00000001800ad150 f   GuHeightField.obj
 0001:000ac630       ?releaseMemory@HeightField@Gu@physx@@QEAAXXZ 00000001800ad630 f   GuHeightField.obj
 0001:000ac680       ?resizeAndClear@?$PxBitMapBase@VPxAllocator@physx@@@physx@@QEAAXI@Z 00000001800ad680 f i GuHeightField.obj
 0001:000ac740       ?save@HeightField@Gu@physx@@QEAA_NAEAVPxOutputStream@3@_N@Z 00000001800ad740 f   GuHeightField.obj
 0001:000ac980       ?saveCells@HeightField@Gu@physx@@UEBAIPEAXI@Z 00000001800ad980 f   GuHeightField.obj
 0001:000ac9c0       ?computeLocalBounds@HeightFieldUtil@Gu@physx@@QEBAXAEAVPxBounds3@3@@Z 00000001800ad9c0 f   GuHeightFieldUtil.obj
 0001:000ace80       ?getTriangle@HeightFieldUtil@Gu@physx@@QEBAIAEBV?$PxTransformT@M@3@AEAVPxTriangle@3@PEAI2I_N3@Z 00000001800ade80 f   GuHeightFieldUtil.obj
 0001:000ad960       ?getTriangleAdjacencyIndices@HeightField@Gu@physx@@QEBAXIIIIAEAI00@Z 00000001800ae960 f i GuHeightFieldUtil.obj
 0001:000adb40       ?getTriangleVertexIndices@HeightField@Gu@physx@@QEBAXIAEAI00@Z 00000001800aeb40 f i GuHeightFieldUtil.obj
 0001:000adc00       ?overlapAABBTriangles@HeightFieldUtil@Gu@physx@@QEBAXAEBVPxBounds3@3@AEAVOverlapReport@23@I@Z 00000001800aec00 f   GuHeightFieldUtil.obj
 0001:000ae060       ??$gjk@U?$RelativeConvex@VTriangleV@Gu@physx@@@Gu@physx@@U?$LocalConvex@VConvexHullV@Gu@physx@@@23@@Gu@physx@@YA?AW4GjkStatus@01@AEBU?$RelativeConvex@VTriangleV@Gu@physx@@@01@AEBU?$LocalConvex@VConvexHullV@Gu@physx@@@01@AEBT__m128@@2AEAT5@333@Z 00000001800af060 f i GuOverlapTestsHF.obj
 0001:000aefa0       ?GeomOverlapCallback_BoxHeightfield@@YA_NAEBVPxGeometry@physx@@AEBV?$PxTransformT@M@2@01PEAUTriggerCache@Gu@2@PEAUPxQueryThreadContext@2@@Z 00000001800affa0 f   GuOverlapTestsHF.obj
 0001:000af500       ?GeomOverlapCallback_CapsuleHeightfield@@YA_NAEBVPxGeometry@physx@@AEBV?$PxTransformT@M@2@01PEAUTriggerCache@Gu@2@PEAUPxQueryThreadContext@2@@Z 00000001800b0500 f   GuOverlapTestsHF.obj
 0001:000afb00       ?GeomOverlapCallback_ConvexHeightfield@@YA_NAEBVPxGeometry@physx@@AEBV?$PxTransformT@M@2@01PEAUTriggerCache@Gu@2@PEAUPxQueryThreadContext@2@@Z 00000001800b0b00 f   GuOverlapTestsHF.obj
 0001:000b0550       ?GeomOverlapCallback_SphereHeightfield@@YA_NAEBVPxGeometry@physx@@AEBV?$PxTransformT@M@2@01PEAUTriggerCache@Gu@2@PEAUPxQueryThreadContext@2@@Z 00000001800b1550 f   GuOverlapTestsHF.obj
 0001:000b1110       ??$gjkRaycast@U?$LocalConvex@VTriangleV@Gu@physx@@@Gu@physx@@U?$LocalConvex@VConvexHullV@Gu@physx@@@23@@Gu@physx@@YA_NAEBU?$LocalConvex@VTriangleV@Gu@physx@@@01@AEBU?$LocalConvex@VConvexHullV@Gu@physx@@@01@AEBT__m128@@222AEAT4@33M@Z 00000001800b2110 f i GuSweepsHF.obj
 0001:000b1eb0       ??$traceSegment@VBoxTraceSegmentReport@@$0A@$00@HeightFieldTraceUtil@Gu@physx@@QEBAXAEBV?$PxVec3T@M@2@0MPEAVBoxTraceSegmentReport@@AEBVPxBounds3@2@_NPEBV32@@Z 00000001800b2eb0 f i GuSweepsHF.obj
 0001:000b1eb0       ??$traceSegment@VConvexTraceSegmentReport@@$0A@$00@HeightFieldTraceUtil@Gu@physx@@QEBAXAEBV?$PxVec3T@M@2@0MPEAVConvexTraceSegmentReport@@AEBVPxBounds3@2@_NPEBV32@@Z 00000001800b2eb0 f i GuSweepsHF.obj
 0001:000b1eb0       ??$traceSegment@VCapsuleTraceSegmentReport@@$0A@$00@HeightFieldTraceUtil@Gu@physx@@QEBAXAEBV?$PxVec3T@M@2@0MPEAVCapsuleTraceSegmentReport@@AEBVPxBounds3@2@_NPEBV32@@Z 00000001800b2eb0 f i GuSweepsHF.obj
 0001:000b28d0       ??0ConvexTraceSegmentReport@@QEAA@AEBVHeightFieldUtil@Gu@physx@@AEBUConvexHullData@23@AEBVPxMeshScale@3@AEBV?$PxTransformT@M@3@3AEBV?$PxVec3T@M@3@MV?$PxFlags@W4Enum@PxHitFlag@physx@@G@3@M@Z 00000001800b38d0 f i GuSweepsHF.obj
 0001:000b3240       ??_EBoxTraceSegmentReport@@UEAAPEAXI@Z 00000001800b4240 f i GuSweepsHF.obj
 0001:000b3240       ??_GBoxTraceSegmentReport@@UEAAPEAXI@Z 00000001800b4240 f i GuSweepsHF.obj
 0001:000b3270       ??_GCapsuleTraceSegmentReport@@UEAAPEAXI@Z 00000001800b4270 f i GuSweepsHF.obj
 0001:000b3270       ??_ECapsuleTraceSegmentReport@@UEAAPEAXI@Z 00000001800b4270 f i GuSweepsHF.obj
 0001:000b32a0       ??_EConvexTraceSegmentReport@@UEAAPEAXI@Z 00000001800b42a0 f i GuSweepsHF.obj
 0001:000b32a0       ??_GConvexTraceSegmentReport@@UEAAPEAXI@Z 00000001800b42a0 f i GuSweepsHF.obj
 0001:000b32d0       ??_GHeightFieldTraceSegmentReport@@UEAAPEAXI@Z 00000001800b42d0 f i GuSweepsHF.obj
 0001:000b32d0       ??_EHeightFieldTraceSegmentReport@@UEAAPEAXI@Z 00000001800b42d0 f i GuSweepsHF.obj
 0001:000b3300       ?finalizeHit@ConvexTraceSegmentReport@@QEAA_NAEAUPxGeomSweepHit@physx@@AEBVPxHeightFieldGeometry@3@AEBV?$PxTransformT@M@3@AEBVPxConvexMeshGeometry@3@2AEBV?$PxVec3T@M@3@M@Z 00000001800b4300 f i GuSweepsHF.obj
 0001:000b3530       ?onEvent@BoxTraceSegmentReport@@UEAA_NIPEBI@Z 00000001800b4530 f i GuSweepsHF.obj
 0001:000b3980       ?onEvent@CapsuleTraceSegmentReport@@UEAA_NIPEBI@Z 00000001800b4980 f i GuSweepsHF.obj
 0001:000b3b90       ?onEvent@ConvexTraceSegmentReport@@UEAA_NIPEBI@Z 00000001800b4b90 f i GuSweepsHF.obj
 0001:000b4150       ?prepare@?$OverlapTraceSegment@VBoxTraceSegmentReport@@@HeightFieldTraceUtil@Gu@physx@@QEAAXAEBV?$PxVec3T@M@4@00AEAM1@Z 00000001800b5150 f i GuSweepsHF.obj
 0001:000b4150       ?prepare@?$OverlapTraceSegment@VCapsuleTraceSegmentReport@@@HeightFieldTraceUtil@Gu@physx@@QEAAXAEBV?$PxVec3T@M@4@00AEAM1@Z 00000001800b5150 f i GuSweepsHF.obj
 0001:000b4150       ?prepare@?$OverlapTraceSegment@VConvexTraceSegmentReport@@@HeightFieldTraceUtil@Gu@physx@@QEAAXAEBV?$PxVec3T@M@4@00AEAM1@Z 00000001800b5150 f i GuSweepsHF.obj
 0001:000b43f0       ?sweepBox_HeightFieldGeom@@YA_NAEBVPxGeometry@physx@@AEBV?$PxTransformT@M@2@AEBVPxBoxGeometry@2@1AEBVBox@Gu@2@AEBV?$PxVec3T@M@2@MAEAUPxGeomSweepHit@2@V?$PxFlags@W4Enum@PxHitFlag@physx@@G@2@MPEAUPxQueryThreadContext@2@@Z 00000001800b53f0 f   GuSweepsHF.obj
 0001:000b5230       ?sweepCapsule_HeightFieldGeom@@YA_NAEBVPxGeometry@physx@@AEBV?$PxTransformT@M@2@AEBVPxCapsuleGeometry@2@1AEBVCapsule@Gu@2@AEBV?$PxVec3T@M@2@MAEAUPxGeomSweepHit@2@V?$PxFlags@W4Enum@PxHitFlag@physx@@G@2@MPEAUPxQueryThreadContext@2@@Z 00000001800b6230 f   GuSweepsHF.obj
 0001:000b5b80       ?sweepConvex_HeightFieldGeom@@YA_NAEBVPxGeometry@physx@@AEBV?$PxTransformT@M@2@AEBVPxConvexMeshGeometry@2@1AEBV?$PxVec3T@M@2@MAEAUPxGeomSweepHit@2@V?$PxFlags@W4Enum@PxHitFlag@physx@@G@2@MPEAUPxQueryThreadContext@2@@Z 00000001800b6b80 f   GuSweepsHF.obj
 0001:000b6540       ?testVertexIndex@?$OverlapTraceSegment@VBoxTraceSegmentReport@@@HeightFieldTraceUtil@Gu@physx@@QEAA_NI@Z 00000001800b7540 f i GuSweepsHF.obj
 0001:000b6540       ?testVertexIndex@?$OverlapTraceSegment@VConvexTraceSegmentReport@@@HeightFieldTraceUtil@Gu@physx@@QEAA_NI@Z 00000001800b7540 f i GuSweepsHF.obj
 0001:000b6540       ?testVertexIndex@?$OverlapTraceSegment@VCapsuleTraceSegmentReport@@@HeightFieldTraceUtil@Gu@physx@@QEAA_NI@Z 00000001800b7540 f i GuSweepsHF.obj
 0001:000b6690       ?transformFast@PxBounds3@physx@@SA?AV12@AEBV?$PxTransformT@M@2@AEBV12@@Z 00000001800b7690 f i GuSweepsHF.obj
 0001:000b6a70       ?intersectOBBOBB@Gu@physx@@YA_NAEBV?$PxVec3T@M@2@0AEBV?$PxMat33T@M@2@001_N@Z 00000001800b7a70 f   GuIntersectionBoxBox.obj
 0001:000b70d0       ?intersectCapsuleTriangle@Gu@physx@@YA_NAEBV?$PxVec3T@M@2@000AEBVCapsule@12@AEBUCapsuleTriangleOverlapData@12@@Z 00000001800b80d0 f   GuIntersectionCapsuleTriangle.obj
 0001:000b7c60       ?intersectEdgeEdge@Gu@physx@@YA_NAEBV?$PxVec3T@M@2@0000AEAMAEAV32@@Z 00000001800b8c60 f   GuIntersectionEdgeEdge.obj
 0001:000b7f90       ?intersectRayAABB2@Gu@physx@@YA_NAEBT__m128@@0000AEAT3@1@Z 00000001800b8f90 f   GuIntersectionRayBox.obj
 0001:000b8050       ?intersectRayAABB2@Gu@physx@@YA_NAEBV?$PxVec3T@M@2@000MAEAM1@Z 00000001800b9050 f   GuIntersectionRayBox.obj
 0001:000b8200       ?intersectRayAABB@Gu@physx@@YAHAEBV?$PxVec3T@M@2@000AEAM1@Z 00000001800b9200 f   GuIntersectionRayBox.obj
 0001:000b8320       ?rayAABBIntersect2@Gu@physx@@YAIAEBV?$PxVec3T@M@2@000AEAV32@AEAM@Z 00000001800b9320 f   GuIntersectionRayBox.obj
 0001:000b8530       ?intersectRayCapsuleInternal@Gu@physx@@YAIAEBV?$PxVec3T@M@2@000MQEAM@Z 00000001800b9530 f   GuIntersectionRayCapsule.obj
 0001:000b8a00       ?intersectRaySphere@Gu@physx@@YA_NAEBV?$PxVec3T@M@2@0M0MAEAMPEAV32@@Z 00000001800b9a00 f   GuIntersectionRaySphere.obj
 0001:000b8af0       ?intersectRaySphereBasic@Gu@physx@@YA_NAEBV?$PxVec3T@M@2@0M0MAEAMPEAV32@@Z 00000001800b9af0 f   GuIntersectionRaySphere.obj
 0001:000b8c50       ?intersectSphereBox@Gu@physx@@YA_NAEBVSphere@12@AEBVBox@12@@Z 00000001800b9c50 f   GuIntersectionSphereBox.obj
 0001:000b8e80       ?intersectTetrahedronBox@Gu@physx@@YA_NAEBV?$PxVec3T@M@2@000AEBVPxBounds3@2@@Z 00000001800b9e80 f   GuIntersectionTetrahedronBox.obj
 0001:000b9260       ?intersectTriangleBox@Gu@physx@@YAHAEBVBoxPadded@12@AEBV?$PxVec3T@M@2@11@Z 00000001800ba260 f   GuIntersectionTriangleBox.obj
 0001:000b9830       ?intersectTriangleBoxBV4@@YAHAEBV?$PxVec3T@M@physx@@00AEBV?$PxMat33T@M@2@00@Z 00000001800ba830 f   GuIntersectionTriangleBox.obj
 0001:000b9c70       ?intersectTriangleBox_ReferenceCode@Gu@physx@@YAHAEBV?$PxVec3T@M@2@0000@Z 00000001800bac70 f   GuIntersectionTriangleBox.obj
 0001:000ba4a0       ?intersectTriangleBox_Unsafe@Gu@physx@@YAHAEBV?$PxVec3T@M@2@0000@Z 00000001800bb4a0 f   GuIntersectionTriangleBox.obj
 0001:000bab50       ?trianglesIntersect@Gu@physx@@YA_NAEBV?$PxVec3T@M@2@00000PEAVSegment@12@@Z 00000001800bbb50 f   GuIntersectionTriangleTriangle.obj
 0001:000bb140       ??0BV4Tree@Gu@physx@@QEAA@W4PxEMPTY@2@@Z 00000001800bc140 f   GuBV4.obj
 0001:000bb150       ??0BV4Tree@Gu@physx@@QEAA@XZ 00000001800bc150 f   GuBV4.obj
 0001:000bb180       ??0SourceMesh@Gu@physx@@QEAA@XZ 00000001800bc180 f   GuBV4.obj
 0001:000bb1b0       ??0TetrahedronSourceMesh@Gu@physx@@QEAA@XZ 00000001800bc1b0 f   GuBV4.obj
 0001:000bb1e0       ??1BV4Tree@Gu@physx@@QEAA@XZ 00000001800bc1e0 f   GuBV4.obj
 0001:000bb240       ??1SourceMesh@Gu@physx@@UEAA@XZ 00000001800bc240 f   GuBV4.obj
 0001:000bb240       ??1TetrahedronSourceMesh@Gu@physx@@UEAA@XZ 00000001800bc240 f   GuBV4.obj
 0001:000bb290       ??4BV4Tree@Gu@physx@@QEAAXAEAV012@@Z 00000001800bc290 f   GuBV4.obj
 0001:000bb320       ??4SourceMesh@Gu@physx@@QEAAXAEAV012@@Z 00000001800bc320 f   GuBV4.obj
 0001:000bb370       ??_ETetrahedronSourceMesh@Gu@physx@@UEAAPEAXI@Z 00000001800bc370 f i GuBV4.obj
 0001:000bb370       ??_GTetrahedronSourceMesh@Gu@physx@@UEAAPEAXI@Z 00000001800bc370 f i GuBV4.obj
 0001:000bb370       ??_ESourceMesh@Gu@physx@@UEAAPEAXI@Z 00000001800bc370 f i GuBV4.obj
 0001:000bb370       ??_GSourceMesh@Gu@physx@@UEAAPEAXI@Z 00000001800bc370 f i GuBV4.obj
 0001:000bb410       ??_ESourceMeshBase@Gu@physx@@UEAAPEAXI@Z 00000001800bc410 f i GuBV4.obj
 0001:000bb410       ??_GSourceMeshBase@Gu@physx@@UEAAPEAXI@Z 00000001800bc410 f i GuBV4.obj
 0001:000bb4b0       ?exportExtraData@BV4Tree@Gu@physx@@QEAAXAEAVPxSerializationContext@3@@Z 00000001800bc4b0 f   GuBV4.obj
 0001:000bb510       ?getPrimitiveBox@SourceMesh@Gu@physx@@UEAAXIAEAT__m128@@0@Z 00000001800bc510 f   GuBV4.obj
 0001:000bb5b0       ?getPrimitiveBox@TetrahedronSourceMesh@Gu@physx@@UEAAXIAEAT__m128@@0@Z 00000001800bc5b0 f   GuBV4.obj
 0001:000bb670       ?importExtraData@BV4Tree@Gu@physx@@QEAAXAEAVPxDeserializationContext@3@@Z 00000001800bc670 f   GuBV4.obj
 0001:000bb6b0       ?init@BV32Tree@Gu@physx@@QEAA_NPEAVSourceMeshBase@23@AEBVPxBounds3@3@@Z 00000001800bc6b0 f   GuBV32.obj
 0001:000bb6b0       ?init@BV4Tree@Gu@physx@@QEAA_NPEAVSourceMeshBase@23@AEBVPxBounds3@3@@Z 00000001800bc6b0 f   GuBV4.obj
 0001:000bb750       ?load@BV4Tree@Gu@physx@@QEAA_NAEAVPxInputStream@3@_N@Z 00000001800bc750 f   GuBV4.obj
 0001:000bb990       ?refit@BV4Tree@Gu@physx@@QEAA_NAEAVPxBounds3@3@M@Z 00000001800bc990 f   GuBV4.obj
 0001:000bc0e0       ?refit@SourceMesh@Gu@physx@@UEAAXIAEAVPxBounds3@3@@Z 00000001800bd0e0 f   GuBV4.obj
 0001:000bc280       ?refit@TetrahedronSourceMesh@Gu@physx@@UEAAXIAEAVPxBounds3@3@@Z 00000001800bd280 f   GuBV4.obj
 0001:000bc4a0       ?remapTopology@SourceMesh@Gu@physx@@UEAAXPEBI@Z 00000001800bd4a0 f   GuBV4.obj
 0001:000bc740       ?remapTopology@TetrahedronSourceMesh@Gu@physx@@UEAAXPEBI@Z 00000001800bd740 f   GuBV4.obj
 0001:000bc9e0       ??0BV4_AABBTree@Gu@physx@@QEAA@XZ 00000001800bd9e0 f   GuBV4Build.obj
 0001:000bc9f0       ??0BVData@@QEAA@XZ         00000001800bd9f0 f   GuBV4Build.obj
 0001:000bca20       ??0BuildStats@Gu@physx@@QEAA@XZ 00000001800bda20 f i GuBV4Build.obj
 0001:000bca30       ??1BV4_AABBTree@Gu@physx@@QEAA@XZ 00000001800bda30 f   GuBV4Build.obj
 0001:000bca40       ??4BuildStats@Gu@physx@@QEAAAEAU012@$$QEAU012@@Z 00000001800bda40 f i GuBV4Build.obj
 0001:000bca50       ??4BuildStats@Gu@physx@@QEAAAEAU012@AEBU012@@Z 00000001800bda50 f i GuBV4Build.obj
 0001:000bca60       ?BuildBV4Ex@Gu@physx@@YA_NAEAVBV4Tree@12@AEAVSourceMeshBase@12@MI_NW4BV4_BuildStrategy@12@@Z 00000001800bda60 f   GuBV4Build.obj
 0001:000bd9b0       ?allocateNode@BV4BuildParams@@QEAAPEAUBV4Node@@XZ 00000001800be9b0 f   GuBV4Build.obj
 0001:000bde30       ?buildFromMesh@BV4_AABBTree@Gu@physx@@QEAA_NAEAVSourceMeshBase@23@IW4BV4_BuildStrategy@23@@Z 00000001800bee30 f   GuBV4Build.obj
 0001:000beee0       ?increaseCount@BuildStats@Gu@physx@@QEAAXI@Z 00000001800bfee0 f i GuBV4Build.obj
 0001:000bf970       ?release@BV4_AABBTree@Gu@physx@@QEAAXXZ 00000001800c0970 f   GuBV4Build.obj
 0001:000bfa10       ?releaseNodes@BV4BuildParams@@QEAAXXZ 00000001800c0a10 f   GuBV4Build.obj
 0001:000bfa80       ?reset@BuildStats@Gu@physx@@QEAAXXZ 00000001800c0a80 f i GuBV4Build.obj
 0001:000bfa90       ?setCount@BuildStats@Gu@physx@@QEAAXI@Z 00000001800c0a90 f i GuBV4Build.obj
 0001:000c0110       ?walk@BV4_AABBTree@Gu@physx@@QEBAIP6A_NPEBVAABBTreeNode@23@IPEAX@Z1@Z 00000001800c1110 f   GuBV4Build.obj
 0001:000c01d0       ?walkDistance@BV4_AABBTree@Gu@physx@@QEBAIP6A_NPEBVAABBTreeNode@23@IPEAX@ZP6A_N01@Z1@Z 00000001800c11d0 f   GuBV4Build.obj
 0001:000c4230       ?GenericSweep_AABB_CB@@YAXAEBVBox@Gu@physx@@AEBV?$PxVec3T@M@3@MAEBVBV4Tree@23@P6A_NPEAX111IAEAM@Z3I@Z 00000001800c5230 f   GuBV4_AABBSweep.obj
 0001:000c4390       ?Sweep_AABB_BV4@@YAHAEBVBox@Gu@physx@@AEBV?$PxVec3T@M@3@MAEBVBV4Tree@23@PEIAVSweepHit@23@I@Z 00000001800c5390 f   GuBV4_AABBSweep.obj
 0001:000ccf10       ?BV4_OverlapBoxAll@@YAIAEBVBox@Gu@physx@@AEBVBV4Tree@23@PEIBV?$PxMat44T@M@3@PEAIIAEA_N@Z 00000001800cdf10 f   GuBV4_BoxOverlap.obj
 0001:000cd730       ?BV4_OverlapBoxAny@@YAHAEBVBox@Gu@physx@@AEBVBV4Tree@23@PEIBV?$PxMat44T@M@3@@Z 00000001800ce730 f   GuBV4_BoxOverlap.obj
 0001:000cdef0       ?BV4_OverlapBoxCB@@YAXAEBVBox@Gu@physx@@AEBVBV4Tree@23@P6A_NPEAXAEBV?$PxVec3T@M@3@333IPEBI@Z2@Z 00000001800ceef0 f   GuBV4_BoxOverlap.obj
 0001:000ce5b0       ?BV4_OverlapBoxCB@@YAXAEBVBox@Gu@physx@@AEBVBV4Tree@23@P6A_NPEAXAEBV?$PxVec3T@M@3@33IPEBI@Z2@Z 00000001800cf5b0 f   GuBV4_BoxOverlap.obj
 0001:000cea60       ?BV4_OverlapCapsuleAll@@YAIAEBVCapsule@Gu@physx@@AEBVBV4Tree@23@PEIBV?$PxMat44T@M@3@PEAIIAEA_N@Z 00000001800cfa60 f   GuBV4_BoxOverlap.obj
 0001:000cf180       ?BV4_OverlapCapsuleAny@@YAHAEBVCapsule@Gu@physx@@AEBVBV4Tree@23@PEIBV?$PxMat44T@M@3@@Z 00000001800d0180 f   GuBV4_BoxOverlap.obj
 0001:000d1f60       ?BV4_CapsuleSweepSingle@@YAHAEBVCapsule@Gu@physx@@AEBV?$PxVec3T@M@3@MAEBVBV4Tree@23@PEIAVSweepHit@23@I@Z 00000001800d2f60 f   GuBV4_CapsuleSweep.obj
 0001:000d6080       ?BV4_CapsuleSweepSingleAA@@YAHAEBVCapsule@Gu@physx@@AEBV?$PxVec3T@M@3@MAEBVBV4Tree@23@PEIAVSweepHit@23@I@Z 00000001800d7080 f   GuBV4_CapsuleSweepAA.obj
 0001:000e6180       ?BV4_OverlapMeshVsMesh@@YA_NAEAV?$PxReportCallback@UPxGeomIndexPair@physx@@@physx@@AEBVBV4Tree@Gu@2@1PEBV?$PxMat44T@M@2@2AEBV?$PxTransformT@M@2@3AEBVPxMeshScale@2@4V?$PxFlags@W4Enum@PxMeshMeshQueryFlag@physx@@I@2@@Z 00000001800e7180 f   GuBV4_MeshMeshOverlap.obj
 0001:000e63a0       ?BV4_OverlapMeshVsMesh@@YA_NAEAV?$PxReportCallback@UPxGeomIndexPair@physx@@@physx@@AEBVBV4Tree@Gu@2@1PEBV?$PxMat44T@M@2@2V?$PxFlags@W4Enum@PxMeshMeshQueryFlag@physx@@I@2@@Z 00000001800e73a0 f   GuBV4_MeshMeshOverlap.obj
 0001:000ed630       ??D?$PxMat33T@M@physx@@QEBA?BV?$PxVec3T@M@1@AEBV21@@Z 00000001800ee630 f i GuBV4_OBBSweep.obj
 0001:000ed6c0       ?BV4_BoxSweepSingle@@YAHAEBVBox@Gu@physx@@AEBV?$PxVec3T@M@3@MAEBVBV4Tree@23@PEIBV?$PxMat44T@M@3@PEIAVSweepHit@23@I@Z 00000001800ee6c0 f   GuBV4_OBBSweep.obj
 0001:000eddf0       ?BV4_GenericSweepCB@@YAXAEBVBox@Gu@physx@@AEBV?$PxVec3T@M@3@MAEBVBV4Tree@23@P6A_NPEAX111IAEAM@Z3_N@Z 00000001800eedf0 f   GuBV4_OBBSweep.obj
 0001:000ee010       ?Sweep_OBB_BV4@@YAHAEBVBox@Gu@physx@@AEBV?$PxVec3T@M@3@MAEBVBV4Tree@23@PEIAVSweepHit@23@I@Z 00000001800ef010 f   GuBV4_OBBSweep.obj
 0001:000f0b80       ?BV4_RaycastCB@@YAXAEBV?$PxVec3T@M@physx@@0AEBVBV4Tree@Gu@2@PEIBV?$PxMat44T@M@2@MMIP6A?AW4HitCode@42@PEAX000IMMM@Z3@Z 00000001800f1b80 f   GuBV4_Raycast.obj
 0001:000f0fc0       ?BV4_RaycastSingle@@YAHAEBV?$PxVec3T@M@physx@@0AEBVBV4Tree@Gu@2@PEIBV?$PxMat44T@M@2@PEIAUPxGeomRaycastHit@2@MMIV?$PxFlags@W4Enum@PxHitFlag@physx@@G@2@@Z 00000001800f1fc0 f   GuBV4_Raycast.obj
 0001:000f34f0       ?BV4_OverlapSphereAll@@YAIAEBVSphere@Gu@physx@@AEBVBV4Tree@23@PEIBV?$PxMat44T@M@3@PEAIIAEA_N@Z 00000001800f44f0 f   GuBV4_SphereOverlap.obj
 0001:000f3810       ?BV4_OverlapSphereAny@@YAHAEBVSphere@Gu@physx@@AEBVBV4Tree@23@PEIBV?$PxMat44T@M@3@@Z 00000001800f4810 f   GuBV4_SphereOverlap.obj
 0001:000f3af0       ?BV4_PointDistance@@YAXAEBV?$PxVec3T@M@physx@@AEBVBV4Tree@Gu@2@MAEAIAEAMAEAV12@@Z 00000001800f4af0 f   GuBV4_SphereOverlap.obj
 0001:000fa4a0       ?BV4_GenericSweepCB_Old@@YAXAEBV?$PxVec3T@M@physx@@00MAEBVBV4Tree@Gu@2@PEIBV?$PxMat44T@M@2@P6A_NPEAX000IAEAM@Z3@Z 00000001800fb4a0 f   GuBV4_SphereSweep.obj
 0001:000fa8b0       ?BV4_SphereSweepSingle@@YAHAEBVSphere@Gu@physx@@AEBV?$PxVec3T@M@3@MAEBVBV4Tree@23@PEIBV?$PxMat44T@M@3@PEIAVSweepHit@23@I@Z 00000001800fb8b0 f   GuBV4_SphereSweep.obj
 0001:000fbbc0       ?computeSweepData@physx@@YAMAEBVPxTriangleMeshGeometry@1@AEAV?$PxVec3T@M@1@11M@Z 00000001800fcbc0 f i GuMidphaseBV4.obj
 0001:000fd000       ?intersectBoxVsMesh_BV4@Gu@physx@@YA_NAEBVBox@12@AEBVTriangleMesh@12@AEBV?$PxTransformT@M@2@AEBVPxMeshScale@2@PEAULimitedResults@12@@Z 00000001800fe000 f   GuMidphaseBV4.obj
 0001:000fdaa0       ?intersectCapsuleVsMesh_BV4@Gu@physx@@YA_NAEBVCapsule@12@AEBVTriangleMesh@12@AEBV?$PxTransformT@M@2@AEBVPxMeshScale@2@PEAULimitedResults@12@@Z 00000001800feaa0 f   GuMidphaseBV4.obj
 0001:000fe2b0       ?intersectMeshVsMesh_BV4@Gu@physx@@YA_NAEAV?$PxReportCallback@UPxGeomIndexPair@physx@@@2@AEBVTriangleMesh@12@1AEBV?$PxTransformT@M@2@2AEBVPxMeshScale@2@3V?$PxFlags@W4Enum@PxMeshMeshQueryFlag@physx@@I@2@@Z 00000001800ff2b0 f   GuMidphaseBV4.obj
 0001:000febc0       ?intersectOBB_BV4@Gu@physx@@YAXPEBVTetrahedronMesh@12@AEBVBox@12@AEAU?$TetMeshHitCallback@UPxGeomRaycastHit@physx@@@12@@Z 00000001800ffbc0 f   GuMidphaseBV4.obj
 0001:000febe0       ?intersectOBB_BV4@Gu@physx@@YAXPEBVTriangleMesh@12@AEBVBox@12@AEAU?$MeshHitCallback@UPxGeomRaycastHit@physx@@@12@_N3@Z 00000001800ffbe0 f   GuMidphaseBV4.obj
 0001:000fec00       ?intersectSphereVsMesh_BV4@Gu@physx@@YA_NAEBVSphere@12@AEBVTriangleMesh@12@AEBV?$PxTransformT@M@2@AEBVPxMeshScale@2@PEAULimitedResults@12@@Z 00000001800ffc00 f   GuMidphaseBV4.obj
 0001:000ff300       ?pointMeshDistance_BV4@Gu@physx@@YAXPEBVTriangleMesh@12@AEBVPxTriangleMeshGeometry@2@AEBV?$PxTransformT@M@2@AEBV?$PxVec3T@M@2@MAEAIAEAMAEAV62@@Z 0000000180100300 f   GuMidphaseBV4.obj
 0001:000ff9b0       ?raycast_triangleMesh_BV4@Gu@physx@@YAIPEBVTriangleMesh@12@AEBVPxTriangleMeshGeometry@2@AEBV?$PxTransformT@M@2@AEBV?$PxVec3T@M@2@3MV?$PxFlags@W4Enum@PxHitFlag@physx@@G@2@IPEIAUPxGeomRaycastHit@2@I@Z 00000001801009b0 f   GuMidphaseBV4.obj
 0001:001007c0       ?sweepBox_MeshGeom_BV4@Gu@physx@@YA_NPEBVTriangleMesh@12@AEBVPxTriangleMeshGeometry@2@AEBV?$PxTransformT@M@2@AEBVBox@12@AEBV?$PxVec3T@M@2@MAEAUPxGeomSweepHit@2@V?$PxFlags@W4Enum@PxHitFlag@physx@@G@2@M@Z 00000001801017c0 f   GuMidphaseBV4.obj
 0001:00101f20       ?sweepCapsule_MeshGeom_BV4@Gu@physx@@YA_NPEBVTriangleMesh@12@AEBVPxTriangleMeshGeometry@2@AEBV?$PxTransformT@M@2@AEBVCapsule@12@AEBV?$PxVec3T@M@2@MAEAUPxGeomSweepHit@2@V?$PxFlags@W4Enum@PxHitFlag@physx@@G@2@M@Z 0000000180102f20 f   GuMidphaseBV4.obj
 0001:00102a20       ?sweepConvex_MeshGeom_BV4@Gu@physx@@YAXPEBVTriangleMesh@12@AEBVBox@12@AEBV?$PxVec3T@M@2@MAEAUSweepConvexMeshHitCallback@12@_N@Z 0000000180103a20 f   GuMidphaseBV4.obj
 0001:00102a60       ?transform@PxMeshScale@physx@@QEBA?AV?$PxVec3T@M@2@AEBV32@@Z 0000000180103a60 f i GuMidphaseBV4.obj
 0001:00102ca0       ?findOverlapHeightField@PxMeshQuery@physx@@SAIAEBVPxGeometry@2@AEBV?$PxTransformT@M@2@AEBVPxHeightFieldGeometry@2@1PEAIIIAEA_NV?$PxFlags@W4Enum@PxGeometryQueryFlag@physx@@I@2@@Z 0000000180103ca0 f   GuMeshQuery.obj
 0001:00103400       ?findOverlapTriangleMesh@PxMeshQuery@physx@@SAIAEBVPxGeometry@2@AEBV?$PxTransformT@M@2@AEBVPxTriangleMeshGeometry@2@1PEAIIIAEA_NV?$PxFlags@W4Enum@PxGeometryQueryFlag@physx@@I@2@@Z 0000000180104400 f   GuMeshQuery.obj
 0001:00103740       ?findOverlapTriangleMesh@PxMeshQuery@physx@@SA_NAEAV?$PxReportCallback@UPxGeomIndexPair@physx@@@2@AEBVPxTriangleMeshGeometry@2@AEBV?$PxTransformT@M@2@12V?$PxFlags@W4Enum@PxGeometryQueryFlag@physx@@I@2@V?$PxFlags@W4Enum@PxMeshMeshQueryFlag@physx@@I@2@@Z 0000000180104740 f   GuMeshQuery.obj
 0001:00103850       ?getTriangle@PxMeshQuery@physx@@SAXAEBVPxHeightFieldGeometry@2@AEBV?$PxTransformT@M@2@IAEAVPxTriangle@2@PEAI3@Z 0000000180104850 f   GuMeshQuery.obj
 0001:001038d0       ?getTriangle@PxMeshQuery@physx@@SAXAEBVPxTriangleMeshGeometry@2@AEBV?$PxTransformT@M@2@IAEAVPxTriangle@2@PEAI3@Z 00000001801048d0 f   GuMeshQuery.obj
 0001:00103dc0       ?sweep@PxMeshQuery@physx@@SA_NAEBV?$PxVec3T@M@2@MAEBVPxGeometry@2@AEBV?$PxTransformT@M@2@IPEBVPxTriangle@2@AEAUPxGeomSweepHit@2@V?$PxFlags@W4Enum@PxHitFlag@physx@@G@2@PEBIM_NV?$PxFlags@W4Enum@PxGeometryQueryFlag@physx@@I@2@@Z 0000000180104dc0 f   GuMeshQuery.obj
 0001:00104040       ??$collide@$00$00@MeshRayCollider@@SAXAEBV?$PxVec3T@M@physx@@0M_NPEBVRTreeTriangleMesh@Gu@2@AEAU?$MeshHitCallback@UPxGeomRaycastHit@physx@@@42@PEBV12@@Z 0000000180105040 f i GuMidphaseRTree.obj
 0001:001043b0       ??$collide@$00$0A@@MeshRayCollider@@SAXAEBV?$PxVec3T@M@physx@@0M_NPEBVRTreeTriangleMesh@Gu@2@AEAU?$MeshHitCallback@UPxGeomRaycastHit@physx@@@42@PEBV12@@Z 00000001801053b0 f i GuMidphaseRTree.obj
 0001:001045f0       ??$collide@$0A@$00@MeshRayCollider@@SAXAEBV?$PxVec3T@M@physx@@0M_NPEBVRTreeTriangleMesh@Gu@2@AEAU?$MeshHitCallback@UPxGeomRaycastHit@physx@@@42@PEBV12@@Z 00000001801055f0 f i GuMidphaseRTree.obj
 0001:00106940       ??0?$RayRTreeCallback@$00$0A@@@QEAA@MAEAU?$MeshHitCallback@UPxGeomRaycastHit@physx@@@Gu@physx@@HPEBXPEBV?$PxVec3T@M@3@AEBV43@3M_N2@Z 0000000180107940 f i GuMidphaseRTree.obj
 0001:00106a60       ??1?$RayRTreeCallback@$00$00@@UEAA@XZ 0000000180107a60 f i GuMidphaseRTree.obj
 0001:00106af0       ??1?$RayRTreeCallback@$0A@$0A@@@UEAA@XZ 0000000180107af0 f i GuMidphaseRTree.obj
 0001:00106af0       ??1?$RayRTreeCallback@$00$0A@@@UEAA@XZ 0000000180107af0 f i GuMidphaseRTree.obj
 0001:00106b80       ??1?$RayRTreeCallback@$0A@$00@@UEAA@XZ 0000000180107b80 f i GuMidphaseRTree.obj
 0001:00106c08       ??_E?$RayRTreeCallback@$00$00@@W7EAAPEAXI@Z 0000000180107c08 f i GuMidphaseRTree.obj
 0001:00106c14       ??_E?$RayRTreeCallback@$0A@$0A@@@W7EAAPEAXI@Z 0000000180107c14 f i GuMidphaseRTree.obj
 0001:00106c14       ??_E?$RayRTreeCallback@$00$0A@@@W7EAAPEAXI@Z 0000000180107c14 f i GuMidphaseRTree.obj
 0001:00106c20       ??_E?$RayRTreeCallback@$0A@$00@@W7EAAPEAXI@Z 0000000180107c20 f i GuMidphaseRTree.obj
 0001:00106c90       ??_G?$RayRTreeCallback@$00$00@@UEAAPEAXI@Z 0000000180107c90 f i GuMidphaseRTree.obj
 0001:00106c90       ??_E?$RayRTreeCallback@$00$00@@UEAAPEAXI@Z 0000000180107c90 f i GuMidphaseRTree.obj
 0001:00106cd0       ??_E?$RayRTreeCallback@$0A@$0A@@@UEAAPEAXI@Z 0000000180107cd0 f i GuMidphaseRTree.obj
 0001:00106cd0       ??_G?$RayRTreeCallback@$00$0A@@@UEAAPEAXI@Z 0000000180107cd0 f i GuMidphaseRTree.obj
 0001:00106cd0       ??_E?$RayRTreeCallback@$00$0A@@@UEAAPEAXI@Z 0000000180107cd0 f i GuMidphaseRTree.obj
 0001:00106cd0       ??_G?$RayRTreeCallback@$0A@$0A@@@UEAAPEAXI@Z 0000000180107cd0 f i GuMidphaseRTree.obj
 0001:00106d10       ??_E?$RayRTreeCallback@$0A@$00@@UEAAPEAXI@Z 0000000180107d10 f i GuMidphaseRTree.obj
 0001:00106d10       ??_G?$RayRTreeCallback@$0A@$00@@UEAAPEAXI@Z 0000000180107d10 f i GuMidphaseRTree.obj
 0001:00106d50       ??_GCallback@RTree@Gu@physx@@UEAAPEAXI@Z 0000000180107d50 f i GuMidphaseRTree.obj
 0001:00106d50       ??_ECallback@RTree@Gu@physx@@UEAAPEAXI@Z 0000000180107d50 f i GuMidphaseRTree.obj
 0001:00106d80       ??_GRayMeshColliderCallback@@UEAAPEAXI@Z 0000000180107d80 f i GuMidphaseRTree.obj
 0001:00106d80       ??_ERayMeshColliderCallback@@UEAAPEAXI@Z 0000000180107d80 f i GuMidphaseRTree.obj
 0001:00106d80       ??_ESweepCapsuleMeshHitCallback@Gu@physx@@UEAAPEAXI@Z 0000000180107d80 f i GuSweepsMesh.obj
 0001:00106d80       ??_GSweepCapsuleMeshHitCallback@Gu@physx@@UEAAPEAXI@Z 0000000180107d80 f i GuSweepsMesh.obj
 0001:00106db0       ?collideOBB@MeshRayCollider@@SAXAEBVBox@Gu@physx@@_NPEBVRTreeTriangleMesh@34@AEAU?$MeshHitCallback@UPxGeomRaycastHit@physx@@@34@1@Z 0000000180107db0 f   GuMidphaseRTree.obj
 0001:00107280       ?intersectBoxVsMesh_RTREE@Gu@physx@@YA_NAEBVBox@12@AEBVTriangleMesh@12@AEBV?$PxTransformT@M@2@AEBVPxMeshScale@2@PEAULimitedResults@12@@Z 0000000180108280 f   GuMidphaseRTree.obj
 0001:001072f0       ?intersectCapsuleVsMesh_RTREE@Gu@physx@@YA_NAEBVCapsule@12@AEBVTriangleMesh@12@AEBV?$PxTransformT@M@2@AEBVPxMeshScale@2@PEAULimitedResults@12@@Z 00000001801082f0 f   GuMidphaseRTree.obj
 0001:00107370       ?intersectOBB_RTREE@Gu@physx@@YAXPEBVTriangleMesh@12@AEBVBox@12@AEAU?$MeshHitCallback@UPxGeomRaycastHit@physx@@@12@_N3@Z 0000000180108370 f   GuMidphaseRTree.obj
 0001:001073a0       ?intersectSphereVsMesh_RTREE@Gu@physx@@YA_NAEBVSphere@12@AEBVTriangleMesh@12@AEBV?$PxTransformT@M@2@AEBVPxMeshScale@2@PEAULimitedResults@12@@Z 00000001801083a0 f   GuMidphaseRTree.obj
 0001:001073d0       ?pointMeshDistance_RTREE@Gu@physx@@YAXPEBVTriangleMesh@12@AEBVPxTriangleMeshGeometry@2@AEBV?$PxTransformT@M@2@AEBV?$PxVec3T@M@2@MAEAIAEAMAEAV62@@Z 00000001801083d0 f   GuMidphaseRTree.obj
 0001:001081d0       ?processHit@RayMeshColliderCallback@@UEAA_NAEBUPxGeomRaycastHit@physx@@AEBV?$PxVec3T@M@3@11AEAMPEBI@Z 00000001801091d0 f i GuMidphaseRTree.obj
 0001:00108980       ?processResults@?$RayRTreeCallback@$00$00@@UEAA_NIPEAI@Z 0000000180109980 f i GuMidphaseRTree.obj
 0001:00108cf0       ?processResults@?$RayRTreeCallback@$00$00@@UEAA_NIPEAIAEAM@Z 0000000180109cf0 f i GuMidphaseRTree.obj
 0001:00109060       ?processResults@?$RayRTreeCallback@$00$0A@@@UEAA_NIPEAI@Z 000000018010a060 f i GuMidphaseRTree.obj
 0001:00109060       ?processResults@?$RayRTreeCallback@$0A@$0A@@@UEAA_NIPEAI@Z 000000018010a060 f i GuMidphaseRTree.obj
 0001:001092d0       ?processResults@?$RayRTreeCallback@$0A@$0A@@@UEAA_NIPEAIAEAM@Z 000000018010a2d0 f i GuMidphaseRTree.obj
 0001:001092d0       ?processResults@?$RayRTreeCallback@$00$0A@@@UEAA_NIPEAIAEAM@Z 000000018010a2d0 f i GuMidphaseRTree.obj
 0001:00109540       ?processResults@?$RayRTreeCallback@$0A@$00@@UEAA_NIPEAI@Z 000000018010a540 f i GuMidphaseRTree.obj
 0001:00109b70       ?processResults@?$RayRTreeCallback@$0A@$00@@UEAA_NIPEAIAEAM@Z 000000018010ab70 f i GuMidphaseRTree.obj
 0001:0010a1c0       ?raycast_triangleMesh_RTREE@Gu@physx@@YAIPEBVTriangleMesh@12@AEBVPxTriangleMeshGeometry@2@AEBV?$PxTransformT@M@2@AEBV?$PxVec3T@M@2@3MV?$PxFlags@W4Enum@PxHitFlag@physx@@G@2@IPEIAUPxGeomRaycastHit@2@I@Z 000000018010b1c0 f   GuMidphaseRTree.obj
 0001:0010a940       ?sweepBox_MeshGeom_RTREE@Gu@physx@@YA_NPEBVTriangleMesh@12@AEBVPxTriangleMeshGeometry@2@AEBV?$PxTransformT@M@2@AEBVBox@12@AEBV?$PxVec3T@M@2@MAEAUPxGeomSweepHit@2@V?$PxFlags@W4Enum@PxHitFlag@physx@@G@2@M@Z 000000018010b940 f   GuMidphaseRTree.obj
 0001:0010be20       ?sweepCapsule_MeshGeom_RTREE@Gu@physx@@YA_NPEBVTriangleMesh@12@AEBVPxTriangleMeshGeometry@2@AEBV?$PxTransformT@M@2@AEBVCapsule@12@AEBV?$PxVec3T@M@2@MAEAUPxGeomSweepHit@2@V?$PxFlags@W4Enum@PxHitFlag@physx@@G@2@M@Z 000000018010ce20 f   GuMidphaseRTree.obj
 0001:0010c5d0       ?sweepConvex_MeshGeom_RTREE@Gu@physx@@YAXPEBVTriangleMesh@12@AEBVBox@12@AEBV?$PxVec3T@M@2@MAEAUSweepConvexMeshHitCallback@12@_N@Z 000000018010d5d0 f   GuMidphaseRTree.obj
 0001:0010cf50       ??_E?$PxReportCallback@UPxGeomIndexPair@physx@@@physx@@UEAAPEAXI@Z 000000018010df50 f i GuOverlapTestsMesh.obj
 0001:0010cf50       ??_G?$PxReportCallback@UPxGeomIndexPair@physx@@@physx@@UEAAPEAXI@Z 000000018010df50 f i GuOverlapTestsMesh.obj
 0001:0010cfe0       ?GeomOverlapCallback_BoxMesh@@YA_NAEBVPxGeometry@physx@@AEBV?$PxTransformT@M@2@01PEAUTriggerCache@Gu@2@PEAUPxQueryThreadContext@2@@Z 000000018010dfe0 f   GuOverlapTestsMesh.obj
 0001:0010d0f0       ?GeomOverlapCallback_CapsuleMesh@@YA_NAEBVPxGeometry@physx@@AEBV?$PxTransformT@M@2@01PEAUTriggerCache@Gu@2@PEAUPxQueryThreadContext@2@@Z 000000018010e0f0 f   GuOverlapTestsMesh.obj
 0001:0010d200       ?GeomOverlapCallback_ConvexMesh@@YA_NAEBVPxGeometry@physx@@AEBV?$PxTransformT@M@2@01PEAUTriggerCache@Gu@2@PEAUPxQueryThreadContext@2@@Z 000000018010e200 f   GuOverlapTestsMesh.obj
 0001:0010d700       ?GeomOverlapCallback_MeshMesh@@YA_NAEBVPxGeometry@physx@@AEBV?$PxTransformT@M@2@01PEAUTriggerCache@Gu@2@PEAUPxQueryThreadContext@2@@Z 000000018010e700 f   GuOverlapTestsMesh.obj
 0001:0010d7c0       ?GeomOverlapCallback_SphereMesh@@YA_NAEBVPxGeometry@physx@@AEBV?$PxTransformT@M@2@01PEAUTriggerCache@Gu@2@PEAUPxQueryThreadContext@2@@Z 000000018010e7c0 f   GuOverlapTestsMesh.obj
 0001:0010dbb0       ??0RTree@Gu@physx@@QEAA@W4PxEMPTY@2@@Z 000000018010ebb0 f   GuRTree.obj
 0001:0010dbc0       ?exportExtraData@RTree@Gu@physx@@QEAAXAEAVPxSerializationContext@3@@Z 000000018010ebc0 f   GuRTree.obj
 0001:0010dc00       ?importExtraData@RTree@Gu@physx@@QEAAXAEAVPxDeserializationContext@3@@Z 000000018010ec00 f   GuRTree.obj
 0001:0010dc30       ?load@RTree@Gu@physx@@QEAA_NAEAVPxInputStream@3@I_N@Z 000000018010ec30 f   GuRTree.obj
 0001:0010df30       ?refitAllStaticTree@RTree@Gu@physx@@QEAAXAEAUCallbackRefit@123@PEAVPxBounds3@3@@Z 000000018010ef30 f   GuRTree.obj
 0001:0010e490       ?validate@RTree@Gu@physx@@QEAAXPEAUCallbackRefit@123@@Z 000000018010f490 f   GuRTree.obj
 0001:0010e5f0       ?validateRecursive@RTree@Gu@physx@@IEAAXIURTreeNodeQ@23@PEAURTreePage@23@PEAUCallbackRefit@123@@Z 000000018010f5f0 f   GuRTree.obj
 0001:0010e720       ??$traverseRay@$00@RTree@Gu@physx@@QEBAXAEBV?$PxVec3T@M@2@0IPEAIPEAUCallbackRaycast@012@PEBV32@M@Z 000000018010f720 f i GuRTreeQueries.obj
 0001:0010eac0       ??$traverseRay@$0A@@RTree@Gu@physx@@QEBAXAEBV?$PxVec3T@M@2@0IPEAIPEAUCallbackRaycast@012@PEBV32@M@Z 000000018010fac0 f i GuRTreeQueries.obj
 0001:0010ee10       ?traverseAABB@RTree@Gu@physx@@QEBAXAEBV?$PxVec3T@M@3@0IPEAIPEAUCallback@123@@Z 000000018010fe10 f   GuRTreeQueries.obj
 0001:0010efd0       ?traverseOBB@RTree@Gu@physx@@QEBAXAEBVBox@23@IPEAIPEAUCallback@123@@Z 000000018010ffd0 f   GuRTreeQueries.obj
 0001:0010f8b0       ??0SweepBoxMeshHitCallback@Gu@physx@@QEAA@W4Enum@CallbackMode@12@AEBVPxMat34Padded@2@M_NAEBVBox@12@AEBV?$PxVec3T@M@2@44AEBV?$PxFlags@W4Enum@PxHitFlag@physx@@G@2@M2M@Z 00000001801108b0 f   GuSweepsMesh.obj
 0001:0010f9c0       ??0SweepCapsuleMeshHitCallback@Gu@physx@@QEAA@AEAUPxGeomSweepHit@2@AEBV?$PxMat34T@M@2@M_NAEBVCapsule@12@AEBV?$PxVec3T@M@2@AEBV?$PxFlags@W4Enum@PxHitFlag@physx@@G@2@2M@Z 00000001801109c0 f   GuSweepsMesh.obj
 0001:0010fa90       ??0SweepConvexMeshHitCallback@Gu@physx@@QEAA@AEBUConvexHullData@12@AEBVPxMeshScale@2@AEBVFastVertex2ShapeScaling@Cm@2@AEBV?$PxTransformT@M@2@3AEBV?$PxVec3T@M@2@MV?$PxFlags@W4Enum@PxHitFlag@physx@@G@2@_NM6M@Z 0000000180110a90 f   GuSweepsMesh.obj
 0001:001103e0       ??_GSweepBoxMeshHitCallback@Gu@physx@@UEAAPEAXI@Z 00000001801113e0 f i GuSweepsMesh.obj
 0001:001103e0       ??_ESweepBoxMeshHitCallback@Gu@physx@@UEAAPEAXI@Z 00000001801113e0 f i GuSweepsMesh.obj
 0001:00110410       ??_GSweepConvexMeshHitCallback@Gu@physx@@UEAAPEAXI@Z 0000000180111410 f i GuSweepsMesh.obj
 0001:00110410       ??_ESweepConvexMeshHitCallback@Gu@physx@@UEAAPEAXI@Z 0000000180111410 f i GuSweepsMesh.obj
 0001:00110440       ??_ESweepShapeMeshHitCallback@Gu@physx@@UEAAPEAXI@Z 0000000180111440 f i GuSweepsMesh.obj
 0001:00110440       ??_GSweepShapeMeshHitCallback@Gu@physx@@UEAAPEAXI@Z 0000000180111440 f i GuSweepsMesh.obj
 0001:00110470       ?finalizeHit@SweepBoxMeshHitCallback@Gu@physx@@QEBA_NAEAUPxGeomSweepHit@3@AEBVPxTriangleMeshGeometry@3@AEBV?$PxTransformT@M@3@2AEBV?$PxVec3T@M@3@_N4@Z 0000000180111470 f   GuSweepsMesh.obj
 0001:00110b30       ?finalizeHit@SweepCapsuleMeshHitCallback@Gu@physx@@QEBA_NAEAUPxGeomSweepHit@3@AEBVCapsule@23@AEBVPxTriangleMeshGeometry@3@AEBV?$PxTransformT@M@3@_N@Z 0000000180111b30 f   GuSweepsMesh.obj
 0001:00110ce0       ?finalizeHit@SweepConvexMeshHitCallback@Gu@physx@@QEAA_NAEAUPxGeomSweepHit@3@AEBVPxTriangleMeshGeometry@3@AEBV?$PxTransformT@M@3@AEBVPxConvexMeshGeometry@3@2AEBV?$PxVec3T@M@3@M_N555@Z 0000000180111ce0 f   GuSweepsMesh.obj
 0001:001111c0       ?processHit@SweepBoxMeshHitCallback@Gu@physx@@UEAA_NAEBUPxGeomRaycastHit@3@AEBV?$PxVec3T@M@3@11AEAMPEBI@Z 00000001801121c0 f   GuSweepsMesh.obj
 0001:001119c0       ?processHit@SweepCapsuleMeshHitCallback@Gu@physx@@UEAA_NAEBUPxGeomRaycastHit@3@AEBV?$PxVec3T@M@3@11AEAMPEBI@Z 00000001801129c0 f   GuSweepsMesh.obj
 0001:00111f20       ?processHit@SweepConvexMeshHitCallback@Gu@physx@@UEAA_NAEBUPxGeomRaycastHit@3@AEBV?$PxVec3T@M@3@11AEAMPEBI@Z 0000000180112f20 f   GuSweepsMesh.obj
 0001:00112660       ?sweepBox_MeshGeom@@YA_NAEBVPxGeometry@physx@@AEBV?$PxTransformT@M@2@AEBVPxBoxGeometry@2@1AEBVBox@Gu@2@AEBV?$PxVec3T@M@2@MAEAUPxGeomSweepHit@2@V?$PxFlags@W4Enum@PxHitFlag@physx@@G@2@MPEAUPxQueryThreadContext@2@@Z 0000000180113660 f   GuSweepsMesh.obj
 0001:001126f0       ?sweepCapsule_MeshGeom@@YA_NAEBVPxGeometry@physx@@AEBV?$PxTransformT@M@2@AEBVPxCapsuleGeometry@2@1AEBVCapsule@Gu@2@AEBV?$PxVec3T@M@2@MAEAUPxGeomSweepHit@2@V?$PxFlags@W4Enum@PxHitFlag@physx@@G@2@MPEAUPxQueryThreadContext@2@@Z 00000001801136f0 f   GuSweepsMesh.obj
 0001:00112780       ?sweepConvex_MeshGeom@@YA_NAEBVPxGeometry@physx@@AEBV?$PxTransformT@M@2@AEBVPxConvexMeshGeometry@2@1AEBV?$PxVec3T@M@2@MAEAUPxGeomSweepHit@2@V?$PxFlags@W4Enum@PxHitFlag@physx@@G@2@MPEAUPxQueryThreadContext@2@@Z 0000000180113780 f   GuSweepsMesh.obj
 0001:001132c0       ??0TriangleMesh@Gu@physx@@QEAA@AEBUPxTriangleMeshInternalData@2@@Z 00000001801142c0 f   GuTriangleMesh.obj
 0001:001133a0       ??0TriangleMesh@Gu@physx@@QEAA@PEAVMeshFactory@12@AEAVTriangleMeshData@12@@Z 00000001801143a0 f   GuTriangleMesh.obj
 0001:00113720       ??1TriangleMesh@Gu@physx@@UEAA@XZ 0000000180114720 f   GuTriangleMesh.obj
 0001:00113970       ??_ETriangleMesh@Gu@physx@@UEAAPEAXI@Z 0000000180114970 f i GuTriangleMesh.obj
 0001:00113970       ??_GTriangleMesh@Gu@physx@@UEAAPEAXI@Z 0000000180114970 f i GuTriangleMesh.obj
 0001:001139e0       ?exportExtraData@TriangleMesh@Gu@physx@@UEAAXAEAVPxSerializationContext@3@@Z 00000001801149e0 f   GuTriangleMesh.obj
 0001:00113bb0       ?getLocalBounds@TriangleMesh@Gu@physx@@UEBA?AVPxBounds3@3@XZ 0000000180114bb0 f i GuTriangleMesh.obj
 0001:00113c40       ?getMassInformation@TriangleMesh@Gu@physx@@UEBAXAEAMAEAV?$PxMat33T@M@3@AEAV?$PxVec3T@M@3@@Z 0000000180114c40 f i GuTriangleMesh.obj
 0001:00113cc0       ?getNbTriangles@TriangleMesh@Gu@physx@@UEBAIXZ 0000000180114cc0 f i GuTriangleMesh.obj
 0001:00113cd0       ?getPreferSDFProjection@TriangleMesh@Gu@physx@@UEBA_NXZ 0000000180114cd0 f i GuTriangleMesh.obj
 0001:00113ce0       ?getSDF@TriangleMesh@Gu@physx@@UEBAPEBMXZ 0000000180114ce0 f i GuTriangleMesh.obj
 0001:00113cf0       ?getSDFDimensions@TriangleMesh@Gu@physx@@UEBAXAEAI00@Z 0000000180114cf0 f i GuTriangleMesh.obj
 0001:00113d20       ?getTriangleMaterialIndex@TriangleMesh@Gu@physx@@UEBAGI@Z 0000000180114d20 f i GuTriangleMesh.obj
 0001:00113d40       ?getTriangleMeshFlags@TriangleMesh@Gu@physx@@UEBA?AV?$PxFlags@W4Enum@PxTriangleMeshFlag@physx@@E@3@XZ 0000000180114d40 f i GuTriangleMesh.obj
 0001:00113d50       ?getTrianglesRemap@TriangleMesh@Gu@physx@@UEBAPEBIXZ 0000000180114d50 f i GuTriangleMesh.obj
 0001:00113d60       ?getVerticesForModification@TriangleMesh@Gu@physx@@UEAAPEAV?$PxVec3T@M@3@XZ 0000000180114d60 f   GuTriangleMesh.obj
 0001:00113da0       ?importExtraData@TriangleMesh@Gu@physx@@QEAAXAEAVPxDeserializationContext@3@@Z 0000000180114da0 f   GuTriangleMesh.obj
 0001:00113f40       ?isKindOf@PxTriangleMesh@physx@@MEBA_NPEBD@Z 0000000180114f40 f i GuTriangleMesh.obj
 0001:00113fb0       ?onRefCountZero@TriangleMesh@Gu@physx@@UEAAXXZ 0000000180114fb0 f   GuTriangleMesh.obj
 0001:00114080       ?refitBVH@TriangleMesh@Gu@physx@@UEAA?AVPxBounds3@3@XZ 0000000180115080 f   GuTriangleMesh.obj
 0001:00114150       ?requestEdgeList@TriangleMesh@Gu@physx@@QEBAPEBVEdgeList@23@XZ 0000000180115150 f   GuTriangleMesh.obj
 0001:00114240       ?setAllEdgesActive@TriangleMesh@Gu@physx@@QEAAXXZ 0000000180115240 f   GuTriangleMesh.obj
 0001:00114330       ?setPreferSDFProjection@TriangleMesh@Gu@physx@@UEAAX_N@Z 0000000180115330 f i GuTriangleMesh.obj
 0001:00114360       ??0BV4TriangleMesh@Gu@physx@@QEAA@AEBUPxTriangleMeshInternalData@2@@Z 0000000180115360 f   GuTriangleMeshBV4.obj
 0001:001144d0       ??0BV4TriangleMesh@Gu@physx@@QEAA@PEAVMeshFactory@12@AEAVTriangleMeshData@12@@Z 00000001801154d0 f   GuTriangleMeshBV4.obj
 0001:00114560       ??_EBV4TriangleMesh@Gu@physx@@UEAAPEAXI@Z 0000000180115560 f i GuTriangleMeshBV4.obj
 0001:00114560       ??_GBV4TriangleMesh@Gu@physx@@UEAAPEAXI@Z 0000000180115560 f i GuTriangleMeshBV4.obj
 0001:001145f0       ?createObject@BV4TriangleMesh@Gu@physx@@SAPEAVTriangleMesh@23@AEAPEAEAEAVPxDeserializationContext@3@@Z 00000001801155f0 f   GuTriangleMeshBV4.obj
 0001:001146e0       ?exportExtraData@BV4TriangleMesh@Gu@physx@@UEAAXAEAVPxSerializationContext@3@@Z 00000001801156e0 f   GuTriangleMeshBV4.obj
 0001:00114720       ?getConcreteTypeName@BV4TriangleMesh@Gu@physx@@UEBAPEBDXZ 0000000180115720 f i GuTriangleMeshBV4.obj
 0001:00114730       ?getInternalData@BV4TriangleMesh@Gu@physx@@UEBA_NAEAUPxTriangleMeshInternalData@3@_N@Z 0000000180115730 f   GuTriangleMeshBV4.obj
 0001:00114820       ?getMidphaseID@BV4TriangleMesh@Gu@physx@@UEBA?AW4Enum@PxMeshMidPhase@3@XZ 0000000180115820 f i GuTriangleMeshBV4.obj
 0001:00114820       ?length@charNode@@UEBAHXZ  0000000180115820 f i libvcruntime:undname.obj
 0001:00114820       ?raw_length@charNode@@UEBAHXZ 0000000180115820 f i libvcruntime:undname.obj
 0001:00114820       DllMain                    0000000180115820 f i LIBCMT:dll_dllmain_stub.obj
 0001:00114820       ?getMidphaseID@BV4TriangleMeshBuilder@physx@@UEBA?AW4Enum@PxMeshMidPhase@2@XZ 0000000180115820 f i GuCookingTriangleMesh.obj
 0001:00114820       _get_startup_argv_mode     0000000180115820 f i LIBCMT:argv_mode.obj
 0001:00114830       ?getVerticesForModification@RTreeTriangleMesh@Gu@physx@@UEAAPEAV?$PxVec3T@M@3@XZ 0000000180115830 f   GuTriangleMeshRTree.obj
 0001:00114830       ?getVerticesForModification@BV4TriangleMesh@Gu@physx@@UEAAPEAV?$PxVec3T@M@3@XZ 0000000180115830 f   GuTriangleMeshBV4.obj
 0001:00114840       ?refitBVH@BV4TriangleMesh@Gu@physx@@UEAA?AVPxBounds3@3@XZ 0000000180115840 f   GuTriangleMeshBV4.obj
 0001:001149b0       PxGetTriangleMeshInternalData 00000001801159b0 f   GuTriangleMeshBV4.obj
 0001:001149d0       ??0RTreeTriangleMesh@Gu@physx@@QEAA@PEAVMeshFactory@12@AEAVTriangleMeshData@12@@Z 00000001801159d0 f   GuTriangleMeshRTree.obj
 0001:00114b40       ??_E?$RefitCallback@G@physx@@UEAAPEAXI@Z 0000000180115b40 f i GuTriangleMeshRTree.obj
 0001:00114b40       ??_E?$RefitCallback@I@physx@@UEAAPEAXI@Z 0000000180115b40 f i GuTriangleMeshRTree.obj
 0001:00114b40       ??_G?$RefitCallback@I@physx@@UEAAPEAXI@Z 0000000180115b40 f i GuTriangleMeshRTree.obj
 0001:00114b40       ??_G?$RefitCallback@G@physx@@UEAAPEAXI@Z 0000000180115b40 f i GuTriangleMeshRTree.obj
 0001:00114b70       ??_ERTreeTriangleMesh@Gu@physx@@UEAAPEAXI@Z 0000000180115b70 f i GuTriangleMeshRTree.obj
 0001:00114b70       ??_GRTreeTriangleMesh@Gu@physx@@UEAAPEAXI@Z 0000000180115b70 f i GuTriangleMeshRTree.obj
 0001:00114c20       ?createObject@RTreeTriangleMesh@Gu@physx@@SAPEAVTriangleMesh@23@AEAPEAEAEAVPxDeserializationContext@3@@Z 0000000180115c20 f   GuTriangleMeshRTree.obj
 0001:00114cc0       ?exportExtraData@RTreeTriangleMesh@Gu@physx@@UEAAXAEAVPxSerializationContext@3@@Z 0000000180115cc0 f   GuTriangleMeshRTree.obj
 0001:00114d00       ?getConcreteTypeName@RTreeTriangleMesh@Gu@physx@@UEBAPEBDXZ 0000000180115d00 f i GuTriangleMeshRTree.obj
 0001:00114d10       ?recomputeBounds@?$RefitCallback@G@physx@@UEAAXIAEAT__m128@@0@Z 0000000180115d10 f i GuTriangleMeshRTree.obj
 0001:00115040       ?recomputeBounds@?$RefitCallback@I@physx@@UEAAXIAEAT__m128@@0@Z 0000000180116040 f i GuTriangleMeshRTree.obj
 0001:00115360       ?refitBVH@RTreeTriangleMesh@Gu@physx@@UEAA?AVPxBounds3@3@XZ 0000000180116360 f   GuTriangleMeshRTree.obj
 0001:00115480       ??0BV32Tree@Gu@physx@@QEAA@XZ 0000000180116480 f   GuBV32.obj
 0001:001154b0       ??1BV32Tree@Gu@physx@@QEAA@XZ 00000001801164b0 f   GuBV32.obj
 0001:001154c0       ?calculateLeafNode@BV32Tree@Gu@physx@@QEAAXAEAUBV32Data@23@@Z 00000001801164c0 f   GuBV32.obj
 0001:00115700       ?createSOAformatNode@BV32Tree@Gu@physx@@QEAAXAEAUBV32DataPacked@23@AEBUBV32Data@23@IAEAI2@Z 0000000180116700 f   GuBV32.obj
 0001:00115b60       ?load@BV32Tree@Gu@physx@@QEAA_NAEAVPxInputStream@3@_N@Z 0000000180116b60 f   GuBV32.obj
 0001:00115ea0       ?release@BV32Tree@Gu@physx@@QEAAXXZ 0000000180116ea0 f   GuBV32.obj
 0001:00115f60       ??0BV32Node@@QEAA@XZ       0000000180116f60 f i GuBV32Build.obj
 0001:001163e0       ?BuildBV32Ex@Gu@physx@@YA_NAEAVBV32Tree@12@AEAVSourceMeshBase@12@MI@Z 00000001801173e0 f   GuBV32Build.obj
 0001:00117380       ??0BVTetrahedronMesh@Gu@physx@@QEAA@AEAVTetrahedronMeshData@12@AEAVSoftBodyCollisionData@12@PEAVMeshFactory@12@@Z 0000000180118380 f   GuTetrahedronMesh.obj
 0001:001175e0       ??0SoftBodyMesh@Gu@physx@@QEAA@PEAVMeshFactory@12@AEAVSoftBodyMeshData@12@@Z 00000001801185e0 f   GuTetrahedronMesh.obj
 0001:001179b0       ??0TetrahedronMesh@Gu@physx@@QEAA@PEAVMeshFactory@12@AEAVTetrahedronMeshData@12@@Z 00000001801189b0 f   GuTetrahedronMesh.obj
 0001:00117aa0       ??1SoftBodyAuxData@Gu@physx@@UEAA@XZ 0000000180118aa0 f   GuTetrahedronMesh.obj
 0001:00117d00       ??1TetrahedronMesh@Gu@physx@@UEAA@XZ 0000000180118d00 f   GuTetrahedronMesh.obj
 0001:00117da0       ??_EBVTetrahedronMesh@Gu@physx@@UEAAPEAXI@Z 0000000180118da0 f i GuTetrahedronMesh.obj
 0001:00117da0       ??_GBVTetrahedronMesh@Gu@physx@@UEAAPEAXI@Z 0000000180118da0 f i GuTetrahedronMesh.obj
 0001:00117f20       ??_ESoftBodyAuxData@Gu@physx@@UEAAPEAXI@Z 0000000180118f20 f i GuTetrahedronMesh.obj
 0001:00117f20       ??_GSoftBodyAuxData@Gu@physx@@UEAAPEAXI@Z 0000000180118f20 f i GuTetrahedronMesh.obj
 0001:00117f90       ??_GSoftBodyMesh@Gu@physx@@UEAAPEAXI@Z 0000000180118f90 f i GuTetrahedronMesh.obj
 0001:00117f90       ??_ESoftBodyMesh@Gu@physx@@UEAAPEAXI@Z 0000000180118f90 f i GuTetrahedronMesh.obj
 0001:00118060       ??_ETetrahedronMesh@Gu@physx@@UEAAPEAXI@Z 0000000180119060 f i GuTetrahedronMesh.obj
 0001:00118060       ??_GTetrahedronMesh@Gu@physx@@UEAAPEAXI@Z 0000000180119060 f i GuTetrahedronMesh.obj
 0001:001180d0       ?exportExtraData@SoftBodyMesh@Gu@physx@@UEAAXAEAVPxSerializationContext@3@@Z 00000001801190d0 f   GuTetrahedronMesh.obj
 0001:001181c0       ?getConcreteTypeName@SoftBodyAuxData@Gu@physx@@UEBAPEBDXZ 00000001801191c0 f i GuTetrahedronMesh.obj
 0001:001181d0       ?getConcreteTypeName@SoftBodyMesh@Gu@physx@@UEBAPEBDXZ 00000001801191d0 f i GuTetrahedronMesh.obj
 0001:001181e0       ?getConcreteTypeName@TetrahedronMesh@Gu@physx@@UEBAPEBDXZ 00000001801191e0 f i GuTetrahedronMesh.obj
 0001:001181f0       ?getLocalBounds@TetrahedronMesh@Gu@physx@@UEBA?AVPxBounds3@3@XZ 00000001801191f0 f i GuTetrahedronMesh.obj
 0001:00118280       ?getNbTetrahedrons@TetrahedronMesh@Gu@physx@@UEBAIXZ 0000000180119280 f i GuTetrahedronMesh.obj
 0001:00118290       ?getTetrahedraRemap@BVTetrahedronMesh@Gu@physx@@UEBAPEBIXZ 0000000180119290 f i GuTetrahedronMesh.obj
 0001:00118290       ?getBounds@BVH@Gu@physx@@UEBAPEBVPxBounds3@3@XZ 0000000180119290 f i GuBVH.obj
 0001:001182a0       ?getTetrahedronMeshFlags@TetrahedronMesh@Gu@physx@@UEBA?AV?$PxFlags@W4Enum@PxTetrahedronMeshFlag@physx@@E@3@XZ 00000001801192a0 f i GuTetrahedronMesh.obj
 0001:001182b0       ?getTetrahedrons@TetrahedronMesh@Gu@physx@@UEBAPEBXXZ 00000001801192b0 f i GuTetrahedronMesh.obj
 0001:001182c0       ?isKindOf@PxSoftBodyAuxData@physx@@MEBA_NPEBD@Z 00000001801192c0 f i GuTetrahedronMesh.obj
 0001:00118330       ?isKindOf@PxSoftBodyMesh@physx@@MEBA_NPEBD@Z 0000000180119330 f i GuTetrahedronMesh.obj
 0001:001183a0       ?isKindOf@PxTetrahedronMesh@physx@@MEBA_NPEBD@Z 00000001801193a0 f i GuTetrahedronMesh.obj
 0001:00118410       ?onRefCountZero@SoftBodyAuxData@Gu@physx@@UEAAXXZ 0000000180119410 f i GuTetrahedronMesh.obj
 0001:00118410       ?release@SimulationTetrahedronMeshData@Gu@physx@@UEAAXXZ 0000000180119410 f i GuCookingTetrahedronMesh.obj
 0001:00118430       ?onRefCountZero@SoftBodyMesh@Gu@physx@@UEAAXXZ 0000000180119430 f   GuTetrahedronMesh.obj
 0001:001184d0       ?onRefCountZero@TetrahedronMesh@Gu@physx@@UEAAXXZ 00000001801194d0 f   GuTetrahedronMesh.obj
 0001:0011ab20       ?pcmContactBoxBox@Gu@physx@@YA_NAEBVPxGeometry@2@0AEBV?$PxTransformT@M@2@1AEBUNarrowPhaseParams@12@AEAUCache@12@AEAVPxContactBuffer@2@PEAVPxRenderOutput@2@@Z 000000018011bb20 f   GuPCMContactBoxBox.obj
 0001:0011b9d0       ??$gjkPenetration@U?$RelativeConvex@VBoxV@Gu@physx@@@Gu@physx@@U?$LocalConvex@VConvexHullNoScaleV@Gu@physx@@@23@@Gu@physx@@YA?AW4GjkStatus@01@AEBU?$RelativeConvex@VBoxV@Gu@physx@@@01@AEBU?$LocalConvex@VConvexHullNoScaleV@Gu@physx@@@01@AEBT__m128@@2_NPEIAE4AEAEAEAUGjkOutput@01@@Z 000000018011c9d0 f i GuPCMContactBoxConvex.obj
 0001:0011ba40       ??$gjkPenetration@U?$RelativeConvex@VBoxV@Gu@physx@@@Gu@physx@@U?$LocalConvex@VConvexHullNoScaleV@Gu@physx@@@23@@Gu@physx@@YA?AW4GjkStatus@01@AEBU?$RelativeConvex@VBoxV@Gu@physx@@@01@AEBU?$LocalConvex@VConvexHullNoScaleV@Gu@physx@@@01@AEBT__m128@@2_NPEIAE4PEIAT5@5AEAEAEAUGjkOutput@01@@Z 000000018011ca40 f i GuPCMContactBoxConvex.obj
 0001:0011d610       ?pcmContactBoxConvex@Gu@physx@@YA_NAEBVPxGeometry@2@0AEBV?$PxTransformT@M@2@1AEBUNarrowPhaseParams@12@AEAUCache@12@AEAVPxContactBuffer@2@PEAVPxRenderOutput@2@@Z 000000018011e610 f   GuPCMContactBoxConvex.obj
 0001:0011e470       ?support@?$LocalConvex@VConvexHullNoScaleV@Gu@physx@@@Gu@physx@@UEBA?AT__m128@@AEBT4@@Z 000000018011f470 f i GuPCMContactBoxConvex.obj
 0001:0011e4c0       ?support@?$LocalConvex@VConvexHullNoScaleV@Gu@physx@@@Gu@physx@@UEBA?AT__m128@@AEBT4@AEAH@Z 000000018011f4c0 f i GuPCMContactBoxConvex.obj
 0001:0011e520       ?supportPoint@?$LocalConvex@VConvexHullNoScaleV@Gu@physx@@@Gu@physx@@UEBA?AT__m128@@H@Z 000000018011f520 f i GuPCMContactBoxConvex.obj
 0001:0011e550       ?pcmContactCapsuleBox@Gu@physx@@YA_NAEBVPxGeometry@2@0AEBV?$PxTransformT@M@2@1AEBUNarrowPhaseParams@12@AEAUCache@12@AEAVPxContactBuffer@2@PEAVPxRenderOutput@2@@Z 000000018011f550 f   GuPCMContactCapsuleBox.obj
 0001:0011f4b0       ?pcmContactCapsuleCapsule@Gu@physx@@YA_NAEBVPxGeometry@2@0AEBV?$PxTransformT@M@2@1AEBUNarrowPhaseParams@12@AEAUCache@12@AEAVPxContactBuffer@2@PEAVPxRenderOutput@2@@Z 00000001801204b0 f   GuPCMContactCapsuleCapsule.obj
 0001:0011fd40       ??$gjkPenetration@U?$LocalConvex@VCapsuleV@Gu@physx@@@Gu@physx@@U?$LocalConvex@VConvexHullNoScaleV@Gu@physx@@@23@@Gu@physx@@YA?AW4GjkStatus@01@AEBU?$LocalConvex@VCapsuleV@Gu@physx@@@01@AEBU?$LocalConvex@VConvexHullNoScaleV@Gu@physx@@@01@AEBT__m128@@2_NPEIAE4AEAEAEAUGjkOutput@01@@Z 0000000180120d40 f i GuPCMContactCapsuleConvex.obj
 0001:0011fdb0       ??$gjkPenetration@U?$LocalConvex@VCapsuleV@Gu@physx@@@Gu@physx@@U?$LocalConvex@VConvexHullNoScaleV@Gu@physx@@@23@@Gu@physx@@YA?AW4GjkStatus@01@AEBU?$LocalConvex@VCapsuleV@Gu@physx@@@01@AEBU?$LocalConvex@VConvexHullNoScaleV@Gu@physx@@@01@AEBT__m128@@2_NPEIAE4PEIAT5@5AEAEAEAUGjkOutput@01@@Z 0000000180120db0 f i GuPCMContactCapsuleConvex.obj
 0001:00121480       ?pcmContactCapsuleConvex@Gu@physx@@YA_NAEBVPxGeometry@2@0AEBV?$PxTransformT@M@2@1AEBUNarrowPhaseParams@12@AEAUCache@12@AEAVPxContactBuffer@2@PEAVPxRenderOutput@2@@Z 0000000180122480 f   GuPCMContactCapsuleConvex.obj
 0001:00122670       ??_GPCMCapsuleVsHeightfieldContactGenerationCallback@@UEAAPEAXI@Z 0000000180123670 f i GuPCMContactCapsuleHeightField.obj
 0001:00122670       ??_EPCMConvexVsHeightfieldContactGenerationCallback@physx@@UEAAPEAXI@Z 0000000180123670 f i GuPCMContactConvexHeightField.obj
 0001:00122670       ??_EPCMCapsuleVsHeightfieldContactGenerationCallback@@UEAAPEAXI@Z 0000000180123670 f i GuPCMContactCapsuleHeightField.obj
 0001:00122670       ??_GPCMConvexVsHeightfieldContactGenerationCallback@physx@@UEAAPEAXI@Z 0000000180123670 f i GuPCMContactConvexHeightField.obj
 0001:001226a0       ?pcmContactCapsuleHeightField@Gu@physx@@YA_NAEBVPxGeometry@2@0AEBV?$PxTransformT@M@2@1AEBUNarrowPhaseParams@12@AEAUCache@12@AEAVPxContactBuffer@2@PEAVPxRenderOutput@2@@Z 00000001801236a0 f   GuPCMContactCapsuleHeightField.obj
 0001:00123590       ?reportTouchedTris@?$PCMHeightfieldContactGenerationCallback@UPCMCapsuleVsHeightfieldContactGenerationCallback@@@Gu@physx@@UEAA_NIPEBI@Z 0000000180124590 f i GuPCMContactCapsuleHeightField.obj
 0001:00123c10       ?generateContacts@PCMCapsuleVsMeshContactGeneration@Gu@physx@@SAXAEBT__m128@@0000I000PEAVMeshPersistentContact@23@AEAI@Z 0000000180124c10 f   GuPCMContactCapsuleMesh.obj
 0001:00124080       ?generateEE@PCMCapsuleVsMeshContactGeneration@Gu@physx@@QEAAXAEBT__m128@@000I00PEAVMeshPersistentContact@23@AEAI@Z 0000000180125080 f   GuPCMContactCapsuleMesh.obj
 0001:001242f0       ?generateEEMTD@PCMCapsuleVsMeshContactGeneration@Gu@physx@@SAXAEBT__m128@@000I00PEAVMeshPersistentContact@23@AEAI@Z 00000001801252f0 f   GuPCMContactCapsuleMesh.obj
 0001:00124520       ?pcmContactCapsuleMesh@Gu@physx@@YA_NAEBVPxGeometry@2@0AEBV?$PxTransformT@M@2@1AEBUNarrowPhaseParams@12@AEAUCache@12@AEAVPxContactBuffer@2@PEAVPxRenderOutput@2@@Z 0000000180125520 f   GuPCMContactCapsuleMesh.obj
 0001:00126180       ?processTriangle@PCMCapsuleVsMeshContactGeneration@Gu@physx@@QEAA_NPEBV?$PxVec3T@M@3@IEPEBI@Z 0000000180127180 f   GuPCMContactCapsuleMesh.obj
 0001:00126d30       ?processTriangle@PCMCapsuleVsMeshContactGeneration@Gu@physx@@SA_NAEBVTriangleV@23@IAEBVCapsuleV@23@AEBT__m128@@EPEAVMeshPersistentContact@23@AEAI@Z 0000000180127d30 f   GuPCMContactCapsuleMesh.obj
 0001:00127060       ?addContactsToPatch@PCMConvexVsMeshContactGeneration@Gu@physx@@QEAAXAEBT__m128@@I@Z 0000000180128060 f   GuPCMContactConvexCommon.obj
 0001:00127980       ?doSupport@?$SupportLocalImpl@VTriangleV@Gu@physx@@@Gu@physx@@UEBA?AT__m128@@AEBT4@@Z 0000000180128980 f i GuPCMContactConvexCommon.obj
 0001:00127a10       ?doSupport@?$SupportLocalImpl@VTriangleV@Gu@physx@@@Gu@physx@@UEBAXAEBT__m128@@AEAT4@1@Z 0000000180128a10 f i GuPCMContactConvexCommon.obj
 0001:00127a80       ?generateLastContacts@PCMConvexVsMeshContactGeneration@Gu@physx@@QEAAXXZ 0000000180128a80 f   GuPCMContactConvexCommon.obj
 0001:00127fc0       ?populateVerts@?$SupportLocalImpl@VTriangleV@Gu@physx@@@Gu@physx@@UEBAXPEBEIPEBV?$PxVec3T@M@3@PEAT__m128@@@Z 0000000180128fc0 f i GuPCMContactConvexCommon.obj
 0001:00128100       ?processTriangle@PCMConvexVsMeshContactGeneration@Gu@physx@@QEAA_NPEBV?$PxVec3T@M@3@IEPEBI@Z 0000000180129100 f   GuPCMContactConvexCommon.obj
 0001:00128670       ?processTriangle@PCMConvexVsMeshContactGeneration@Gu@physx@@SA_NAEBUPolygonalData@23@PEAVSupportLocal@23@PEBV?$PxVec3T@M@3@IEAEBT__m128@@_NAEBVPxTransformV@aos@3@AEBVPxMatTransformV@93@PEAVMeshPersistentContact@23@AEAI@Z 0000000180129670 f   GuPCMContactConvexCommon.obj
 0001:001288f0       ??$gjkPenetration@U?$RelativeConvex@VConvexHullNoScaleV@Gu@physx@@@Gu@physx@@U?$LocalConvex@VConvexHullNoScaleV@Gu@physx@@@23@@Gu@physx@@YA?AW4GjkStatus@01@AEBU?$RelativeConvex@VConvexHullNoScaleV@Gu@physx@@@01@AEBU?$LocalConvex@VConvexHullNoScaleV@Gu@physx@@@01@AEBT__m128@@2_NPEIAE4AEAEAEAUGjkOutput@01@@Z 00000001801298f0 f i GuPCMContactConvexConvex.obj
 0001:00128960       ??$gjkPenetration@U?$RelativeConvex@VConvexHullNoScaleV@Gu@physx@@@Gu@physx@@U?$LocalConvex@VConvexHullNoScaleV@Gu@physx@@@23@@Gu@physx@@YA?AW4GjkStatus@01@AEBU?$RelativeConvex@VConvexHullNoScaleV@Gu@physx@@@01@AEBU?$LocalConvex@VConvexHullNoScaleV@Gu@physx@@@01@AEBT__m128@@2_NPEIAE4PEIAT5@5AEAEAEAUGjkOutput@01@@Z 0000000180129960 f i GuPCMContactConvexConvex.obj
 0001:00129e60       ??$gjkPenetration@U?$RelativeConvex@VConvexHullNoScaleV@Gu@physx@@@Gu@physx@@U?$LocalConvex@VConvexHullV@Gu@physx@@@23@@Gu@physx@@YA?AW4GjkStatus@01@AEBU?$RelativeConvex@VConvexHullNoScaleV@Gu@physx@@@01@AEBU?$LocalConvex@VConvexHullV@Gu@physx@@@01@AEBT__m128@@2_NPEIAE4AEAEAEAUGjkOutput@01@@Z 000000018012ae60 f i GuPCMContactConvexConvex.obj
 0001:00129ed0       ??$gjkPenetration@U?$RelativeConvex@VConvexHullNoScaleV@Gu@physx@@@Gu@physx@@U?$LocalConvex@VConvexHullV@Gu@physx@@@23@@Gu@physx@@YA?AW4GjkStatus@01@AEBU?$RelativeConvex@VConvexHullNoScaleV@Gu@physx@@@01@AEBU?$LocalConvex@VConvexHullV@Gu@physx@@@01@AEBT__m128@@2_NPEIAE4PEIAT5@5AEAEAEAUGjkOutput@01@@Z 000000018012aed0 f i GuPCMContactConvexConvex.obj
 0001:0012b460       ??$gjkPenetration@U?$RelativeConvex@VConvexHullV@Gu@physx@@@Gu@physx@@U?$LocalConvex@VConvexHullNoScaleV@Gu@physx@@@23@@Gu@physx@@YA?AW4GjkStatus@01@AEBU?$RelativeConvex@VConvexHullV@Gu@physx@@@01@AEBU?$LocalConvex@VConvexHullNoScaleV@Gu@physx@@@01@AEBT__m128@@2_NPEIAE4AEAEAEAUGjkOutput@01@@Z 000000018012c460 f i GuPCMContactConvexConvex.obj
 0001:0012b4d0       ??$gjkPenetration@U?$RelativeConvex@VConvexHullV@Gu@physx@@@Gu@physx@@U?$LocalConvex@VConvexHullNoScaleV@Gu@physx@@@23@@Gu@physx@@YA?AW4GjkStatus@01@AEBU?$RelativeConvex@VConvexHullV@Gu@physx@@@01@AEBU?$LocalConvex@VConvexHullNoScaleV@Gu@physx@@@01@AEBT__m128@@2_NPEIAE4PEIAT5@5AEAEAEAUGjkOutput@01@@Z 000000018012c4d0 f i GuPCMContactConvexConvex.obj
 0001:0012d4c0       ?pcmContactConvexConvex@Gu@physx@@YA_NAEBVPxGeometry@2@0AEBV?$PxTransformT@M@2@1AEBUNarrowPhaseParams@12@AEAUCache@12@AEAVPxContactBuffer@2@PEAVPxRenderOutput@2@@Z 000000018012e4c0 f   GuPCMContactConvexConvex.obj
 0001:0012e5d0       ?support@?$RelativeConvex@VConvexHullNoScaleV@Gu@physx@@@Gu@physx@@UEBA?AT__m128@@AEBT4@@Z 000000018012f5d0 f i GuPCMContactConvexConvex.obj
 0001:0012e680       ?support@?$RelativeConvex@VConvexHullNoScaleV@Gu@physx@@@Gu@physx@@UEBA?AT__m128@@AEBT4@AEAH@Z 000000018012f680 f i GuPCMContactConvexConvex.obj
 0001:0012e740       ?supportPoint@?$RelativeConvex@VConvexHullNoScaleV@Gu@physx@@@Gu@physx@@UEBA?AT__m128@@H@Z 000000018012f740 f i GuPCMContactConvexConvex.obj
 0001:0012e7a0       ?PCMContactConvexHeightfield@Gu@physx@@YA_NAEBUPolygonalData@12@PEAVSupportLocal@12@AEBT__m128@@AEBVPxBounds3@2@AEBVPxHeightFieldGeometry@2@AEBV?$PxTransformT@M@2@5MAEAVPxContactBuffer@2@AEBVFastVertex2ShapeScaling@Cm@2@_NAEAVMultiplePersistentContactManifold@12@PEAVPxRenderOutput@2@@Z 000000018012f7a0 f   GuPCMContactConvexHeightField.obj
 0001:0012f5f0       ?pcmContactBoxHeightField@Gu@physx@@YA_NAEBVPxGeometry@2@0AEBV?$PxTransformT@M@2@1AEBUNarrowPhaseParams@12@AEAUCache@12@AEAVPxContactBuffer@2@PEAVPxRenderOutput@2@@Z 00000001801305f0 f   GuPCMContactConvexHeightField.obj
 0001:0012f890       ?pcmContactConvexHeightField@Gu@physx@@YA_NAEBVPxGeometry@2@0AEBV?$PxTransformT@M@2@1AEBUNarrowPhaseParams@12@AEAUCache@12@AEAVPxContactBuffer@2@PEAVPxRenderOutput@2@@Z 0000000180130890 f   GuPCMContactConvexHeightField.obj
 0001:0012ff50       ?reportTouchedTris@?$PCMHeightfieldContactGenerationCallback@UPCMConvexVsHeightfieldContactGenerationCallback@physx@@@Gu@physx@@UEAA_NIPEBI@Z 0000000180130f50 f i GuPCMContactConvexHeightField.obj
 0001:00130510       ??$processTriangleCache@$0BA@@PCMConvexVsMeshContactGenerationCallback@physx@@QEAAXAEAU?$TriangleCache@$0BA@@Gu@1@@Z 0000000180131510 f i GuPCMContactConvexMesh.obj
 0001:001305a0       ??_GPCMConvexVsMeshContactGenerationCallback@physx@@UEAAPEAXI@Z 00000001801315a0 f i GuPCMContactConvexMesh.obj
 0001:001305a0       ??_EPCMConvexVsMeshContactGenerationCallback@physx@@UEAAPEAXI@Z 00000001801315a0 f i GuPCMContactConvexMesh.obj
 0001:001305d0       ?PCMContactConvexMesh@Gu@physx@@YA_NAEBUPolygonalData@12@PEAVSupportLocal@12@AEBT__m128@@AEBVPxBounds3@2@AEBVPxTriangleMeshGeometry@2@AEBV?$PxTransformT@M@2@5MAEAVPxContactBuffer@2@AEBVFastVertex2ShapeScaling@Cm@2@7_N8AEAVMultiplePersistentContactManifold@12@PEAVPxRenderOutput@2@@Z 00000001801315d0 f   GuPCMContactConvexMesh.obj
 0001:00131090       ?pcmContactBoxMesh@Gu@physx@@YA_NAEBVPxGeometry@2@0AEBV?$PxTransformT@M@2@1AEBUNarrowPhaseParams@12@AEAUCache@12@AEAVPxContactBuffer@2@PEAVPxRenderOutput@2@@Z 0000000180132090 f   GuPCMContactConvexMesh.obj
 0001:001313e0       ?pcmContactConvexMesh@Gu@physx@@YA_NAEBVPxGeometry@2@0AEBV?$PxTransformT@M@2@1AEBUNarrowPhaseParams@12@AEAUCache@12@AEAVPxContactBuffer@2@PEAVPxRenderOutput@2@@Z 00000001801323e0 f   GuPCMContactConvexMesh.obj
 0001:00131bb0       ?processHit@?$PCMMeshContactGenerationCallback@UPCMConvexVsMeshContactGenerationCallback@physx@@@Gu@physx@@UEAA_NAEBUPxGeomRaycastHit@3@AEBV?$PxVec3T@M@3@11AEAMPEBI@Z 0000000180132bb0 f i GuPCMContactConvexMesh.obj
 0001:00132080       ?addGJKEPAContacts@Gu@physx@@YA_NPEBUGjkConvex@12@0AEBVPxMatTransformV@aos@2@W4GjkStatus@12@PEAVPersistentContact@12@T__m128@@4AEAUGjkOutput@12@AEAVPersistentContactManifold@12@@Z 0000000180133080 f   GuPCMContactGenBoxConvex.obj
 0001:00132280       ?buildPartialHull@Gu@physx@@YAXAEBUPolygonalData@12@PEAVSupportLocal@12@AEAVSeparatingAxes@12@AEBT__m128@@3@Z 0000000180133280 f   GuPCMContactGenBoxConvex.obj
 0001:00132530       ?computeMTD@Gu@physx@@YA_NAEAUPolygonalData@12@0PEAVSupportLocal@12@1AEAT__m128@@2@Z 0000000180133530 f   GuPCMContactGenBoxConvex.obj
 0001:00132b50       ?generateFullContactManifold@Gu@physx@@YA_NAEAUPolygonalData@12@0PEAVSupportLocal@12@1PEAVPersistentContact@12@AEAIAEBT__m128@@444MM_NPEAVPxRenderOutput@2@M@Z 0000000180133b50 f   GuPCMContactGenBoxConvex.obj
 0001:00133650       ?generatedContacts@Gu@physx@@YAXAEAUPolygonalData@12@0AEBUHullPolygonData@12@1PEAVSupportLocal@12@2AEBVPxMatTransformV@aos@2@PEAVPersistentContact@12@AEAIAEBT__m128@@PEAVPxRenderOutput@2@@Z 0000000180134650 f   GuPCMContactGenBoxConvex.obj
 0001:00134a90       ?computeMTD@Gu@physx@@YA_NAEBVCapsuleV@12@AEAUPolygonalData@12@PEAVSupportLocal@12@AEAT__m128@@3@Z 0000000180135a90 f   GuPCMContactGenSphereCapsule.obj
 0001:00134b80       ?generateCapsuleBoxFullContactManifold@Gu@physx@@YA_NAEBVCapsuleV@12@AEAUPolygonalData@12@PEAVSupportLocal@12@AEBVPxMatTransformV@aos@2@PEAVPersistentContact@12@AEAIAEBT__m128@@AEAT9@6M_NMPEAVPxRenderOutput@2@@Z 0000000180135b80 f   GuPCMContactGenSphereCapsule.obj
 0001:00134d20       ?generateFullContactManifold@Gu@physx@@YA_NAEBVCapsuleV@12@AEAUPolygonalData@12@PEAVSupportLocal@12@AEBVPxMatTransformV@aos@2@PEAVPersistentContact@12@AEAIAEBT__m128@@AEAT9@6M_NM@Z 0000000180135d20 f   GuPCMContactGenSphereCapsule.obj
 0001:00134f10       ?generateSphereFullContactManifold@Gu@physx@@YA_NAEBVCapsuleV@12@AEAUPolygonalData@12@PEAVSupportLocal@12@PEAVPersistentContact@12@AEAIAEBT__m128@@AEAT7@_N@Z 0000000180135f10 f   GuPCMContactGenSphereCapsule.obj
 0001:001363c0       ?pcmContactPlaneBox@Gu@physx@@YA_NAEBVPxGeometry@2@0AEBV?$PxTransformT@M@2@1AEBUNarrowPhaseParams@12@AEAUCache@12@AEAVPxContactBuffer@2@PEAVPxRenderOutput@2@@Z 00000001801373c0 f   GuPCMContactPlaneBox.obj
 0001:00136f60       ?pcmContactPlaneCapsule@Gu@physx@@YA_NAEBVPxGeometry@2@0AEBV?$PxTransformT@M@2@1AEBUNarrowPhaseParams@12@AEAUCache@12@AEAVPxContactBuffer@2@PEAVPxRenderOutput@2@@Z 0000000180137f60 f   GuPCMContactPlaneCapsule.obj
 0001:001376e0       ?pcmContactPlaneConvex@Gu@physx@@YA_NAEBVPxGeometry@2@0AEBV?$PxTransformT@M@2@1AEBUNarrowPhaseParams@12@AEAUCache@12@AEAVPxContactBuffer@2@PEAVPxRenderOutput@2@@Z 00000001801386e0 f   GuPCMContactPlaneConvex.obj
 0001:00138320       ?pcmContactSphereBox@Gu@physx@@YA_NAEBVPxGeometry@2@0AEBV?$PxTransformT@M@2@1AEBUNarrowPhaseParams@12@AEAUCache@12@AEAVPxContactBuffer@2@PEAVPxRenderOutput@2@@Z 0000000180139320 f   GuPCMContactSphereBox.obj
 0001:00138780       ?pcmContactSphereCapsule@Gu@physx@@YA_NAEBVPxGeometry@2@0AEBV?$PxTransformT@M@2@1AEBUNarrowPhaseParams@12@AEAUCache@12@AEAVPxContactBuffer@2@PEAVPxRenderOutput@2@@Z 0000000180139780 f   GuPCMContactSphereCapsule.obj
 0001:00138c00       ?pcmContactSphereConvex@Gu@physx@@YA_NAEBVPxGeometry@2@0AEBV?$PxTransformT@M@2@1AEBUNarrowPhaseParams@12@AEAUCache@12@AEAVPxContactBuffer@2@PEAVPxRenderOutput@2@@Z 0000000180139c00 f   GuPCMContactSphereConvex.obj
 0001:001398d0       ??1?$PxArray@USortedTriangle@Gu@physx@@V?$PxInlineAllocator@$0IAA@V?$PxReflectionAllocator@USortedTriangle@Gu@physx@@@physx@@@3@@physx@@QEAA@XZ 000000018013a8d0 f i GuPCMContactSphereHeightField.obj
 0001:00139940       ??_GPCMSphereVsHeightfieldContactGenerationCallback@physx@@UEAAPEAXI@Z 000000018013a940 f i GuPCMContactSphereHeightField.obj
 0001:00139940       ??_EPCMSphereVsHeightfieldContactGenerationCallback@physx@@UEAAPEAXI@Z 000000018013a940 f i GuPCMContactSphereHeightField.obj
 0001:00139990       ?pcmContactSphereHeightField@Gu@physx@@YA_NAEBVPxGeometry@2@0AEBV?$PxTransformT@M@2@1AEBUNarrowPhaseParams@12@AEAUCache@12@AEAVPxContactBuffer@2@PEAVPxRenderOutput@2@@Z 000000018013a990 f   GuPCMContactSphereHeightField.obj
 0001:0013a420       ?reportTouchedTris@?$PCMHeightfieldContactGenerationCallback@UPCMSphereVsHeightfieldContactGenerationCallback@physx@@@Gu@physx@@UEAA_NIPEBI@Z 000000018013b420 f i GuPCMContactSphereHeightField.obj
 0001:0013a9e0       ??$PxSort@USortedTriangle@Gu@physx@@U?$PxLess@USortedTriangle@Gu@physx@@@3@V?$PxReflectionAllocator@USortedTriangle@Gu@physx@@@3@@physx@@YAXPEAUSortedTriangle@Gu@0@IAEBU?$PxLess@USortedTriangle@Gu@physx@@@0@AEBV?$PxReflectionAllocator@USortedTriangle@Gu@physx@@@0@I@Z 000000018013b9e0 f i GuPCMContactSphereMesh.obj
 0001:0013af10       ??$processTriangleCache@$0BA@VPCMSphereVsMeshContactGeneration@Gu@physx@@@PCMMeshContactGeneration@Gu@physx@@QEAA_NAEAU?$TriangleCache@$0BA@@12@@Z 000000018013bf10 f i GuPCMContactSphereMesh.obj
 0001:0013b530       ?addToPatch@PCMSphereVsMeshContactGeneration@Gu@physx@@QEAAXAEBT__m128@@0T4@I@Z 000000018013c530 f   GuPCMContactSphereMesh.obj
 0001:0013bbd0       ?allocate@?$PxArray@IV?$PxInlineAllocator@$0PAA@V?$PxReflectionAllocator@I@physx@@@physx@@@physx@@IEAAPEAII@Z 000000018013cbd0 f i GuPCMContactSphereMesh.obj
 0001:0013bc90       ?allocate@?$PxArray@USortedTriangle@Gu@physx@@V?$PxInlineAllocator@$0IAA@V?$PxReflectionAllocator@USortedTriangle@Gu@physx@@@physx@@@3@@physx@@IEAAPEAUSortedTriangle@Gu@2@I@Z 000000018013cc90 f i GuPCMContactSphereMesh.obj
 0001:0013bd50       ?generateLastContacts@PCMSphereVsMeshContactGeneration@Gu@physx@@QEAAXXZ 000000018013cd50 f   GuPCMContactSphereMesh.obj
 0001:0013c390       ?growAndPushBack@?$PxArray@USortedTriangle@Gu@physx@@V?$PxInlineAllocator@$0IAA@V?$PxReflectionAllocator@USortedTriangle@Gu@physx@@@physx@@@3@@physx@@IEAAAEAUSortedTriangle@Gu@2@AEBU342@@Z 000000018013d390 f i GuPCMContactSphereMesh.obj
 0001:0013c4a0       ?pcmContactSphereMesh@Gu@physx@@YA_NAEBVPxGeometry@2@0AEBV?$PxTransformT@M@2@1AEBUNarrowPhaseParams@12@AEAUCache@12@AEAVPxContactBuffer@2@PEAVPxRenderOutput@2@@Z 000000018013d4a0 f   GuPCMContactSphereMesh.obj
 0001:0013df40       ?processTriangle@PCMSphereVsMeshContactGeneration@Gu@physx@@QEAA_NPEBV?$PxVec3T@M@3@IEPEBI@Z 000000018013ef40 f   GuPCMContactSphereMesh.obj
 0001:0013e340       ?recreate@?$PxArray@IV?$PxInlineAllocator@$0PAA@V?$PxReflectionAllocator@I@physx@@@physx@@@physx@@IEAAXI@Z 000000018013f340 f i GuPCMContactSphereMesh.obj
 0001:0013e3f0       ?pcmContactSpherePlane@Gu@physx@@YA_NAEBVPxGeometry@2@0AEBV?$PxTransformT@M@2@1AEBUNarrowPhaseParams@12@AEAUCache@12@AEAVPxContactBuffer@2@PEAVPxRenderOutput@2@@Z 000000018013f3f0 f   GuPCMContactSpherePlane.obj
 0001:0013e570       ?pcmContactSphereSphere@Gu@physx@@YA_NAEBVPxGeometry@2@0AEBV?$PxTransformT@M@2@1AEBUNarrowPhaseParams@12@AEAUCache@12@AEAVPxContactBuffer@2@PEAVPxRenderOutput@2@@Z 000000018013f570 f   GuPCMContactSphereSphere.obj
 0001:0013ee30       ?pcmContactGeometryCustomGeometry@Gu@physx@@YA_NAEBVPxGeometry@2@0AEBV?$PxTransformT@M@2@1AEBUNarrowPhaseParams@12@AEAUCache@12@AEAVPxContactBuffer@2@PEAVPxRenderOutput@2@@Z 000000018013fe30 f   GuPCMContactCustomGeometry.obj
 0001:0013eee0       ?getPCMConvexData@Gu@physx@@YAXAEBVConvexHullV@12@_NAEAUPolygonalData@12@@Z 000000018013fee0 f   GuPCMShapeConvex.obj
 0001:0013ef20       ?getPCMConvexData@Gu@physx@@YA_NAEBVPxConvexMeshGeometry@2@AEAVFastVertex2ShapeScaling@Cm@2@AEAVPxBounds3@2@AEAUPolygonalData@12@@Z 000000018013ff20 f   GuPCMShapeConvex.obj
 0001:0013f470       ?getPolygonalData@PCMPolygonalBox@Gu@physx@@QEBAXPEIAUPolygonalData@23@@Z 0000000180140470 f   GuPCMShapeConvex.obj
 0001:0013f4f0       ?generatePolyDataContactManifold@PCMConvexVsMeshContactGeneration@Gu@physx@@QEAA_NAEAVTriangleV@23@IIEPEAVMeshPersistentContact@23@AEAIAEBT__m128@@AEAT6@@Z 00000001801404f0 f   GuPCMTriangleContactGen.obj
 0001:0013f610       ?generateTriangleFullContactManifold@PCMConvexVsMeshContactGeneration@Gu@physx@@QEAA_NAEAVTriangleV@23@IPEBIEAEBUPolygonalData@23@PEAV?$SupportLocalImpl@VTriangleV@Gu@physx@@@23@PEAVSupportLocal@23@PEAVMeshPersistentContact@23@AEAIAEBT__m128@@AEAT9@@Z 0000000180140610 f   GuPCMTriangleContactGen.obj
 0001:0013fb50       ?generateTriangleFullContactManifold@PCMConvexVsMeshContactGeneration@Gu@physx@@SA_NAEAVTriangleV@23@IEAEBUPolygonalData@23@PEAV?$SupportLocalImpl@VTriangleV@Gu@physx@@@23@PEAVSupportLocal@23@PEAVMeshPersistentContact@23@AEAIAEBT__m128@@AEAT9@PEAVPxRenderOutput@3@@Z 0000000180140b50 f   GuPCMTriangleContactGen.obj
 0001:00141bd0       ?addBatchManifoldContacts2@PersistentContactManifold@Gu@physx@@QEAAXPEBVPersistentContact@23@I@Z 0000000180142bd0 f   GuPersistentContactManifold.obj
 0001:00141c40       ?addBatchManifoldContacts@PersistentContactManifold@Gu@physx@@QEAAXPEBVPersistentContact@23@IM@Z 0000000180142c40 f   GuPersistentContactManifold.obj
 0001:00141cc0       ?addBatchManifoldContactsCluster@PersistentContactManifold@Gu@physx@@QEAAXPEBVPersistentContact@23@I@Z 0000000180142cc0 f   GuPersistentContactManifold.obj
 0001:00141f40       ?addManifoldContactPoints@MultiplePersistentContactManifold@Gu@physx@@QEAAXPEAVMeshPersistentContact@23@IPEAPEAUPCMContactPatch@23@IAEBT__m128@@2E@Z 0000000180142f40 f   GuPersistentContactManifold.obj
 0001:00142350       ?addManifoldContactsToContactBuffer@MultiplePersistentContactManifold@Gu@physx@@QEAA_NAEAVPxContactBuffer@3@AEBVPxTransformV@aos@3@1AEBT__m128@@@Z 0000000180143350 f   GuPersistentContactManifold.obj
 0001:00142600       ?addManifoldContactsToContactBuffer@MultiplePersistentContactManifold@Gu@physx@@QEAA_NAEAVPxContactBuffer@3@AEBVPxTransformV@aos@3@@Z 0000000180143600 f   GuPersistentContactManifold.obj
 0001:00142890       ?addManifoldContactsToContactBuffer@PersistentContactManifold@Gu@physx@@QEAAXAEAVPxContactBuffer@3@AEBT__m128@@1AEBVPxTransformV@aos@3@11@Z 0000000180143890 f   GuPersistentContactManifold.obj
 0001:00142a20       ?addManifoldContactsToContactBuffer@PersistentContactManifold@Gu@physx@@QEAAXAEAVPxContactBuffer@3@AEBT__m128@@AEBVPxMatTransformV@aos@3@@Z 0000000180143a20 f   GuPersistentContactManifold.obj
 0001:00142ad0       ?addManifoldContactsToContactBuffer@PersistentContactManifold@Gu@physx@@QEAAXAEAVPxContactBuffer@3@AEBT__m128@@AEBVPxTransformV@aos@3@1@Z 0000000180143ad0 f   GuPersistentContactManifold.obj
 0001:00142c20       ?addManifoldPoint2@PersistentContactManifold@Gu@physx@@QEAAIAEBT__m128@@000@Z 0000000180143c20 f   GuPersistentContactManifold.obj
 0001:00142d50       ?addManifoldPoint@Gu@physx@@YAXPEAVPersistentContact@12@AEAVPersistentContactManifold@12@AEAUGjkOutput@12@AEBVPxMatTransformV@aos@2@T__m128@@@Z 0000000180143d50 f   GuPersistentContactManifold.obj
 0001:00142f00       ?addManifoldPoint@PersistentContactManifold@Gu@physx@@QEAAIAEBT__m128@@000@Z 0000000180143f00 f   GuPersistentContactManifold.obj
 0001:00143340       ?drawLine@MultiplePersistentContactManifold@Gu@physx@@SAXAEAVPxRenderOutput@3@AEBT__m128@@1I@Z 0000000180144340 f   GuPersistentContactManifold.obj
 0001:001433f0       ?drawLine@MultiplePersistentContactManifold@Gu@physx@@SAXAEAVPxRenderOutput@3@V?$PxVec3T@M@3@1I@Z 00000001801443f0 f   GuPersistentContactManifold.obj
 0001:00143460       ?drawManifold@MultiplePersistentContactManifold@Gu@physx@@QEAAXAEAVPxRenderOutput@3@AEBVPxTransformV@aos@3@1@Z 0000000180144460 f   GuPersistentContactManifold.obj
 0001:00143af0       ?drawPoint@MultiplePersistentContactManifold@Gu@physx@@SAXAEAVPxRenderOutput@3@AEBT__m128@@MI@Z 0000000180144af0 f   GuPersistentContactManifold.obj
 0001:00143d00       ?drawPolygon@MultiplePersistentContactManifold@Gu@physx@@SAXAEAVPxRenderOutput@3@AEBVPxTransformV@aos@3@PEAT__m128@@II@Z 0000000180144d00 f   GuPersistentContactManifold.obj
 0001:00143f40       ?findRotationMatrixFromZAxis@Gu@physx@@YA?AUMat33V@aos@2@AEBT__m128@@@Z 0000000180144f40 f   GuPersistentContactManifold.obj
 0001:001441c0       ?fromBuffer@MultiplePersistentContactManifold@Gu@physx@@QEAAXPEIAE@Z 00000001801451c0 f   GuPersistentContactManifold.obj
 0001:00144310       ?reduceBatchContacts2@PersistentContactManifold@Gu@physx@@QEAAXPEBVPersistentContact@23@I@Z 0000000180145310 f   GuPersistentContactManifold.obj
 0001:00144510       ?reduceBatchContacts@PersistentContactManifold@Gu@physx@@QEAAXPEBVPersistentContact@23@IM@Z 0000000180145510 f   GuPersistentContactManifold.obj
 0001:001449c0       ?reduceBatchContactsCapsule@SinglePersistentContactManifold@Gu@physx@@QEAA?AT__m128@@PEBVMeshPersistentContact@23@IAEAUPCMContactPatch@23@@Z 00000001801459c0 f   GuPersistentContactManifold.obj
 0001:00144c50       ?reduceBatchContactsCluster@PersistentContactManifold@Gu@physx@@QEAAXPEBVPersistentContact@23@I@Z 0000000180145c50 f   GuPersistentContactManifold.obj
 0001:001450e0       ?reduceBatchContactsConvex@SinglePersistentContactManifold@Gu@physx@@QEAA?AT__m128@@PEBVMeshPersistentContact@23@IAEAUPCMContactPatch@23@@Z 00000001801460e0 f   GuPersistentContactManifold.obj
 0001:001456d0       ?reduceContacts@SinglePersistentContactManifold@Gu@physx@@SAIPEAVMeshPersistentContact@23@I@Z 00000001801466d0 f   GuPersistentContactManifold.obj
 0001:00145c60       ?reduceContactsForPCM@PersistentContactManifold@Gu@physx@@QEAAIAEBT__m128@@00@Z 0000000180146c60 f   GuPersistentContactManifold.obj
 0001:00146200       ?refreshContactPoints@SinglePersistentContactManifold@Gu@physx@@QEAA?AT__m128@@AEBVPxMatTransformV@aos@3@AEBT4@1@Z 0000000180147200 f   GuPersistentContactManifold.obj
 0001:00146350       ?replaceManifoldPoint@PersistentContactManifold@Gu@physx@@QEAA_NAEBT__m128@@000@Z 0000000180147350 f   GuPersistentContactManifold.obj
 0001:00146420       ?contains@Gu@physx@@YA_NPEAT__m128@@IAEBT3@11@Z 0000000180147420 f   GuPCMContactGenUtil.obj
 0001:001465e0       ?getPolygonIndex@Gu@physx@@YAHAEBUPolygonalData@12@PEAVSupportLocal@12@AEBT__m128@@AEAH@Z 00000001801475e0 f   GuPCMContactGenUtil.obj
 0001:00146820       ?getWitnessPolygonIndex@Gu@physx@@YAIAEBUPolygonalData@12@PEAVSupportLocal@12@AEBT__m128@@2M@Z 0000000180147820 f   GuPCMContactGenUtil.obj
 0001:00146d60       ?sweepBoxBox@Gu@physx@@YA_NAEBVBox@12@0AEBV?$PxVec3T@M@2@MV?$PxFlags@W4Enum@PxHitFlag@physx@@G@2@AEAUPxGeomSweepHit@2@@Z 0000000180147d60 f   GuSweepBoxBox.obj
 0001:00148360       ?sweepBoxSphere@Gu@physx@@YA_NAEBVBox@12@MAEBV?$PxVec3T@M@2@1MAEAMAEAV42@V?$PxFlags@W4Enum@PxHitFlag@physx@@G@2@@Z 0000000180149360 f   GuSweepBoxSphere.obj
 0001:00148fa0       ?sweepBoxTriangle@Gu@physx@@YA_NAEBVPxTriangle@2@AEBVPxBounds3@2@AEBV?$PxVec3T@M@2@2AEAV52@3AEAM_N@Z 0000000180149fa0 f   GuSweepBoxTriangle_FeatureBased.obj
 0001:0014a640       ?triBoxSweepTestBoxSpace@Gu@physx@@YAHAEBVPxTriangle@2@AEBV?$PxVec3T@M@2@11MAEAM_N@Z 000000018014b640 f   GuSweepBoxTriangle_SAT.obj
 0001:0014bf50       ?sweepCapsuleBox@Gu@physx@@YA_NAEBVCapsule@12@AEBV?$PxTransformT@M@2@AEBV?$PxVec3T@M@2@2MAEAV52@AEAM3V?$PxFlags@W4Enum@PxHitFlag@physx@@G@2@@Z 000000018014cf50 f   GuSweepCapsuleBox.obj
 0001:0014c2a0       ?distancePointSegmentSquared@Gu@physx@@YAMAEBVSegment@12@AEBV?$PxVec3T@M@2@PEAM@Z 000000018014d2a0 f i GuSweepCapsuleCapsule.obj
 0001:0014c620       ?sweepCapsuleCapsule@Gu@physx@@YA_NAEBVCapsule@12@0AEBV?$PxVec3T@M@2@MAEAMAEAV42@3IAEAG@Z 000000018014d620 f   GuSweepCapsuleCapsule.obj
 0001:0014d3f0       ?sweepCapsuleTriangles_Precise@Gu@physx@@YA_NIPEIBVPxTriangle@2@AEBVCapsule@12@AEBV?$PxVec3T@M@2@MPEIBIAEAUPxGeomSweepHit@2@AEAV52@V?$PxFlags@W4Enum@PxHitFlag@physx@@G@2@_NPEBVBoxPadded@12@@Z 000000018014e3f0 f   GuSweepCapsuleTriangle.obj
 0001:0014f510       ?sweepSphereCapsule@Gu@physx@@YA_NAEBVSphere@12@AEBVCapsule@12@AEBV?$PxVec3T@M@2@MAEAMAEAV52@4V?$PxFlags@W4Enum@PxHitFlag@physx@@G@2@@Z 0000000180150510 f   GuSweepSphereCapsule.obj
 0001:0014fbb0       ?sweepSphereSphere@Gu@physx@@YA_NAEBV?$PxVec3T@M@2@M0M0AEAMAEAV32@@Z 0000000180150bb0 f   GuSweepSphereSphere.obj
 0001:0014fe40       ?sweepSphereTriangles@Gu@physx@@YA_NIPEIBVPxTriangle@2@AEBV?$PxVec3T@M@2@M1MPEIBIAEAUPxGeomSweepHit@2@AEAV42@_N555@Z 0000000180150e40 f   GuSweepSphereTriangle.obj
 0001:00150730       ?sweepSphereVSQuad@Gu@physx@@YA_NPEIBV?$PxVec3T@M@2@AEBV32@1M1AEAM@Z 0000000180151730 f   GuSweepSphereTriangle.obj
 0001:00151760       ?sweepSphereVSTri@Gu@physx@@YA_NPEIBV?$PxVec3T@M@2@AEBV32@1M1AEAMAEA_N_N@Z 0000000180152760 f   GuSweepSphereTriangle.obj
 0001:00152410       ??$gjk@U?$LocalConvex@VTriangleV@Gu@physx@@@Gu@physx@@U?$LocalConvex@VBoxV@Gu@physx@@@23@@Gu@physx@@YA?AW4GjkStatus@01@AEBU?$LocalConvex@VTriangleV@Gu@physx@@@01@AEBU?$LocalConvex@VBoxV@Gu@physx@@@01@AEBT__m128@@2AEAT5@333@Z 0000000180153410 f i GuSweepTriangleUtils.obj
 0001:001530f0       ?computeBoxTriImpactData@Gu@physx@@YAXAEAV?$PxVec3T@M@2@0AEBV32@1AEBVPxTriangle@2@M@Z 00000001801540f0 f   GuSweepTriangleUtils.obj
 0001:00153380       ?computeEdgeEdgeNormal@Gu@physx@@YAXAEAV?$PxVec3T@M@2@AEBV32@1111M@Z 0000000180154380 f   GuSweepTriangleUtils.obj
 0001:00153640       ?computeSphereTriImpactData@Gu@physx@@YAXAEAV?$PxVec3T@M@2@0AEBV32@1MAEBVPxTriangle@2@@Z 0000000180154640 f   GuSweepTriangleUtils.obj
 0001:00153b20       ??0ShapeData@Gu@physx@@QEAA@AEBVPxGeometry@2@AEBV?$PxTransformT@M@2@M@Z 0000000180154b20 f   GuBounds.obj
 0001:00154080       ?computeBounds@Gu@physx@@YAXAEAVPxBounds3@2@AEBVPxGeometry@2@AEBV?$PxTransformT@M@2@MM@Z 0000000180155080 f   GuBounds.obj
 0001:00154df0       ?computeBoundsAroundVertices@Gu@physx@@YAXAEAVPxBounds3@2@IPEIBV?$PxVec3T@M@2@@Z 0000000180155df0 f   GuBounds.obj
 0001:00154ea0       ?computeGlobalBox@Gu@physx@@YAXAEAVPxBounds3@2@IPEIBV32@PEIBI@Z 0000000180155ea0 f   GuBounds.obj
 0001:00154f30       ?computeLocalBoundsAndGeomEpsilon@Gu@physx@@YAXPEBV?$PxVec3T@M@2@IAEAVPxBounds3@2@AEAM@Z 0000000180155f30 f   GuBounds.obj
 0001:00156010       ??$?_UV?$PxReflectionAllocator@UBVHNode@Gu@physx@@@physx@@@PxUserAllocated@physx@@SAPEAX_KV?$PxReflectionAllocator@UBVHNode@Gu@physx@@@1@PEBDH@Z 0000000180157010 f i GuAABBTree.obj
 0001:001560b0       ??$?_UV?$PxReflectionAllocator@VAABBTreeBuildNode@Gu@physx@@@physx@@@PxUserAllocated@physx@@SAPEAX_KV?$PxReflectionAllocator@VAABBTreeBuildNode@Gu@physx@@@1@PEBDH@Z 00000001801570b0 f i GuAABBTree.obj
 0001:001562e0       ??0AABBTree@Gu@physx@@QEAA@XZ 00000001801572e0 f   GuAABBTree.obj
 0001:00156310       ??0BVHPartialRefitData@Gu@physx@@QEAA@XZ 0000000180157310 f   GuAABBTree.obj
 0001:00156340       ??0NodeAllocator@Gu@physx@@QEAA@XZ 0000000180157340 f   GuAABBTree.obj
 0001:00156360       ??1AABBTree@Gu@physx@@QEAA@XZ 0000000180157360 f   GuAABBTree.obj
 0001:00156380       ??1BVHPartialRefitData@Gu@physx@@QEAA@XZ 0000000180157380 f   GuAABBTree.obj
 0001:00156420       ??1NodeAllocator@Gu@physx@@QEAA@XZ 0000000180157420 f   GuAABBTree.obj
 0001:00156470       ?_buildHierarchy@AABBTreeBuildNode@Gu@physx@@QEAAXAEBVAABBTreeBuildParams@23@AEAUBuildStats@23@AEAVNodeAllocator@23@QEAI@Z 0000000180157470 f   GuAABBTree.obj
 0001:00156500       ?_buildHierarchySAH@AABBTreeBuildNode@Gu@physx@@QEAAXAEBVAABBTreeBuildParams@23@AEAUSAH_Buffers@23@AEAUBuildStats@23@AEAVNodeAllocator@23@QEAI@Z 0000000180157500 f   GuAABBTree.obj
 0001:001565b0       ?addRuntimeChilds@AABBTree@Gu@physx@@AEAAXAEAIAEBVAABBTreeMergeData@23@@Z 00000001801575b0 f   GuAABBTree.obj
 0001:001566b0       ?build@AABBTree@Gu@physx@@QEAA_NAEBVAABBTreeBuildParams@23@AEAVNodeAllocator@23@@Z 00000001801576b0 f   GuAABBTree.obj
 0001:001568d0       ?buildAABBTree@Gu@physx@@YAPEAIAEBVAABBTreeBuildParams@12@AEAVNodeAllocator@12@AEAUBuildStats@12@@Z 00000001801578d0 f   GuAABBTree.obj
 0001:00156970       ?buildAABBTree@Gu@physx@@YAXIAEBVAABBTreeBounds@12@AEAV?$PxArray@UBVHNode@Gu@physx@@V?$PxReflectionAllocator@UBVHNode@Gu@physx@@@3@@2@@Z 0000000180157970 f   GuAABBTree.obj
 0001:00156d40       ?buildEnd@AABBTree@Gu@physx@@AEAAXAEBVAABBTreeBuildParams@23@AEAVNodeAllocator@23@AEBUBuildStats@23@@Z 0000000180157d40 f   GuAABBTree.obj
 0001:00156f20       ?createUpdateMap@BVHPartialRefitData@Gu@physx@@QEAAXI@Z 0000000180157f20 f   GuAABBTree.obj
 0001:00157040       ?flattenTree@Gu@physx@@YAXAEBVNodeAllocator@12@PEAUBVHNode@12@PEBI@Z 0000000180158040 f   GuAABBTree.obj
 0001:001571f0       ?fullRefit@BVHCoreData@Gu@physx@@QEAAXPEBVPxBounds3@3@@Z 00000001801581f0 f   GuAABBTree.obj
 0001:001573b0       ?getBiNode@NodeAllocator@Gu@physx@@QEAAPEAVAABBTreeBuildNode@23@XZ 00000001801583b0 f   GuAABBTree.obj
 0001:001574e0       ?getParentIndices@BVHPartialRefitData@Gu@physx@@IEAAPEAIXZ 00000001801584e0 f   GuAABBTree.obj
 0001:00157570       ?growAndPushBack@?$PxArray@PEAVAABBTreeBuildNode@Gu@physx@@V?$PxReflectionAllocator@PEAVAABBTreeBuildNode@Gu@physx@@@3@@physx@@IEAAAEAPEAVAABBTreeBuildNode@Gu@2@AEBQEAV342@@Z 0000000180158570 f i GuAABBTree.obj
 0001:00157690       ?growAndPushBack@?$PxArray@USlab@NodeAllocator@Gu@physx@@V?$PxReflectionAllocator@USlab@NodeAllocator@Gu@physx@@@4@@physx@@IEAAAEAUSlab@NodeAllocator@Gu@2@AEBU3452@@Z 0000000180158690 f i GuAABBTree.obj
 0001:00157750       ?init@AABBTreeBounds@Gu@physx@@QEAAXIPEBVPxBounds3@3@@Z 0000000180158750 f   GuAABBTree.obj
 0001:00157810       ?init@NodeAllocator@Gu@physx@@QEAAXII@Z 0000000180158810 f   GuAABBTree.obj
 0001:00157b00       ?initTree@AABBTree@Gu@physx@@QEAAXAEBVAABBTreeMergeData@23@@Z 0000000180158b00 f   GuAABBTree.obj
 0001:00157bf0       ?markNodeForRefit@BVHPartialRefitData@Gu@physx@@QEAAXI@Z 0000000180158bf0 f   GuAABBTree.obj
 0001:00157d00       ?mergeRuntimeLeaf@AABBTree@Gu@physx@@AEAAXAEAUBVHNode@23@AEBVAABBTreeMergeData@23@I@Z 0000000180158d00 f   GuAABBTree.obj
 0001:00157f20       ?mergeRuntimeNode@AABBTree@Gu@physx@@AEAAXAEAUBVHNode@23@AEBVAABBTreeMergeData@23@I@Z 0000000180158f20 f   GuAABBTree.obj
 0001:00158200       ?mergeTree@AABBTree@Gu@physx@@QEAAXAEBVAABBTreeMergeData@23@@Z 0000000180159200 f   GuAABBTree.obj
 0001:00158490       ?progressiveBuild@AABBTree@Gu@physx@@QEAAIAEBVAABBTreeBuildParams@23@AEAVNodeAllocator@23@AEAUBuildStats@23@II@Z 0000000180159490 f   GuAABBTree.obj
 0001:00158740       ?recreate@?$PxArray@UBVHNode@Gu@physx@@V?$PxReflectionAllocator@UBVHNode@Gu@physx@@@3@@physx@@IEAAXI@Z 0000000180159740 f i GuAABBTree.obj
 0001:00158990       ?refitMarkedNodes@BVHPartialRefitData@Gu@physx@@QEAAXPEBVPxBounds3@3@@Z 0000000180159990 f   GuAABBTree.obj
 0001:00158b00       ?release@AABBTree@Gu@physx@@QEAAX_N@Z 0000000180159b00 f   GuAABBTree.obj
 0001:00158be0       ?release@AABBTreeBounds@Gu@physx@@QEAAXXZ 0000000180159be0 f   GuAABBTree.obj
 0001:00158c30       ?release@NodeAllocator@Gu@physx@@QEAAXXZ 0000000180159c30 f   GuAABBTree.obj
 0001:00158ce0       ?releasePartialRefitData@BVHPartialRefitData@Gu@physx@@QEAAX_N@Z 0000000180159ce0 f   GuAABBTree.obj
 0001:00158d70       ?reshuffle@Gu@physx@@YAIIQEIAIPEIBV?$PxVec3T@M@2@MI@Z 0000000180159d70 f   GuAABBTree.obj
 0001:00158eb0       ?resize@?$PxArray@UBVHNode@Gu@physx@@V?$PxReflectionAllocator@UBVHNode@Gu@physx@@@3@@physx@@QEAAXIAEBUBVHNode@Gu@2@@Z 0000000180159eb0 f i GuAABBTree.obj
 0001:00159030       ?resize@?$PxArray@USlab@NodeAllocator@Gu@physx@@V?$PxReflectionAllocator@USlab@NodeAllocator@Gu@physx@@@4@@physx@@QEAAXIAEBUSlab@NodeAllocator@Gu@2@@Z 000000018015a030 f i GuAABBTree.obj
 0001:001590b0       ?resize@AABBTreeBounds@Gu@physx@@QEAAXII@Z 000000018015a0b0 f   GuAABBTree.obj
 0001:00159160       ?shiftIndices@AABBTree@Gu@physx@@QEAAXI@Z 000000018015a160 f   GuAABBTree.obj
 0001:00159180       ?shiftOrigin@AABBTree@Gu@physx@@QEAAXAEBV?$PxVec3T@M@3@@Z 000000018015a180 f   GuAABBTree.obj
 0001:00159400       ?subdivide@AABBTreeBuildNode@Gu@physx@@QEAAXAEBVAABBTreeBuildParams@23@AEAUBuildStats@23@AEAVNodeAllocator@23@QEAI@Z 000000018015a400 f   GuAABBTree.obj
 0001:001595e0       ?subdivideSAH@AABBTreeBuildNode@Gu@physx@@QEAAXAEBVAABBTreeBuildParams@23@AEAUSAH_Buffers@23@AEAUBuildStats@23@AEAVNodeAllocator@23@QEAI@Z 000000018015a5e0 f   GuAABBTree.obj
 0001:001596d0       ?traverseRuntimeNode@AABBTree@Gu@physx@@AEAAXAEAUBVHNode@23@AEBVAABBTreeMergeData@23@I@Z 000000018015a6d0 f   GuAABBTree.obj
 0001:001597c0       ?initMap@AABBTreeUpdateMap@Gu@physx@@QEAAXIAEBVAABBTree@23@@Z 000000018015a7c0 f   GuAABBTreeUpdateMap.obj
 0001:00159900       ?invalidate@AABBTreeUpdateMap@Gu@physx@@QEAAXIIAEAVAABBTree@23@@Z 000000018015a900 f   GuAABBTreeUpdateMap.obj
 0001:00159ba0       ?visualizeTree@@YAXAEAVPxRenderOutput@physx@@IPEBVAABBTree@Gu@2@@Z 000000018015aba0 f   GuSqInternal.obj
 0001:00159c10       ?visualizeTree@@YAXAEAVPxRenderOutput@physx@@IPEBVBVH@Gu@2@@Z 000000018015ac10 f   GuSqInternal.obj
 0001:00159c80       ?visualizeTree@@YAXAEAVPxRenderOutput@physx@@IPEBVIncrementalAABBTree@Gu@2@PEAVDebugVizCallback@2@@Z 000000018015ac80 f   GuSqInternal.obj
 0001:00159d00       ??$PxSort@PEAXU?$PxLess@PEAX@physx@@V?$PxReflectionAllocator@UAABBTreeIndices@Gu@physx@@@2@@physx@@YAXPEAPEAXIAEBU?$PxLess@PEAX@0@AEBV?$PxReflectionAllocator@UAABBTreeIndices@Gu@physx@@@0@I@Z 000000018015ad00 f i GuIncrementalAABBTree.obj
 0001:0015a160       ??$PxSort@PEAXU?$PxLess@PEAX@physx@@V?$PxReflectionAllocator@UIncrementalAABBTreeNodePair@Gu@physx@@@2@@physx@@YAXPEAPEAXIAEBU?$PxLess@PEAX@0@AEBV?$PxReflectionAllocator@UIncrementalAABBTreeNodePair@Gu@physx@@@0@I@Z 000000018015b160 f i GuIncrementalAABBTree.obj
 0001:0015a5c0       ??0IncrementalAABBTree@Gu@physx@@QEAA@XZ 000000018015b5c0 f   GuIncrementalAABBTree.obj
 0001:0015a640       ??1?$PxPoolBase@UAABBTreeIndices@Gu@physx@@V?$PxReflectionAllocator@UAABBTreeIndices@Gu@physx@@@3@@physx@@QEAA@XZ 000000018015b640 f i GuIncrementalAABBTree.obj
 0001:0015a7a0       ??1?$PxPoolBase@UIncrementalAABBTreeNodePair@Gu@physx@@V?$PxReflectionAllocator@UIncrementalAABBTreeNodePair@Gu@physx@@@3@@physx@@QEAA@XZ 000000018015b7a0 f i GuIncrementalAABBTree.obj
 0001:0015a900       ??1IncrementalAABBTree@Gu@physx@@QEAA@XZ 000000018015b900 f   GuIncrementalAABBTree.obj
 0001:0015a940       ?allocate@?$PxArray@PEAXV?$PxReflectionAllocator@UAABBTreeIndices@Gu@physx@@@physx@@@physx@@IEAAPEAPEAXI@Z 000000018015b940 f i GuIncrementalAABBTree.obj
 0001:0015a9e0       ?allocate@?$PxArray@PEAXV?$PxReflectionAllocator@UIncrementalAABBTreeNodePair@Gu@physx@@@physx@@@physx@@IEAAPEAPEAXI@Z 000000018015b9e0 f i GuIncrementalAABBTree.obj
 0001:0015aa80       ?allocate@?$PxPoolBase@UAABBTreeIndices@Gu@physx@@V?$PxReflectionAllocator@UAABBTreeIndices@Gu@physx@@@3@@physx@@QEAAPEAUAABBTreeIndices@Gu@2@XZ 000000018015ba80 f i GuIncrementalAABBTree.obj
 0001:0015ab80       ?allocate@?$PxPoolBase@UIncrementalAABBTreeNodePair@Gu@physx@@V?$PxReflectionAllocator@UIncrementalAABBTreeNodePair@Gu@physx@@@3@@physx@@QEAAPEAUIncrementalAABBTreeNodePair@Gu@2@XZ 000000018015bb80 f i GuIncrementalAABBTree.obj
 0001:0015ac80       ?build@IncrementalAABBTree@Gu@physx@@QEAA_NAEBVAABBTreeBuildParams@23@AEAV?$PxArray@PEAVIncrementalAABBTreeNode@Gu@physx@@V?$PxReflectionAllocator@PEAVIncrementalAABBTreeNode@Gu@physx@@@3@@3@@Z 000000018015bc80 f   GuIncrementalAABBTree.obj
 0001:0015ae60       ?clone@IncrementalAABBTree@Gu@physx@@AEAAXAEAV?$PxArray@PEAVIncrementalAABBTreeNode@Gu@physx@@V?$PxReflectionAllocator@PEAVIncrementalAABBTreeNode@Gu@physx@@@3@@3@PEBIPEAPEAVIncrementalAABBTreeNode@23@@Z 000000018015be60 f   GuIncrementalAABBTree.obj
 0001:0015b330       ?copy@IncrementalAABBTree@Gu@physx@@QEAAXAEBVBVH@23@AEAV?$PxArray@PEAVIncrementalAABBTreeNode@Gu@physx@@V?$PxReflectionAllocator@PEAVIncrementalAABBTreeNode@Gu@physx@@@3@@3@@Z 000000018015c330 f   GuIncrementalAABBTree.obj
 0001:0015b3e0       ?copyNode@IncrementalAABBTree@Gu@physx@@AEAAXAEAVIncrementalAABBTreeNode@23@AEBUBVHNode@23@PEBU523@PEAV423@PEBIAEAV?$PxArray@PEAVIncrementalAABBTreeNode@Gu@physx@@V?$PxReflectionAllocator@PEAVIncrementalAABBTreeNode@Gu@physx@@@3@@3@@Z 000000018015c3e0 f   GuIncrementalAABBTree.obj
 0001:0015b5a0       ?fixupTreeIndices@IncrementalAABBTree@Gu@physx@@QEAAXPEAVIncrementalAABBTreeNode@23@II@Z 000000018015c5a0 f   GuIncrementalAABBTree.obj
 0001:0015b5d0       ?getTreeLeafDepth@IncrementalAABBTree@Gu@physx@@QEAAIPEAVIncrementalAABBTreeNode@23@@Z 000000018015c5d0 f   GuIncrementalAABBTree.obj
 0001:0015b5f0       ?growAndPushBack@?$PxArray@PEAVIncrementalAABBTreeNode@Gu@physx@@V?$PxReflectionAllocator@PEAVIncrementalAABBTreeNode@Gu@physx@@@3@@physx@@IEAAAEAPEAVIncrementalAABBTreeNode@Gu@2@AEBQEAV342@@Z 000000018015c5f0 f i GuIncrementalAABBTree.obj
 0001:0015b710       ?growAndPushBack@?$PxArray@PEAXV?$PxReflectionAllocator@UAABBTreeIndices@Gu@physx@@@physx@@@physx@@IEAAAEAPEAXAEBQEAX@Z 000000018015c710 f i GuIncrementalAABBTree.obj
 0001:0015b7d0       ?growAndPushBack@?$PxArray@PEAXV?$PxReflectionAllocator@UIncrementalAABBTreeNodePair@Gu@physx@@@physx@@@physx@@IEAAAEAPEAXAEBQEAX@Z 000000018015c7d0 f i GuIncrementalAABBTree.obj
 0001:0015b890       ?hierarchyCheck@IncrementalAABBTree@Gu@physx@@QEAAXIPEBVPxBounds3@3@@Z 000000018015c890 f   GuIncrementalAABBTree.obj
 0001:0015b9f0       ?hierarchyCheck@IncrementalAABBTree@Gu@physx@@QEAAXPEBVPxBounds3@3@@Z 000000018015c9f0 f   GuIncrementalAABBTree.obj
 0001:0015bb50       ?insert@IncrementalAABBTree@Gu@physx@@QEAAPEAVIncrementalAABBTreeNode@23@IPEBVPxBounds3@3@AEAV?$PxArray@PEAVIncrementalAABBTreeNode@Gu@physx@@V?$PxReflectionAllocator@PEAVIncrementalAABBTreeNode@Gu@physx@@@3@@3@@Z 000000018015cb50 f   GuIncrementalAABBTree.obj
 0001:0015c240       ?recreate@?$PxArray@PEAXV?$PxReflectionAllocator@UAABBTreeIndices@Gu@physx@@@physx@@@physx@@IEAAXI@Z 000000018015d240 f i GuIncrementalAABBTree.obj
 0001:0015c2e0       ?recreate@?$PxArray@PEAXV?$PxReflectionAllocator@UIncrementalAABBTreeNodePair@Gu@physx@@@physx@@@physx@@IEAAXI@Z 000000018015d2e0 f i GuIncrementalAABBTree.obj
 0001:0015c380       ?release@IncrementalAABBTree@Gu@physx@@QEAAXXZ 000000018015d380 f   GuIncrementalAABBTree.obj
 0001:0015c3b0       ?releaseNode@IncrementalAABBTree@Gu@physx@@AEAAXPEAVIncrementalAABBTreeNode@23@@Z 000000018015d3b0 f   GuIncrementalAABBTree.obj
 0001:0015c440       ?remove@IncrementalAABBTree@Gu@physx@@QEAAPEAVIncrementalAABBTreeNode@23@PEAV423@IPEBVPxBounds3@3@@Z 000000018015d440 f   GuIncrementalAABBTree.obj
 0001:0015c740       ?rotateTree@IncrementalAABBTree@Gu@physx@@AEAAXPEAVIncrementalAABBTreeNode@23@AEAV?$PxArray@PEAVIncrementalAABBTreeNode@Gu@physx@@V?$PxReflectionAllocator@PEAVIncrementalAABBTreeNode@Gu@physx@@@3@@3@IPEBVPxBounds3@3@_N@Z 000000018015d740 f   GuIncrementalAABBTree.obj
 0001:0015cff0       ?shiftOrigin@IncrementalAABBTree@Gu@physx@@QEAAXAEBV?$PxVec3T@M@3@@Z 000000018015dff0 f   GuIncrementalAABBTree.obj
 0001:0015d050       ?splitLeafNode@IncrementalAABBTree@Gu@physx@@AEAAPEAVIncrementalAABBTreeNode@23@PEAV423@IAEBT__m128@@1PEBVPxBounds3@3@@Z 000000018015e050 f   GuIncrementalAABBTree.obj
 0001:0015d350       ?update@IncrementalAABBTree@Gu@physx@@QEAAPEAVIncrementalAABBTreeNode@23@PEAV423@IPEBVPxBounds3@3@AEAV?$PxArray@PEAVIncrementalAABBTreeNode@Gu@physx@@V?$PxReflectionAllocator@PEAVIncrementalAABBTreeNode@Gu@physx@@@3@@3@@Z 000000018015e350 f   GuIncrementalAABBTree.obj
 0001:0015d410       ?updateFast@IncrementalAABBTree@Gu@physx@@QEAAPEAVIncrementalAABBTreeNode@23@PEAV423@IPEBVPxBounds3@3@AEAV?$PxArray@PEAVIncrementalAABBTreeNode@Gu@physx@@V?$PxReflectionAllocator@PEAVIncrementalAABBTreeNode@Gu@physx@@@3@@3@@Z 000000018015e410 f   GuIncrementalAABBTree.obj
 0001:0015d610       ??0SAH_Buffers@Gu@physx@@QEAA@I@Z 000000018015e610 f   GuSAH.obj
 0001:0015d720       ??1SAH_Buffers@Gu@physx@@QEAA@XZ 000000018015e720 f   GuSAH.obj
 0001:0015d7e0       ?split@SAH_Buffers@Gu@physx@@QEAA_NAEAIIPEIBIPEIBVPxBounds3@3@PEIBV?$PxVec3T@M@3@@Z 000000018015e7e0 f   GuSAH.obj
 0001:0015dee0       ??0BVH@Gu@physx@@QEAA@AEBUPxBVHInternalData@2@@Z 000000018015eee0 f   GuBVH.obj
 0001:0015dfa0       ??0BVH@Gu@physx@@QEAA@PEAVMeshFactory@12@@Z 000000018015efa0 f   GuBVH.obj
 0001:0015e010       ??0BVH@Gu@physx@@QEAA@PEAVMeshFactory@12@AEAVBVHData@12@@Z 000000018015f010 f   GuBVH.obj
 0001:0015e0c0       ??1BVHData@Gu@physx@@QEAA@XZ 000000018015f0c0 f i GuBVH.obj
 0001:001632b0       ??_EBVH@Gu@physx@@WBA@EAAPEAXI@Z 00000001801642b0 f i GuBVH.obj
 0001:001632c0       ??_EBVH@Gu@physx@@UEAAPEAXI@Z 00000001801642c0 f i GuBVH.obj
 0001:001632c0       ??_GBVH@Gu@physx@@UEAAPEAXI@Z 00000001801642c0 f i GuBVH.obj
 0001:00163350       ??_GRefCountable@Cm@physx@@UEAAPEAXI@Z 0000000180164350 f i GuBVH.obj
 0001:00163350       ??_ERefCountable@Cm@physx@@UEAAPEAXI@Z 0000000180164350 f i GuBVH.obj
 0001:00163580       ?allocate@?$PxArray@PEBUBVHNode@Gu@physx@@V?$PxInlineAllocator@$0IAA@V?$PxReflectionAllocator@PEBUBVHNode@Gu@physx@@@physx@@@3@@physx@@IEAAPEAPEBUBVHNode@Gu@2@I@Z 0000000180164580 f i GuBVH.obj
 0001:00163640       ?build@BVHData@Gu@physx@@QEAA_NIPEBXIMIW4BVHBuildStrategy@23@@Z 0000000180164640 f   GuBVH.obj
 0001:00163a30       ?cull@BVH@Gu@physx@@UEBA_NIPEBVPxPlane@3@AEAUOverlapCallback@PxBVH@3@V?$PxFlags@W4Enum@PxGeometryQueryFlag@physx@@I@3@@Z 0000000180164a30 f   GuBVH.obj
 0001:00164340       ?getConcreteTypeName@PxBVH@physx@@UEBAPEBDXZ 0000000180165340 f i GuBVH.obj
 0001:00164350       ?init@BVH@Gu@physx@@QEAA_NIPEAVAABBTreeBounds@23@PEBXIW4BVHBuildStrategy@23@IM@Z 0000000180165350 f   GuBVH.obj
 0001:00164750       ?isKindOf@PxBVH@physx@@MEBA_NPEBD@Z 0000000180165750 f i GuBVH.obj
 0001:001647a0       ?load@BVH@Gu@physx@@QEAA_NAEAVPxInputStream@3@@Z 00000001801657a0 f   GuBVH.obj
 0001:00164930       ?onRefCountZero@BVH@Gu@physx@@UEAAXXZ 0000000180165930 f   GuBVH.obj
 0001:00164a10       ?onRefCountZero@RefCountable@Cm@physx@@UEAAXXZ 0000000180165a10 f i GuBVH.obj
 0001:00164a30       ?overlap@BVH@Gu@physx@@QEBA_NAEBVShapeData@23@AEAUOverlapCallback@PxBVH@3@V?$PxFlags@W4Enum@PxGeometryQueryFlag@physx@@I@3@@Z 0000000180165a30 f   GuBVH.obj
 0001:00165570       ?overlap@BVH@Gu@physx@@UEBAIAEBVPxBounds3@3@IPEIAI@Z 0000000180166570 f   GuBVH.obj
 0001:00165690       ?overlap@BVH@Gu@physx@@UEBA_NAEBVPxGeometry@3@AEBV?$PxTransformT@M@3@AEAUOverlapCallback@PxBVH@3@V?$PxFlags@W4Enum@PxGeometryQueryFlag@physx@@I@3@@Z 0000000180166690 f   GuBVH.obj
 0001:001656f0       ?partialRefit@BVH@Gu@physx@@UEAAXXZ 00000001801666f0 f   GuBVH.obj
 0001:00165700       ?raycast@BVH@Gu@physx@@UEBAIAEBV?$PxVec3T@M@3@0MIPEIAI@Z 0000000180166700 f   GuBVH.obj
 0001:001657a0       ?raycast@BVH@Gu@physx@@UEBA_NAEBV?$PxVec3T@M@3@0MAEAURaycastCallback@PxBVH@3@V?$PxFlags@W4Enum@PxGeometryQueryFlag@physx@@I@3@@Z 00000001801667a0 f   GuBVH.obj
 0001:001658d0       ?recreate@?$PxArray@PEBUBVHNode@Gu@physx@@V?$PxInlineAllocator@$0IAA@V?$PxReflectionAllocator@PEBUBVHNode@Gu@physx@@@physx@@@3@@physx@@IEAAXI@Z 00000001801668d0 f i GuBVH.obj
 0001:00165980       ?refit@BVH@Gu@physx@@UEAAXXZ 0000000180166980 f   GuBVH.obj
 0001:00165990       ?release@BVH@Gu@physx@@UEAAXXZ 0000000180166990 f   GuBVH.obj
 0001:001659c0       ?resizeUninitialized@?$PxArray@PEBUBVHNode@Gu@physx@@V?$PxInlineAllocator@$0IAA@V?$PxReflectionAllocator@PEBUBVHNode@Gu@physx@@@physx@@@3@@physx@@QEAAXI@Z 00000001801669c0 f i GuBVH.obj
 0001:00165a10       ?save@BVHData@Gu@physx@@QEBA_NAEAVPxOutputStream@3@_N@Z 0000000180166a10 f   GuBVH.obj
 0001:00165b80       ?sweep@BVH@Gu@physx@@QEBA_NAEBVShapeData@23@AEBV?$PxVec3T@M@3@MAEAURaycastCallback@PxBVH@3@V?$PxFlags@W4Enum@PxGeometryQueryFlag@physx@@I@3@@Z 0000000180166b80 f   GuBVH.obj
 0001:00165d40       ?sweep@BVH@Gu@physx@@UEBAIAEBVPxBounds3@3@AEBV?$PxVec3T@M@3@MIPEIAI@Z 0000000180166d40 f   GuBVH.obj
 0001:00165eb0       ?sweep@BVH@Gu@physx@@UEBA_NAEBVPxGeometry@3@AEBV?$PxTransformT@M@3@AEBV?$PxVec3T@M@3@MAEAURaycastCallback@PxBVH@3@V?$PxFlags@W4Enum@PxGeometryQueryFlag@physx@@I@3@@Z 0000000180166eb0 f   GuBVH.obj
 0001:00165f30       ?traverse@BVH@Gu@physx@@UEBA_NAEAUTraversalCallback@PxBVH@3@@Z 0000000180166f30 f   GuBVH.obj
 0001:001660a0       ?updateBounds@BVH@Gu@physx@@UEAA_NIAEBVPxBounds3@3@@Z 00000001801670a0 f   GuBVH.obj
 0001:00166150       ?updateBoundsInternal@BVH@Gu@physx@@QEAA_NIAEBVPxBounds3@3@@Z 0000000180167150 f   GuBVH.obj
 0001:00166200       PxFindOverlap              0000000180167200 f   GuBVH.obj
 0001:001662f0       PxGetBVHInternalData       00000001801672f0 f   GuBVH.obj
 0001:00166330       ??0IncrementalAABBPrunerCore@Gu@physx@@QEAA@PEBVPruningPool@12@@Z 0000000180167330 f   GuIncrementalAABBPrunerCore.obj
 0001:00166440       ??1IncrementalAABBPrunerCore@Gu@physx@@QEAA@XZ 0000000180167440 f   GuIncrementalAABBPrunerCore.obj
 0001:001665b0       ??R?$AABBTreeOverlap@$00U?$OBBAABBTests@$00@Gu@physx@@VIncrementalAABBTree@23@VIncrementalAABBTreeNode@23@UOverlapCallbackAdapter@23@@Gu@physx@@QEAA_NAEBVAABBTreeBounds@12@AEBVIncrementalAABBTree@12@AEBU?$OBBAABBTests@$00@12@AEAUOverlapCallbackAdapter@12@@Z 00000001801675b0 f i GuIncrementalAABBPrunerCore.obj
 0001:00166b50       ??R?$AABBTreeOverlap@$00UAABBAABBTest@Gu@physx@@VIncrementalAABBTree@23@VIncrementalAABBTreeNode@23@UOverlapCallbackAdapter@23@@Gu@physx@@QEAA_NAEBVAABBTreeBounds@12@AEBVIncrementalAABBTree@12@AEBUAABBAABBTest@12@AEAUOverlapCallbackAdapter@12@@Z 0000000180167b50 f i GuIncrementalAABBPrunerCore.obj
 0001:00166db0       ??R?$AABBTreeOverlap@$00UCapsuleAABBTest@Gu@physx@@VIncrementalAABBTree@23@VIncrementalAABBTreeNode@23@UOverlapCallbackAdapter@23@@Gu@physx@@QEAA_NAEBVAABBTreeBounds@12@AEBVIncrementalAABBTree@12@AEBUCapsuleAABBTest@12@AEAUOverlapCallbackAdapter@12@@Z 0000000180167db0 f i GuIncrementalAABBPrunerCore.obj
 0001:001670f0       ??R?$AABBTreeRaycast@$00$00VIncrementalAABBTree@Gu@physx@@VIncrementalAABBTreeNode@23@URaycastCallbackAdapter@23@@Gu@physx@@QEAA_NAEBVAABBTreeBounds@12@AEBVIncrementalAABBTree@12@AEBV?$PxVec3T@M@2@2AEAM2AEAURaycastCallbackAdapter@12@@Z 00000001801680f0 f i GuIncrementalAABBPrunerCore.obj
 0001:00167770       ??R?$AABBTreeRaycast@$0A@$00VIncrementalAABBTree@Gu@physx@@VIncrementalAABBTreeNode@23@URaycastCallbackAdapter@23@@Gu@physx@@QEAA_NAEBVAABBTreeBounds@12@AEBVIncrementalAABBTree@12@AEBV?$PxVec3T@M@2@2AEAM2AEAURaycastCallbackAdapter@12@@Z 0000000180168770 f i GuIncrementalAABBPrunerCore.obj
 0001:00167da0       ?addObject@IncrementalAABBPrunerCore@Gu@physx@@QEAA_NII@Z 0000000180168da0 f   GuIncrementalAABBPrunerCore.obj
 0001:00167eb0       ?allocate@?$PxArray@PEBVIncrementalAABBTreeNode@Gu@physx@@V?$PxInlineAllocator@$0IAA@V?$PxReflectionAllocator@PEBVIncrementalAABBTreeNode@Gu@physx@@@physx@@@3@@physx@@IEAAPEAPEBVIncrementalAABBTreeNode@Gu@2@I@Z 0000000180168eb0 f i GuIncrementalAABBPrunerCore.obj
 0001:00167f70       ?clear@?$PxHashMapBase@UPrunerPayload@Gu@physx@@UExtendedBucketPrunerData@23@UExtendedBucketPrunerHash@23@VPxAllocator@3@@physx@@QEAAXXZ 0000000180168f70 f i GuExtendedBucketPruner.obj
 0001:00167f70       ?clear@?$PxHashMapBase@IPEAVIncrementalAABBTreeNode@Gu@physx@@U?$PxHash@I@3@VPxAllocator@3@@physx@@QEAAXXZ 0000000180168f70 f i GuIncrementalAABBPrunerCore.obj
 0001:00168000       ?create@?$PxHashBase@V?$PxPair@$$CBIPEAVIncrementalAABBTreeNode@Gu@physx@@@physx@@IU?$PxHash@I@2@UGetKey@?$PxHashMapBase@IPEAVIncrementalAABBTreeNode@Gu@physx@@U?$PxHash@I@3@VPxAllocator@3@@2@VPxAllocator@2@$00@physx@@QEAAPEAV?$PxPair@$$CBIPEAVIncrementalAABBTreeNode@Gu@physx@@@2@AEBIAEA_N@Z 0000000180169000 f i GuIncrementalAABBPrunerCore.obj
 0001:00168150       ?erase@?$PxHashBase@V?$PxPair@$$CBIPEAVIncrementalAABBTreeNode@Gu@physx@@@physx@@IU?$PxHash@I@2@UGetKey@?$PxHashMapBase@IPEAVIncrementalAABBTreeNode@Gu@physx@@U?$PxHash@I@3@VPxAllocator@3@@2@VPxAllocator@2@$00@physx@@QEAA_NAEBIAEAV?$PxPair@$$CBIPEAVIncrementalAABBTreeNode@Gu@physx@@@2@@Z 0000000180169150 f i GuIncrementalAABBPrunerCore.obj
 0001:001682b0       ?getMesh@CollisionTetrahedronMeshData@Gu@physx@@UEAAPEAVPxTetrahedronMeshData@3@XZ 00000001801692b0 f i GuCookingTetrahedronMesh.obj
 0001:001682b0       ?getCurrentWorldBoxes@PruningPool@Gu@physx@@QEBAPEBVPxBounds3@3@XZ 00000001801692b0 f i GuIncrementalAABBPrunerCore.obj
 0001:001682b0       ?getMesh@CollisionTetrahedronMeshData@Gu@physx@@UEBAPEBVPxTetrahedronMeshData@3@XZ 00000001801692b0 f i GuCookingTetrahedronMesh.obj
 0001:001682b0       ?getCurrentWorldBoxes@PruningPool@Gu@physx@@QEAAPEAVPxBounds3@3@XZ 00000001801692b0 f i GuIncrementalAABBPrunerCore.obj
 0001:001682b0       ?getMesh@SimulationTetrahedronMeshData@Gu@physx@@UEAAPEAVPxTetrahedronMeshData@3@XZ 00000001801692b0 f i GuCookingTetrahedronMesh.obj
 0001:001682c0       ?getGlobalBounds@IncrementalAABBPrunerCore@Gu@physx@@QEBAXAEAVPxBounds3@3@@Z 00000001801692c0 f   GuIncrementalAABBPrunerCore.obj
 0001:001683e0       ?getIndex@PruningPool@Gu@physx@@QEBAII@Z 00000001801693e0 f i GuIncrementalAABBPrunerCore.obj
 0001:001683f0       ?getPayloadData@PruningPool@Gu@physx@@QEBAAEBUPrunerPayload@23@IPEAUPrunerPayloadData@23@@Z 00000001801693f0 f i GuIncrementalAABBPrunerCore.obj
 0001:00168440       ?overlap@IncrementalAABBPrunerCore@Gu@physx@@QEBA_NAEBVShapeData@23@AEAUPrunerOverlapCallback@23@@Z 0000000180169440 f   GuIncrementalAABBPrunerCore.obj
 0001:00168e60       ?raycast@IncrementalAABBPrunerCore@Gu@physx@@QEBA_NAEBV?$PxVec3T@M@3@0AEAMAEAUPrunerRaycastCallback@23@@Z 0000000180169e60 f   GuIncrementalAABBPrunerCore.obj
 0001:00168f40       ?recreate@?$PxArray@PEAVIncrementalAABBTreeNode@Gu@physx@@V?$PxReflectionAllocator@PEAVIncrementalAABBTreeNode@Gu@physx@@@3@@physx@@IEAAXI@Z 0000000180169f40 f i GuIncrementalAABBPrunerCore.obj
 0001:00169050       ?recreate@?$PxArray@PEBVIncrementalAABBTreeNode@Gu@physx@@V?$PxInlineAllocator@$0IAA@V?$PxReflectionAllocator@PEBVIncrementalAABBTreeNode@Gu@physx@@@physx@@@3@@physx@@IEAAXI@Z 000000018016a050 f i GuIncrementalAABBPrunerCore.obj
 0001:00169100       ?release@IncrementalAABBPrunerCore@Gu@physx@@QEAAXXZ 000000018016a100 f   GuIncrementalAABBPrunerCore.obj
 0001:00169200       ?removeMarkedObjects@IncrementalAABBPrunerCore@Gu@physx@@QEAAII@Z 000000018016a200 f   GuIncrementalAABBPrunerCore.obj
 0001:00169260       ?removeObject@IncrementalAABBPrunerCore@Gu@physx@@QEAA_NIIAEAI@Z 000000018016a260 f   GuIncrementalAABBPrunerCore.obj
 0001:00169460       ?reserveInternal@?$PxHashBase@V?$PxPair@$$CBIPEAVIncrementalAABBTreeNode@Gu@physx@@@physx@@IU?$PxHash@I@2@UGetKey@?$PxHashMapBase@IPEAVIncrementalAABBTreeNode@Gu@physx@@U?$PxHash@I@3@VPxAllocator@3@@2@VPxAllocator@2@$00@physx@@AEAAXI@Z 000000018016a460 f i GuIncrementalAABBPrunerCore.obj
 0001:00169620       ?resizeUninitialized@?$PxArray@PEBVIncrementalAABBTreeNode@Gu@physx@@V?$PxInlineAllocator@$0IAA@V?$PxReflectionAllocator@PEBVIncrementalAABBTreeNode@Gu@physx@@@physx@@@3@@physx@@QEAAXI@Z 000000018016a620 f i GuIncrementalAABBPrunerCore.obj
 0001:00169670       ?setTransform@PruningPool@Gu@physx@@QEAA_NIAEBV?$PxTransformT@M@3@@Z 000000018016a670 f i GuIncrementalAABBPrunerCore.obj
 0001:001696d0       ?shiftOrigin@IncrementalAABBPrunerCore@Gu@physx@@QEAAXAEBV?$PxVec3T@M@3@@Z 000000018016a6d0 f   GuIncrementalAABBPrunerCore.obj
 0001:00169720       ?swapIndex@IncrementalAABBPrunerCore@Gu@physx@@QEAAXII@Z 000000018016a720 f   GuIncrementalAABBPrunerCore.obj
 0001:001697f0       ?sweep@IncrementalAABBPrunerCore@Gu@physx@@QEBA_NAEBVShapeData@23@AEBV?$PxVec3T@M@3@AEAMAEAUPrunerRaycastCallback@23@@Z 000000018016a7f0 f   GuIncrementalAABBPrunerCore.obj
 0001:00169980       ?updateMapping@IncrementalAABBPrunerCore@Gu@physx@@AEAAXAEAV?$PxHashMap@IPEAVIncrementalAABBTreeNode@Gu@physx@@U?$PxHash@I@3@VPxAllocator@3@@3@IPEAVIncrementalAABBTreeNode@23@@Z 000000018016a980 f   GuIncrementalAABBPrunerCore.obj
 0001:00169ab0       ?updateObject@IncrementalAABBPrunerCore@Gu@physx@@QEAA_NI@Z 000000018016aab0 f   GuIncrementalAABBPrunerCore.obj
 0001:00169c50       ?visualize@IncrementalAABBPrunerCore@Gu@physx@@QEBAXAEAVPxRenderOutput@3@I@Z 000000018016ac50 f   GuIncrementalAABBPrunerCore.obj
 0001:00169cb0       ??0IncrementalAABBPruner@Gu@physx@@QEAA@I_K@Z 000000018016acb0 f   GuIncrementalAABBPruner.obj
 0001:00169d60       ??R?$AABBTreeOverlap@$00USphereAABBTest@Gu@physx@@VIncrementalAABBTree@23@VIncrementalAABBTreeNode@23@UOverlapCallbackAdapter@23@@Gu@physx@@QEAA_NAEBVAABBTreeBounds@12@AEBVIncrementalAABBTree@12@AEBUSphereAABBTest@12@AEAUOverlapCallbackAdapter@12@@Z 000000018016ad60 f i GuIncrementalAABBPruner.obj
 0001:0016a030       ??_GBasePruner@Gu@physx@@UEAAPEAXI@Z 000000018016b030 f i GuIncrementalAABBPruner.obj
 0001:0016a030       ??_EBasePruner@Gu@physx@@UEAAPEAXI@Z 000000018016b030 f i GuIncrementalAABBPruner.obj
 0001:0016a080       ??_EIncrementalAABBPruner@Gu@physx@@UEAAPEAXI@Z 000000018016b080 f i GuIncrementalAABBPruner.obj
 0001:0016a080       ??_GIncrementalAABBPruner@Gu@physx@@UEAAPEAXI@Z 000000018016b080 f i GuIncrementalAABBPruner.obj
 0001:0016a190       ?addObjects@IncrementalAABBPruner@Gu@physx@@UEAA_NPEAIPEBVPxBounds3@3@PEBUPrunerPayload@23@PEBV?$PxTransformT@M@3@I_N@Z 000000018016b190 f   GuIncrementalAABBPruner.obj
 0001:0016a340       ?commit@IncrementalAABBPruner@Gu@physx@@UEAAXXZ 000000018016b340 f   GuIncrementalAABBPruner.obj
 0001:0016a4a0       ?getGlobalBounds@IncrementalAABBPruner@Gu@physx@@UEBAXAEAVPxBounds3@3@@Z 000000018016b4a0 f   GuIncrementalAABBPruner.obj
 0001:0016a510       ?getPayloadData@IncrementalAABBPruner@Gu@physx@@UEBAAEBUPrunerPayload@23@IPEAUPrunerPayloadData@23@@Z 000000018016b510 f i GuIncrementalAABBPruner.obj
 0001:0016a560       ?overlap@IncrementalAABBPruner@Gu@physx@@UEBA_NAEBVShapeData@23@AEAUPrunerOverlapCallback@23@@Z 000000018016b560 f   GuIncrementalAABBPruner.obj
 0001:0016ab00       ?preallocate@IncrementalAABBPruner@Gu@physx@@UEAAXI@Z 000000018016bb00 f i GuIncrementalAABBPruner.obj
 0001:0016ab10       ?purge@IncrementalAABBPruner@Gu@physx@@UEAAXXZ 000000018016bb10 f   GuIncrementalAABBPruner.obj
 0001:0016ab60       ?raycast@IncrementalAABBPruner@Gu@physx@@UEBA_NAEBV?$PxVec3T@M@3@0AEAMAEAUPrunerRaycastCallback@23@@Z 000000018016bb60 f   GuIncrementalAABBPruner.obj
 0001:0016abe0       ?removeObjects@IncrementalAABBPruner@Gu@physx@@UEAAXPEBIIPEAUPrunerPayloadRemovalCallback@23@@Z 000000018016bbe0 f   GuIncrementalAABBPruner.obj
 0001:0016ad20       ?resize@?$PxArray@PEAVIncrementalAABBTreeNode@Gu@physx@@V?$PxReflectionAllocator@PEAVIncrementalAABBTreeNode@Gu@physx@@@3@@physx@@QEAAXIAEBQEAVIncrementalAABBTreeNode@Gu@2@@Z 000000018016bd20 f i GuIncrementalAABBPruner.obj
 0001:0016ade0       ?resizeUninitialized@?$PxArray@PEAVIncrementalAABBTreeNode@Gu@physx@@V?$PxReflectionAllocator@PEAVIncrementalAABBTreeNode@Gu@physx@@@3@@physx@@QEAAXI@Z 000000018016bde0 f i GuIncrementalAABBPruner.obj
 0001:0016ae20       ?setTransform@IncrementalAABBPruner@Gu@physx@@UEAA_NIAEBV?$PxTransformT@M@3@@Z 000000018016be20 f i GuIncrementalAABBPruner.obj
 0001:0016ae80       ?shiftOrigin@IncrementalAABBPruner@Gu@physx@@UEAAXAEBV?$PxVec3T@M@3@@Z 000000018016be80 f   GuIncrementalAABBPruner.obj
 0001:0016aec0       ?sweep@IncrementalAABBPruner@Gu@physx@@UEBA_NAEBVShapeData@23@AEBV?$PxVec3T@M@3@AEAMAEAUPrunerRaycastCallback@23@@Z 000000018016bec0 f   GuIncrementalAABBPruner.obj
 0001:0016afe0       ?updateObjects@IncrementalAABBPruner@Gu@physx@@UEAAXPEBIIM0PEBVPxBounds3@3@PEBUPxTransformPadded@3@@Z 000000018016bfe0 f   GuIncrementalAABBPruner.obj
 0001:0016b1b0       ?visualize@IncrementalAABBPruner@Gu@physx@@UEBAXAEAVPxRenderOutput@3@II@Z 000000018016c1b0 f   GuIncrementalAABBPruner.obj
 0001:0016b3a0       ??0PruningPool@Gu@physx@@QEAA@_KW4TransformCacheMode@12@@Z 000000018016c3a0 f   GuPruningPool.obj
 0001:0016b3d0       ??1PruningPool@Gu@physx@@QEAA@XZ 000000018016c3d0 f   GuPruningPool.obj
 0001:0016b490       ?addObjects@PruningPool@Gu@physx@@QEAAIPEAIPEBVPxBounds3@3@PEBUPrunerPayload@23@PEBV?$PxTransformT@M@3@I@Z 000000018016c490 f   GuPruningPool.obj
 0001:0016b640       ?preallocate@PruningPool@Gu@physx@@QEAAXI@Z 000000018016c640 f   GuPruningPool.obj
 0001:0016b650       ?removeObject@PruningPool@Gu@physx@@QEAAIIPEAUPrunerPayloadRemovalCallback@23@@Z 000000018016c650 f   GuPruningPool.obj
 0001:0016b790       ?resize@PruningPool@Gu@physx@@QEAA_NI@Z 000000018016c790 f   GuPruningPool.obj
 0001:0016ba50       ?shiftOrigin@PruningPool@Gu@physx@@QEAAXAEBV?$PxVec3T@M@3@@Z 000000018016ca50 f   GuPruningPool.obj
 0001:0016be60       ?updateAndInflateBounds@PruningPool@Gu@physx@@QEAAXPEBI0PEBVPxBounds3@3@PEBUPxTransformPadded@3@IM@Z 000000018016ce60 f   GuPruningPool.obj
 0001:0016d860       ??0BucketPruner@Gu@physx@@QEAA@_K@Z 000000018016e860 f   GuBucketPruner.obj
 0001:0016d8b0       ??0BucketPrunerCore@Gu@physx@@QEAA@_N@Z 000000018016e8b0 f   GuBucketPruner.obj
 0001:0016dc30       ??1BucketPrunerCore@Gu@physx@@QEAA@XZ 000000018016ec30 f   GuBucketPruner.obj
 0001:0016dd70       ??R?$BucketPrunerOverlapTraversal@UBucketPrunerAABBAABBTest@@$00@@QEBA_NAEBVBucketPrunerCore@Gu@physx@@AEBUBucketPrunerAABBAABBTest@@AEAUPrunerOverlapCallback@23@AEBVPxBounds3@3@@Z 000000018016ed70 f i GuBucketPruner.obj
 0001:0016e350       ??R?$BucketPrunerOverlapTraversal@UOBBAABBTest_SIMD@@$0A@@@QEBA_NAEBVBucketPrunerCore@Gu@physx@@AEBUOBBAABBTest_SIMD@@AEAUPrunerOverlapCallback@23@AEBVPxBounds3@3@@Z 000000018016f350 f i GuBucketPruner.obj
 0001:0016ebb0       ??R?$BucketPrunerOverlapTraversal@USphereAABBTest_SIMD@@$00@@QEBA_NAEBVBucketPrunerCore@Gu@physx@@AEBUSphereAABBTest_SIMD@@AEAUPrunerOverlapCallback@23@AEBVPxBounds3@3@@Z 000000018016fbb0 f i GuBucketPruner.obj
 0001:0016f190       ??_FBucketPrunerCore@Gu@physx@@QEAAXXZ 0000000180170190 f i GuBucketPruner.obj
 0001:0016f1a0       ??_GBucketPruner@Gu@physx@@UEAAPEAXI@Z 00000001801701a0 f i GuBucketPruner.obj
 0001:0016f1a0       ??_EBucketPruner@Gu@physx@@UEAAPEAXI@Z 00000001801701a0 f i GuBucketPruner.obj
 0001:0016f220       ?addObject@BucketPrunerCore@Gu@physx@@QEAA_NAEBUPrunerPayload@23@AEBVPxBounds3@3@AEBV?$PxTransformT@M@3@I@Z 0000000180170220 f   GuBucketPruner.obj
 0001:0016f540       ?addObjects@BucketPruner@Gu@physx@@UEAA_NPEAIPEBVPxBounds3@3@PEBUPrunerPayload@23@PEBV?$PxTransformT@M@3@I_N@Z 0000000180170540 f   GuBucketPruner.obj
 0001:0016f5d0       ?addPair@BucketPrunerMap@Gu@physx@@QEAAPEAUBucketPrunerPair@23@AEBUPrunerPayload@23@II@Z 00000001801705d0 f   GuBucketPruner.obj
 0001:0016f7c0       ?allocateSortedMemory@BucketPrunerCore@Gu@physx@@AEAAXI@Z 00000001801707c0 f   GuBucketPruner.obj
 0001:0016f970       ?classifyBoxes@BucketPrunerCore@Gu@physx@@AEAAXXZ 0000000180170970 f   GuBucketPruner.obj
 0001:00170150       ?classifyBoxes@BucketPrunerNode@Gu@physx@@QEAAXMMIPEIAUBucketBox@23@PEIBUPrunerPayload@23@PEIBV?$PxTransformT@M@3@0PEIAU523@PEIAV63@_NI@Z 0000000180171150 f   GuBucketPruner.obj
 0001:00170a40       ?build@CompanionPrunerBucket@@UEAAXXZ 0000000180171a40 f   GuSecondaryPruner.obj
 0001:00170a40       ?commit@BucketPruner@Gu@physx@@UEAAXXZ 0000000180171a40 f   GuBucketPruner.obj
 0001:00170a50       ?findPair@BucketPrunerMap@Gu@physx@@QEBAPEBUBucketPrunerPair@23@AEBUPrunerPayload@23@@Z 0000000180171a50 f   GuBucketPruner.obj
 0001:00170e50       ?getGlobalBounds@BucketPruner@Gu@physx@@UEBAXAEAVPxBounds3@3@@Z 0000000180171e50 f   GuBucketPruner.obj
 0001:00170ed0       ?getGlobalBounds@BucketPrunerCore@Gu@physx@@QEBAXAEAVPxBounds3@3@@Z 0000000180171ed0 f   GuBucketPruner.obj
 0001:00170f50       ?getPayloadData@BucketPruner@Gu@physx@@UEBAAEBUPrunerPayload@23@IPEAUPrunerPayloadData@23@@Z 0000000180171f50 f i GuBucketPruner.obj
 0001:00170fb0       ?overlap@BucketPruner@Gu@physx@@UEBA_NAEBVShapeData@23@AEAUPrunerOverlapCallback@23@@Z 0000000180171fb0 f   GuBucketPruner.obj
 0001:00170fd0       ?overlap@BucketPrunerCore@Gu@physx@@QEBA_NAEBVShapeData@23@AEAUPrunerOverlapCallback@23@@Z 0000000180171fd0 f   GuBucketPruner.obj
 0001:001712b0       ?preallocate@BucketPruner@Gu@physx@@UEAAXI@Z 00000001801722b0 f i GuBucketPruner.obj
 0001:00171490       ?purge@BucketPrunerMap@Gu@physx@@QEAAXXZ 0000000180172490 f   GuBucketPruner.obj
 0001:00171520       ?raycast@BucketPruner@Gu@physx@@UEBA_NAEBV?$PxVec3T@M@3@0AEAMAEAUPrunerRaycastCallback@23@@Z 0000000180172520 f   GuBucketPruner.obj
 0001:00171570       ?raycast@BucketPrunerCore@Gu@physx@@QEBA_NAEBV?$PxVec3T@M@3@0AEAMAEAUPrunerRaycastCallback@23@@Z 0000000180172570 f   GuBucketPruner.obj
 0001:001715b0       ?reallocPairs@BucketPrunerMap@Gu@physx@@QEAAXXZ 00000001801725b0 f   GuBucketPruner.obj
 0001:001717e0       ?release@BucketPrunerCore@Gu@physx@@QEAAXXZ 00000001801727e0 f   GuBucketPruner.obj
 0001:00171910       ?removeMarkedObjects@BucketPrunerCore@Gu@physx@@QEAAII@Z 0000000180172910 f   GuBucketPruner.obj
 0001:00171cc0       ?removeObject@BucketPrunerCore@Gu@physx@@QEAA_NAEBUPrunerPayload@23@AEAI@Z 0000000180172cc0 f   GuBucketPruner.obj
 0001:00171f80       ?removeObjects@BucketPruner@Gu@physx@@UEAAXPEBIIPEAUPrunerPayloadRemovalCallback@23@@Z 0000000180172f80 f   GuBucketPruner.obj
 0001:00172030       ?removePair@BucketPrunerMap@Gu@physx@@QEAA_NAEBUPrunerPayload@23@AEAI1@Z 0000000180173030 f   GuBucketPruner.obj
 0001:001721b0       ?removePairInternal@BucketPrunerMap@Gu@physx@@QEAAXAEBUPrunerPayload@23@II@Z 00000001801731b0 f   GuBucketPruner.obj
 0001:00172320       ?resizeCore@BucketPrunerCore@Gu@physx@@AEAAXXZ 0000000180173320 f   GuBucketPruner.obj
 0001:00172560       ?setTransform@BucketPruner@Gu@physx@@UEAA_NIAEBV?$PxTransformT@M@3@@Z 0000000180173560 f i GuBucketPruner.obj
 0001:001725c0       ?shiftOrigin@BucketPruner@Gu@physx@@UEAAXAEBV?$PxVec3T@M@3@@Z 00000001801735c0 f   GuBucketPruner.obj
 0001:001725c0       ?shiftOrigin@CompanionPrunerBucket@@UEAAXAEBV?$PxVec3T@M@physx@@@Z 00000001801735c0 f   GuSecondaryPruner.obj
 0001:001725d0       ?shiftOrigin@BucketPrunerCore@Gu@physx@@QEAAXAEBV?$PxVec3T@M@3@@Z 00000001801735d0 f   GuBucketPruner.obj
 0001:00173510       ?sweep@BucketPruner@Gu@physx@@UEBA_NAEBVShapeData@23@AEBV?$PxVec3T@M@3@AEAMAEAUPrunerRaycastCallback@23@@Z 0000000180174510 f   GuBucketPruner.obj
 0001:00173530       ?sweep@BucketPrunerCore@Gu@physx@@QEBA_NAEBVShapeData@23@AEBV?$PxVec3T@M@3@AEAMAEAUPrunerRaycastCallback@23@@Z 0000000180174530 f   GuBucketPruner.obj
 0001:00173600       ?updateObject@BucketPrunerCore@Gu@physx@@QEAA_NAEBVPxBounds3@3@AEBUPrunerPayload@23@AEBV?$PxTransformT@M@3@@Z 0000000180174600 f   GuBucketPruner.obj
 0001:00173660       ?updateObjects@BucketPruner@Gu@physx@@UEAAXPEBIIM0PEBVPxBounds3@3@PEBUPxTransformPadded@3@@Z 0000000180174660 f   GuBucketPruner.obj
 0001:00173770       ?visualize@BucketPruner@Gu@physx@@UEBAXAEAVPxRenderOutput@3@II@Z 0000000180174770 f   GuBucketPruner.obj
 0001:00173770       ?visualize@CompanionPrunerBucket@@UEBAXAEAVPxRenderOutput@physx@@I@Z 0000000180174770 f   GuSecondaryPruner.obj
 0001:00173780       ?visualize@BucketPrunerCore@Gu@physx@@QEBAXAEAVPxRenderOutput@3@I@Z 0000000180174780 f   GuBucketPruner.obj
 0001:00173a70       ?addObject@MaverickNode@Gu@physx@@QEAA_NAEBUPrunerPayload@23@IAEBVPxBounds3@3@AEBV?$PxTransformT@M@3@I@Z 0000000180174a70 f   GuMaverickNode.obj
 0001:00173b50       ?removeMarkedObjects@MaverickNode@Gu@physx@@QEAAII@Z 0000000180174b50 f   GuMaverickNode.obj
 0001:00173cd0       ?removeObject@MaverickNode@Gu@physx@@QEAA_NIAEAI@Z 0000000180174cd0 f   GuMaverickNode.obj
 0001:00173e40       ?shiftOrigin@MaverickNode@Gu@physx@@QEAAXAEBV?$PxVec3T@M@3@@Z 0000000180174e40 f   GuMaverickNode.obj
 0001:00173f30       ?updateObject@MaverickNode@Gu@physx@@QEAA_NIAEBVPxBounds3@3@AEBV?$PxTransformT@M@3@@Z 0000000180174f30 f   GuMaverickNode.obj
 0001:00174010       ??0ExtendedBucketPruner@Gu@physx@@QEAA@_KW4CompanionPrunerType@12@PEBVPruningPool@12@@Z 0000000180175010 f   GuExtendedBucketPruner.obj
 0001:00174260       ??1ExtendedBucketPruner@Gu@physx@@QEAA@XZ 0000000180175260 f   GuExtendedBucketPruner.obj
 0001:001743c0       ??R?$AABBTreeOverlap@$00U?$OBBAABBTests@$00@Gu@physx@@VAABBTree@23@UBVHNode@23@U?$MainTreeOverlapPrunerCallback@U?$OBBAABBTests@$00@Gu@physx@@@@@Gu@physx@@QEAA_NAEBVAABBTreeBounds@12@AEBVAABBTree@12@AEBU?$OBBAABBTests@$00@12@AEAU?$MainTreeOverlapPrunerCallback@U?$OBBAABBTests@$00@Gu@physx@@@@@Z 00000001801753c0 f i GuExtendedBucketPruner.obj
 0001:001749a0       ??R?$AABBTreeOverlap@$00U?$OBBAABBTests@$00@Gu@physx@@VAABBTree@23@UBVHNode@23@UOverlapCallbackAdapter@23@@Gu@physx@@QEAA_NAEBVAABBTreeBounds@12@AEBVAABBTree@12@AEBU?$OBBAABBTests@$00@12@AEAUOverlapCallbackAdapter@12@@Z 00000001801759a0 f i GuExtendedBucketPruner.obj
 0001:00174f60       ??R?$AABBTreeOverlap@$00UAABBAABBTest@Gu@physx@@VAABBTree@23@UBVHNode@23@U?$MainTreeOverlapPrunerCallback@UAABBAABBTest@Gu@physx@@@@@Gu@physx@@QEAA_NAEBVAABBTreeBounds@12@AEBVAABBTree@12@AEBUAABBAABBTest@12@AEAU?$MainTreeOverlapPrunerCallback@UAABBAABBTest@Gu@physx@@@@@Z 0000000180175f60 f i GuExtendedBucketPruner.obj
 0001:00175200       ??R?$AABBTreeOverlap@$00UAABBAABBTest@Gu@physx@@VAABBTree@23@UBVHNode@23@UOverlapCallbackAdapter@23@@Gu@physx@@QEAA_NAEBVAABBTreeBounds@12@AEBVAABBTree@12@AEBUAABBAABBTest@12@AEAUOverlapCallbackAdapter@12@@Z 0000000180176200 f i GuExtendedBucketPruner.obj
 0001:00175490       ??R?$AABBTreeOverlap@$00UCapsuleAABBTest@Gu@physx@@VAABBTree@23@UBVHNode@23@U?$MainTreeOverlapPrunerCallback@UCapsuleAABBTest@Gu@physx@@@@@Gu@physx@@QEAA_NAEBVAABBTreeBounds@12@AEBVAABBTree@12@AEBUCapsuleAABBTest@12@AEAU?$MainTreeOverlapPrunerCallback@UCapsuleAABBTest@Gu@physx@@@@@Z 0000000180176490 f i GuExtendedBucketPruner.obj
 0001:00175830       ??R?$AABBTreeOverlap@$00UCapsuleAABBTest@Gu@physx@@VAABBTree@23@UBVHNode@23@UOverlapCallbackAdapter@23@@Gu@physx@@QEAA_NAEBVAABBTreeBounds@12@AEBVAABBTree@12@AEBUCapsuleAABBTest@12@AEAUOverlapCallbackAdapter@12@@Z 0000000180176830 f i GuExtendedBucketPruner.obj
 0001:00175bc0       ??R?$AABBTreeOverlap@$00USphereAABBTest@Gu@physx@@VAABBTree@23@UBVHNode@23@U?$MainTreeOverlapPrunerCallback@USphereAABBTest@Gu@physx@@@@@Gu@physx@@QEAA_NAEBVAABBTreeBounds@12@AEBVAABBTree@12@AEBUSphereAABBTest@12@AEAU?$MainTreeOverlapPrunerCallback@USphereAABBTest@Gu@physx@@@@@Z 0000000180176bc0 f i GuExtendedBucketPruner.obj
 0001:00175ed0       ??R?$AABBTreeOverlap@$00USphereAABBTest@Gu@physx@@VAABBTree@23@UBVHNode@23@UOverlapCallbackAdapter@23@@Gu@physx@@QEAA_NAEBVAABBTreeBounds@12@AEBVAABBTree@12@AEBUSphereAABBTest@12@AEAUOverlapCallbackAdapter@12@@Z 0000000180176ed0 f i GuExtendedBucketPruner.obj
 0001:001761c0       ??R?$AABBTreeRaycast@$00$00VAABBTree@Gu@physx@@UBVHNode@23@U?$MainTreeRaycastPrunerCallback@$00@@@Gu@physx@@QEAA_NAEBVAABBTreeBounds@12@AEBVAABBTree@12@AEBV?$PxVec3T@M@2@2AEAM2AEAU?$MainTreeRaycastPrunerCallback@$00@@@Z 00000001801771c0 f i GuExtendedBucketPruner.obj
 0001:001768b0       ??R?$AABBTreeRaycast@$00$00VAABBTree@Gu@physx@@UBVHNode@23@URaycastCallbackAdapter@23@@Gu@physx@@QEAA_NAEBVAABBTreeBounds@12@AEBVAABBTree@12@AEBV?$PxVec3T@M@2@2AEAM2AEAURaycastCallbackAdapter@12@@Z 00000001801778b0 f i GuExtendedBucketPruner.obj
 0001:00176f50       ??R?$AABBTreeRaycast@$0A@$00VAABBTree@Gu@physx@@UBVHNode@23@U?$MainTreeRaycastPrunerCallback@$0A@@@@Gu@physx@@QEAA_NAEBVAABBTreeBounds@12@AEBVAABBTree@12@AEBV?$PxVec3T@M@2@2AEAM2AEAU?$MainTreeRaycastPrunerCallback@$0A@@@@Z 0000000180177f50 f i GuExtendedBucketPruner.obj
 0001:001775f0       ??R?$AABBTreeRaycast@$0A@$00VAABBTree@Gu@physx@@UBVHNode@23@URaycastCallbackAdapter@23@@Gu@physx@@QEAA_NAEBVAABBTreeBounds@12@AEBVAABBTree@12@AEBV?$PxVec3T@M@2@2AEAM2AEAURaycastCallbackAdapter@12@@Z 00000001801785f0 f i GuExtendedBucketPruner.obj
 0001:00177c50       ?addTree@ExtendedBucketPruner@Gu@physx@@QEAAXAEBVAABBTreeMergeData@23@I@Z 0000000180178c50 f   GuExtendedBucketPruner.obj
 0001:00177f10       ?buildMainAABBTree@ExtendedBucketPruner@Gu@physx@@AEAAXXZ 0000000180178f10 f   GuExtendedBucketPruner.obj
 0001:00177fb0       ?create@?$PxHashBase@V?$PxPair@$$CBUPrunerPayload@Gu@physx@@UExtendedBucketPrunerData@23@@physx@@UPrunerPayload@Gu@2@UExtendedBucketPrunerHash@42@UGetKey@?$PxHashMapBase@UPrunerPayload@Gu@physx@@UExtendedBucketPrunerData@23@UExtendedBucketPrunerHash@23@VPxAllocator@3@@2@VPxAllocator@2@$00@physx@@QEAAPEAV?$PxPair@$$CBUPrunerPayload@Gu@physx@@UExtendedBucketPrunerData@23@@2@AEBUPrunerPayload@Gu@2@AEA_N@Z 0000000180178fb0 f i GuExtendedBucketPruner.obj
 0001:00178170       ?eraseCurrentGetNext@PxEraseIterator@?$PxHashBase@V?$PxPair@$$CBUPrunerPayload@Gu@physx@@UExtendedBucketPrunerData@23@@physx@@UPrunerPayload@Gu@2@UExtendedBucketPrunerHash@42@UGetKey@?$PxHashMapBase@UPrunerPayload@Gu@physx@@UExtendedBucketPrunerData@23@UExtendedBucketPrunerHash@23@VPxAllocator@3@@2@VPxAllocator@2@$00@physx@@QEAAPEAV?$PxPair@$$CBUPrunerPayload@Gu@physx@@UExtendedBucketPrunerData@23@@3@_N@Z 0000000180179170 f i GuExtendedBucketPruner.obj
 0001:00178260       ?eraseInternal@?$PxHashBase@V?$PxPair@$$CBUPrunerPayload@Gu@physx@@UExtendedBucketPrunerData@23@@physx@@UPrunerPayload@Gu@2@UExtendedBucketPrunerHash@42@UGetKey@?$PxHashMapBase@UPrunerPayload@Gu@physx@@UExtendedBucketPrunerData@23@UExtendedBucketPrunerHash@23@VPxAllocator@3@@2@VPxAllocator@2@$00@physx@@AEAA_NPEAI@Z 0000000180179260 f i GuExtendedBucketPruner.obj
 0001:00178380       ?find@?$PxHashMapBase@UPrunerPayload@Gu@physx@@UExtendedBucketPrunerData@23@UExtendedBucketPrunerHash@23@VPxAllocator@3@@physx@@QEBAPEBV?$PxPair@$$CBUPrunerPayload@Gu@physx@@UExtendedBucketPrunerData@23@@2@AEBUPrunerPayload@Gu@2@@Z 0000000180179380 f i GuExtendedBucketPruner.obj
 0001:00178470       ?getGlobalBounds@ExtendedBucketPruner@Gu@physx@@QEBAXAEAVPxBounds3@3@@Z 0000000180179470 f   GuExtendedBucketPruner.obj
 0001:00178540       ?overlap@ExtendedBucketPruner@Gu@physx@@QEBA_NAEBVShapeData@23@AEAUPrunerOverlapCallback@23@@Z 0000000180179540 f   GuExtendedBucketPruner.obj
 0001:00178d30       ?raycast@ExtendedBucketPruner@Gu@physx@@QEBA_NAEBV?$PxVec3T@M@3@0AEAMAEAUPrunerRaycastCallback@23@@Z 0000000180179d30 f   GuExtendedBucketPruner.obj
 0001:00178e10       ?refitMarkedNodes@ExtendedBucketPruner@Gu@physx@@QEAAXPEBVPxBounds3@3@@Z 0000000180179e10 f   GuExtendedBucketPruner.obj
 0001:00179310       ?release@ExtendedBucketPruner@Gu@physx@@QEAAXXZ 000000018017a310 f   GuExtendedBucketPruner.obj
 0001:001793e0       ?removeMarkedObjects@ExtendedBucketPruner@Gu@physx@@QEAAII@Z 000000018017a3e0 f   GuExtendedBucketPruner.obj
 0001:00179700       ?removeObject@ExtendedBucketPruner@Gu@physx@@QEAA_NAEBUPrunerPayload@23@II0I@Z 000000018017a700 f   GuExtendedBucketPruner.obj
 0001:001799d0       ?reserveInternal@?$PxHashBase@V?$PxPair@$$CBUPrunerPayload@Gu@physx@@UExtendedBucketPrunerData@23@@physx@@UPrunerPayload@Gu@2@UExtendedBucketPrunerHash@42@UGetKey@?$PxHashMapBase@UPrunerPayload@Gu@physx@@UExtendedBucketPrunerData@23@UExtendedBucketPrunerHash@23@VPxAllocator@3@@2@VPxAllocator@2@$00@physx@@AEAAXI@Z 000000018017a9d0 f i GuExtendedBucketPruner.obj
 0001:00179bd0       ?shiftOrigin@ExtendedBucketPruner@Gu@physx@@QEAAXAEBV?$PxVec3T@M@3@@Z 000000018017abd0 f   GuExtendedBucketPruner.obj
 0001:00179c50       ?swapIndex@ExtendedBucketPruner@Gu@physx@@QEAAXIAEBUPrunerPayload@23@I_N@Z 000000018017ac50 f   GuExtendedBucketPruner.obj
 0001:00179d20       ?sweep@ExtendedBucketPruner@Gu@physx@@QEBA_NAEBVShapeData@23@AEBV?$PxVec3T@M@3@AEAMAEAUPrunerRaycastCallback@23@@Z 000000018017ad20 f   GuExtendedBucketPruner.obj
 0001:00179eb0       ?traverseHashEntries@PxEraseIterator@?$PxHashBase@V?$PxPair@$$CBUPrunerPayload@Gu@physx@@UExtendedBucketPrunerData@23@@physx@@UPrunerPayload@Gu@2@UExtendedBucketPrunerHash@42@UGetKey@?$PxHashMapBase@UPrunerPayload@Gu@physx@@UExtendedBucketPrunerData@23@UExtendedBucketPrunerHash@23@VPxAllocator@3@@2@VPxAllocator@2@$00@physx@@AEAAPEAV?$PxPair@$$CBUPrunerPayload@Gu@physx@@UExtendedBucketPrunerData@23@@3@XZ 000000018017aeb0 f i GuExtendedBucketPruner.obj
 0001:00179f00       ?updateObject@ExtendedBucketPruner@Gu@physx@@QEAA_NAEBVPxBounds3@3@AEBV?$PxTransformT@M@3@AEBUPrunerPayload@23@II@Z 000000018017af00 f   GuExtendedBucketPruner.obj
 0001:00179fd0       ?visualize@ExtendedBucketPruner@Gu@physx@@QEBAXAEAVPxRenderOutput@3@I@Z 000000018017afd0 f   GuExtendedBucketPruner.obj
 0001:0017a060       ??0?$OBBAABBTests@$00@Gu@physx@@QEAA@AEBV?$PxVec3T@M@2@AEBV?$PxMat33T@M@2@0@Z 000000018017b060 f i GuSecondaryPruner.obj
 0001:0017bf60       ??_ECompanionPruner@Gu@physx@@UEAAPEAXI@Z 000000018017cf60 f i GuSecondaryPruner.obj
 0001:0017bf60       ??_GCompanionPruner@Gu@physx@@UEAAPEAXI@Z 000000018017cf60 f i GuSecondaryPruner.obj
 0001:0017bfb0       ??_ECompanionPrunerAABBTree@@UEAAPEAXI@Z 000000018017cfb0 f i GuSecondaryPruner.obj
 0001:0017bfb0       ??_GCompanionPrunerAABBTree@@UEAAPEAXI@Z 000000018017cfb0 f i GuSecondaryPruner.obj
 0001:0017c060       ??_ECompanionPrunerBucket@@UEAAPEAXI@Z 000000018017d060 f i GuSecondaryPruner.obj
 0001:0017c060       ??_GCompanionPrunerBucket@@UEAAPEAXI@Z 000000018017d060 f i GuSecondaryPruner.obj
 0001:0017c0e0       ??_GCompanionPrunerIncremental@@UEAAPEAXI@Z 000000018017d0e0 f i GuSecondaryPruner.obj
 0001:0017c0e0       ??_ECompanionPrunerIncremental@@UEAAPEAXI@Z 000000018017d0e0 f i GuSecondaryPruner.obj
 0001:0017c160       ?addObject@CompanionPrunerAABBTree@@UEAA_NAEBUPrunerPayload@Gu@physx@@IAEBVPxBounds3@4@AEBV?$PxTransformT@M@4@II@Z 000000018017d160 f   GuSecondaryPruner.obj
 0001:0017c3a0       ?addObject@CompanionPrunerBucket@@UEAA_NAEBUPrunerPayload@Gu@physx@@IAEBVPxBounds3@4@AEBV?$PxTransformT@M@4@II@Z 000000018017d3a0 f i GuSecondaryPruner.obj
 0001:0017c3c0       ?addObject@CompanionPrunerIncremental@@UEAA_NAEBUPrunerPayload@Gu@physx@@IAEBVPxBounds3@4@AEBV?$PxTransformT@M@4@II@Z 000000018017d3c0 f i GuSecondaryPruner.obj
 0001:0017c3e0       ?addObjectInternal@CompanionPrunerAABBTree@@QEAA_NII@Z 000000018017d3e0 f   GuSecondaryPruner.obj
 0001:0017c580       ?build@CompanionPrunerAABBTree@@UEAAXXZ 000000018017d580 f   GuSecondaryPruner.obj
 0001:0017ca50       ?createCompanionPruner@Gu@physx@@YAPEAVCompanionPruner@12@_KW4CompanionPrunerType@12@PEBVPruningPool@12@@Z 000000018017da50 f   GuSecondaryPruner.obj
 0001:0017cc60       ?getGlobalBounds@CompanionPrunerAABBTree@@UEBAXAEAVPxBounds3@physx@@@Z 000000018017dc60 f   GuSecondaryPruner.obj
 0001:0017cd70       ?getGlobalBounds@CompanionPrunerBucket@@UEBAXAEAVPxBounds3@physx@@@Z 000000018017dd70 f i GuSecondaryPruner.obj
 0001:0017cd80       ?getGlobalBounds@CompanionPrunerIncremental@@UEBAXAEAVPxBounds3@physx@@@Z 000000018017dd80 f i GuSecondaryPruner.obj
 0001:0017cd90       ?getNbObjects@CompanionPrunerAABBTree@@UEBAIXZ 000000018017dd90 f   GuSecondaryPruner.obj
 0001:0017cda0       ?getNbObjects@CompanionPrunerBucket@@UEBAIXZ 000000018017dda0 f i GuSecondaryPruner.obj
 0001:0017cdb0       ?getNbObjects@CompanionPrunerIncremental@@UEBAIXZ 000000018017ddb0 f i GuSecondaryPruner.obj
 0001:0017cdc0       ?growAndPushBack@?$PxArray@ULocalData@CompanionPrunerAABBTree@@V?$PxReflectionAllocator@ULocalData@CompanionPrunerAABBTree@@@physx@@@physx@@IEAAAEAULocalData@CompanionPrunerAABBTree@@AEBU34@@Z 000000018017ddc0 f i GuSecondaryPruner.obj
 0001:0017cee0       ?overlap@CompanionPrunerAABBTree@@UEBA_NAEBVShapeData@Gu@physx@@AEAUPrunerOverlapCallback@34@@Z 000000018017dee0 f   GuSecondaryPruner.obj
 0001:0017e040       ?overlap@CompanionPrunerBucket@@UEBA_NAEBVShapeData@Gu@physx@@AEAUPrunerOverlapCallback@34@@Z 000000018017f040 f i GuSecondaryPruner.obj
 0001:0017e060       ?overlap@CompanionPrunerIncremental@@UEBA_NAEBVShapeData@Gu@physx@@AEAUPrunerOverlapCallback@34@@Z 000000018017f060 f i GuSecondaryPruner.obj
 0001:0017e080       ?raycast@CompanionPrunerAABBTree@@UEBA_NAEBV?$PxVec3T@M@physx@@0AEAMAEAUPrunerRaycastCallback@Gu@3@@Z 000000018017f080 f   GuSecondaryPruner.obj
 0001:0017e460       ?raycast@CompanionPrunerBucket@@UEBA_NAEBV?$PxVec3T@M@physx@@0AEAMAEAUPrunerRaycastCallback@Gu@3@@Z 000000018017f460 f i GuSecondaryPruner.obj
 0001:0017e480       ?raycast@CompanionPrunerIncremental@@UEBA_NAEBV?$PxVec3T@M@physx@@0AEAMAEAUPrunerRaycastCallback@Gu@3@@Z 000000018017f480 f i GuSecondaryPruner.obj
 0001:0017e4a0       ?release@CompanionPrunerAABBTree@@UEAAXXZ 000000018017f4a0 f   GuSecondaryPruner.obj
 0001:0017e4b0       ?release@CompanionPrunerBucket@@UEAAXXZ 000000018017f4b0 f i GuSecondaryPruner.obj
 0001:0017e4c0       ?release@CompanionPrunerIncremental@@UEAAXXZ 000000018017f4c0 f i GuSecondaryPruner.obj
 0001:0017e4d0       ?releaseInternal@CompanionPrunerAABBTree@@QEAAXXZ 000000018017f4d0 f   GuSecondaryPruner.obj
 0001:0017e550       ?removeMarkedObjects@CompanionPrunerAABBTree@@UEAAII@Z 000000018017f550 f   GuSecondaryPruner.obj
 0001:0017e570       ?removeMarkedObjects@CompanionPrunerBucket@@UEAAII@Z 000000018017f570 f i GuSecondaryPruner.obj
 0001:0017e580       ?removeMarkedObjects@CompanionPrunerIncremental@@UEAAII@Z 000000018017f580 f i GuSecondaryPruner.obj
 0001:0017e590       ?removeObject@CompanionPrunerAABBTree@@UEAA_NAEBUPrunerPayload@Gu@physx@@III@Z 000000018017f590 f   GuSecondaryPruner.obj
 0001:0017e630       ?removeObject@CompanionPrunerBucket@@UEAA_NAEBUPrunerPayload@Gu@physx@@III@Z 000000018017f630 f i GuSecondaryPruner.obj
 0001:0017e650       ?removeObject@CompanionPrunerIncremental@@UEAA_NAEBUPrunerPayload@Gu@physx@@III@Z 000000018017f650 f i GuSecondaryPruner.obj
 0001:0017e670       ?shiftOrigin@CompanionPrunerAABBTree@@UEAAXAEBV?$PxVec3T@M@physx@@@Z 000000018017f670 f   GuSecondaryPruner.obj
 0001:0017e7a0       ?shiftOrigin@CompanionPrunerIncremental@@UEAAXAEBV?$PxVec3T@M@physx@@@Z 000000018017f7a0 f i GuSecondaryPruner.obj
 0001:0017e7b0       ?swapIndex@CompanionPrunerIncremental@@UEAAXII@Z 000000018017f7b0 f i GuSecondaryPruner.obj
 0001:0017e7c0       ?sweep@CompanionPrunerAABBTree@@UEBA_NAEBVShapeData@Gu@physx@@AEBV?$PxVec3T@M@4@AEAMAEAUPrunerRaycastCallback@34@@Z 000000018017f7c0 f   GuSecondaryPruner.obj
 0001:0017ecf0       ?sweep@CompanionPrunerBucket@@UEBA_NAEBVShapeData@Gu@physx@@AEBV?$PxVec3T@M@4@AEAMAEAUPrunerRaycastCallback@34@@Z 000000018017fcf0 f i GuSecondaryPruner.obj
 0001:0017ed10       ?sweep@CompanionPrunerIncremental@@UEBA_NAEBVShapeData@Gu@physx@@AEBV?$PxVec3T@M@4@AEAMAEAUPrunerRaycastCallback@34@@Z 000000018017fd10 f i GuSecondaryPruner.obj
 0001:0017ed30       ?timeStampChange@CompanionPrunerIncremental@@UEAAXXZ 000000018017fd30 f i GuSecondaryPruner.obj
 0001:0017ed50       ?updateObject@CompanionPrunerAABBTree@@UEAA_NAEBUPrunerPayload@Gu@physx@@IAEBVPxBounds3@4@AEBV?$PxTransformT@M@4@I@Z 000000018017fd50 f   GuSecondaryPruner.obj
 0001:0017edd0       ?updateObject@CompanionPrunerBucket@@UEAA_NAEBUPrunerPayload@Gu@physx@@IAEBVPxBounds3@4@AEBV?$PxTransformT@M@4@I@Z 000000018017fdd0 f i GuSecondaryPruner.obj
 0001:0017edf0       ?updateObject@CompanionPrunerIncremental@@UEAA_NAEBUPrunerPayload@Gu@physx@@IAEBVPxBounds3@4@AEBV?$PxTransformT@M@4@I@Z 000000018017fdf0 f i GuSecondaryPruner.obj
 0001:0017ee00       ?visualize@CompanionPrunerAABBTree@@UEBAXAEAVPxRenderOutput@physx@@I@Z 000000018017fe00 f   GuSecondaryPruner.obj
 0001:0017ee20       ?visualize@CompanionPrunerIncremental@@UEBAXAEAVPxRenderOutput@physx@@I@Z 000000018017fe20 f i GuSecondaryPruner.obj
 0001:0017ee30       ??0AABBPruner@Gu@physx@@QEAA@_N_KW4CompanionPrunerType@12@W4BVHBuildStrategy@12@I@Z 000000018017fe30 f   GuAABBPruner.obj
 0001:0017ef60       ??1AABBPruner@Gu@physx@@UEAA@XZ 000000018017ff60 f   GuAABBPruner.obj
 0001:0017f0b0       ??_EAABBPruner@Gu@physx@@UEAAPEAXI@Z 00000001801800b0 f i GuAABBPruner.obj
 0001:0017f0b0       ??_GAABBPruner@Gu@physx@@UEAAPEAXI@Z 00000001801800b0 f i GuAABBPruner.obj
 0001:0017f120       ?addObjects@AABBPruner@Gu@physx@@UEAA_NPEAIPEBVPxBounds3@3@PEBUPrunerPayload@23@PEBV?$PxTransformT@M@3@I_N@Z 0000000180180120 f   GuAABBPruner.obj
 0001:0017f280       ?buildStep@AABBPruner@Gu@physx@@UEAA_N_N@Z 0000000180180280 f   GuAABBPruner.obj
 0001:0017f4c0       ?commit@AABBPruner@Gu@physx@@UEAAXXZ 00000001801804c0 f   GuAABBPruner.obj
 0001:0017f840       ?getGlobalBounds@AABBPruner@Gu@physx@@UEBAXAEAVPxBounds3@3@@Z 0000000180180840 f   GuAABBPruner.obj
 0001:0017f970       ?getPayloadData@AABBPruner@Gu@physx@@UEBAAEBUPrunerPayload@23@IPEAUPrunerPayloadData@23@@Z 0000000180180970 f i GuAABBPruner.obj
 0001:0017f9d0       ?growAndPushBack@?$PxArray@UNewTreeFixup@AABBPruner@Gu@physx@@V?$PxReflectionAllocator@UNewTreeFixup@AABBPruner@Gu@physx@@@4@@physx@@IEAAAEAUNewTreeFixup@AABBPruner@Gu@2@AEBU3452@@Z 00000001801809d0 f i GuAABBPruner.obj
 0001:0017faf0       ?isDynamic@AABBPruner@Gu@physx@@UEBA_NXZ 0000000180180af0 f i GuAABBPruner.obj
 0001:0017fb00       ?merge@AABBPruner@Gu@physx@@UEAAXPEBX@Z 0000000180180b00 f   GuAABBPruner.obj
 0001:0017fb80       ?overlap@AABBPruner@Gu@physx@@UEBA_NAEBVShapeData@23@AEAUPrunerOverlapCallback@23@@Z 0000000180180b80 f   GuAABBPruner.obj
 0001:00180160       ?preallocate@AABBPruner@Gu@physx@@UEAAXI@Z 0000000180181160 f i GuAABBPruner.obj
 0001:00180170       ?prepareBuild@AABBPruner@Gu@physx@@UEAA_NXZ 0000000180181170 f   GuAABBPruner.obj
 0001:00180300       ?purge@AABBPruner@Gu@physx@@UEAAXXZ 0000000180181300 f   GuAABBPruner.obj
 0001:00180320       ?raycast@AABBPruner@Gu@physx@@UEBA_NAEBV?$PxVec3T@M@3@0AEAMAEAUPrunerRaycastCallback@23@@Z 0000000180181320 f   GuAABBPruner.obj
 0001:00180410       ?release@AABBPruner@Gu@physx@@QEAAXXZ 0000000180181410 f   GuAABBPruner.obj
 0001:00180540       ?removeObjects@AABBPruner@Gu@physx@@UEAAXPEBIIPEAUPrunerPayloadRemovalCallback@23@@Z 0000000180181540 f   GuAABBPruner.obj
 0001:00180730       ?setRebuildRateHint@AABBPruner@Gu@physx@@UEAAXI@Z 0000000180181730 f   GuAABBPruner.obj
 0001:00180750       ?setTransform@AABBPruner@Gu@physx@@UEAA_NIAEBV?$PxTransformT@M@3@@Z 0000000180181750 f i GuAABBPruner.obj
 0001:001807b0       ?shiftOrigin@AABBPruner@Gu@physx@@UEAAXAEBV?$PxVec3T@M@3@@Z 00000001801817b0 f   GuAABBPruner.obj
 0001:00180820       ?sweep@AABBPruner@Gu@physx@@UEBA_NAEBVShapeData@23@AEBV?$PxVec3T@M@3@AEAMAEAUPrunerRaycastCallback@23@@Z 0000000180181820 f   GuAABBPruner.obj
 0001:001809b0       ?updateObjects@AABBPruner@Gu@physx@@UEAAXPEBIIM0PEBVPxBounds3@3@PEBUPxTransformPadded@3@@Z 00000001801819b0 f   GuAABBPruner.obj
 0001:00180b60       ?visualize@AABBPruner@Gu@physx@@UEBAXAEAVPxRenderOutput@3@II@Z 0000000180181b60 f   GuAABBPruner.obj
 0001:00180c10       ??0ActorShapeMap@Gu@physx@@QEAA@XZ 0000000180181c10 f   GuActorShapeMap.obj
 0001:00180c70       ??1ActorShapeMap@Gu@physx@@QEAA@XZ 0000000180181c70 f   GuActorShapeMap.obj
 0001:00180cd0       ?add@ActorShapeMap@Gu@physx@@QEAA_NIPEBX0_K@Z 0000000180181cd0 f   GuActorShapeMap.obj
 0001:00180e60       ?create@?$PxHashBase@V?$PxPair@$$CBUActorShape@ActorShapeMap@Gu@physx@@_K@physx@@UActorShape@ActorShapeMap@Gu@2@U?$PxHash@UActorShape@ActorShapeMap@Gu@physx@@@2@UGetKey@?$PxHashMapBase@UActorShape@ActorShapeMap@Gu@physx@@_KU?$PxHash@UActorShape@ActorShapeMap@Gu@physx@@@4@VPxAllocator@4@@2@VPxAllocator@2@$00@physx@@QEAAPEAV?$PxPair@$$CBUActorShape@ActorShapeMap@Gu@physx@@_K@2@AEBUActorShape@ActorShapeMap@Gu@2@AEA_N@Z 0000000180181e60 f i GuActorShapeMap.obj
 0001:00181050       ?erase@?$PxHashBase@V?$PxPair@$$CBUActorShape@ActorShapeMap@Gu@physx@@_K@physx@@UActorShape@ActorShapeMap@Gu@2@U?$PxHash@UActorShape@ActorShapeMap@Gu@physx@@@2@UGetKey@?$PxHashMapBase@UActorShape@ActorShapeMap@Gu@physx@@_KU?$PxHash@UActorShape@ActorShapeMap@Gu@physx@@@4@VPxAllocator@4@@2@VPxAllocator@2@$00@physx@@QEAA_NAEBUActorShape@ActorShapeMap@Gu@2@AEAV?$PxPair@$$CBUActorShape@ActorShapeMap@Gu@physx@@_K@2@@Z 0000000180182050 f i GuActorShapeMap.obj
 0001:00181260       ?find@ActorShapeMap@Gu@physx@@QEBA_KIPEBX0@Z 0000000180182260 f   GuActorShapeMap.obj
 0001:00181350       ?remove@ActorShapeMap@Gu@physx@@QEAA_NIPEBX0PEA_K@Z 0000000180182350 f   GuActorShapeMap.obj
 0001:001813e0       ?reserveInternal@?$PxHashBase@V?$PxPair@$$CBUActorShape@ActorShapeMap@Gu@physx@@_K@physx@@UActorShape@ActorShapeMap@Gu@2@U?$PxHash@UActorShape@ActorShapeMap@Gu@physx@@@2@UGetKey@?$PxHashMapBase@UActorShape@ActorShapeMap@Gu@physx@@_KU?$PxHash@UActorShape@ActorShapeMap@Gu@physx@@@4@VPxAllocator@4@@2@VPxAllocator@2@$00@physx@@AEAAXI@Z 00000001801823e0 f i GuActorShapeMap.obj
 0001:00181600       ??0QuerySystem@Gu@physx@@QEAA@_KMAEBVAdapter@12@_N@Z 0000000180182600 f   GuQuerySystem.obj
 0001:001816e0       ??1QuerySystem@Gu@physx@@QEAA@XZ 00000001801826e0 f   GuQuerySystem.obj
 0001:00181920       ??_GPrunerExt@QuerySystem@Gu@physx@@QEAAPEAXI@Z 0000000180182920 f i GuQuerySystem.obj
 0001:00181a20       ?addPruner@QuerySystem@Gu@physx@@QEAAIPEAVPruner@23@I@Z 0000000180182a20 f   GuQuerySystem.obj
 0001:00181b50       ?addPrunerShape@QuerySystem@Gu@physx@@QEAA_KAEBUPrunerPayload@23@I_NAEBV?$PxTransformT@M@3@PEBVPxBounds3@3@@Z 0000000180182b50 f   GuQuerySystem.obj
 0001:00181c90       ?addToDirtyList@PrunerExt@QuerySystem@Gu@physx@@QEAAXIIAEBV?$PxTransformT@M@4@PEBVPxBounds3@4@@Z 0000000180182c90 f   GuQuerySystem.obj
 0001:00181ed0       ?commitUpdates@QuerySystem@Gu@physx@@QEAAXXZ 0000000180182ed0 f   GuQuerySystem.obj
 0001:00181f80       ?createTreeOfPruners@QuerySystem@Gu@physx@@QEAAXXZ 0000000180182f80 f   GuQuerySystem.obj
 0001:001820f0       ?flushMemory@QuerySystem@Gu@physx@@QEAAXXZ 00000001801830f0 f   GuQuerySystem.obj
 0001:00182180       ?getPayloadData@QuerySystem@Gu@physx@@QEBAAEBUPrunerPayload@23@_KPEAUPrunerPayloadData@23@@Z 0000000180183180 f   GuQuerySystem.obj
 0001:001821a0       ?growAndPushBack@?$PxArray@PEAUPrunerExt@QuerySystem@Gu@physx@@V?$PxReflectionAllocator@PEAUPrunerExt@QuerySystem@Gu@physx@@@4@@physx@@IEAAAEAPEAUPrunerExt@QuerySystem@Gu@2@AEBQEAU3452@@Z 00000001801831a0 f i GuQuerySystem.obj
 0001:001822c0       ?overlap@QuerySystem@Gu@physx@@QEBAXAEBVShapeData@23@AEAUPrunerOverlapCallback@23@PEBVPrunerFilter@23@@Z 00000001801832c0 f   GuQuerySystem.obj
 0001:001823c0       ?processDirtyLists@QuerySystem@Gu@physx@@AEAAXXZ 00000001801833c0 f   GuQuerySystem.obj
 0001:001826a0       ?raycast@QuerySystem@Gu@physx@@QEBAXAEBV?$PxVec3T@M@3@0AEAMAEAUPrunerRaycastCallback@23@PEBVPrunerFilter@23@@Z 00000001801836a0 f   GuQuerySystem.obj
 0001:001827e0       ?recreate@?$PxArray@UData@PrunerExt@QuerySystem@Gu@physx@@V?$PxReflectionAllocator@UData@PrunerExt@QuerySystem@Gu@physx@@@5@@physx@@IEAAXI@Z 00000001801837e0 f i GuQuerySystem.obj
 0001:00182af0       ?removePruner@QuerySystem@Gu@physx@@QEAAXI@Z 0000000180183af0 f   GuQuerySystem.obj
 0001:00182bd0       ?removePrunerShape@QuerySystem@Gu@physx@@QEAAX_KPEAUPrunerPayloadRemovalCallback@23@@Z 0000000180183bd0 f   GuQuerySystem.obj
 0001:00182df0       ?sweep@QuerySystem@Gu@physx@@QEBAXAEBVShapeData@23@AEBV?$PxVec3T@M@3@AEAMAEAUPrunerRaycastCallback@23@PEBVPrunerFilter@23@@Z 0000000180183df0 f   GuQuerySystem.obj
 0001:00182f20       ?sync@QuerySystem@Gu@physx@@QEAAXIPEBI0PEBVPxBounds3@3@PEBUPxTransformPadded@3@I@Z 0000000180183f20 f   GuQuerySystem.obj
 0001:00182fd0       ?update@QuerySystem@Gu@physx@@QEAAX_N0@Z 0000000180183fd0 f   GuQuerySystem.obj
 0001:001830a0       ?updatePrunerShape@QuerySystem@Gu@physx@@QEAAX_K_NAEBV?$PxTransformT@M@3@PEBVPxBounds3@3@@Z 00000001801840a0 f   GuQuerySystem.obj
 0001:00183290       createAABBPruner           0000000180184290 f   GuFactory.obj
 0001:00183350       createBucketPruner         0000000180184350 f   GuFactory.obj
 0001:001833e0       createIncrementalPruner    00000001801843e0 f   GuFactory.obj
 0001:00183470       ??$PxSmallSort@I$$CBUSortBoundsPredicate@physx@@@physx@@YAXPEAIHHAEBUSortBoundsPredicate@0@@Z 0000000180184470 f i GuRTreeCooking.obj
 0001:00183740       ??$PxSort@IU?$PxLess@I@physx@@V?$PxReflectionAllocator@I@2@@physx@@YAXPEAIIAEBU?$PxLess@I@0@AEBV?$PxReflectionAllocator@I@0@I@Z 0000000180184740 f i GuRTreeCooking.obj
 0001:00183ba0       ??$PxSort@IUSortBoundsPredicate@physx@@V?$PxReflectionAllocator@I@2@@physx@@YAXPEAIIAEBUSortBoundsPredicate@0@AEBV?$PxReflectionAllocator@I@0@I@Z 0000000180184ba0 f i GuRTreeCooking.obj
 0001:001840a0       ??$quickSelectFirstK@UBoundsLTE@physx@@@quickSelect@physx@@YAXPEIAIIIIAEBUBoundsLTE@1@@Z 00000001801850a0 f i GuRTreeCooking.obj
 0001:00184280       ?allocate@?$PxArray@UInterval@physx@@V?$PxInlineAllocator@$0CAAA@V?$PxReflectionAllocator@UInterval@physx@@@physx@@@2@@physx@@IEAAPEAUInterval@2@I@Z 0000000180185280 f i GuRTreeCooking.obj
 0001:00184340       ?allocate@?$PxArray@UPxBounds3V@physx@@V?$PxReflectionAllocator@UPxBounds3V@physx@@@2@@physx@@IEAAPEAUPxBounds3V@2@I@Z 0000000180185340 f i GuRTreeCooking.obj
 0001:001843e0       ?allocate@?$PxArray@URTreeNodeNQ@physx@@V?$PxReflectionAllocator@URTreeNodeNQ@physx@@@2@@physx@@IEAAPEAURTreeNodeNQ@2@I@Z 00000001801853e0 f i GuRTreeCooking.obj
 0001:00184480       ?allocate@?$PxArray@URTreeNodeQ@Gu@physx@@V?$PxReflectionAllocator@URTreeNodeQ@Gu@physx@@@3@@physx@@IEAAPEAURTreeNodeQ@Gu@2@I@Z 0000000180185480 f i GuRTreeCooking.obj
 0001:00185170       ?buildFromTriangles@RTreeCooker@physx@@SAXAEAURTree@Gu@2@PEBV?$PxVec3T@M@2@IPEBGPEBIIAEAV?$PxArray@IV?$PxReflectionAllocator@I@physx@@@2@PEAURemapCallback@12@MW4Enum@PxMeshCookingHint@2@@Z 0000000180186170 f   GuRTreeCooking.obj
 0001:00185410       ?copy@?$PxArray@URTreeNodeNQ@physx@@V?$PxReflectionAllocator@URTreeNodeNQ@physx@@@2@@physx@@KAXPEAURTreeNodeNQ@2@0PEBU32@@Z 0000000180186410 f i GuRTreeCooking.obj
 0001:001855d0       ?growAndPushBack@?$PxArray@UInterval@physx@@V?$PxInlineAllocator@$0CAAA@V?$PxReflectionAllocator@UInterval@physx@@@physx@@@2@@physx@@IEAAAEAUInterval@2@AEBU32@@Z 00000001801865d0 f i GuRTreeCooking.obj
 0001:001856b0       ?growAndPushBack@?$PxArray@UPxBounds3V@physx@@V?$PxReflectionAllocator@UPxBounds3V@physx@@@2@@physx@@IEAAAEAUPxBounds3V@2@AEBU32@@Z 00000001801866b0 f i GuRTreeCooking.obj
 0001:00185780       ?growAndPushBack@?$PxArray@URTreeNodeNQ@physx@@V?$PxReflectionAllocator@URTreeNodeNQ@physx@@@2@@physx@@IEAAAEAURTreeNodeNQ@2@AEBU32@@Z 0000000180186780 f i GuRTreeCooking.obj
 0001:00185860       ?growAndPushBack@?$PxArray@URTreeNodeQ@Gu@physx@@V?$PxReflectionAllocator@URTreeNodeQ@Gu@physx@@@3@@physx@@IEAAAEAURTreeNodeQ@Gu@2@AEBU342@@Z 0000000180186860 f i GuRTreeCooking.obj
 0001:00185940       ?recreate@?$PxArray@UPxBounds3V@physx@@V?$PxReflectionAllocator@UPxBounds3V@physx@@@2@@physx@@IEAAXI@Z 0000000180186940 f i GuRTreeCooking.obj
 0001:001859f0       ?recreate@?$PxArray@URTreeNodeNQ@physx@@V?$PxReflectionAllocator@URTreeNodeNQ@physx@@@2@@physx@@IEAAXI@Z 00000001801869f0 f i GuRTreeCooking.obj
 0001:00185a80       ?recreate@?$PxArray@URTreeNodeQ@Gu@physx@@V?$PxReflectionAllocator@URTreeNodeQ@Gu@physx@@@3@@physx@@IEAAXI@Z 0000000180186a80 f i GuRTreeCooking.obj
 0001:00185b40       ?resizeUninitialized@?$PxArray@URTreeNodeNQ@physx@@V?$PxReflectionAllocator@URTreeNodeNQ@physx@@@2@@physx@@QEAAXI@Z 0000000180186b40 f i GuRTreeCooking.obj
 0001:00185b80       ?sort4@SubSortQuick@physx@@QEAAXPEIAIIAEAV?$PxArray@URTreeNodeNQ@physx@@V?$PxReflectionAllocator@URTreeNodeNQ@physx@@@2@@2@AEAIAEAUPxBounds3V@2@I@Z 0000000180186b80 f i GuRTreeCooking.obj
 0001:00185f10       ?sort4@SubSortSAH@physx@@QEAAXPEAIIAEAV?$PxArray@URTreeNodeNQ@physx@@V?$PxReflectionAllocator@URTreeNodeNQ@physx@@@2@@2@AEAIIPEAURTreeNodeNQ@2@@Z 0000000180186f10 f i GuRTreeCooking.obj
 0001:00186760       ?split@SubSortSAH@physx@@QEAAIPEAII@Z 0000000180187760 f i GuRTreeCooking.obj
 0001:00187160       cookBVH                    0000000180188160 f   GuCookingBVH.obj
 0001:001872c0       createBVH                  00000001801882c0 f   GuCookingBVH.obj
 0001:00187420       cookHeightField            0000000180188420 f   GuCookingHF.obj
 0001:001874e0       createHeightField          00000001801884e0 f   GuCookingHF.obj
 0001:00187ac0       ?isFinite@?$PxVec3T@M@physx@@QEBA_NXZ 0000000180188ac0 f i GuCookingConvexMesh.obj
 0001:00187b20       computeHullPolygons        0000000180188b20 f   GuCookingConvexMesh.obj
 0001:00187d00       cookConvexMesh             0000000180188d00 f   GuCookingConvexMesh.obj
 0001:00187e70       createConvexMesh           0000000180188e70 f   GuCookingConvexMesh.obj
 0001:00188010       validateConvexMesh         0000000180189010 f   GuCookingConvexMesh.obj
 0001:00188130       ??1BV4TriangleMeshBuilder@physx@@UEAA@XZ 0000000180189130 f   GuCookingTriangleMesh.obj
 0001:001881c0       ??1RTreeTriangleMeshBuilder@physx@@UEAA@XZ 00000001801891c0 f   GuCookingTriangleMesh.obj
 0001:00188230       ??_GBV4TriangleMeshBuilder@physx@@UEAAPEAXI@Z 0000000180189230 f i GuCookingTriangleMesh.obj
 0001:00188230       ??_EBV4TriangleMeshBuilder@physx@@UEAAPEAXI@Z 0000000180189230 f i GuCookingTriangleMesh.obj
 0001:00188270       ??_ERTreeTriangleMeshBuilder@physx@@UEAAPEAXI@Z 0000000180189270 f i GuCookingTriangleMesh.obj
 0001:00188270       ??_GRTreeTriangleMeshBuilder@physx@@UEAAPEAXI@Z 0000000180189270 f i GuCookingTriangleMesh.obj
 0001:001882b0       ??_GTriangleMeshBuilder@physx@@UEAAPEAXI@Z 00000001801892b0 f i GuCookingTriangleMesh.obj
 0001:001882b0       ??_ETriangleMeshBuilder@physx@@UEAAPEAXI@Z 00000001801892b0 f i GuCookingTriangleMesh.obj
 0001:00188c50       ?buildInertiaTensor@TriangleMeshBuilder@physx@@IEAAXXZ 0000000180189c50 f   GuCookingTriangleMesh.obj
 0001:00188da0       ?buildInertiaTensorFromSDF@TriangleMeshBuilder@physx@@IEAAXXZ 0000000180189da0 f   GuCookingTriangleMesh.obj
 0001:00188fc0       ?cleanMesh@TriangleMeshBuilder@physx@@QEAA_N_NPEAW4Enum@PxTriangleMeshCookingResult@2@@Z 0000000180189fc0 f   GuCookingTriangleMesh.obj
 0001:00189450       ?createGRBMidPhaseAndData@TriangleMeshBuilder@physx@@QEAAXI@Z 000000018018a450 f   GuCookingTriangleMesh.obj
 0001:00189600       ?createMidPhaseStructure@BV32TriangleMeshBuilder@physx@@SAXAEBUPxCookingParams@2@AEAVTriangleMeshData@Gu@2@AEAVBV32Tree@52@@Z 000000018018a600 f   GuCookingTriangleMesh.obj
 0001:00189830       ?createMidPhaseStructure@BV4TriangleMeshBuilder@physx@@UEAAXXZ 000000018018a830 f   GuCookingTriangleMesh.obj
 0001:00189af0       ?createMidPhaseStructure@RTreeTriangleMeshBuilder@physx@@UEAAXXZ 000000018018aaf0 f   GuCookingTriangleMesh.obj
 0001:00189be0       ?createSharedEdgeData@TriangleMeshBuilder@physx@@QEAAX_N0@Z 000000018018abe0 f   GuCookingTriangleMesh.obj
 0001:0018a280       ?createVertMapping@TriangleMeshBuilder@physx@@QEAAXXZ 000000018018b280 f   GuCookingTriangleMesh.obj
 0001:0018a600       ?importMesh@TriangleMeshBuilder@physx@@IEAA_NAEBVPxTriangleMeshDesc@2@AEBUPxCookingParams@2@PEAW4Enum@PxTriangleMeshCookingResult@2@_N@Z 000000018018b600 f   GuCookingTriangleMesh.obj
 0001:0018aad0       ?isValid@PxTriangleMeshDesc@physx@@QEBA_NXZ 000000018018bad0 f i GuCookingTriangleMesh.obj
 0001:0018abb0       ?loadFromDescInternal@TriangleMeshBuilder@physx@@IEAA_NAEAVPxTriangleMeshDesc@2@PEAW4Enum@PxTriangleMeshCookingResult@2@_N@Z 000000018018bbb0 f   GuCookingTriangleMesh.obj
 0001:0018add0       ?onMeshIndexFormatChange@BV4TriangleMeshBuilder@physx@@UEAAXXZ 000000018018bdd0 f   GuCookingTriangleMesh.obj
 0001:0018ae10       ?remap@RTreeCookerRemap@@UEAAXPEAIII@Z 000000018018be10 f i GuCookingTriangleMesh.obj
 0001:0018ae30       ?remapTopology@TriangleMeshBuilder@physx@@QEAAXPEBI@Z 000000018018be30 f   GuCookingTriangleMesh.obj
 0001:0018b0d0       ?save@TriangleMeshBuilder@physx@@QEBA_NAEAVPxOutputStream@2@_NAEBUPxCookingParams@2@@Z 000000018018c0d0 f   GuCookingTriangleMesh.obj
 0001:0018b890       ?saveMidPhaseStructure@BV32TriangleMeshBuilder@physx@@SAXPEAVBV32Tree@Gu@2@AEAVPxOutputStream@2@_N@Z 000000018018c890 f   GuCookingTriangleMesh.obj
 0001:0018ba90       ?saveMidPhaseStructure@BV4TriangleMeshBuilder@physx@@UEBAXAEAVPxOutputStream@2@_N@Z 000000018018ca90 f   GuCookingTriangleMesh.obj
 0001:0018bc40       ?saveMidPhaseStructure@RTreeTriangleMeshBuilder@physx@@UEBAXAEAVPxOutputStream@2@_N@Z 000000018018cc40 f   GuCookingTriangleMesh.obj
 0001:0018be80       cookTriangleMesh           000000018018ce80 f   GuCookingTriangleMesh.obj
 0001:0018c190       createTriangleMesh         000000018018d190 f   GuCookingTriangleMesh.obj
 0001:0018c3a0       validateTriangleMesh       000000018018d3a0 f   GuCookingTriangleMesh.obj
 0001:0018c650       ??0SoftBodyCollisionData@Gu@physx@@QEAA@XZ 000000018018d650 f i GuCookingTetrahedronMesh.obj
 0001:0018c6b0       ??_ECollisionTetrahedronMeshData@Gu@physx@@UEAAPEAXI@Z 000000018018d6b0 f i GuCookingTetrahedronMesh.obj
 0001:0018c6b0       ??_GCollisionTetrahedronMeshData@Gu@physx@@UEAAPEAXI@Z 000000018018d6b0 f i GuCookingTetrahedronMesh.obj
 0001:0018c780       ??_GPxCollisionTetrahedronMeshData@physx@@UEAAPEAXI@Z 000000018018d780 f i GuCookingTetrahedronMesh.obj
 0001:0018c780       ??_EPxCollisionTetrahedronMeshData@physx@@UEAAPEAXI@Z 000000018018d780 f i GuCookingTetrahedronMesh.obj
 0001:0018c7d0       ??_EPxSimulationTetrahedronMeshData@physx@@UEAAPEAXI@Z 000000018018d7d0 f i GuCookingTetrahedronMesh.obj
 0001:0018c7d0       ??_GPxSimulationTetrahedronMeshData@physx@@UEAAPEAXI@Z 000000018018d7d0 f i GuCookingTetrahedronMesh.obj
 0001:0018c820       ??_ESimulationTetrahedronMeshData@Gu@physx@@UEAAPEAXI@Z 000000018018d820 f i GuCookingTetrahedronMesh.obj
 0001:0018c820       ??_GSimulationTetrahedronMeshData@Gu@physx@@UEAAPEAXI@Z 000000018018d820 f i GuCookingTetrahedronMesh.obj
 0001:0018c8f0       ?closestPtPointTetrahedron@Gu@physx@@YA?AV?$PxVec3T@M@2@AEBV32@0000@Z 000000018018d8f0 f i GuCookingTetrahedronMesh.obj
 0001:0018da20       ?combineGridModelPartitions@@YAXAEBVTetrahedronMeshData@Gu@physx@@AEAVSoftBodySimulationData@23@PEAPEAI@Z 000000018018ea20 f   GuCookingTetrahedronMesh.obj
 0001:0018e230       ?combineGridModelPartitionsHexMesh@@YAXAEBVTetrahedronMeshData@Gu@physx@@AEAVSoftBodySimulationData@23@PEAPEAI@Z 000000018018f230 f   GuCookingTetrahedronMesh.obj
 0001:0018eba0       ?computeBarycentric@physx@@YAXAEBV?$PxVec3T@M@1@0000AEAV?$PxVec4T@M@1@@Z 000000018018fba0 f i GuCookingTetrahedronMesh.obj
 0001:0018ee50       ?computeCollisionData@TetrahedronMeshBuilder@physx@@SA_NAEBVPxTetrahedronMeshDesc@2@AEAVTetrahedronMeshData@Gu@2@AEAVSoftBodyCollisionData@52@AEBUPxCookingParams@2@_N@Z 000000018018fe50 f   GuCookingTetrahedronMesh.obj
 0001:0018f090       ?computeGridModelTetrahedronPartitions@@YAPEAIAEBVTetrahedronMeshData@Gu@physx@@AEAVSoftBodySimulationData@23@@Z 0000000180190090 f   GuCookingTetrahedronMesh.obj
 0001:0018f520       ?computeModelsMapping@TetrahedronMeshBuilder@physx@@SAXAEAVTetrahedronMeshData@Gu@2@AEBV342@AEBVSoftBodyCollisionData@42@AEAVCollisionMeshMappingData@42@_NPEBUPxBoundedData@2@@Z 0000000180190520 f   GuCookingTetrahedronMesh.obj
 0001:00190100       ?computeRestPoseAndPointMass@@YAXPEAU?$TetrahedronT@I@Gu@physx@@IPEBV?$PxVec3T@M@3@PEAMPEAV?$PxMat33T@M@3@@Z 0000000180191100 f   GuCookingTetrahedronMesh.obj
 0001:00190530       ?computeSimData@TetrahedronMeshBuilder@physx@@SAXAEBVPxTetrahedronMeshDesc@2@AEAVTetrahedronMeshData@Gu@2@AEAVSoftBodySimulationData@52@AEBUPxCookingParams@2@@Z 0000000180191530 f   GuCookingTetrahedronMesh.obj
 0001:00190c00       ?computeTetData@TetrahedronMeshBuilder@physx@@SAXAEBVPxTetrahedronMeshDesc@2@AEAVTetrahedronMeshData@Gu@2@@Z 0000000180191c00 f   GuCookingTetrahedronMesh.obj
 0001:00190ce0       ?computeTetrahedronPartition@@YAIPEBU?$TetrahedronT@I@Gu@physx@@IPEAII@Z 0000000180191ce0 f   GuCookingTetrahedronMesh.obj
 0001:00190de0       ?createCollisionModelMapping@TetrahedronMeshBuilder@physx@@SAXAEBVTetrahedronMeshData@Gu@2@AEBVSoftBodyCollisionData@42@AEAVCollisionMeshMappingData@42@@Z 0000000180191de0 f   GuCookingTetrahedronMesh.obj
 0001:001913e0       ?createGRBMidPhaseAndData@TetrahedronMeshBuilder@physx@@SAXIAEAVTetrahedronMeshData@Gu@2@AEAVSoftBodyCollisionData@42@AEBUPxCookingParams@2@@Z 00000001801923e0 f   GuCookingTetrahedronMesh.obj
 0001:00192150       ?createMidPhaseStructure@BV32TetrahedronMeshBuilder@physx@@SAXAEBUPxCookingParams@2@AEAVTetrahedronMeshData@Gu@2@AEAVBV32Tree@52@AEAVSoftBodyCollisionData@52@@Z 0000000180193150 f   GuCookingTetrahedronMesh.obj
 0001:00192420       ?createMidPhaseStructure@TetrahedronMeshBuilder@physx@@SAXAEAVTetrahedronMeshData@Gu@2@AEAVSoftBodyCollisionData@42@AEBUPxCookingParams@2@@Z 0000000180193420 f   GuCookingTetrahedronMesh.obj
 0001:001930f0       ?getData@SimulationTetrahedronMeshData@Gu@physx@@UEAAPEAVPxSoftBodySimulationData@3@XZ 00000001801940f0 f i GuCookingTetrahedronMesh.obj
 0001:001930f0       ?getData@CollisionTetrahedronMeshData@Gu@physx@@UEBAPEBVPxSoftBodyCollisionData@3@XZ 00000001801940f0 f i GuCookingTetrahedronMesh.obj
 0001:001930f0       ?getData@CollisionTetrahedronMeshData@Gu@physx@@UEAAPEAVPxSoftBodyCollisionData@3@XZ 00000001801940f0 f i GuCookingTetrahedronMesh.obj
 0001:00193110       ?importMesh@TetrahedronMeshBuilder@physx@@SA_NAEBVPxTetrahedronMeshDesc@2@AEBUPxCookingParams@2@AEAVTetrahedronMeshData@Gu@2@AEAVSoftBodyCollisionData@62@_N@Z 0000000180194110 f   GuCookingTetrahedronMesh.obj
 0001:00193400       ?isValid@PxTetrahedronMeshDesc@physx@@QEBA_NXZ 0000000180194400 f i GuCookingTetrahedronMesh.obj
 0001:00193470       ?loadFromDesc@TetrahedronMeshBuilder@physx@@SA_NAEBVPxTetrahedronMeshDesc@2@0VPxSoftBodySimulationDataDesc@2@AEAVTetrahedronMeshData@Gu@2@AEAVSoftBodySimulationData@62@2AEAVSoftBodyCollisionData@62@AEAVCollisionMeshMappingData@62@AEBUPxCookingParams@2@_N@Z 0000000180194470 f   GuCookingTetrahedronMesh.obj
 0001:001935e0       ?release@CollisionTetrahedronMeshData@Gu@physx@@UEAAXXZ 00000001801945e0 f i GuCookingTetrahedronMesh.obj
 0001:00193600       ?reserveInternal@?$PxHashBase@V?$PxPair@$$CBVSortedTriangleInds@@I@physx@@VSortedTriangleInds@@USortedTriangleIndsHash@@UGetKey@?$PxHashMapBase@VSortedTriangleInds@@IUSortedTriangleIndsHash@@VPxAllocator@physx@@@2@VPxAllocator@2@$00@physx@@AEAAXI@Z 0000000180194600 f i GuCookingTetrahedronMesh.obj
 0001:00193850       ?saveSoftBodyMeshData@TetrahedronMeshBuilder@physx@@SA_NAEAVPxOutputStream@2@_NAEBUPxCookingParams@2@AEBVTetrahedronMeshData@Gu@2@AEBVSoftBodySimulationData@62@3AEBVSoftBodyCollisionData@62@AEBVCollisionMeshMappingData@62@@Z 0000000180194850 f   GuCookingTetrahedronMesh.obj
 0001:00193f60       ?saveTetrahedronMeshData@TetrahedronMeshBuilder@physx@@SA_NAEAVPxOutputStream@2@_NAEBUPxCookingParams@2@AEBVTetrahedronMeshData@Gu@2@@Z 0000000180194f60 f   GuCookingTetrahedronMesh.obj
 0001:00194110       ?smoothMassRatiosWhilePreservingTotalMass@@YAXPEAMIPEBIHMM@Z 0000000180195110 f   GuCookingTetrahedronMesh.obj
 0001:001945a0       ?support@?$LocalConvex@VTetrahedronV@Gu@physx@@@Gu@physx@@UEBA?AT__m128@@AEBT4@@Z 00000001801955a0 f i GuCookingTetrahedronMesh.obj
 0001:00194660       ?support@?$LocalConvex@VTetrahedronV@Gu@physx@@@Gu@physx@@UEBA?AT__m128@@AEBT4@AEAH@Z 0000000180195660 f i GuCookingTetrahedronMesh.obj
 0001:00194810       assembleSoftBodyMesh       0000000180195810 f   GuCookingTetrahedronMesh.obj
 0001:00194870       assembleSoftBodyMesh_Sim   0000000180195870 f   GuCookingTetrahedronMesh.obj
 0001:00194920       computeCollisionData       0000000180195920 f   GuCookingTetrahedronMesh.obj
 0001:00194b30       computeModelsMapping       0000000180195b30 f   GuCookingTetrahedronMesh.obj
 0001:00194c40       computeSimulationData      0000000180195c40 f   GuCookingTetrahedronMesh.obj
 0001:00194e40       cookSoftBodyMesh           0000000180195e40 f   GuCookingTetrahedronMesh.obj
 0001:00195420       cookTetrahedronMesh        0000000180196420 f   GuCookingTetrahedronMesh.obj
 0001:00195510       createSoftBodyMesh         0000000180196510 f   GuCookingTetrahedronMesh.obj
 0001:00195b70       createTetrahedronMesh      0000000180196b70 f   GuCookingTetrahedronMesh.obj
 0001:00197950       ?computeVolumeIntegrals@physx@@YA_NAEBVPxSimpleTriangleMesh@1@MAEAUPxIntegrals@1@@Z 0000000180198950 f   GuCookingVolumeIntegration.obj
 0001:00197990       ?computeVolumeIntegralsEberly@physx@@YA_NAEBVPxConvexMeshDesc@1@MAEAUPxIntegrals@1@AEBV?$PxVec3T@M@1@_N@Z 0000000180198990 f   GuCookingVolumeIntegration.obj
 0001:00197fe0       ??0QuickHull@local@@QEAA@AEBUPxCookingParams@physx@@AEBVPxConvexMeshDesc@3@@Z 0000000180198fe0 f   GuCookingQuickHullConvexHullLib.obj
 0001:00198090       ??0QuickHullConvexHullLib@physx@@QEAA@AEBVPxConvexMeshDesc@1@AEBUPxCookingParams@1@@Z 0000000180199090 f   GuCookingQuickHullConvexHullLib.obj
 0001:00198180       ??1?$MemBlock@UQuickHullHalfEdge@local@@$0A@@local@@QEAA@XZ 0000000180199180 f i GuCookingQuickHullConvexHullLib.obj
 0001:00198180       ??1?$MemBlock@UQuickHullFace@local@@$00@local@@QEAA@XZ 0000000180199180 f i GuCookingQuickHullConvexHullLib.obj
 0001:00198240       ??1QuickHull@local@@QEAA@XZ 0000000180199240 f   GuCookingQuickHullConvexHullLib.obj
 0001:00198390       ??_GConvexHull@physx@@QEAAPEAXI@Z 0000000180199390 f i GuCookingQuickHullConvexHullLib.obj
 0001:00198470       ??_EConvexHullLib@physx@@UEAAPEAXI@Z 0000000180199470 f i GuCookingQuickHullConvexHullLib.obj
 0001:00198470       ??_GConvexHullLib@physx@@UEAAPEAXI@Z 0000000180199470 f i GuCookingQuickHullConvexHullLib.obj
 0001:001984b0       ??_EQuickHullConvexHullLib@physx@@UEAAPEAXI@Z 00000001801994b0 f i GuCookingQuickHullConvexHullLib.obj
 0001:001984b0       ??_GQuickHullConvexHullLib@physx@@UEAAPEAXI@Z 00000001801994b0 f i GuCookingQuickHullConvexHullLib.obj
 0001:001985c0       ?addPointToHull@QuickHull@local@@IEAA_NPEBUQuickHullVertex@2@AEAUQuickHullFace@2@AEA_N@Z 00000001801995c0 f   GuCookingQuickHullConvexHullLib.obj
 0001:00198890       ?addSimplex@QuickHull@local@@IEAAXPEAUQuickHullVertex@2@_N@Z 0000000180199890 f   GuCookingQuickHullConvexHullLib.obj
 0001:00198d60       ?allocate@?$PxArray@PEAUQuickHullFace@local@@V?$PxReflectionAllocator@PEAUQuickHullFace@local@@@physx@@@physx@@IEAAPEAPEAUQuickHullFace@local@@I@Z 0000000180199d60 f i GuCookingQuickHullConvexHullLib.obj
 0001:00198e00       ?allocate@?$PxArray@PEAUQuickHullHalfEdge@local@@V?$PxReflectionAllocator@PEAUQuickHullHalfEdge@local@@@physx@@@physx@@IEAAPEAPEAUQuickHullHalfEdge@local@@I@Z 0000000180199e00 f i GuCookingQuickHullConvexHullLib.obj
 0001:00198ea0       ?allocate@?$PxArray@PEAUQuickHullVertex@local@@V?$PxReflectionAllocator@PEAUQuickHullVertex@local@@@physx@@@physx@@IEAAPEAPEAUQuickHullVertex@local@@I@Z 0000000180199ea0 f i GuCookingQuickHullConvexHullLib.obj
 0001:00198f40       ?allocate@?$PxArray@UExpandPoint@local@@V?$PxReflectionAllocator@UExpandPoint@local@@@physx@@@physx@@IEAAPEAUExpandPoint@local@@I@Z 0000000180199f40 f i GuCookingQuickHullConvexHullLib.obj
 0001:00198fe0       ?allocate@?$PxArray@VPxPlane@physx@@V?$PxReflectionAllocator@VPxPlane@physx@@@2@@physx@@IEAAPEAVPxPlane@2@I@Z 0000000180199fe0 f i GuCookingQuickHullConvexHullLib.obj
 0001:00199080       ?buildHull@QuickHull@local@@QEAA?AW4Enum@QuickHullResult@2@XZ 000000018019a080 f   GuCookingQuickHullConvexHullLib.obj
 0001:001992d0       ?calculateHorizon@QuickHull@local@@IEAAXAEBV?$PxVec3T@M@physx@@PEAUQuickHullHalfEdge@2@AEAUQuickHullFace@2@AEAV?$PxArray@PEAUQuickHullHalfEdge@local@@V?$PxReflectionAllocator@PEAUQuickHullHalfEdge@local@@@physx@@@4@AEAV?$PxArray@PEAUQuickHullFace@local@@V?$PxReflectionAllocator@PEAUQuickHullFace@local@@@physx@@@4@@Z 000000018019a2d0 f   GuCookingQuickHullConvexHullLib.obj
 0001:00199480       ?canMergeFaces@QuickHull@local@@IEAA_NAEBUQuickHullHalfEdge@2@@Z 000000018019a480 f   GuCookingQuickHullConvexHullLib.obj
 0001:00199cb0       ?cleanupForSimplex@QuickHullConvexHullLib@physx@@IEAA_NPEAV?$PxVec3T@M@2@IPEAUQuickHullVertex@local@@1AEAM2@Z 000000018019acb0 f   GuCookingQuickHullConvexHullLib.obj
 0001:0019a8a0       ?computeMinMaxVerts@QuickHull@local@@IEAAXXZ 000000018019b8a0 f   GuCookingQuickHullConvexHullLib.obj
 0001:0019ac70       ?connectHalfEdges@QuickHullFace@local@@AEAAPEAU12@PEAUQuickHullHalfEdge@2@0@Z 000000018019bc70 f   GuCookingQuickHullConvexHullLib.obj
 0001:0019afd0       ?copy@?$PxArray@UExpandPoint@local@@V?$PxReflectionAllocator@UExpandPoint@local@@@physx@@@physx@@KAXPEAUExpandPoint@local@@0PEBU34@@Z 000000018019bfd0 f i GuCookingQuickHullConvexHullLib.obj
 0001:0019b080       ?copy@?$PxArray@VPxPlane@physx@@V?$PxReflectionAllocator@VPxPlane@physx@@@2@@physx@@KAXPEAVPxPlane@2@0PEBV32@@Z 000000018019c080 f i GuCookingQuickHullConvexHullLib.obj
 0001:0019b180       ?createConvexHull@QuickHullConvexHullLib@physx@@UEAA?AW4Enum@PxConvexMeshCookingResult@2@XZ 000000018019c180 f   GuCookingQuickHullConvexHullLib.obj
 0001:0019b570       ?createEdgeList@QuickHullConvexHullLib@physx@@UEAA_NIPEBEPEAPEAEPEAPEAG2@Z 000000018019c570 f   GuCookingQuickHullConvexHullLib.obj
 0001:0019b780       ?createTriangle@QuickHull@local@@IEAAPEAUQuickHullFace@2@AEBUQuickHullVertex@2@00@Z 000000018019c780 f   GuCookingQuickHullConvexHullLib.obj
 0001:0019bb10       ?doAdjacentMerge@QuickHull@local@@IEAA_NAEAUQuickHullFace@2@_NAEA_N@Z 000000018019cb10 f   GuCookingQuickHullConvexHullLib.obj
 0001:0019be50       ?expandHull@QuickHullConvexHullLib@physx@@IEAA?AW4Enum@PxConvexMeshCookingResult@2@XZ 000000018019ce50 f   GuCookingQuickHullConvexHullLib.obj
 0001:0019cb80       ?expandHullOBB@QuickHullConvexHullLib@physx@@IEAA?AW4Enum@PxConvexMeshCookingResult@2@XZ 000000018019db80 f   GuCookingQuickHullConvexHullLib.obj
 0001:0019cfd0       ?fillConvexMeshDesc@QuickHullConvexHullLib@physx@@UEAAXAEAVPxConvexMeshDesc@2@@Z 000000018019dfd0 f   GuCookingQuickHullConvexHullLib.obj
 0001:0019d020       ?fillConvexMeshDescFromCroppedHull@QuickHullConvexHullLib@physx@@IEAAXAEAVPxConvexMeshDesc@2@@Z 000000018019e020 f   GuCookingQuickHullConvexHullLib.obj
 0001:0019d220       ?fillConvexMeshDescFromQuickHull@QuickHullConvexHullLib@physx@@IEAAXAEAVPxConvexMeshDesc@2@@Z 000000018019e220 f   GuCookingQuickHullConvexHullLib.obj
 0001:0019d5b0       ?findSimplex@QuickHull@local@@IEAA_NXZ 000000018019e5b0 f   GuCookingQuickHullConvexHullLib.obj
 0001:0019e260       ?getFreeItem@?$MemBlock@UQuickHullFace@local@@$00@local@@QEAAPEAUQuickHullFace@2@XZ 000000018019f260 f i GuCookingQuickHullConvexHullLib.obj
 0001:0019e390       ?getFreeItem@?$MemBlock@UQuickHullHalfEdge@local@@$0A@@local@@QEAAPEAUQuickHullHalfEdge@2@XZ 000000018019f390 f i GuCookingQuickHullConvexHullLib.obj
 0001:0019e460       ?growAndPushBack@?$PxArray@PEAUQuickHullFace@local@@V?$PxReflectionAllocator@PEAUQuickHullFace@local@@@physx@@@physx@@IEAAAEAPEAUQuickHullFace@local@@AEBQEAU34@@Z 000000018019f460 f i GuCookingQuickHullConvexHullLib.obj
 0001:0019e520       ?growAndPushBack@?$PxArray@PEAUQuickHullHalfEdge@local@@V?$PxReflectionAllocator@PEAUQuickHullHalfEdge@local@@@physx@@@physx@@IEAAAEAPEAUQuickHullHalfEdge@local@@AEBQEAU34@@Z 000000018019f520 f i GuCookingQuickHullConvexHullLib.obj
 0001:0019e5e0       ?growAndPushBack@?$PxArray@PEAUQuickHullVertex@local@@V?$PxReflectionAllocator@PEAUQuickHullVertex@local@@@physx@@@physx@@IEAAAEAPEAUQuickHullVertex@local@@AEBQEAU34@@Z 000000018019f5e0 f i GuCookingQuickHullConvexHullLib.obj
 0001:0019e6a0       ?growAndPushBack@?$PxArray@UExpandPoint@local@@V?$PxReflectionAllocator@UExpandPoint@local@@@physx@@@physx@@IEAAAEAUExpandPoint@local@@AEBU34@@Z 000000018019f6a0 f i GuCookingQuickHullConvexHullLib.obj
 0001:0019e7a0       ?growAndPushBack@?$PxArray@VPxPlane@physx@@V?$PxReflectionAllocator@VPxPlane@physx@@@2@@physx@@IEAAAEAVPxPlane@2@AEBV32@@Z 000000018019f7a0 f i GuCookingQuickHullConvexHullLib.obj
 0001:0019e860       ?init@?$MemBlock@UQuickHullFace@local@@$00@local@@QEAAXI@Z 000000018019f860 f i GuCookingQuickHullConvexHullLib.obj
 0001:0019e960       ?init@?$MemBlock@UQuickHullHalfEdge@local@@$0A@@local@@QEAAXI@Z 000000018019f960 f i GuCookingQuickHullConvexHullLib.obj
 0001:0019e9f0       ?mergeAdjacentFace@QuickHullFace@local@@QEAA_NPEAUQuickHullHalfEdge@2@AEAV?$PxArray@PEAUQuickHullFace@local@@V?$PxReflectionAllocator@PEAUQuickHullFace@local@@@physx@@@physx@@@Z 000000018019f9f0 f   GuCookingQuickHullConvexHullLib.obj
 0001:0019ee40       ?nextPointToAdd@QuickHull@local@@IEAAPEAUQuickHullVertex@2@AEAPEAUQuickHullFace@2@@Z 000000018019fe40 f   GuCookingQuickHullConvexHullLib.obj
 0001:0019efc0       ?parseInputVertices@QuickHull@local@@QEAAXPEBV?$PxVec3T@M@physx@@I@Z 000000018019ffc0 f   GuCookingQuickHullConvexHullLib.obj
 0001:0019f150       ?postMergeHull@QuickHull@local@@IEAAXXZ 00000001801a0150 f   GuCookingQuickHullConvexHullLib.obj
 0001:0019f3a0       ?preallocate@QuickHull@local@@QEAAXI@Z 00000001801a03a0 f   GuCookingQuickHullConvexHullLib.obj
 0001:0019f4e0       ?recreate@?$PxArray@PEAUQuickHullFace@local@@V?$PxReflectionAllocator@PEAUQuickHullFace@local@@@physx@@@physx@@IEAAXI@Z 00000001801a04e0 f i GuCookingQuickHullConvexHullLib.obj
 0001:0019f580       ?recreate@?$PxArray@PEAUQuickHullHalfEdge@local@@V?$PxReflectionAllocator@PEAUQuickHullHalfEdge@local@@@physx@@@physx@@IEAAXI@Z 00000001801a0580 f i GuCookingQuickHullConvexHullLib.obj
 0001:0019f620       ?recreate@?$PxArray@PEAUQuickHullVertex@local@@V?$PxReflectionAllocator@PEAUQuickHullVertex@local@@@physx@@@physx@@IEAAXI@Z 00000001801a0620 f i GuCookingQuickHullConvexHullLib.obj
 0001:0019f6c0       ?recreate@?$PxArray@UExpandPoint@local@@V?$PxReflectionAllocator@UExpandPoint@local@@@physx@@@physx@@IEAAXI@Z 00000001801a06c0 f i GuCookingQuickHullConvexHullLib.obj
 0001:0019f750       ?recreate@?$PxArray@VPxPlane@physx@@V?$PxReflectionAllocator@VPxPlane@physx@@@2@@physx@@IEAAXI@Z 00000001801a0750 f i GuCookingQuickHullConvexHullLib.obj
 0001:0019f7e0       ?resolveUnclaimedPoints@QuickHull@local@@IEAAXAEBV?$PxArray@PEAUQuickHullFace@local@@V?$PxReflectionAllocator@PEAUQuickHullFace@local@@@physx@@@physx@@@Z 00000001801a07e0 f   GuCookingQuickHullConvexHullLib.obj
 0001:0019fa60       ??$copy@V?$PxReflectionAllocator@VPair@@@physx@@@?$PxArray@VPair@@V?$PxReflectionAllocator@VPair@@@physx@@@physx@@IEAAXAEBV01@@Z 00000001801a0a60 f i GuCookingConvexPolygonsBuilder.obj
 0001:0019fae0       ??0ConvexPolygonsBuilder@physx@@QEAA@PEAUConvexHullData@Gu@1@_N@Z 00000001801a0ae0 f   GuCookingConvexPolygonsBuilder.obj
 0001:0019fb00       ??1ConvexPolygonsBuilder@physx@@QEAA@XZ 00000001801a0b00 f   GuCookingConvexPolygonsBuilder.obj
 0001:001a0350       ?allocate@?$PxArray@VPair@@V?$PxReflectionAllocator@VPair@@@physx@@@physx@@IEAAPEAVPair@@I@Z 00000001801a1350 f i GuCookingConvexPolygonsBuilder.obj
 0001:001a0e20       ?computeHullPolygons@ConvexPolygonsBuilder@physx@@QEAA_NAEBIPEBV?$PxVec3T@M@2@0PEBI@Z 00000001801a1e20 f   GuCookingConvexPolygonsBuilder.obj
 0001:001a1e80       ?createPolygonData@ConvexPolygonsBuilder@physx@@AEAA_NXZ 00000001801a2e80 f   GuCookingConvexPolygonsBuilder.obj
 0001:001a2a60       ?createTrianglesFromPolygons@ConvexPolygonsBuilder@physx@@AEAA_NXZ 00000001801a3a60 f   GuCookingConvexPolygonsBuilder.obj
 0001:001a40f0       ?growAndPushBack@?$PxArray@VPair@@V?$PxReflectionAllocator@VPair@@@physx@@@physx@@IEAAAEAVPair@@AEBV3@@Z 00000001801a50f0 f i GuCookingConvexPolygonsBuilder.obj
 0001:001a4270       ??0ConvexMeshBuilder@physx@@QEAA@_N@Z 00000001801a5270 f   GuCookingConvexMeshBuilder.obj
 0001:001a42e0       ??1ConvexMeshBuilder@physx@@QEAA@XZ 00000001801a52e0 f   GuCookingConvexMeshBuilder.obj
 0001:001a4770       ?build@ConvexMeshBuilder@physx@@QEAA_NAEBVPxConvexMeshDesc@2@I_NPEAVConvexHullLib@2@@Z 00000001801a5770 f   GuCookingConvexMeshBuilder.obj
 0001:001a4b00       ?computeHullPolygons@ConvexMeshBuilder@physx@@QEAA_NAEBIPEBV?$PxVec3T@M@2@0PEBIAEAVPxAllocatorCallback@2@AEAIAEAPEAV32@4AEAPEAI4AEAPEAUPxHullPolygon@2@@Z 00000001801a5b00 f   GuCookingConvexMeshBuilder.obj
 0001:001a4d00       ?computeMassInfo@ConvexMeshBuilder@physx@@QEAAX_N@Z 00000001801a5d00 f   GuCookingConvexMeshBuilder.obj
 0001:001a5090       ?computeSDF@ConvexMeshBuilder@physx@@QEAAXAEBVPxConvexMeshDesc@2@@Z 00000001801a6090 f   GuCookingConvexMeshBuilder.obj
 0001:001a5490       ?copy@ConvexMeshBuilder@physx@@QEAA_NAEAUConvexHullInitData@Gu@2@@Z 00000001801a6490 f   GuCookingConvexMeshBuilder.obj
 0001:001a55f0       ?loadConvexHull@ConvexMeshBuilder@physx@@QEAA_NAEBVPxConvexMeshDesc@2@PEAVConvexHullLib@2@@Z 00000001801a65f0 f   GuCookingConvexMeshBuilder.obj
 0001:001a5860       ?save@ConvexMeshBuilder@physx@@QEBA_NAEAVPxOutputStream@2@_N@Z 00000001801a6860 f   GuCookingConvexMeshBuilder.obj
 0001:001a5c80       ??0ConvexHull@physx@@QEAA@AEBV?$PxVec3T@M@1@AEBV?$PxTransformT@M@1@AEBV?$PxArray@VPxPlane@physx@@V?$PxReflectionAllocator@VPxPlane@physx@@@2@@1@@Z 00000001801a6c80 f   GuCookingConvexHullUtils.obj
 0001:001a6da0       ?allocate@?$PxArray@VHalfEdge@ConvexHull@physx@@V?$PxReflectionAllocator@VHalfEdge@ConvexHull@physx@@@3@@physx@@IEAAPEAVHalfEdge@ConvexHull@2@I@Z 00000001801a7da0 f i GuCookingConvexHullUtils.obj
 0001:001a6e40       ?assertIntact@ConvexHull@physx@@QEBA_NM@Z 00000001801a7e40 f   GuCookingConvexHullUtils.obj
 0001:001a7150       ?computeOBBFromConvex@physx@@YA_NAEBVPxConvexMeshDesc@1@AEAV?$PxVec3T@M@1@AEAV?$PxTransformT@M@1@@Z 00000001801a8150 f   GuCookingConvexHullUtils.obj
 0001:001a77c0       ?computeOBBSIMD@local@@YAXIPEBT__m128@@AEAT2@AEBT2@1@Z 00000001801a87c0 f   GuCookingConvexHullUtils.obj
 0001:001a7ba0       ?convexHullCrop@physx@@YAPEAVConvexHull@1@AEBV21@AEBVPxPlane@1@M@Z 00000001801a8ba0 f   GuCookingConvexHullUtils.obj
 0001:001a8980       ?findCandidatePlane@ConvexHull@physx@@QEBAHMM@Z 00000001801a9980 f   GuCookingConvexHullUtils.obj
 0001:001a8df0       ?growAndPushBack@?$PxArray@VHalfEdge@ConvexHull@physx@@V?$PxReflectionAllocator@VHalfEdge@ConvexHull@physx@@@3@@physx@@IEAAAEAVHalfEdge@ConvexHull@2@AEBV342@@Z 00000001801a9df0 f i GuCookingConvexHullUtils.obj
 0001:001a8eb0       ?maxNumVertsPerFace@ConvexHull@physx@@QEBAIXZ 00000001801a9eb0 f   GuCookingConvexHullUtils.obj
 0001:001a8f20       ?recreate@?$PxArray@VHalfEdge@ConvexHull@physx@@V?$PxReflectionAllocator@VHalfEdge@ConvexHull@physx@@@3@@physx@@IEAAXI@Z 00000001801a9f20 f i GuCookingConvexHullUtils.obj
 0001:001a8fc0       ?resize@?$PxArray@VHalfEdge@ConvexHull@physx@@V?$PxReflectionAllocator@VHalfEdge@ConvexHull@physx@@@3@@physx@@QEAAXIAEBVHalfEdge@ConvexHull@2@@Z 00000001801a9fc0 f i GuCookingConvexHullUtils.obj
 0001:001a9080       ?resize@?$PxArray@VPxPlane@physx@@V?$PxReflectionAllocator@VPxPlane@physx@@@2@@physx@@QEAAXIAEBVPxPlane@2@@Z 00000001801aa080 f i GuCookingConvexHullUtils.obj
 0001:001a91a0       ??1ConvexHullLib@physx@@UEAA@XZ 00000001801aa1a0 f   GuCookingConvexHullLib.obj
 0001:001a97c0       ?cleanupVertices@ConvexHullLib@physx@@IEAA_NIPEBV?$PxVec3T@M@2@IAEAIPEAV32@@Z 00000001801aa7c0 f   GuCookingConvexHullLib.obj
 0001:001a9900       ?shiftAndcleanupVertices@ConvexHullLib@physx@@IEAA_NIPEBV?$PxVec3T@M@2@IAEAIPEAV32@@Z 00000001801aa900 f   GuCookingConvexHullLib.obj
 0001:001a9ee0       ?shiftConvexMeshDesc@ConvexHullLib@physx@@IEAAXAEAVPxConvexMeshDesc@2@@Z 00000001801aaee0 f   GuCookingConvexHullLib.obj
 0001:001a9fa0       ?swapLargestFace@ConvexHullLib@physx@@IEAAXAEAVPxConvexMeshDesc@2@@Z 00000001801aafa0 f   GuCookingConvexHullLib.obj
 0001:001aa1d0       ??0ConvexHullBuilder@physx@@QEAA@PEAUConvexHullData@Gu@1@_N@Z 00000001801ab1d0 f   GuCookingConvexHullBuilder.obj
 0001:001aa200       ??1ConvexHullBuilder@physx@@QEAA@XZ 00000001801ab200 f   GuCookingConvexHullBuilder.obj
 0001:001aa310       ?calculateVertexMapTable@ConvexHullBuilder@physx@@QEAA_NI_N@Z 00000001801ab310 f   GuCookingConvexHullBuilder.obj
 0001:001aa4d0       ?checkHullPolygons@ConvexHullBuilder@physx@@QEBA_NXZ 00000001801ab4d0 f   GuCookingConvexHullBuilder.obj
 0001:001aaa60       ?copy@ConvexHullBuilder@physx@@QEAA_NAEAUConvexHullData@Gu@2@AEAI@Z 00000001801aba60 f   GuCookingConvexHullBuilder.obj
 0001:001aace0       ?createEdgeList@ConvexHullBuilder@physx@@QEAA_N_NI@Z 00000001801abce0 f   GuCookingConvexHullBuilder.obj
 0001:001ab430       ?init@ConvexHullBuilder@physx@@QEAA_NIPEBV?$PxVec3T@M@2@PEBIIIPEBUPxHullPolygon@2@_NPEAVConvexHullLib@2@@Z 00000001801ac430 f   GuCookingConvexHullBuilder.obj
 0001:001abd50       ?save@ConvexHullBuilder@physx@@QEBA_NAEAVPxOutputStream@2@_N@Z 00000001801acd50 f   GuCookingConvexHullBuilder.obj
 0001:001ac070       ??0BigConvexDataBuilder@physx@@QEAA@PEBUConvexHullData@Gu@1@PEAVBigConvexData@1@PEBV?$PxVec3T@M@1@@Z 00000001801ad070 f   GuCookingBigConvexDataBuilder.obj
 0001:001ac080       ?computeValencies@BigConvexDataBuilder@physx@@QEAA_NAEBVConvexHullBuilder@2@@Z 00000001801ad080 f   GuCookingBigConvexDataBuilder.obj
 0001:001ac470       ?precompute@BigConvexDataBuilder@physx@@QEAA_NI@Z 00000001801ad470 f   GuCookingBigConvexDataBuilder.obj
 0001:001ad070       ?save@BigConvexDataBuilder@physx@@QEBA_NAEAVPxOutputStream@2@_N@Z 00000001801ae070 f   GuCookingBigConvexDataBuilder.obj
 0001:001ad25f       __imp_load_PxGetFoundation 00000001801ae25f f   PhysXFoundation_64:PhysXFoundation_64.dll
 0001:001ad26b       __tailMerge_physxfoundation_64_dll 00000001801ae26b     PhysXFoundation_64:PhysXFoundation_64.dll
 0001:001ad2e4       __imp_load_PxGetBroadcastAllocator 00000001801ae2e4 f   PhysXFoundation_64:PhysXFoundation_64.dll
 0001:001ad2f0       __imp_load_?PxAtomicIncrement@physx@@YAHPECH@Z 00000001801ae2f0 f   PhysXFoundation_64:PhysXFoundation_64.dll
 0001:001ad2fc       __imp_load_??0PxMutexImpl@physx@@QEAA@XZ 00000001801ae2fc f   PhysXFoundation_64:PhysXFoundation_64.dll
 0001:001ad308       __imp_load_??1PxMutexImpl@physx@@QEAA@XZ 00000001801ae308 f   PhysXFoundation_64:PhysXFoundation_64.dll
 0001:001ad314       __imp_load_?lock@PxMutexImpl@physx@@QEAAXXZ 00000001801ae314 f   PhysXFoundation_64:PhysXFoundation_64.dll
 0001:001ad320       __imp_load_?unlock@PxMutexImpl@physx@@QEAAXXZ 00000001801ae320 f   PhysXFoundation_64:PhysXFoundation_64.dll
 0001:001ad32c       __imp_load_?getSize@PxMutexImpl@physx@@SAIXZ 00000001801ae32c f   PhysXFoundation_64:PhysXFoundation_64.dll
 0001:001ad338       __imp_load_?PxAtomicDecrement@physx@@YAHPECH@Z 00000001801ae338 f   PhysXFoundation_64:PhysXFoundation_64.dll
 0001:001ad344       __imp_load_?PxTransformFromSegment@physx@@YA?AV?$PxTransformT@M@1@AEBV?$PxVec3T@M@1@0PEAM@Z 00000001801ae344 f   PhysXFoundation_64:PhysXFoundation_64.dll
 0001:001ad350       __imp_load_?PxAtomicAdd@physx@@YAHPECHH@Z 00000001801ae350 f   PhysXFoundation_64:PhysXFoundation_64.dll
 0001:001ad35c       __imp_load_?getDefaultStackSize@PxThreadImpl@physx@@SAIXZ 00000001801ae35c f   PhysXFoundation_64:PhysXFoundation_64.dll
 0001:001ad368       __imp_load_??0PxThreadImpl@physx@@QEAA@P6APEAXPEAX@Z0PEBD@Z 00000001801ae368 f   PhysXFoundation_64:PhysXFoundation_64.dll
 0001:001ad374       __imp_load_??1PxThreadImpl@physx@@QEAA@XZ 00000001801ae374 f   PhysXFoundation_64:PhysXFoundation_64.dll
 0001:001ad380       __imp_load_?start@PxThreadImpl@physx@@QEAAXIPEAVPxRunnable@2@@Z 00000001801ae380 f   PhysXFoundation_64:PhysXFoundation_64.dll
 0001:001ad38c       __imp_load_?waitForQuit@PxThreadImpl@physx@@QEAA_NXZ 00000001801ae38c f   PhysXFoundation_64:PhysXFoundation_64.dll
 0001:001ad398       __imp_load_?getSize@PxThreadImpl@physx@@SAIXZ 00000001801ae398 f   PhysXFoundation_64:PhysXFoundation_64.dll
 0001:001ad3a4       __imp_load_?PxOptimizeBoundingBox@physx@@YA?AV?$PxVec3T@M@1@AEAV?$PxMat33T@M@1@@Z 00000001801ae3a4 f   PhysXFoundation_64:PhysXFoundation_64.dll
 0001:001ad3b0       __imp_load_?allocate@PxTempAllocator@physx@@QEAAPEAX_KPEBDH@Z 00000001801ae3b0 f   PhysXFoundation_64:PhysXFoundation_64.dll
 0001:001ad3bc       __imp_load_?deallocate@PxTempAllocator@physx@@QEAAXPEAX@Z 00000001801ae3bc f   PhysXFoundation_64:PhysXFoundation_64.dll
 0001:001ad3c8       __imp_load_??0PxFPUGuard@physx@@QEAA@XZ 00000001801ae3c8 f   PhysXFoundation_64:PhysXFoundation_64.dll
 0001:001ad3d4       __imp_load_??1PxFPUGuard@physx@@QEAA@XZ 00000001801ae3d4 f   PhysXFoundation_64:PhysXFoundation_64.dll
 0001:001ad3e0       __imp_load_?PxDiagonalize@physx@@YA?AV?$PxVec3T@M@1@AEBV?$PxMat33T@M@1@AEAV?$PxQuatT@M@1@@Z 00000001801ae3e0 f   PhysXFoundation_64:PhysXFoundation_64.dll
 0001:001ad3ec       ?DloadAcquireSectionWriteAccess@@YAXXZ 00000001801ae3ec f i Delayimp:delayhlp.obj
 0001:001ad498       ?DloadGetSRWLockFunctionPointers@@YAEXZ 00000001801ae498 f i Delayimp:delayhlp.obj
 0001:001ad534       ?DloadMakePermanentImageCommit@@YAXPEAX_K@Z 00000001801ae534 f i Delayimp:delayhlp.obj
 0001:001ad5cc       ?DloadObtainSection@@YAPEAXPEAK0@Z 00000001801ae5cc f i Delayimp:delayhlp.obj
 0001:001ad668       ?DloadProtectSection@@YAXKPEAK@Z 00000001801ae668 f i Delayimp:delayhlp.obj
 0001:001ad6f8       ?DloadReleaseSectionWriteAccess@@YAXXZ 00000001801ae6f8 f i Delayimp:delayhlp.obj
 0001:001ad78c       __delayLoadHelper2         00000001801ae78c f   Delayimp:delayhlp.obj
 0001:001ada60       ??_V@YAXPEAX@Z             00000001801aea60 f   LIBCMT:delete_array.obj
 0001:001ada60       ??3@YAXPEAX_K@Z            00000001801aea60 f   LIBCMT:delete_scalar_size.obj
 0001:001ada68       ??_Gtype_info@@UEAAPEAXI@Z 00000001801aea68 f i LIBCMT:std_type_info_static.obj
 0001:001ada68       ??_Etype_info@@UEAAPEAXI@Z 00000001801aea68 f i LIBCMT:std_type_info_static.obj
 0001:001ada94       ?__scrt_initialize_type_info@@YAXXZ 00000001801aea94 f   LIBCMT:tncleanup.obj
 0001:001adaa4       ?__scrt_uninitialize_type_info@@YAXXZ 00000001801aeaa4 f   LIBCMT:tncleanup.obj
 0001:001adac0       _alloca_probe              00000001801aeac0 f   LIBCMT:chkstk.obj
 0001:001adac0       __chkstk                   00000001801aeac0 f   LIBCMT:chkstk.obj
 0001:001adb10       __vdecl_sinf4              00000001801aeb10 f   LIBCMT:svml_ssinf4_dispatch.obj
 0001:001adb30       __libm_sse2_sincosf_       00000001801aeb30 f   LIBCMT:svml_ssinf4_dispatch.obj
 0001:001adb73       __libm_sse2_sincosf4_      00000001801aeb73 f   LIBCMT:svml_ssinf4_dispatch.obj
 0001:001adb80       ??3@YAXPEAX@Z              00000001801aeb80 f   LIBCMT:delete_scalar.obj
 0001:001adb88       __scrt_acquire_startup_lock 00000001801aeb88 f   LIBCMT:utility.obj
 0001:001adbc4       __scrt_dllmain_after_initialize_c 00000001801aebc4 f   LIBCMT:utility.obj
 0001:001adbf8       __scrt_dllmain_before_initialize_c 00000001801aebf8 f   LIBCMT:utility.obj
 0001:001adc10       __scrt_dllmain_crt_thread_attach 00000001801aec10 f   LIBCMT:utility.obj
 0001:001adc38       __scrt_dllmain_crt_thread_detach 00000001801aec38 f   LIBCMT:utility.obj
 0001:001adc50       __scrt_dllmain_exception_filter 00000001801aec50 f   LIBCMT:utility.obj
 0001:001adcb0       __scrt_dllmain_uninitialize_c 00000001801aecb0 f   LIBCMT:utility.obj
 0001:001adce0       __scrt_dllmain_uninitialize_critical 00000001801aece0 f   LIBCMT:utility.obj
 0001:001adcf4       __scrt_initialize_crt      00000001801aecf4 f   LIBCMT:utility.obj
 0001:001add40       __scrt_initialize_onexit_tables 00000001801aed40 f   LIBCMT:utility.obj
 0001:001addcc       __scrt_is_nonwritable_in_current_image 00000001801aedcc f   LIBCMT:utility.obj
 0001:001ade64       __scrt_release_startup_lock 00000001801aee64 f   LIBCMT:utility.obj
 0001:001ade88       __scrt_uninitialize_crt    00000001801aee88 f   LIBCMT:utility.obj
 0001:001adeb4       _onexit                    00000001801aeeb4 f   LIBCMT:utility.obj
 0001:001adef0       atexit                     00000001801aeef0 f   LIBCMT:utility.obj
 0001:001ae228       _DllMainCRTStartup         00000001801af228 f   LIBCMT:dll_dllmain.obj
 0001:001ae268       __isa_available_init       00000001801af268 f   LIBCMT:cpu_disp.obj
 0001:001ae410       __sse2_sinf4@@16           00000001801af410 f   LIBCMT:svml_ssinf4_sse2.obj
 0001:001aed50       __sse4_sinf4@@16           00000001801afd50 f   LIBCMT:svml_ssinf4_sse4.obj
 0001:001af4c4       __scrt_is_ucrt_dll_in_use  00000001801b04c4 f   LIBCMT:ucrt_detection.obj
 0001:001af4d0       __crt_debugger_hook        00000001801b04d0 f   LIBCMT:utility_desktop.obj
 0001:001af4d8       __scrt_fastfail            00000001801b04d8 f   LIBCMT:utility_desktop.obj
 0001:001af624       __security_init_cookie     00000001801b0624 f   LIBCMT:gs_support.obj
 0001:001af6d0       __local_stdio_scanf_options 00000001801b06d0 f i LIBCMT:default_local_stdio_options.obj
 0001:001af6d8       __scrt_initialize_default_local_stdio_options 00000001801b06d8 f   LIBCMT:default_local_stdio_options.obj
 0001:001af6f4       __scrt_get_dyn_tls_init_callback 00000001801b06f4 f   LIBCMT:dyn_tls_init.obj
 0001:001af6fc       _RTC_Initialize            00000001801b06fc f   LIBCMT:initsect.obj
 0001:001af738       _RTC_Terminate             00000001801b0738 f   LIBCMT:initsect.obj
 0001:001af780       __common_ssin_cout_rare    00000001801b0780 f   LIBCMT:svml_s_sin_cout.obj
 0001:001af800       memcpy_repmovs             00000001801b0800 f   libvcruntime:memcpy.obj
 0001:001af820       memmove                    00000001801b0820 f   libvcruntime:memcpy.obj
 0001:001af820       memcpy                     00000001801b0820 f   libvcruntime:memcpy.obj
 0001:001afe98       _get_purecall_handler      00000001801b0e98 f   libvcruntime:purevirt.obj
 0001:001afea4       _purecall                  00000001801b0ea4 f   libvcruntime:purevirt.obj
 0001:001afec8       __std_type_info_compare    00000001801b0ec8 f   libvcruntime:std_type_info.obj
 0001:001afef0       __std_type_info_destroy_list 00000001801b0ef0 f   libvcruntime:std_type_info.obj
 0001:001aff1c       __std_type_info_name       00000001801b0f1c f   libvcruntime:std_type_info.obj
 0001:001b0050       memset_repmovs             00000001801b1050 f   libvcruntime:memset.obj
 0001:001b0070       memset                     00000001801b1070 f   libvcruntime:memset.obj
 0001:001b0200       strstr                     00000001801b1200 f   libvcruntime:strstr.obj
 0001:001b03fc       __vcrt_initialize          00000001801b13fc f   libvcruntime:initialization.obj
 0001:001b0424       __vcrt_thread_attach       00000001801b1424 f   libvcruntime:initialization.obj
 0001:001b0438       __vcrt_thread_detach       00000001801b1438 f   libvcruntime:initialization.obj
 0001:001b044c       __vcrt_uninitialize        00000001801b144c f   libvcruntime:initialization.obj
 0001:001b0468       __vcrt_uninitialize_critical 00000001801b1468 f   libvcruntime:initialization.obj
 0001:001b0478       __C_specific_handler       00000001801b1478 f   libvcruntime:riscchandler.obj
 0001:001b0684       __DestructExceptionObject  00000001801b1684 f   libvcruntime:ehhelpers.obj
 0001:001b06f4       ?_CallMemberFunction0@@YAXQEAX0@Z 00000001801b16f4 f i libvcruntime:ehhelpers.obj
 0001:001b06f8       _IsExceptionObjectToBeDestroyed 00000001801b16f8 f   libvcruntime:ehhelpers.obj
 0001:001b0728       __AdjustPointer            00000001801b1728 f   libvcruntime:ehhelpers.obj
 0001:001b074c       __FrameUnwindFilter        00000001801b174c f   libvcruntime:ehhelpers.obj
 0001:001b07b4       ??$?0$00@DName@@QEAA@PEBDU?$StringLifeSelector@$00@@@Z 00000001801b17b4 f i libvcruntime:undname.obj
 0001:001b07f4       ??$?0$0A@@DName@@QEAA@PEBDU?$StringLifeSelector@$0A@@@@Z 00000001801b17f4 f i libvcruntime:undname.obj
 0001:001b07f4       ??$?0$01@DName@@QEAA@PEBDU?$StringLifeSelector@$01@@@Z 00000001801b17f4 f i libvcruntime:undname.obj
 0001:001b0834       ??$?0$0A@@pcharNode@@QEAA@PEBDHU?$StringLifeSelector@$0A@@@@Z 00000001801b1834 f i libvcruntime:undname.obj
 0001:001b0834       ??$?0$01@pcharNode@@QEAA@PEBDHU?$StringLifeSelector@$01@@@Z 00000001801b1834 f i libvcruntime:undname.obj
 0001:001b08a8       ??$append@VpcharNode@@@DName@@AEAAXPEBVpcharNode@@@Z 00000001801b18a8 f i libvcruntime:undname.obj
 0001:001b08a8       ??$append@VDNameNode@@@DName@@AEAAXPEBVDNameNode@@@Z 00000001801b18a8 f i libvcruntime:undname.obj
 0001:001b08a8       ??$append@VcharNode@@@DName@@AEAAXPEBVcharNode@@@Z 00000001801b18a8 f i libvcruntime:undname.obj
 0001:001b08a8       ??$append@VDNameStatusNode@@@DName@@AEAAXPEBVDNameStatusNode@@@Z 00000001801b18a8 f i libvcruntime:undname.obj
 0001:001b090c       ??$doPchar@$00@DName@@AEAAXPEBDH@Z 00000001801b190c f i libvcruntime:undname.obj
 0001:001b09b0       ??$doPchar@$0A@@DName@@AEAAXPEBDH@Z 00000001801b19b0 f i libvcruntime:undname.obj
 0001:001b09b0       ??$doPchar@$01@DName@@AEAAXPEBDH@Z 00000001801b19b0 f i libvcruntime:undname.obj
 0001:001b0a48       ??0DName@@QEAA@AEAPEBDD@Z  00000001801b1a48 f   libvcruntime:undname.obj
 0001:001b0af8       ??0DName@@QEAA@AEBUStringLiteral@@@Z 00000001801b1af8 f   libvcruntime:undname.obj
 0001:001b0b24       ??0DName@@QEAA@PEAV0@@Z    00000001801b1b24 f   libvcruntime:undname.obj
 0001:001b0ba8       ??0DName@@QEAA@_J@Z        00000001801b1ba8 f   libvcruntime:undname.obj
 0001:001b0c50       ??0DName@@QEAA@_K@Z        00000001801b1c50 f   libvcruntime:undname.obj
 0001:001b0ce0       ??2@YAPEAX_KAEAV_HeapManager@@H@Z 00000001801b1ce0 f   libvcruntime:undname.obj
 0001:001b0d0c       ??AReplicator@@QEBA?AVDName@@H@Z 00000001801b1d0c f   libvcruntime:undname.obj
 0001:001b0d4c       ??HDName@@QEBA?AV0@AEBUStringLiteral@@@Z 00000001801b1d4c f   libvcruntime:undname.obj
 0001:001b0d78       ??HDName@@QEBA?AV0@AEBV0@@Z 00000001801b1d78 f   libvcruntime:undname.obj
 0001:001b0da4       ??HDName@@QEBA?AV0@D@Z     00000001801b1da4 f   libvcruntime:undname.obj
 0001:001b0dd0       ??HDName@@QEBA?AV0@W4DNameStatus@@@Z 00000001801b1dd0 f   libvcruntime:undname.obj
 0001:001b0dfc       ??YDName@@QEAAAEAV0@AEBUStringLiteral@@@Z 00000001801b1dfc f   libvcruntime:undname.obj
 0001:001b0e7c       ??YDName@@QEAAAEAV0@AEBV0@@Z 00000001801b1e7c f   libvcruntime:undname.obj
 0001:001b0f30       ??YDName@@QEAAAEAV0@D@Z    00000001801b1f30 f   libvcruntime:undname.obj
 0001:001b0f9c       ??YDName@@QEAAAEAV0@W4DNameStatus@@@Z 00000001801b1f9c f   libvcruntime:undname.obj
 0001:001b1008       ??YReplicator@@QEAAAEAV0@AEBVDName@@@Z 00000001801b2008 f   libvcruntime:undname.obj
 0001:001b1060       ?UScore@UnDecorator@@SA?AUStringLiteral@@W4Tokens@@@Z 00000001801b2060 f   libvcruntime:undname.obj
 0001:001b10ac       ?composeDeclaration@UnDecorator@@CA?AVDName@@AEBV2@@Z 00000001801b20ac f i libvcruntime:undname.obj
 0001:001b1f54       ?doPchar@DName@@AEAAXD@Z   00000001801b2f54 f   libvcruntime:undname.obj
 0001:001b1fa4       ?getAddressOf@UnDecorator@@CA?AVDName@@XZ 00000001801b2fa4 f   libvcruntime:undname.obj
 0001:001b2034       ?getArgumentList@UnDecorator@@CA?AVDName@@XZ 00000001801b3034 f   libvcruntime:undname.obj
 0001:001b21c8       ?getArgumentTypes@UnDecorator@@CA?AVDName@@XZ 00000001801b31c8 f   libvcruntime:undname.obj
 0001:001b2324       ?getArrayAccess@UnDecorator@@CA?AVDName@@XZ 00000001801b3324 f   libvcruntime:undname.obj
 0001:001b23c0       ?getArrayObject@UnDecorator@@CA?AVDName@@XZ 00000001801b33c0 f   libvcruntime:undname.obj
 0001:001b2488       ?getArrayType@UnDecorator@@CA?AVDName@@AEBV2@@Z 00000001801b3488 f i libvcruntime:undname.obj
 0001:001b26d0       ?getBasedType@UnDecorator@@CA?AVDName@@XZ 00000001801b36d0 f   libvcruntime:undname.obj
 0001:001b27c8       ?getBasicDataType@UnDecorator@@CA?AVDName@@AEBV2@@Z 00000001801b37c8 f   libvcruntime:undname.obj
 0001:001b2d78       ?getCallingConvention@UnDecorator@@CA?AVDName@@XZ 00000001801b3d78 f   libvcruntime:undname.obj
 0001:001b2eb8       ?getDataIndirectType@UnDecorator@@CA?AVDName@@AEBV2@W4IndirectionKind@@0H@Z 00000001801b3eb8 f   libvcruntime:undname.obj
 0001:001b3750       ?getDataType@UnDecorator@@CA?AVDName@@PEAV2@@Z 00000001801b4750 f   libvcruntime:undname.obj
 0001:001b3864       ?getDecoratedName@UnDecorator@@CA?AVDName@@XZ 00000001801b4864 f   libvcruntime:undname.obj
 0001:001b3b48       ?getDimension@UnDecorator@@CA?AVDName@@_N@Z 00000001801b4b48 f   libvcruntime:undname.obj
 0001:001b3c94       ?getDispatchTarget@UnDecorator@@CA?AVDName@@XZ 00000001801b4c94 f   libvcruntime:undname.obj
 0001:001b3ce0       ?getECSUDataType@UnDecorator@@CA?AVDName@@XZ 00000001801b4ce0 f   libvcruntime:undname.obj
 0001:001b3ec0       ?getEnumType@UnDecorator@@CA?AVDName@@XZ 00000001801b4ec0 f i libvcruntime:undname.obj
 0001:001b3ff0       ?getExtendedDataIndirectType@UnDecorator@@CA?AVDName@@AEAW4IndirectionKind@@AEA_NH@Z 00000001801b4ff0 f   libvcruntime:undname.obj
 0001:001b41f8       ?getExternalDataType@UnDecorator@@CA?AVDName@@AEBV2@@Z 00000001801b51f8 f i libvcruntime:undname.obj
 0001:001b42b8       ?getFloatingPoint@UnDecorator@@CA?AVDName@@H@Z 00000001801b52b8 f   libvcruntime:undname.obj
 0001:001b43e0       ?getFunctionIndirectType@UnDecorator@@CA?AVDName@@AEBV2@@Z 00000001801b53e0 f   libvcruntime:undname.obj
 0001:001b4918       ?getLastChar@DNameStatusNode@@UEBADXZ 00000001801b5918 f i libvcruntime:undname.obj
 0001:001b4924       ?getLastChar@charNode@@UEBADXZ 00000001801b5924 f i libvcruntime:undname.obj
 0001:001b4928       ?getLastChar@pDNameNode@@UEBADXZ 00000001801b5928 f i libvcruntime:undname.obj
 0001:001b4954       ?getLastChar@pairNode@@UEBADXZ 00000001801b5954 f i libvcruntime:undname.obj
 0001:001b498c       ?getLastChar@pcharNode@@UEBADXZ 00000001801b598c f i libvcruntime:undname.obj
 0001:001b49a0       ?getLexicalFrame@UnDecorator@@CA?AVDName@@XZ 00000001801b59a0 f i libvcruntime:undname.obj
 0001:001b4a04       ?getMemberAccess@UnDecorator@@CA?AVDName@@XZ 00000001801b5a04 f   libvcruntime:undname.obj
 0001:001b4a98       ?getMemoryWithBuffer@_HeapManager@@QEAAPEAX_K@Z 00000001801b5a98 f   libvcruntime:undname.obj
 0001:001b4b28       ?getNoexcept@UnDecorator@@CA?AVDName@@XZ 00000001801b5b28 f   libvcruntime:undname.obj
 0001:001b4b8c       ?getNumberOfDimensions@UnDecorator@@CAHXZ 00000001801b5b8c f   libvcruntime:undname.obj
 0001:001b4c00       ?getOperatorName@UnDecorator@@CA?AVDName@@_NPEA_N@Z 00000001801b5c00 f i libvcruntime:undname.obj
 0001:001b55f4       ?getPointerToMember@UnDecorator@@CA?AVDName@@XZ 00000001801b65f4 f   libvcruntime:undname.obj
 0001:001b56ec       ?getPrimaryDataType@UnDecorator@@CA?AVDName@@AEBV2@@Z 00000001801b66ec f   libvcruntime:undname.obj
 0001:001b59a0       ?getPtrRefDataType@UnDecorator@@CA?AVDName@@AEBV2@H@Z 00000001801b69a0 f   libvcruntime:undname.obj
 0001:001b5b6c       ?getPtrRefType@UnDecorator@@CA?AVDName@@AEBV2@0W4IndirectionKind@@@Z 00000001801b6b6c f   libvcruntime:undname.obj
 0001:001b5d44       ?getRestrictionSpec@UnDecorator@@CA?AVDName@@XZ 00000001801b6d44 f   libvcruntime:undname.obj
 0001:001b5f10       ?getReturnType@UnDecorator@@CA?AVDName@@PEAV2@@Z 00000001801b6f10 f   libvcruntime:undname.obj
 0001:001b5f44       ?getScope@UnDecorator@@CA?AVDName@@XZ 00000001801b6f44 f   libvcruntime:undname.obj
 0001:001b63f8       ?getScopedName@UnDecorator@@CA?AVDName@@XZ 00000001801b73f8 f   libvcruntime:undname.obj
 0001:001b6534       ?getSignedDimension@UnDecorator@@CA?AVDName@@XZ 00000001801b7534 f   libvcruntime:undname.obj
 0001:001b65bc       ?getString@DNameStatusNode@@UEBAPEADPEAD0@Z 00000001801b75bc f i libvcruntime:undname.obj
 0001:001b6604       ?getString@charNode@@UEBAPEADPEAD0@Z 00000001801b7604 f i libvcruntime:undname.obj
 0001:001b6618       ?getString@pDNameNode@@UEBAPEADPEAD0@Z 00000001801b7618 f i libvcruntime:undname.obj
 0001:001b6648       ?getString@pairNode@@UEBAPEADPEAD0@Z 00000001801b7648 f i libvcruntime:undname.obj
 0001:001b6694       ?getString@pcharNode@@UEBAPEADPEAD0@Z 00000001801b7694 f i libvcruntime:undname.obj
 0001:001b66cc       ?getStringEncoding@UnDecorator@@CA?AVDName@@W4PrefixKind@@H@Z 00000001801b76cc f   libvcruntime:undname.obj
 0001:001b67b0       ?getStringObject@UnDecorator@@CA?AVDName@@XZ 00000001801b77b0 f   libvcruntime:undname.obj
 0001:001b6818       ?getSymbolName@UnDecorator@@CA?AVDName@@XZ 00000001801b7818 f i libvcruntime:undname.obj
 0001:001b6864       ?getTemplateArgumentList@UnDecorator@@CA?AVDName@@XZ 00000001801b7864 f   libvcruntime:undname.obj
 0001:001b6ad8       ?getTemplateName@UnDecorator@@CA?AVDName@@_N@Z 00000001801b7ad8 f   libvcruntime:undname.obj
 0001:001b6d6c       ?getTemplateNonTypeArgument@UnDecorator@@CA?AVDName@@XZ 00000001801b7d6c f   libvcruntime:undname.obj
 0001:001b72a0       ?getTemplateTypeArgument@UnDecorator@@CA?AVDName@@XZ 00000001801b82a0 f   libvcruntime:undname.obj
 0001:001b7408       ?getThrowTypes@UnDecorator@@CA?AVDName@@XZ 00000001801b8408 f   libvcruntime:undname.obj
 0001:001b742c       ?getTypeEncoding@UnDecorator@@CAHXZ 00000001801b842c f i libvcruntime:undname.obj
 0001:001b77bc       ?getUndecoratedName@UnDecorator@@QEAAPEADPEADH@Z 00000001801b87bc f i libvcruntime:undname.obj
 0001:001b7910       ?getUnionObject@UnDecorator@@CA?AVDName@@XZ 00000001801b8910 f   libvcruntime:undname.obj
 0001:001b79e8       ?getVCallThunkType@UnDecorator@@CA?AVDName@@XZ 00000001801b89e8 f i libvcruntime:undname.obj
 0001:001b7a60       ?getValue@UnDecorator@@CA?AV?$optional@_K@std@@XZ 00000001801b8a60 f   libvcruntime:undname.obj
 0001:001b7ad4       ?getValueObject@UnDecorator@@CA?AVDName@@XZ 00000001801b8ad4 f   libvcruntime:undname.obj
 0001:001b7c2c       ?getVdispMapType@UnDecorator@@CA?AVDName@@AEBV2@@Z 00000001801b8c2c f i libvcruntime:undname.obj
 0001:001b7ca8       ?getVfTableType@UnDecorator@@CA?AVDName@@AEBV2@@Z 00000001801b8ca8 f i libvcruntime:undname.obj
 0001:001b7eb0       ?getZName@UnDecorator@@CA?AVDName@@_N0@Z 00000001801b8eb0 f   libvcruntime:undname.obj
 0001:001b8198       ?length@pDNameNode@@UEBAHXZ 00000001801b9198 f i libvcruntime:undname.obj
 0001:001b81c0       ?length@pairNode@@UEBAHXZ  00000001801b91c0 f i libvcruntime:undname.obj
 0001:001b8208       ?parseDecoratedName@UnDecorator@@CA?AVDName@@XZ 00000001801b9208 f   libvcruntime:undname.obj
 0001:001b831c       ?raw_length@pDNameNode@@UEBAHXZ 00000001801b931c f i libvcruntime:undname.obj
 0001:001b8320       ?raw_length@pairNode@@UEBAHXZ 00000001801b9320 f i libvcruntime:undname.obj
 0001:001b8324       __unDName                  00000001801b9324 f   libvcruntime:undname.obj
 0001:001b834c       __unDNameEx                00000001801b934c f   libvcruntime:undname.obj
 0001:001b8480       sprintf_s                  00000001801b9480 f i libvcruntime:undname.obj
 0001:001b84d4       __vcrt_freefls             00000001801b94d4 f   libvcruntime:per_thread_data.obj
 0001:001b84f4       __vcrt_freeptd             00000001801b94f4 f   libvcruntime:per_thread_data.obj
 0001:001b8544       __vcrt_getptd              00000001801b9544 f   libvcruntime:per_thread_data.obj
 0001:001b8560       __vcrt_getptd_noexit       00000001801b9560 f   libvcruntime:per_thread_data.obj
 0001:001b8620       __vcrt_initialize_ptd      00000001801b9620 f   libvcruntime:per_thread_data.obj
 0001:001b8668       __vcrt_uninitialize_ptd    00000001801b9668 f   libvcruntime:per_thread_data.obj
 0001:001b868c       __vcrt_initialize_locks    00000001801b968c f   libvcruntime:locks.obj
 0001:001b86c0       __vcrt_lock                00000001801b96c0 f   libvcruntime:locks.obj
 0001:001b86dc       __vcrt_uninitialize_locks  00000001801b96dc f   libvcruntime:locks.obj
 0001:001b8714       __vcrt_unlock              00000001801b9714 f   libvcruntime:locks.obj
 0001:001b8740       _NLG_Notify                00000001801b9740 f   libvcruntime:notify.obj
 0001:001b8760       __NLG_Dispatch2            00000001801b9760 f   libvcruntime:notify.obj
 0001:001b8770       __NLG_Return2              00000001801b9770 f   libvcruntime:notify.obj
 0001:001b8774       __except_validate_context_record 00000001801b9774 f   libvcruntime:jbcxrval.obj
 0001:001b87ac       ??$_CallSETranslator@V__FrameHandler4@@@@YAHPEAUEHExceptionRecord@@PEA_KPEAU_CONTEXT@@PEAU_xDISPATCHER_CONTEXT@@PEAUFuncInfo4@FH4@@K1H@Z 00000001801b97ac f i libvcruntime:risctrnsctrl.obj
 0001:001b8800       ?DecompFuncInfo@FH4@@YA_JPEAEAEAUFuncInfo4@1@_KH_N@Z 00000001801b9800 f i libvcruntime:risctrnsctrl.obj
 0001:001b8924       ?ExecutionInCatch@__FrameHandler4@@SA_NPEAU_xDISPATCHER_CONTEXT@@PEAUFuncInfo4@FH4@@@Z 00000001801b9924 f   libvcruntime:risctrnsctrl.obj
 0001:001b892c       ?FrameUnwindToEmptyState@__FrameHandler4@@SAXPEA_KPEAU_xDISPATCHER_CONTEXT@@PEAUFuncInfo4@FH4@@@Z 00000001801b992c f   libvcruntime:risctrnsctrl.obj
 0001:001b8960       ?GetEstablisherFrame@__FrameHandler4@@SAPEA_KPEA_KPEAU_xDISPATCHER_CONTEXT@@PEAUFuncInfo4@FH4@@0@Z 00000001801b9960 f   libvcruntime:risctrnsctrl.obj
 0001:001b8984       ?GetRangeOfTrysToCheck@__FrameHandler4@@SA?AU?$pair@Viterator@TryBlockMap4@FH4@@V123@@std@@AEAVTryBlockMap4@FH4@@HPEAU_xDISPATCHER_CONTEXT@@PEAUFuncInfo4@5@H@Z 00000001801b9984 f   libvcruntime:risctrnsctrl.obj
 0001:001b8aec       ?UnwindNestedFrames@__FrameHandler4@@SAXPEA_KPEAUEHExceptionRecord@@PEAU_CONTEXT@@0PEAXPEAUFuncInfo4@FH4@@HHPEAUHandlerType4@5@PEAU_xDISPATCHER_CONTEXT@@E@Z 00000001801b9aec f   libvcruntime:risctrnsctrl.obj
 0001:001b8c0c       ?setBuffer@TryBlockMap4@FH4@@QEAAXViterator@12@@Z 00000001801b9c0c f i libvcruntime:risctrnsctrl.obj
 0001:001b8dcc       _CreateFrameInfo           00000001801b9dcc f   libvcruntime:risctrnsctrl.obj
 0001:001b8e08       _FindAndUnlinkFrame        00000001801b9e08 f   libvcruntime:risctrnsctrl.obj
 0001:001b8e5c       _GetImageBase              00000001801b9e5c f   libvcruntime:risctrnsctrl.obj
 0001:001b8e70       _GetThrowImageBase         00000001801b9e70 f   libvcruntime:risctrnsctrl.obj
 0001:001b8e84       _SetImageBase              00000001801b9e84 f   libvcruntime:risctrnsctrl.obj
 0001:001b8e9c       _SetThrowImageBase         00000001801b9e9c f   libvcruntime:risctrnsctrl.obj
 0001:001b8eb4       __CxxFrameHandler4         00000001801b9eb4 f   libvcruntime:risctrnsctrl.obj
 0001:001b90c4       __vcrt_FlsAlloc            00000001801ba0c4 f   libvcruntime:winapi_downlevel.obj
 0001:001b910c       __vcrt_FlsFree             00000001801ba10c f   libvcruntime:winapi_downlevel.obj
 0001:001b9154       __vcrt_FlsGetValue         00000001801ba154 f   libvcruntime:winapi_downlevel.obj
 0001:001b919c       __vcrt_FlsSetValue         00000001801ba19c f   libvcruntime:winapi_downlevel.obj
 0001:001b91f0       __vcrt_InitializeCriticalSectionEx 00000001801ba1f0 f   libvcruntime:winapi_downlevel.obj
 0001:001b9254       ?StateFromControlPc@__FrameHandler4@@SAHPEAUFuncInfo4@FH4@@PEAU_xDISPATCHER_CONTEXT@@@Z 00000001801ba254 f   libvcruntime:ehstate.obj
 0001:001b925c       ?StateFromIp@__FrameHandler4@@SAHPEAUFuncInfo4@FH4@@PEAU_xDISPATCHER_CONTEXT@@_K@Z 00000001801ba25c f   libvcruntime:ehstate.obj
 0001:001b9ecc       ??$TypeMatchHelper@V__FrameHandler3@@@@YAHPEBU_s_HandlerType@@PEBU_s_CatchableType@@PEBU_s_ThrowInfo@@@Z 00000001801baecc f i libvcruntime:frame.obj
 0001:001ba00c       ??$TypeMatchHelper@V__FrameHandler4@@@@YAHPEAUHandlerType4@FH4@@PEBU_s_CatchableType@@PEBU_s_ThrowInfo@@@Z 00000001801bb00c f i libvcruntime:frame.obj
 0001:001ba150       ??$__InternalCxxFrameHandler@V__FrameHandler4@@@@YA?AW4_EXCEPTION_DISPOSITION@@PEAUEHExceptionRecord@@PEA_KPEAU_CONTEXT@@PEAU_xDISPATCHER_CONTEXT@@PEAUFuncInfo4@FH4@@H1E@Z 00000001801bb150 f i libvcruntime:frame.obj
 0001:001ba3e4       ??0HandlerMap4@FH4@@QEAA@PEBUTryBlockMapEntry4@1@_KH@Z 00000001801bb3e4 f i libvcruntime:frame.obj
 0001:001ba460       ??0TryBlockMap4@FH4@@QEAA@PEBUFuncInfo4@1@_K@Z 00000001801bb460 f i libvcruntime:frame.obj
 0001:001ba538       ??0bad_exception@std@@QEAA@AEBV01@@Z 00000001801bb538 f i libvcruntime:frame.obj
 0001:001ba574       ??0bad_exception@std@@QEAA@XZ 00000001801bb574 f i libvcruntime:frame.obj
 0001:001ba594       ??0exception@std@@QEAA@AEBV01@@Z 00000001801bb594 f i libvcruntime:frame.obj
 0001:001ba5c8       ??1bad_exception@std@@UEAA@XZ 00000001801bb5c8 f i libvcruntime:frame.obj
 0001:001ba5dc       ??_Gbad_exception@std@@UEAAPEAXI@Z 00000001801bb5dc f i libvcruntime:frame.obj
 0001:001ba5dc       ??_Ebad_exception@std@@UEAAPEAXI@Z 00000001801bb5dc f i libvcruntime:frame.obj
 0001:001ba5dc       ??_Gexception@std@@UEAAPEAXI@Z 00000001801bb5dc f i libvcruntime:frame.obj
 0001:001ba5dc       ??_Eexception@std@@UEAAPEAXI@Z 00000001801bb5dc f i libvcruntime:frame.obj
 0001:001ba620       ?CxxCallCatchBlock@__FrameHandler4@@SAPEAXPEAU_EXCEPTION_RECORD@@@Z 00000001801bb620 f   libvcruntime:frame.obj
 0001:001ba870       ?DecompHandler@HandlerMap4@FH4@@AEAAXXZ 00000001801bb870 f i libvcruntime:frame.obj
 0001:001baab0       ?FrameUnwindToState@__FrameHandler4@@SAXPEA_KPEAU_xDISPATCHER_CONTEXT@@PEAUFuncInfo4@FH4@@H@Z 00000001801bbab0 f   libvcruntime:frame.obj
 0001:001baf10       ?ReadEntry@UWMap4@FH4@@AEAAXPEAPEAE@Z 00000001801bbf10 f i libvcruntime:frame.obj
 0001:001bafb0       ?_CallMemberFunction1@@YAXQEAX00@Z 00000001801bbfb0 f i libvcruntime:frame.obj
 0001:001bafbc       ?_CallMemberFunction2@@YAXQEAX00H@Z 00000001801bbfbc f i libvcruntime:frame.obj
 0001:001bafcc       ?getStartStop@UWMap4@FH4@@QEAAXHHAEAViterator@12@0@Z 00000001801bbfcc f i libvcruntime:frame.obj
 0001:001bb09c       ?getStateFromIterators@UWMap4@FH4@@SAHAEBViterator@12@H0H0@Z 00000001801bc09c f i libvcruntime:frame.obj
 0001:001bb164       ?what@exception@std@@UEBAPEBDXZ 00000001801bc164 f i libvcruntime:frame.obj
 0001:001bb190       _CallSettingFrame          00000001801bc190 f   libvcruntime:handlers.obj
 0001:001bb1e0       _CallSettingFrame_LookupContinuationIndex 00000001801bc1e0 f   libvcruntime:handlers.obj
 0001:001bb210       _CallSettingFrame_NotifyContinuationAddr 00000001801bc210 f   libvcruntime:handlers.obj
 0001:001bb240       _CallSettingFrameEncoded   00000001801bc240 f   libvcruntime:handlers.obj
 0001:001bb288       __std_exception_copy       00000001801bc288 f   libvcruntime:std_exception.obj
 0001:001bb318       __std_exception_destroy    00000001801bc318 f   libvcruntime:std_exception.obj
 0001:001bb340       _CxxThrowException         00000001801bc340 f   libvcruntime:throw.obj
 0001:001bb3e0       cosf                       00000001801bc3e0 f   libucrt:cosf.obj
 0001:001bb8e0       sinf                       00000001801bc8e0 f   libucrt:sinf.obj
 0001:001bbfe0       tanf                       00000001801bcfe0 f   libucrt:tanf.obj
 0001:001bc654       __acrt_initialize_stdio    00000001801bd654 f   libucrt:_file.obj
 0001:001bc774       __acrt_iob_func            00000001801bd774 f   libucrt:_file.obj
 0001:001bc788       __acrt_uninitialize_stdio  00000001801bd788 f   libucrt:_file.obj
 0001:001bc7e4       _lock_file                 00000001801bd7e4 f   libucrt:_file.obj
 0001:001bc7f0       _unlock_file               00000001801bd7f0 f   libucrt:_file.obj
 0001:001bca08       ??$ensure_buffer_is_big_enough@D@formatting_buffer@__crt_stdio_output@@QEAA_N_K@Z 00000001801bda08 f i libucrt:output.obj
 0001:001bcab0       ??$type_case_integer_parse_into_buffer@I@?$output_processor@DV?$string_output_adapter@D@__crt_stdio_output@@V?$format_validation_base@DV?$string_output_adapter@D@__crt_stdio_output@@@2@@__crt_stdio_output@@AEAAXII_N@Z 00000001801bdab0 f i libucrt:output.obj
 0001:001bcab0       ??$type_case_integer_parse_into_buffer@I@?$output_processor@DV?$stream_output_adapter@D@__crt_stdio_output@@V?$standard_base@DV?$stream_output_adapter@D@__crt_stdio_output@@@2@@__crt_stdio_output@@AEAAXII_N@Z 00000001801bdab0 f i libucrt:output.obj
 0001:001bcb38       ??$type_case_integer_parse_into_buffer@_K@?$output_processor@DV?$string_output_adapter@D@__crt_stdio_output@@V?$format_validation_base@DV?$string_output_adapter@D@__crt_stdio_output@@@2@@__crt_stdio_output@@AEAAX_KI_N@Z 00000001801bdb38 f i libucrt:output.obj
 0001:001bcb38       ??$type_case_integer_parse_into_buffer@_K@?$output_processor@DV?$stream_output_adapter@D@__crt_stdio_output@@V?$standard_base@DV?$stream_output_adapter@D@__crt_stdio_output@@@2@@__crt_stdio_output@@AEAAX_KI_N@Z 00000001801bdb38 f i libucrt:output.obj
 0001:001bcbc8       ??$write_multiple_characters@V?$stream_output_adapter@D@__crt_stdio_output@@D@__crt_stdio_output@@YAXAEBV?$stream_output_adapter@D@0@DHQEAH@Z 00000001801bdbc8 f i libucrt:output.obj
 0001:001bcc54       ??$write_multiple_characters@V?$string_output_adapter@D@__crt_stdio_output@@D@__crt_stdio_output@@YAXAEBV?$string_output_adapter@D@0@DHQEAH@Z 00000001801bdc54 f i libucrt:output.obj
 0001:001bcccc       ??0_LocaleUpdate@@QEAA@QEAU__crt_locale_pointers@@@Z 00000001801bdccc f i libucrt:output.obj
 0001:001bcea0       ?crop_zeroes@__crt_stdio_output@@YAXPEADQEAU__crt_locale_pointers@@@Z 00000001801bdea0 f i libucrt:output.obj
 0001:001bcf40       ?force_decimal_point@__crt_stdio_output@@YAXPEADQEAU__crt_locale_pointers@@@Z 00000001801bdf40 f i libucrt:output.obj
 0001:001bcfb8       ?parse_int_from_format_string@?$output_processor@DV?$stream_output_adapter@D@__crt_stdio_output@@V?$standard_base@DV?$stream_output_adapter@D@__crt_stdio_output@@@2@@__crt_stdio_output@@AEAA_NQEAH@Z 00000001801bdfb8 f i libucrt:output.obj
 0001:001bcfb8       ?parse_int_from_format_string@?$output_processor@DV?$string_output_adapter@D@__crt_stdio_output@@V?$format_validation_base@DV?$string_output_adapter@D@__crt_stdio_output@@@2@@__crt_stdio_output@@AEAA_NQEAH@Z 00000001801bdfb8 f i libucrt:output.obj
 0001:001bd05c       ?process@?$output_processor@DV?$stream_output_adapter@D@__crt_stdio_output@@V?$standard_base@DV?$stream_output_adapter@D@__crt_stdio_output@@@2@@__crt_stdio_output@@QEAAHXZ 00000001801be05c f i libucrt:output.obj
 0001:001bd270       ?process@?$output_processor@DV?$string_output_adapter@D@__crt_stdio_output@@V?$format_validation_base@DV?$string_output_adapter@D@__crt_stdio_output@@@2@@__crt_stdio_output@@QEAAHXZ 00000001801be270 f i libucrt:output.obj
 0001:001bd484       ?state_case_normal@?$output_processor@DV?$stream_output_adapter@D@__crt_stdio_output@@V?$standard_base@DV?$stream_output_adapter@D@__crt_stdio_output@@@2@@__crt_stdio_output@@AEAA_NXZ 00000001801be484 f i libucrt:output.obj
 0001:001bd4f4       ?state_case_normal@?$output_processor@DV?$string_output_adapter@D@__crt_stdio_output@@V?$format_validation_base@DV?$string_output_adapter@D@__crt_stdio_output@@@2@@__crt_stdio_output@@AEAA_NXZ 00000001801be4f4 f i libucrt:output.obj
 0001:001bd568       ?state_case_normal_tchar@?$output_processor@DV?$stream_output_adapter@D@__crt_stdio_output@@V?$standard_base@DV?$stream_output_adapter@D@__crt_stdio_output@@@2@@__crt_stdio_output@@AEAA_ND@Z 00000001801be568 f i libucrt:output.obj
 0001:001bd60c       ?state_case_normal_tchar@?$output_processor@DV?$string_output_adapter@D@__crt_stdio_output@@V?$format_validation_base@DV?$string_output_adapter@D@__crt_stdio_output@@@2@@__crt_stdio_output@@AEAA_ND@Z 00000001801be60c f i libucrt:output.obj
 0001:001bd6b4       ?state_case_size@?$output_processor@DV?$stream_output_adapter@D@__crt_stdio_output@@V?$standard_base@DV?$stream_output_adapter@D@__crt_stdio_output@@@2@@__crt_stdio_output@@AEAA_NXZ 00000001801be6b4 f i libucrt:output.obj
 0001:001bd824       ?state_case_size@?$output_processor@DV?$string_output_adapter@D@__crt_stdio_output@@V?$format_validation_base@DV?$string_output_adapter@D@__crt_stdio_output@@@2@@__crt_stdio_output@@AEAA_NXZ 00000001801be824 f i libucrt:output.obj
 0001:001bd994       ?state_case_type@?$output_processor@DV?$stream_output_adapter@D@__crt_stdio_output@@V?$standard_base@DV?$stream_output_adapter@D@__crt_stdio_output@@@2@@__crt_stdio_output@@AEAA_NXZ 00000001801be994 f i libucrt:output.obj
 0001:001bdc18       ?state_case_type@?$output_processor@DV?$string_output_adapter@D@__crt_stdio_output@@V?$format_validation_base@DV?$string_output_adapter@D@__crt_stdio_output@@@2@@__crt_stdio_output@@AEAA_NXZ 00000001801bec18 f i libucrt:output.obj
 0001:001bde80       ?to_integer_size@__crt_stdio_output@@YA_KW4length_modifier@1@@Z 00000001801bee80 f i libucrt:output.obj
 0001:001bdee8       ?type_case_Z@?$output_processor@DV?$string_output_adapter@D@__crt_stdio_output@@V?$format_validation_base@DV?$string_output_adapter@D@__crt_stdio_output@@@2@@__crt_stdio_output@@AEAA_NXZ 00000001801beee8 f i libucrt:output.obj
 0001:001bdee8       ?type_case_Z@?$output_processor@DV?$stream_output_adapter@D@__crt_stdio_output@@V?$standard_base@DV?$stream_output_adapter@D@__crt_stdio_output@@@2@@__crt_stdio_output@@AEAA_NXZ 00000001801beee8 f i libucrt:output.obj
 0001:001bdf5c       ?type_case_a@?$output_processor@DV?$string_output_adapter@D@__crt_stdio_output@@V?$format_validation_base@DV?$string_output_adapter@D@__crt_stdio_output@@@2@@__crt_stdio_output@@AEAA_NXZ 00000001801bef5c f i libucrt:output.obj
 0001:001bdf5c       ?type_case_a@?$output_processor@DV?$stream_output_adapter@D@__crt_stdio_output@@V?$standard_base@DV?$stream_output_adapter@D@__crt_stdio_output@@@2@@__crt_stdio_output@@AEAA_NXZ 00000001801bef5c f i libucrt:output.obj
 0001:001be118       ?type_case_c_tchar@?$output_processor@DV?$stream_output_adapter@D@__crt_stdio_output@@V?$standard_base@DV?$stream_output_adapter@D@__crt_stdio_output@@@2@@__crt_stdio_output@@AEAA_ND@Z 00000001801bf118 f i libucrt:output.obj
 0001:001be118       ?type_case_c_tchar@?$output_processor@DV?$string_output_adapter@D@__crt_stdio_output@@V?$format_validation_base@DV?$string_output_adapter@D@__crt_stdio_output@@@2@@__crt_stdio_output@@AEAA_ND@Z 00000001801bf118 f i libucrt:output.obj
 0001:001be1e0       ?type_case_integer@?$output_processor@DV?$string_output_adapter@D@__crt_stdio_output@@V?$format_validation_base@DV?$string_output_adapter@D@__crt_stdio_output@@@2@@__crt_stdio_output@@AEAA_NI_N@Z 00000001801bf1e0 f i libucrt:output.obj
 0001:001be1e0       ?type_case_integer@?$output_processor@DV?$stream_output_adapter@D@__crt_stdio_output@@V?$standard_base@DV?$stream_output_adapter@D@__crt_stdio_output@@@2@@__crt_stdio_output@@AEAA_NI_N@Z 00000001801bf1e0 f i libucrt:output.obj
 0001:001be360       ?type_case_n@?$output_processor@DV?$string_output_adapter@D@__crt_stdio_output@@V?$format_validation_base@DV?$string_output_adapter@D@__crt_stdio_output@@@2@@__crt_stdio_output@@AEAA_NXZ 00000001801bf360 f i libucrt:output.obj
 0001:001be360       ?type_case_n@?$output_processor@DV?$stream_output_adapter@D@__crt_stdio_output@@V?$standard_base@DV?$stream_output_adapter@D@__crt_stdio_output@@@2@@__crt_stdio_output@@AEAA_NXZ 00000001801bf360 f i libucrt:output.obj
 0001:001be3e8       ?type_case_s@?$output_processor@DV?$stream_output_adapter@D@__crt_stdio_output@@V?$standard_base@DV?$stream_output_adapter@D@__crt_stdio_output@@@2@@__crt_stdio_output@@AEAA_NXZ 00000001801bf3e8 f i libucrt:output.obj
 0001:001be3e8       ?type_case_s@?$output_processor@DV?$string_output_adapter@D@__crt_stdio_output@@V?$format_validation_base@DV?$string_output_adapter@D@__crt_stdio_output@@@2@@__crt_stdio_output@@AEAA_NXZ 00000001801bf3e8 f i libucrt:output.obj
 0001:001be480       ?validate_stream_is_ansi_if_required@?$__acrt_stdio_char_traits@D@@SA_NQEAU_iobuf@@@Z 00000001801bf480 f i libucrt:output.obj
 0001:001be51c       ?write_stored_string_tchar@?$output_processor@DV?$stream_output_adapter@D@__crt_stdio_output@@V?$standard_base@DV?$stream_output_adapter@D@__crt_stdio_output@@@2@@__crt_stdio_output@@AEAA_ND@Z 00000001801bf51c f i libucrt:output.obj
 0001:001be640       ?write_stored_string_tchar@?$output_processor@DV?$string_output_adapter@D@__crt_stdio_output@@V?$format_validation_base@DV?$string_output_adapter@D@__crt_stdio_output@@@2@@__crt_stdio_output@@AEAA_ND@Z 00000001801bf640 f i libucrt:output.obj
 0001:001be71c       ?write_string@?$string_output_adapter@D@__crt_stdio_output@@QEBAXQEBDHQEAHAEAV__crt_deferred_errno_cache@@@Z 00000001801bf71c f i libucrt:output.obj
 0001:001be7c0       ?write_string_impl@?$output_adapter_common@DV?$stream_output_adapter@D@__crt_stdio_output@@@__crt_stdio_output@@IEBAXQEBDHQEAHAEAV__crt_deferred_errno_cache@@@Z 00000001801bf7c0 f i libucrt:output.obj
 0001:001be8b8       __stdio_common_vfprintf    00000001801bf8b8 f   libucrt:output.obj
 0001:001be944       __stdio_common_vsprintf_s  00000001801bf944 f   libucrt:output.obj
 0001:001be9a8       _fpclass                   00000001801bf9a8 f   libucrt:ieeemisc.obj
 0001:001bea30       powf                       00000001801bfa30 f   libucrt:powf.obj
 0001:001bf8f8       atan2f                     00000001801c08f8 f   libucrt:atan2f.obj
 0001:001bfd00       strcmp                     00000001801c0d00 f   libucrt:strcmp.obj
 0001:001bfd68       acosf                      00000001801c0d68 f   libucrt:acosf.obj
 0001:001bff94       free                       00000001801c0f94 f   libucrt:free.obj
 0001:001bffa8       _seh_filter_dll            00000001801c0fa8 f   libucrt:exception_filter.obj
 0001:001bffbc       _seh_filter_exe            00000001801c0fbc f   libucrt:exception_filter.obj
 0001:001c03ac       __acrt_initialize_thread_local_exit_callback 00000001801c13ac f   libucrt:exit.obj
 0001:001c03b4       _cexit                     00000001801c13b4 f   libucrt:exit.obj
 0001:001c03c4       _exit                      00000001801c13c4 f   libucrt:exit.obj
 0001:001c03d0       _is_c_termination_complete 00000001801c13d0 f   libucrt:exit.obj
 0001:001c0598       __acrt_allocate_buffer_for_argv 00000001801c1598 f   libucrt:argv_parsing.obj
 0001:001c05f8       _configure_narrow_argv     00000001801c15f8 f   libucrt:argv_parsing.obj
 0001:001c0970       __dcrt_uninitialize_environments_nolock 00000001801c1970 f   libucrt:environment_initialization.obj
 0001:001c09a8       _initialize_narrow_environment 00000001801c19a8 f   libucrt:environment_initialization.obj
 0001:001c0cf0       _crt_atexit                00000001801c1cf0 f   libucrt:onexit.obj
 0001:001c0d00       _execute_onexit_table      00000001801c1d00 f   libucrt:onexit.obj
 0001:001c0d3c       _initialize_onexit_table   00000001801c1d3c f   libucrt:onexit.obj
 0001:001c0d64       _register_onexit_function  00000001801c1d64 f   libucrt:onexit.obj
 0001:001c0de4       __acrt_uninitialize_command_line 00000001801c1de4 f   libucrt:argv_data.obj
 0001:001c0edc       __acrt_initialize          00000001801c1edc f   libucrt:initialization.obj
 0001:001c0ef0       __acrt_thread_attach       00000001801c1ef0 f   libucrt:initialization.obj
 0001:001c0f04       __acrt_thread_detach       00000001801c1f04 f   libucrt:initialization.obj
 0001:001c0f14       __acrt_uninitialize        00000001801c1f14 f   libucrt:initialization.obj
 0001:001c0f4c       __acrt_uninitialize_critical 00000001801c1f4c f   libucrt:initialization.obj
 0001:001c0f5c       _initterm                  00000001801c1f5c f   libucrt:initterm.obj
 0001:001c0fc0       _initterm_e                00000001801c1fc0 f   libucrt:initterm.obj
 0001:001c1000       terminate                  00000001801c2000 f   libucrt:terminate.obj
 0001:001c1020       abort                      00000001801c2020 f   libucrt:abort.obj
 0001:001c1078       malloc                     00000001801c2078 f   libucrt:malloc.obj
 0001:001c1080       strcpy_s                   00000001801c2080 f   libucrt:strcpy_s.obj
 0001:001c10e0       ??$parse_integer@KV?$c_string_character_source@D@__crt_strtox@@@__crt_strtox@@YAKQEAU__crt_locale_pointers@@V?$c_string_character_source@D@0@H_N@Z 00000001801c20e0 f i libucrt:atox.obj
 0001:001c13e4       _ischartype_l              00000001801c23e4 f i libucrt:atox.obj
 0001:001c145c       atol                       00000001801c245c f   libucrt:atox.obj
 0001:001c14a0       strncmp                    00000001801c24a0 f   libucrt:strncmp.obj
 0001:001c1520       calloc                     00000001801c2520 f   libucrt:calloc.obj
 0001:001c1528       wcsncmp                    00000001801c2528 f   libucrt:wcsncmp.obj
 0001:001c1560       __remainder_piby2d2f_forAsm 00000001801c2560 f   libucrt:remainder_piby2f_forasm.obj
 0001:001c16b0       __remainder_piby2_fma3     00000001801c26b0 f   libucrt:remainder_piby2_forfma3.obj
 0001:001c18a0       __remainder_piby2_fma3_bdl 00000001801c28a0 f   libucrt:remainder_piby2_forfma3.obj
 0001:001c1918       _cosf_special              00000001801c2918 f   libucrt:sincos_special.obj
 0001:001c19b8       _sinf_special              00000001801c29b8 f   libucrt:sincos_special.obj
 0001:001c19cc       _tanf_special              00000001801c29cc f   libucrt:sincos_special.obj
 0001:001c19e0       _clrfp                     00000001801c29e0 f   libucrt:fpctrl.obj
 0001:001c1a00       _ctrlfp                    00000001801c2a00 f   libucrt:fpctrl.obj
 0001:001c1a7c       _set_statfp                00000001801c2a7c f   libucrt:fpctrl.obj
 0001:001c1a9c       _statfp                    00000001801c2a9c f   libucrt:fpctrl.obj
 0001:001c1ab0       __acrt_initialize_fma3     00000001801c2ab0 f   libucrt:fma3_available.obj
 0001:001c1b20       __remainder_piby2d2f_forC  00000001801c2b20 f   libucrt:remainder_piby2f_forc.obj
 0001:001c1cac       __acrt_call_reportfault    00000001801c2cac f   libucrt:invalid_parameter.obj
 0001:001c1e08       __acrt_initialize_invalid_parameter_handler 00000001801c2e08 f   libucrt:invalid_parameter.obj
 0001:001c1e10       _invalid_parameter         00000001801c2e10 f   libucrt:invalid_parameter.obj
 0001:001c1ec0       _invalid_parameter_noinfo  00000001801c2ec0 f   libucrt:invalid_parameter.obj
 0001:001c1ee0       _invoke_watson             00000001801c2ee0 f   libucrt:invalid_parameter.obj
 0001:001c1f28       __acrt_errno_from_os_error 00000001801c2f28 f   libucrt:errno.obj
 0001:001c1f70       __acrt_errno_map_os_error  00000001801c2f70 f   libucrt:errno.obj
 0001:001c1fc0       __doserrno                 00000001801c2fc0 f   libucrt:errno.obj
 0001:001c1fe0       _errno                     00000001801c2fe0 f   libucrt:errno.obj
 0001:001c2000       _calloc_base               00000001801c3000 f   libucrt:calloc_base.obj
 0001:001c2078       _free_base                 00000001801c3078 f   libucrt:free_base.obj
 0001:001c2290       __acrt_AppPolicyGetProcessTerminationMethodInternal 00000001801c3290 f   libucrt:winapi_thunks.obj
 0001:001c22e0       __acrt_AreFileApisANSI     00000001801c32e0 f   libucrt:winapi_thunks.obj
 0001:001c231c       __acrt_FlsAlloc            00000001801c331c f   libucrt:winapi_thunks.obj
 0001:001c2364       __acrt_FlsFree             00000001801c3364 f   libucrt:winapi_thunks.obj
 0001:001c23ac       __acrt_FlsGetValue         00000001801c33ac f   libucrt:winapi_thunks.obj
 0001:001c23f4       __acrt_FlsSetValue         00000001801c33f4 f   libucrt:winapi_thunks.obj
 0001:001c2448       __acrt_InitializeCriticalSectionEx 00000001801c3448 f   libucrt:winapi_thunks.obj
 0001:001c24ac       __acrt_LCMapStringEx       00000001801c34ac f   libucrt:winapi_thunks.obj
 0001:001c2588       __acrt_LocaleNameToLCID    00000001801c3588 f   libucrt:winapi_thunks.obj
 0001:001c25d8       __acrt_initialize_winapi_thunks 00000001801c35d8 f   libucrt:winapi_thunks.obj
 0001:001c260c       __acrt_uninitialize_winapi_thunks 00000001801c360c f   libucrt:winapi_thunks.obj
 0001:001c2650       _fcloseall                 00000001801c3650 f   libucrt:closeall.obj
 0001:001c28e0       __acrt_stdio_flush_nolock  00000001801c38e0 f   libucrt:fflush.obj
 0001:001c295c       _fflush_nolock             00000001801c395c f   libucrt:fflush.obj
 0001:001c29a8       _flushall                  00000001801c39a8 f   libucrt:fflush.obj
 0001:001c29b0       __acrt_stdio_free_buffer_nolock 00000001801c39b0 f   libucrt:_freebuf.obj
 0001:001c2bec       __acrt_initialize_lowio    00000001801c3bec f   libucrt:ioinit.obj
 0001:001c2c28       __acrt_uninitialize_lowio  00000001801c3c28 f   libucrt:ioinit.obj
 0001:001c2c68       _malloc_base               00000001801c3c68 f   libucrt:malloc_base.obj
 0001:001c2cc8       strtol                     00000001801c3cc8 f   libucrt:strtox.obj
 0001:001c2cf4       _mbtowc_l                  00000001801c3cf4 f   libucrt:mbtowc.obj
 0001:001c2e74       mbtowc                     00000001801c3e74 f   libucrt:mbtowc.obj
 0001:001c2e7c       _wctomb_s_l                00000001801c3e7c f   libucrt:wctomb.obj
 0001:001c3018       strnlen                    00000001801c4018 f   libucrt:strnlen.obj
 0001:001c3168       wcsnlen                    00000001801c4168 f   libucrt:strnlen.obj
 0001:001c36b8       __acrt_freeptd             00000001801c46b8 f   libucrt:per_thread_data.obj
 0001:001c36fc       __acrt_getptd              00000001801c46fc f   libucrt:per_thread_data.obj
 0001:001c37d0       __acrt_getptd_head         00000001801c47d0 f   libucrt:per_thread_data.obj
 0001:001c3878       __acrt_getptd_noexit       00000001801c4878 f   libucrt:per_thread_data.obj
 0001:001c3944       __acrt_initialize_ptd      00000001801c4944 f   libucrt:per_thread_data.obj
 0001:001c3980       __acrt_uninitialize_ptd    00000001801c4980 f   libucrt:per_thread_data.obj
 0001:001c39a4       __acrt_update_locale_info  00000001801c49a4 f   libucrt:locale_update.obj
 0001:001c39d8       __acrt_update_multibyte_info 00000001801c49d8 f   libucrt:locale_update.obj
 0001:001c4418       __acrt_fp_format           00000001801c5418 f   libucrt:cvt.obj
 0001:001c4750       _fileno                    00000001801c5750 f   libucrt:fileno.obj
 0001:001c4778       _fputc_nolock              00000001801c5778 f   libucrt:fputc.obj
 0001:001c4790       _get_printf_count_output   00000001801c5790 f   libucrt:printf_count_output.obj
 0001:001c47a8       __acrt_should_use_temporary_buffer 00000001801c57a8 f   libucrt:_sftbuf.obj
 0001:001c47f0       __acrt_stdio_begin_temporary_buffering_nolock 00000001801c57f0 f   libucrt:_sftbuf.obj
 0001:001c48b8       __acrt_stdio_end_temporary_buffering_nolock 00000001801c58b8 f   libucrt:_sftbuf.obj
 0001:001c4964       __acrt_set_locale_changed  00000001801c5964 f   libucrt:wsetlocale.obj
 0001:001c4970       __acrt_uninitialize_locale 00000001801c5970 f   libucrt:wsetlocale.obj
 0001:001c4ac4       _handle_error              00000001801c5ac4 f   libucrt:libm_error.obj
 0001:001c4bec       _handle_errorf             00000001801c5bec f   libucrt:libm_error.obj
 0001:001c4d20       _handle_nan                00000001801c5d20 f   libucrt:libm_error.obj
 0001:001c4d3c       _handle_nanf               00000001801c5d3c f   libucrt:libm_error.obj
 0001:001c4d50       _powf_special              00000001801c5d50 f   libucrt:pow_special.obj
 0001:001c4edc       __acrt_initialize_locks    00000001801c5edc f   libucrt:locks.obj
 0001:001c4f24       __acrt_lock                00000001801c5f24 f   libucrt:locks.obj
 0001:001c4f40       __acrt_uninitialize_locks  00000001801c5f40 f   libucrt:locks.obj
 0001:001c4f78       __acrt_unlock              00000001801c5f78 f   libucrt:locks.obj
 0001:001c4f94       __acrt_get_process_end_policy 00000001801c5f94 f   libucrt:win_policies.obj
 0001:001c4fe4       ??$__acrt_mbs_to_wcs_cp@U__crt_win32_buffer_internal_dynamic_resizing@@@@YAHQEBDAEAV?$__crt_win32_buffer@_WU__crt_win32_buffer_internal_dynamic_resizing@@@@I@Z 00000001801c5fe4 f i libucrt:argv_wildcards.obj
 0001:001c515c       ??$__acrt_wcs_to_mbs_cp@U__crt_win32_buffer_internal_dynamic_resizing@@@@YAHQEB_WAEAV?$__crt_win32_buffer@DU__crt_win32_buffer_internal_dynamic_resizing@@@@I@Z 00000001801c615c f i libucrt:argv_wildcards.obj
 0001:001c598c       __acrt_expand_narrow_argv_wildcards 00000001801c698c f   libucrt:argv_wildcards.obj
 0001:001c5994       ??$__acrt_wcs_to_mbs_cp@U__crt_win32_buffer_no_resizing@@@@YAHQEB_WAEAV?$__crt_win32_buffer@DU__crt_win32_buffer_no_resizing@@@@I@Z 00000001801c6994 f i libucrt:getmodulefilenamea.obj
 0001:001c5aa8       __acrt_GetModuleFileNameA  00000001801c6aa8 f   libucrt:getmodulefilenamea.obj
 0001:001c62f0       __acrt_initialize_multibyte 00000001801c72f0 f   libucrt:mbctype.obj
 0001:001c6350       __acrt_update_thread_multibyte_data 00000001801c7350 f   libucrt:mbctype.obj
 0001:001c636c       _setmbcp_nolock            00000001801c736c f   libucrt:mbctype.obj
 0001:001c66a0       _ismbblead                 00000001801c76a0 f   libucrt:ismbbyte.obj
 0001:001c66b4       __acrt_initialize_command_line 00000001801c76b4 f   libucrt:argv_data.obj
 0001:001c66dc       __acrt_MultiByteToWideChar 00000001801c76dc f   libucrt:multibytetowidechar.obj
 0001:001c6738       __acrt_WideCharToMultiByte 00000001801c7738 f   libucrt:widechartomultibyte.obj
 0001:001c67e8       __dcrt_get_narrow_environment_from_os 00000001801c77e8 f   libucrt:get_environment_from_os.obj
 0001:001c68ec       _recalloc_base             00000001801c78ec f   libucrt:recalloc.obj
 0001:001c6984       __acrt_initialize_heap     00000001801c7984 f   libucrt:heap_handle.obj
 0001:001c69a0       __acrt_uninitialize_heap   00000001801c79a0 f   libucrt:heap_handle.obj
 0001:001c69ac       __acrt_execute_initializers 00000001801c79ac f   libucrt:shared_initialization.obj
 0001:001c6a2c       __acrt_execute_uninitializers 00000001801c7a2c f   libucrt:shared_initialization.obj
 0001:001c6a68       __acrt_initialize_new_handler 00000001801c7a68 f   libucrt:new_handler.obj
 0001:001c6a70       _callnewh                  00000001801c7a70 f   libucrt:new_handler.obj
 0001:001c6aa0       _query_new_handler         00000001801c7aa0 f   libucrt:new_handler.obj
 0001:001c6b1c       __acrt_get_sigabrt_handler 00000001801c7b1c f   libucrt:signal.obj
 0001:001c6b4c       __acrt_initialize_signal_handlers 00000001801c7b4c f   libucrt:signal.obj
 0001:001c6b6c       raise                      00000001801c7b6c f   libucrt:signal.obj
 0001:001c6dd8       __acrt_has_user_matherr    00000001801c7dd8 f   libucrt:matherr.obj
 0001:001c6df8       __acrt_initialize_user_matherr 00000001801c7df8 f   libucrt:matherr.obj
 0001:001c6e00       __acrt_invoke_user_matherr 00000001801c7e00 f   libucrt:matherr.obj
 0001:001c6e30       __pctype_func              00000001801c7e30 f   libucrt:ctype.obj
 0001:001c6e60       _isctype_l                 00000001801c7e60 f   libucrt:isctype.obj
 0001:001c6f80       _get_fpsr                  00000001801c7f80 f   libucrt:fpsr.obj
 0001:001c6f90       _set_fpsr                  00000001801c7f90 f   libucrt:fpsr.obj
 0001:001c6f9a       _fclrf                     00000001801c7f9a f   libucrt:fpsr.obj
 0001:001c6fae       _frnd                      00000001801c7fae f   libucrt:fpsr.obj
 0001:001c6fd0       _query_new_mode            00000001801c7fd0 f   libucrt:new_mode.obj
 0001:001c6fd8       __acrt_DownlevelLocaleNameToLCID 00000001801c7fd8 f   libucrt:lcidtoname_downlevel.obj
 0001:001c7088       _fclose_nolock             00000001801c8088 f   libucrt:fclose.obj
 0001:001c710c       fclose                     00000001801c810c f   libucrt:fclose.obj
 0001:001c71fc       _commit                    00000001801c81fc f   libucrt:commit.obj
 0001:001c7b0c       _write                     00000001801c8b0c f   libucrt:write.obj
 0001:001c7bf8       _write_nolock              00000001801c8bf8 f   libucrt:write.obj
 0001:001c7edc       __acrt_lowio_create_handle_array 00000001801c8edc f   libucrt:osfinfo.obj
 0001:001c7f84       __acrt_lowio_destroy_handle_array 00000001801c8f84 f   libucrt:osfinfo.obj
 0001:001c7fd4       __acrt_lowio_ensure_fh_exists 00000001801c8fd4 f   libucrt:osfinfo.obj
 0001:001c807c       __acrt_lowio_lock_fh       00000001801c907c f   libucrt:osfinfo.obj
 0001:001c80a4       __acrt_lowio_unlock_fh     00000001801c90a4 f   libucrt:osfinfo.obj
 0001:001c80cc       _free_osfhnd               00000001801c90cc f   libucrt:osfinfo.obj
 0001:001c8188       _get_osfhandle             00000001801c9188 f   libucrt:osfinfo.obj
 0001:001c8200       _isleadbyte_l              00000001801c9200 f i libucrt:_wctype.obj
 0001:001c824c       ?__mbrtowc_utf8@__crt_mbstring@@YA_KPEA_WPEBD_KPEAU_Mbstatet@@@Z 00000001801c924c f   libucrt:mbrtowc.obj
 0001:001c8288       ?__mbsrtowcs_utf8@__crt_mbstring@@YA_KPEA_WPEAPEBD_KPEAU_Mbstatet@@@Z 00000001801c9288 f   libucrt:mbrtowc.obj
 0001:001c8400       ?__c32rtomb_utf8@__crt_mbstring@@YA_KPEAD_UPEAU_Mbstatet@@@Z 00000001801c9400 f   libucrt:c32rtomb.obj
 0001:001c84b4       __acrt_add_locale_ref      00000001801c94b4 f   libucrt:locale_refcounting.obj
 0001:001c8540       __acrt_free_locale         00000001801c9540 f   libucrt:locale_refcounting.obj
 0001:001c86b8       __acrt_locale_add_lc_time_reference 00000001801c96b8 f   libucrt:locale_refcounting.obj
 0001:001c86e0       __acrt_locale_free_lc_time_if_unreferenced 00000001801c96e0 f   libucrt:locale_refcounting.obj
 0001:001c8718       __acrt_locale_release_lc_time_reference 00000001801c9718 f   libucrt:locale_refcounting.obj
 0001:001c8740       __acrt_release_locale_ref  00000001801c9740 f   libucrt:locale_refcounting.obj
 0001:001c87e8       __acrt_update_thread_locale_data 00000001801c97e8 f   libucrt:locale_refcounting.obj
 0001:001c8858       _updatetlocinfoEx_nolock   00000001801c9858 f   libucrt:locale_refcounting.obj
 0001:001c88c0       __acrt_fp_strflt_to_string 00000001801c98c0 f   libucrt:_fptostr.obj
 0001:001c8a20       ?divide@__crt_strtox@@YA_KAEAUbig_integer@1@AEBU21@@Z 00000001801c9a20 f i libucrt:cfout.obj
 0001:001c8e4c       __acrt_fltout              00000001801c9e4c f   libucrt:cfout.obj
 0001:001ca118       fegetround                 00000001801cb118 f   libucrt:fegetround.obj
 0001:001ca28c       __acrt_stdio_flush_and_write_narrow_nolock 00000001801cb28c f   libucrt:_flsbuf.obj
 0001:001ca344       _isatty                    00000001801cb344 f   libucrt:isatty.obj
 0001:001ca3a4       __acrt_locale_free_monetary 00000001801cb3a4 f   libucrt:initmon.obj
 0001:001ca4b0       __acrt_locale_free_numeric 00000001801cb4b0 f   libucrt:initnum.obj
 0001:001ca574       __acrt_locale_free_time    00000001801cb574 f   libucrt:inittime.obj
 0001:001ca67c       __acrt_GetStringTypeA      00000001801cb67c f   libucrt:getstringtypea.obj
 0001:001ca80c       _raise_exc                 00000001801cb80c f   libucrt:fpexcept.obj
 0001:001ca834       _raise_exc_ex              00000001801cb834 f   libucrt:fpexcept.obj
 0001:001cab44       _raise_excf                00000001801cbb44 f   libucrt:fpexcept.obj
 0001:001cab70       _set_errno_from_matherr    00000001801cbb70 f   libucrt:fpexcept.obj
 0001:001caba0       qsort                      00000001801cbba0 f   libucrt:qsort.obj
 0001:001caf40       strncpy_s                  00000001801cbf40 f   libucrt:strncpy_s.obj
 0001:001cb0c0       strpbrk                    00000001801cc0c0 f   libucrt:strpbrk.obj
 0001:001cb488       _mbsdec                    00000001801cc488 f   libucrt:mbsdec.obj
 0001:001cb490       _mbsdec_l                  00000001801cc490 f   libucrt:mbsdec.obj
 0001:001cb83c       __acrt_LCMapStringA        00000001801cc83c f   libucrt:lcmapstringa.obj
 0001:001cb8ec       _msize_base                00000001801cc8ec f   libucrt:msize.obj
 0001:001cb928       _realloc_base              00000001801cc928 f   libucrt:realloc_base.obj
 0001:001cb9a4       __ascii_wcsnicmp           00000001801cc9a4 f   libucrt:wcsnicmp.obj
 0001:001cba64       _close                     00000001801cca64 f   libucrt:close.obj
 0001:001cbb08       _close_nolock              00000001801ccb08 f   libucrt:close.obj
 0001:001cbbc8       ?__acrt_stdio_free_stream@@YAXV__crt_stdio_stream@@@Z 00000001801ccbc8 f   libucrt:stream.obj
 0001:001cbd70       _lseeki64                  00000001801ccd70 f   libucrt:lseek.obj
 0001:001cbd78       _lseeki64_nolock           00000001801ccd78 f   libucrt:lseek.obj
 0001:001cbd80       _putwch_nolock             00000001801ccd80 f   libucrt:putwch.obj
 0001:001cbdbc       _query_app_type            00000001801ccdbc f   libucrt:report_runtime_error.obj
 0001:001cbdc4       ?__mbrtoc32_utf8@__crt_mbstring@@YA_KPEA_UPEBD_KPEAU_Mbstatet@@@Z 00000001801ccdc4 f   libucrt:mbrtoc32.obj
 0001:001cbf9c       _controlfp_s               00000001801ccf9c f   libucrt:contrlfp.obj
 0001:001cc000       fegetenv                   00000001801cd000 f   libucrt:fegetenv.obj
 0001:001cc020       fesetenv                   00000001801cd020 f   libucrt:fesetenv.obj
 0001:001cc06c       feholdexcept               00000001801cd06c f   libucrt:feholdexcept.obj
 0001:001cc0bc       ceil                       00000001801cd0bc f   libucrt:ceil.obj
 0001:001cc180       log10                      00000001801cd180 f   libucrt:log10.obj
 0001:001cc72c       __acrt_fenv_get_common_round_control 00000001801cd72c f   libucrt:_fenvutils.obj
 0001:001cc738       __acrt_fenv_get_control    00000001801cd738 f   libucrt:_fenvutils.obj
 0001:001cc82c       __acrt_fenv_get_status     00000001801cd82c f   libucrt:_fenvutils.obj
 0001:001cc880       __acrt_fenv_set_control    00000001801cd880 f   libucrt:_fenvutils.obj
 0001:001cc9c8       __acrt_fenv_set_status     00000001801cd9c8 f   libucrt:_fenvutils.obj
 0001:001cca4c       __acrt_stdio_allocate_buffer_nolock 00000001801cda4c f   libucrt:_getbuf.obj
 0001:001ccab8       __strncnt                  00000001801cdab8 f   libucrt:strncnt.obj
 0001:001ccad0       __dcrt_lowio_ensure_console_output_initialized 00000001801cdad0 f   libucrt:initcon.obj
 0001:001ccb24       __dcrt_terminate_console_output 00000001801cdb24 f   libucrt:initcon.obj
 0001:001ccb40       __dcrt_write_console       00000001801cdb40 f   libucrt:initcon.obj
 0001:001ccc00       _clearfp                   00000001801cdc00 f   libucrt:ieee.obj
 0001:001ccc70       _control87                 00000001801cdc70 f   libucrt:ieee.obj
 0001:001ccf40       _log10_special             00000001801cdf40 f   libucrt:log_special.obj
 0001:001cd000       _FindPESection             00000001801ce000 f   LIBCMT:pesect.obj
 0001:001cd050       _IsNonwritableInCurrentImage 00000001801ce050 f   LIBCMT:pesect.obj
 0001:001cd0a0       _ValidateImageBase         00000001801ce0a0 f   LIBCMT:pesect.obj
 0001:001cd0d0       __GSHandlerCheck           00000001801ce0d0 f   LIBCMT:gshandler.obj
 0001:001cd0f0       __GSHandlerCheckCommon     00000001801ce0f0 f   LIBCMT:gshandler.obj
 0001:001cd160       __security_check_cookie    00000001801ce160 f   LIBCMT:amdsecgs.obj
 0001:001cd180       __GSHandlerCheck_SEH       00000001801ce180 f   LIBCMT:gshandlerseh.obj
 0001:001cd208       __raise_securityfailure    00000001801ce208 f   LIBCMT:gs_report.obj
 0001:001cd23c       __report_gsfailure         00000001801ce23c f   LIBCMT:gs_report.obj
 0001:001cd310       __report_rangecheckfailure 00000001801ce310 f   LIBCMT:gs_report.obj
 0001:001cd324       __report_securityfailure   00000001801ce324 f   LIBCMT:gs_report.obj
 0001:001cd4a4       strrchr                    00000001801ce4a4 f   libvcruntime:strrchr.obj
 0001:001cd5e0       memcmp                     00000001801ce5e0 f   libvcruntime:memcmp.obj
 0001:001cd6c0       _guard_dispatch_icall_nop  00000001801ce6c0 f   LIBCMT:guard_dispatch.obj
 0001:001cd6e0       _guard_xfg_dispatch_icall_nop 00000001801ce6e0 f   LIBCMT:guard_xfg_dispatch.obj
 0002:00000000       __imp_GetLastError         00000001801cf000     kernel32:KERNEL32.dll
 0002:00000008       __imp_FreeLibrary          00000001801cf008     kernel32:KERNEL32.dll
 0002:00000010       __imp_GetProcAddress       00000001801cf010     kernel32:KERNEL32.dll
 0002:00000018       __imp_LoadLibraryA         00000001801cf018     kernel32:KERNEL32.dll
 0002:00000020       __imp_RaiseException       00000001801cf020     kernel32:KERNEL32.dll
 0002:00000028       __imp_GetSystemInfo        00000001801cf028     kernel32:KERNEL32.dll
 0002:00000030       __imp_VirtualProtect       00000001801cf030     kernel32:KERNEL32.dll
 0002:00000038       __imp_VirtualQuery         00000001801cf038     kernel32:KERNEL32.dll
 0002:00000040       __imp_GetModuleHandleW     00000001801cf040     kernel32:KERNEL32.dll
 0002:00000048       __imp_LoadLibraryExA       00000001801cf048     kernel32:KERNEL32.dll
 0002:00000050       __imp_InitializeSListHead  00000001801cf050     kernel32:KERNEL32.dll
 0002:00000058       __imp_RtlCaptureContext    00000001801cf058     kernel32:KERNEL32.dll
 0002:00000060       __imp_RtlLookupFunctionEntry 00000001801cf060     kernel32:KERNEL32.dll
 0002:00000068       __imp_RtlVirtualUnwind     00000001801cf068     kernel32:KERNEL32.dll
 0002:00000070       __imp_IsDebuggerPresent    00000001801cf070     kernel32:KERNEL32.dll
 0002:00000078       __imp_UnhandledExceptionFilter 00000001801cf078     kernel32:KERNEL32.dll
 0002:00000080       __imp_SetUnhandledExceptionFilter 00000001801cf080     kernel32:KERNEL32.dll
 0002:00000088       __imp_GetStartupInfoW      00000001801cf088     kernel32:KERNEL32.dll
 0002:00000090       __imp_IsProcessorFeaturePresent 00000001801cf090     kernel32:KERNEL32.dll
 0002:00000098       __imp_QueryPerformanceCounter 00000001801cf098     kernel32:KERNEL32.dll
 0002:000000a0       __imp_GetCurrentProcessId  00000001801cf0a0     kernel32:KERNEL32.dll
 0002:000000a8       __imp_GetCurrentThreadId   00000001801cf0a8     kernel32:KERNEL32.dll
 0002:000000b0       __imp_GetSystemTimeAsFileTime 00000001801cf0b0     kernel32:KERNEL32.dll
 0002:000000b8       __imp_InterlockedPushEntrySList 00000001801cf0b8     kernel32:KERNEL32.dll
 0002:000000c0       __imp_InterlockedFlushSList 00000001801cf0c0     kernel32:KERNEL32.dll
 0002:000000c8       __imp_RtlUnwindEx          00000001801cf0c8     kernel32:KERNEL32.dll
 0002:000000d0       __imp_SetLastError         00000001801cf0d0     kernel32:KERNEL32.dll
 0002:000000d8       __imp_EnterCriticalSection 00000001801cf0d8     kernel32:KERNEL32.dll
 0002:000000e0       __imp_LeaveCriticalSection 00000001801cf0e0     kernel32:KERNEL32.dll
 0002:000000e8       __imp_DeleteCriticalSection 00000001801cf0e8     kernel32:KERNEL32.dll
 0002:000000f0       __imp_InitializeCriticalSectionAndSpinCount 00000001801cf0f0     kernel32:KERNEL32.dll
 0002:000000f8       __imp_TlsAlloc             00000001801cf0f8     kernel32:KERNEL32.dll
 0002:00000100       __imp_TlsGetValue          00000001801cf100     kernel32:KERNEL32.dll
 0002:00000108       __imp_TlsSetValue          00000001801cf108     kernel32:KERNEL32.dll
 0002:00000110       __imp_TlsFree              00000001801cf110     kernel32:KERNEL32.dll
 0002:00000118       __imp_LoadLibraryExW       00000001801cf118     kernel32:KERNEL32.dll
 0002:00000120       __imp_EncodePointer        00000001801cf120     kernel32:KERNEL32.dll
 0002:00000128       __imp_RtlPcToFileHeader    00000001801cf128     kernel32:KERNEL32.dll
 0002:00000130       __imp_GetCurrentProcess    00000001801cf130     kernel32:KERNEL32.dll
 0002:00000138       __imp_ExitProcess          00000001801cf138     kernel32:KERNEL32.dll
 0002:00000140       __imp_TerminateProcess     00000001801cf140     kernel32:KERNEL32.dll
 0002:00000148       __imp_GetModuleHandleExW   00000001801cf148     kernel32:KERNEL32.dll
 0002:00000150       __imp_GetModuleFileNameW   00000001801cf150     kernel32:KERNEL32.dll
 0002:00000158       __imp_HeapAlloc            00000001801cf158     kernel32:KERNEL32.dll
 0002:00000160       __imp_HeapFree             00000001801cf160     kernel32:KERNEL32.dll
 0002:00000168       __imp_LCMapStringW         00000001801cf168     kernel32:KERNEL32.dll
 0002:00000170       __imp_GetStdHandle         00000001801cf170     kernel32:KERNEL32.dll
 0002:00000178       __imp_GetFileType          00000001801cf178     kernel32:KERNEL32.dll
 0002:00000180       __imp_FindClose            00000001801cf180     kernel32:KERNEL32.dll
 0002:00000188       __imp_FindFirstFileExW     00000001801cf188     kernel32:KERNEL32.dll
 0002:00000190       __imp_FindNextFileW        00000001801cf190     kernel32:KERNEL32.dll
 0002:00000198       __imp_IsValidCodePage      00000001801cf198     kernel32:KERNEL32.dll
 0002:000001a0       __imp_GetACP               00000001801cf1a0     kernel32:KERNEL32.dll
 0002:000001a8       __imp_GetOEMCP             00000001801cf1a8     kernel32:KERNEL32.dll
 0002:000001b0       __imp_GetCPInfo            00000001801cf1b0     kernel32:KERNEL32.dll
 0002:000001b8       __imp_GetCommandLineA      00000001801cf1b8     kernel32:KERNEL32.dll
 0002:000001c0       __imp_GetCommandLineW      00000001801cf1c0     kernel32:KERNEL32.dll
 0002:000001c8       __imp_MultiByteToWideChar  00000001801cf1c8     kernel32:KERNEL32.dll
 0002:000001d0       __imp_WideCharToMultiByte  00000001801cf1d0     kernel32:KERNEL32.dll
 0002:000001d8       __imp_GetEnvironmentStringsW 00000001801cf1d8     kernel32:KERNEL32.dll
 0002:000001e0       __imp_FreeEnvironmentStringsW 00000001801cf1e0     kernel32:KERNEL32.dll
 0002:000001e8       __imp_GetProcessHeap       00000001801cf1e8     kernel32:KERNEL32.dll
 0002:000001f0       __imp_FlushFileBuffers     00000001801cf1f0     kernel32:KERNEL32.dll
 0002:000001f8       __imp_WriteFile            00000001801cf1f8     kernel32:KERNEL32.dll
 0002:00000200       __imp_GetConsoleOutputCP   00000001801cf200     kernel32:KERNEL32.dll
 0002:00000208       __imp_GetConsoleMode       00000001801cf208     kernel32:KERNEL32.dll
 0002:00000210       __imp_SetStdHandle         00000001801cf210     kernel32:KERNEL32.dll
 0002:00000218       __imp_GetFileSizeEx        00000001801cf218     kernel32:KERNEL32.dll
 0002:00000220       __imp_SetFilePointerEx     00000001801cf220     kernel32:KERNEL32.dll
 0002:00000228       __imp_GetStringTypeW       00000001801cf228     kernel32:KERNEL32.dll
 0002:00000230       __imp_HeapSize             00000001801cf230     kernel32:KERNEL32.dll
 0002:00000238       __imp_HeapReAlloc          00000001801cf238     kernel32:KERNEL32.dll
 0002:00000240       __imp_CloseHandle          00000001801cf240     kernel32:KERNEL32.dll
 0002:00000248       __imp_CreateFileW          00000001801cf248     kernel32:KERNEL32.dll
 0002:00000250       __imp_WriteConsoleW        00000001801cf250     kernel32:KERNEL32.dll
 0002:00000258       \177KERNEL32_NULL_THUNK_DATA 00000001801cf258     kernel32:KERNEL32.dll
 0002:00000260       __guard_check_icall_fptr   00000001801cf260     LIBCMT:guard_support.obj
 0002:00000268       __guard_xfg_check_icall_fptr 00000001801cf268     LIBCMT:guard_support.obj
 0002:00000270       __guard_dispatch_icall_fptr 00000001801cf270     LIBCMT:guard_support.obj
 0002:00000278       __guard_xfg_dispatch_icall_fptr 00000001801cf278     LIBCMT:guard_support.obj
 0002:00000280       __guard_xfg_table_dispatch_icall_fptr 00000001801cf280     LIBCMT:guard_support.obj
 0002:00000288       __xc_a                     00000001801cf288     LIBCMT:initializers.obj
 0002:00001b40       __xc_z                     00000001801d0b40     LIBCMT:initializers.obj
 0002:00001b48       __xi_a                     00000001801d0b48     LIBCMT:initializers.obj
 0002:00001b50       __acrt_stdio_initializer   00000001801d0b50     libucrt:stdio_initializer.obj
 0002:00001b58       __acrt_tran_fma3_initializer 00000001801d0b58     libucrt:fma3_initializer.obj
 0002:00001b60       __acrt_multibyte_initializer 00000001801d0b60     libucrt:multibyte_initializer.obj
 0002:00001b68       __xi_z                     00000001801d0b68     LIBCMT:initializers.obj
 0002:00001b70       __xp_a                     00000001801d0b70     LIBCMT:initializers.obj
 0002:00001b78       __acrt_locale_terminator   00000001801d0b78     libucrt:locale_initializer.obj
 0002:00001b80       __dcrt_console_output_terminator 00000001801d0b80     libucrt:console_output_initializer.obj
 0002:00001b88       __acrt_stdio_terminator    00000001801d0b88     libucrt:stdio_initializer.obj
 0002:00001b90       __xp_z                     00000001801d0b90     LIBCMT:initializers.obj
 0002:00001b98       __xt_a                     00000001801d0b98     LIBCMT:initializers.obj
 0002:00001ba0       __xt_z                     00000001801d0ba0     LIBCMT:initializers.obj
 0002:00001bb0       ??_C@_08MDGMHCHN@PtrTable@ 00000001801d0bb0     CmPtrTable.obj
 0002:00001bbc       ??_C@_04GKJNKENE@void@     00000001801d0bbc     CmPtrTable.obj
 0002:00001bc8       ??_C@_07DFEBJDHE@mSingle@  00000001801d0bc8     CmPtrTable.obj
 0002:00001bd0       ??_C@_05NLHHBMOH@PxU16@    00000001801d0bd0     CmPtrTable.obj
 0002:00001bd8       ??_C@_06EPKHJPIM@mCount@   00000001801d0bd8     CmPtrTable.obj
 0002:00001be0       ??_C@_04DDKJGDCM@bool@     00000001801d0be0     CmPtrTable.obj
 0002:00001be8       ??_C@_0M@DAGELID@mOwnsMemory@ 00000001801d0be8     CmPtrTable.obj
 0002:00001bf8       ??_C@_0M@MMPOMMLP@mBufferUsed@ 00000001801d0bf8     CmPtrTable.obj
 0002:00001c04       ??_C@_05LMJPANIN@PxU32@    00000001801d0c04     CmPtrTable.obj
 0002:00001c10       ??_C@_09PMLNMEMN@mFreeSlot@ 00000001801d0c10     CmPtrTable.obj
 0002:00001c20       ??_7PxCollection@physx@@6B@ 00000001801d0c20     CmCollection.obj
 0002:00001ca0       ??_C@_00CNPNBAHC@@         00000001801d0ca0     CmCollection.obj
 0002:00001ca8       ??_7Collection@Cm@physx@@6B@ 00000001801d0ca8     CmCollection.obj
 0002:00001d30       ??_C@_0GE@GBACBMOC@PxCollection?3?3add?5called?5for?5an@ 00000001801d0d30     CmCollection.obj
 0002:00001da0       ??_C@_0FE@DHIALGFE@F?3?2Downloads?2repos?2PhysX?9104?42?9@ 00000001801d0da0     CmCollection.obj
 0002:00001e00       ??_C@_0EM@OMMGDOMK@PxCollection?3?3add?5called?5with?5a@ 00000001801d0e00     CmCollection.obj
 0002:00001e50       ??_C@_0FG@GCBFMCCP@F?3?2Downloads?2repos?2PhysX?9104?42?9@ 00000001801d0e50     CmCollection.obj
 0002:00001ea8       ??_C@_0BM@OIFKLHDN@?$DMallocation?5names?5disabled?$DO@ 00000001801d0ea8     CmCollection.obj
 0002:00001ec8       ??_7RadixSort@Cm@physx@@6B@ 00000001801d0ec8     CmRadixSort.obj
 0002:00001ed0       ??_7RadixSortBuffered@Cm@physx@@6B@ 00000001801d0ed0     CmRadixSort.obj
 0002:00001ee0       ??_C@_0FD@IABNMGNK@F?3?2Downloads?2repos?2PhysX?9104?42?9@ 00000001801d0ee0     CmRadixSort.obj
 0002:00001f40       __xmm@00000001000000010000000100000001 00000001801d0f40     CmRadixSort.obj
 0002:00001f50       __xmm@00000003000000020000000100000000 00000001801d0f50     CmRadixSort.obj
 0002:00001f60       __real@343bbd2e            00000001801d0f60     CmVisualization.obj
 0002:00001f64       __real@3d00adfd            00000001801d0f64     CmVisualization.obj
 0002:00001f68       __real@3d4ccccd            00000001801d0f68     CmVisualization.obj
 0002:00001f6c       __real@3d80adfd            00000001801d0f6c     CmVisualization.obj
 0002:00001f70       __real@3e19999a            00000001801d0f70     CmVisualization.obj
 0002:00001f74       __real@3e490fdb            00000001801d0f74     CmVisualization.obj
 0002:00001f78       __real@3e800000            00000001801d0f78     CmVisualization.obj
 0002:00001f7c       __real@3e99999a            00000001801d0f7c     CmVisualization.obj
 0002:00001f80       __real@3ea0d97c            00000001801d0f80     CmVisualization.obj
 0002:00001f84       __real@3eddb3d7            00000001801d0f84     CmVisualization.obj
 0002:00001f88       __real@3f000000            00000001801d0f88     CmVisualization.obj
 0002:00001f8c       __real@3f3504f3            00000001801d0f8c     CmVisualization.obj
 0002:00001f90       __real@3f800000            00000001801d0f90     CmVisualization.obj
 0002:00001f94       __real@3fc00000            00000001801d0f94     CmVisualization.obj
 0002:00001f98       __real@3fddb3d7            00000001801d0f98     CmVisualization.obj
 0002:00001f9c       __real@40100000            00000001801d0f9c     CmVisualization.obj
 0002:00001fa0       __real@40490fdb            00000001801d0fa0     CmVisualization.obj
 0002:00001fa4       __real@40c90fdb            00000001801d0fa4     CmVisualization.obj
 0002:00001fa8       __real@b3bbbd2e            00000001801d0fa8     CmVisualization.obj
 0002:00001fac       __real@beddb3d7            00000001801d0fac     CmVisualization.obj
 0002:00001fb0       __real@c0000000            00000001801d0fb0     CmVisualization.obj
 0002:00001fc0       __xmm@3f800000000000000000000000000000 00000001801d0fc0     CmVisualization.obj
 0002:00001fd0       __xmm@7fffffff7fffffff7fffffff7fffffff 00000001801d0fd0     CmVisualization.obj
 0002:00001fe0       __xmm@80000000800000008000000080000000 00000001801d0fe0     CmVisualization.obj
 0002:00001ff0       ??_C@_0BB@CPDDPFKD@GetUpdatedModule@ 00000001801d0ff0     CmWindowsModuleUpdateLoader.obj
 0002:00002010       ??_C@_0GL@DBEHOFIA@F?3?2Downloads?2repos?2PhysX?9104?42?9@ 00000001801d1010     CmWindowsModuleUpdateLoader.obj
 0002:00002080       ??_C@_0CP@PGOIOJOO@?$CFs?3?$CFi?3?5loadLibrary?5error?5when?5l@ 00000001801d1080     CmWindowsModuleUpdateLoader.obj
 0002:000020b0       ??_C@_0BA@EGLNOO@PhysXFoundation@ 00000001801d10b0     CmWindowsDelayLoadHook.obj
 0002:000020c0       ??_C@_0M@ILKNCJKN@PhysXCommon@ 00000001801d10c0     CmWindowsDelayLoadHook.obj
 0002:000020f0       __real@3f7ff972            00000001801d10f0     GuBox.obj
 0002:00002100       __xmm@000000003a83126f3a83126f3a83126f 00000001801d1100     GuBox.obj
 0002:00002110       __xmm@00000000ba83126fba83126fba83126f 00000001801d1110     GuBox.obj
 0002:00002120       __xmm@3a83126f3a83126f3a83126f3a83126f 00000001801d1120     GuBox.obj
 0002:00002130       __xmm@ba83126fba83126fba83126fba83126f 00000001801d1130     GuBox.obj
 0002:00002160       ??_7EntityReport@Gu@physx@@6B@ 00000001801d1160     GuSweepsHF.obj
 0002:00002160       ??_7RemapCallback@RTreeCooker@physx@@6B@ 00000001801d1160     GuCookingTriangleMesh.obj
 0002:00002160       ??_7RaycastCallback@PxBVH@physx@@6B@ 00000001801d1160     GuQuerySystem.obj
 0002:00002160       ??_7OverlapCallback@PxBVH@physx@@6B@ 00000001801d1160     GuQuerySystem.obj
 0002:00002160       ??_7OverlapReport@Gu@physx@@6B@ 00000001801d1160     GuCCTSweepTests.obj
 0002:00002180       __real@3b03126f            00000001801d1180     GuCCTSweepTests.obj
 0002:00002184       __real@40000000            00000001801d1184     GuCCTSweepTests.obj
 0002:000021c0       ??_7SupportLocal@Gu@physx@@6B@ 00000001801d11c0     GuGeometryQuery.obj
 0002:000021e0       ??_7?$SupportLocalImpl@VBoxV@Gu@physx@@@Gu@physx@@6B@ 00000001801d11e0     GuGeometryQuery.obj
 0002:00002200       ??_7?$SupportLocalImpl@VConvexHullV@Gu@physx@@@Gu@physx@@6B@ 00000001801d1200     GuGeometryQuery.obj
 0002:00002220       ??_C@_0EO@NJLHEPPN@F?3?2Downloads?2repos?2PhysX?9104?42?9@ 00000001801d1220     GuGeometryQuery.obj
 0002:00002270       __real@30d1b7e9            00000001801d1270     GuGeometryQuery.obj
 0002:00002274       __real@322bcc77            00000001801d1274     GuGeometryQuery.obj
 0002:00002278       __real@358637bd            00000001801d1278     GuGeometryQuery.obj
 0002:0000227c       __real@3a83126f            00000001801d127c     GuGeometryQuery.obj
 0002:00002280       __real@3ccccccd            00000001801d1280     GuGeometryQuery.obj
 0002:00002284       __real@3dcccccd            00000001801d1284     GuGeometryQuery.obj
 0002:00002288       __real@49742400            00000001801d1288     GuGeometryQuery.obj
 0002:0000228c       __real@7f7fffff            00000001801d128c     GuGeometryQuery.obj
 0002:00002290       __real@bf800000            00000001801d1290     GuGeometryQuery.obj
 0002:000022a0       __xmm@0000000000000000000000003f800000 00000001801d12a0     GuGeometryQuery.obj
 0002:000022b0       __xmm@00000000000000003f80000000000000 00000001801d12b0     GuGeometryQuery.obj
 0002:000022c0       __xmm@00000000000000003f8000003f800000 00000001801d12c0     GuGeometryQuery.obj
 0002:000022d0       __xmm@000000003f8000000000000000000000 00000001801d12d0     GuGeometryQuery.obj
 0002:000022e0       __xmm@000000003f8000003f8000003f800000 00000001801d12e0     GuGeometryQuery.obj
 0002:000022f0       __xmm@00000000ffffffffffffffffffffffff 00000001801d12f0     GuGeometryQuery.obj
 0002:00002300       __xmm@3d4ccccd3d4ccccd3d4ccccd3d4ccccd 00000001801d1300     GuGeometryQuery.obj
 0002:00002310       __xmm@3e19999a3e19999a3e19999a3e19999a 00000001801d1310     GuGeometryQuery.obj
 0002:00002320       __xmm@3e4ccccd3e4ccccd3e4ccccd3e4ccccd 00000001801d1320     GuGeometryQuery.obj
 0002:00002330       __xmm@3e8000003e8000003e8000003e800000 00000001801d1330     GuGeometryQuery.obj
 0002:00002340       __xmm@3f7ef9db3f7ef9db3f7ef9db3f7ef9db 00000001801d1340     GuGeometryQuery.obj
 0002:00002350       __xmm@3f7ff2e53f7ff2e53f7ff2e53f7ff2e5 00000001801d1350     GuGeometryQuery.obj
 0002:00002360       __xmm@7f7fffff7f7fffff7f7fffff7f7fffff 00000001801d1360     GuGeometryQuery.obj
 0002:00002370       __xmm@bf000000bf000000bf000000bf000000 00000001801d1370     GuGeometryQuery.obj
 0002:000023b0       ??_C@_0EM@BDFDGBD@Inserting?5object?5failed?3?5Object@ 00000001801d13b0     GuMeshFactory.obj
 0002:00002420       ??_7CallbackRaycast@RTree@Gu@physx@@6B@ 00000001801d1420     GuMidphaseRTree.obj
 0002:00002420       ??_7CallbackRefit@RTree@Gu@physx@@6B@ 00000001801d1420     GuTriangleMeshRTree.obj
 0002:00002420       ??_7PxInsertionCallback@physx@@6B@ 00000001801d1420     GuMeshFactory.obj
 0002:00002430       ??_C@_0FI@OFAAPLDG@F?3?2Downloads?2repos?2PhysX?9104?42?9@ 00000001801d1430     GuMeshFactory.obj
 0002:00002488       ??_7PxCollisionMeshMappingData@physx@@6B@ 00000001801d1488     GuMeshFactory.obj
 0002:00002498       ??_7MeshFactory@Gu@physx@@6B@ 00000001801d1498     GuMeshFactory.obj
 0002:000024a0       ??_7MeshDataBase@Gu@physx@@6B@ 00000001801d14a0     GuMeshFactory.obj
 0002:000024b0       ??_C@_0FI@LNGPFLB@F?3?2Downloads?2repos?2PhysX?9104?42?9@ 00000001801d14b0     GuMeshFactory.obj
 0002:00002508       ??_7TriangleMeshData@Gu@physx@@6B@ 00000001801d1508     GuMeshFactory.obj
 0002:00002510       ??_7RTreeTriangleData@Gu@physx@@6B@ 00000001801d1510     GuMeshFactory.obj
 0002:00002518       ??_7BV4TriangleData@Gu@physx@@6B@ 00000001801d1518     GuMeshFactory.obj
 0002:00002520       ??_7SoftBodyCollisionData@Gu@physx@@6B@ 00000001801d1520     GuMeshFactory.obj
 0002:00002528       ??_7CollisionMeshMappingData@Gu@physx@@6B@ 00000001801d1528     GuMeshFactory.obj
 0002:00002538       ??_7SoftBodySimulationData@Gu@physx@@6B@ 00000001801d1538     GuMeshFactory.obj
 0002:00002540       ??_C@_0GP@NHELMDAL@Loading?5triangle?5mesh?5failed?3?5D@ 00000001801d1540     GuMeshFactory.obj
 0002:000025b0       ??_C@_0BP@CDOKDACA@RTree?5binary?5image?5load?5error?4@ 00000001801d15b0     GuMeshFactory.obj
 0002:000025d0       ??_C@_0BN@MJPNIELF@BV4?5binary?5image?5load?5error?4@ 00000001801d15d0     GuMeshFactory.obj
 0002:000025f0       ??_C@_0BO@JDPABAOF@BV32?5binary?5image?5load?5error?4@ 00000001801d15f0     GuMeshFactory.obj
 0002:00002610       ??_C@_0EO@NANKEGIE@F?3?2Downloads?2repos?2PhysX?9104?42?9@ 00000001801d1610     GuMeshFactory.obj
 0002:00002660       __xmm@fe7fffff7e7fffff7e7fffff7e7fffff 00000001801d1660     GuMeshFactory.obj
 0002:00002690       ??_C@_06EJKDJEDO@PxBase@   00000001801d1690     GuMetaData.obj
 0002:00002698       ??_C@_07GFCEJNGM@Valency@  00000001801d1698     GuMetaData.obj
 0002:000026a0       ??_C@_07NHGKEEIN@mOffset@  00000001801d16a0     GuMetaData.obj
 0002:000026a8       ??_C@_0BB@BAGHBMNJ@BigConvexRawData@ 00000001801d16a8     GuMetaData.obj
 0002:000026c0       ??_C@_07PBDEJAAC@mSubdiv@  00000001801d16c0     GuMetaData.obj
 0002:000026c8       ??_C@_0L@HNPACPGH@mNbSamples@ 00000001801d16c8     GuMetaData.obj
 0002:000026d4       ??_C@_04NCKNBPPK@PxU8@     00000001801d16d4     GuMetaData.obj
 0002:000026e0       ??_C@_08DEPEKJNI@mSamples@ 00000001801d16e0     GuMetaData.obj
 0002:000026f0       ??_C@_08IJDNJBMI@mNbVerts@ 00000001801d16f0     GuMetaData.obj
 0002:00002700       ??_C@_0M@MMKMIJAF@mNbAdjVerts@ 00000001801d1700     GuMetaData.obj
 0002:00002710       ??_C@_0L@EOKMNILC@mValencies@ 00000001801d1710     GuMetaData.obj
 0002:00002720       ??_C@_0P@DLGEAMHJ@mAdjacentVerts@ 00000001801d1720     GuMetaData.obj
 0002:00002730       ??_C@_03NGLDENDA@SDF@      00000001801d1730     GuMetaData.obj
 0002:00002734       ??_C@_06KDGGGLIJ@PxVec3@   00000001801d1734     GuMetaData.obj
 0002:0000273c       ??_C@_06GIEBFILM@PxReal@   00000001801d173c     GuMetaData.obj
 0002:00002748       ??_C@_0O@PFOPBKAM@BigConvexData@ 00000001801d1748     GuMetaData.obj
 0002:00002758       ??_C@_05PLKALGFN@mData@    00000001801d1758     GuMetaData.obj
 0002:00002760       ??_C@_08PEMCLHEM@mVBuffer@ 00000001801d1760     GuMetaData.obj
 0002:00002770       ??_C@_09FBMAGD@Alignment@  00000001801d1770     GuMetaData.obj
 0002:00002780       ??_C@_0BE@KFHIBEEA@InternalObjectsData@ 00000001801d1780     GuMetaData.obj
 0002:00002798       ??_C@_07NKGFFIBH@mRadius@  00000001801d1798     GuMetaData.obj
 0002:000027a0       ??_C@_08EHFCACAE@mExtents@ 00000001801d17a0     GuMetaData.obj
 0002:000027b0       ??_C@_0BA@LFMGGCBK@HullPolygonData@ 00000001801d17b0     GuMetaData.obj
 0002:000027c0       ??_C@_06BOHHGLB@mPlane@    00000001801d17c0     GuMetaData.obj
 0002:000027c8       ??_C@_06EHMLHGLN@mVRef8@   00000001801d17c8     GuMetaData.obj
 0002:000027d0       ??_C@_09BAHHHINI@mMinIndex@ 00000001801d17d0     GuMetaData.obj
 0002:000027e0       ??_C@_0P@GBLBPIPB@ConvexHullData@ 00000001801d17e0     GuMetaData.obj
 0002:000027f0       ??_C@_09JDCJAPKD@PxBounds3@ 00000001801d17f0     GuMetaData.obj
 0002:000027fc       ??_C@_05NDNHIFA@mAABB@     00000001801d17fc     GuMetaData.obj
 0002:00002808       ??_C@_0O@LNOGEMJI@mCenterOfMass@ 00000001801d1808     GuMetaData.obj
 0002:00002818       ??_C@_09CNMCBBKH@mPolygons@ 00000001801d1818     GuMetaData.obj
 0002:00002828       ??_C@_0BC@KKPDCFJC@mBigConvexRawData@ 00000001801d1828     GuMetaData.obj
 0002:00002840       ??_C@_08MPNAAJLD@mSdfData@ 00000001801d1840     GuMetaData.obj
 0002:00002850       ??_C@_08ELDMKGKH@mNbEdges@ 00000001801d1850     GuMetaData.obj
 0002:00002860       ??_C@_0BA@CGLOHBAC@mNbHullVertices@ 00000001801d1860     GuMetaData.obj
 0002:00002870       ??_C@_0M@HGFFLLDM@mNbPolygons@ 00000001801d1870     GuMetaData.obj
 0002:00002880       ??_C@_09BHJEMDGO@mInternal@ 00000001801d1880     GuMetaData.obj
 0002:00002890       ??_C@_0L@GMFHOMKA@ConvexMesh@ 00000001801d1890     GuMetaData.obj
 0002:000028a0       ??_C@_09ILEBDLJH@mHullData@ 00000001801d18a0     GuMetaData.obj
 0002:000028ac       ??_C@_03DKDIKGNC@mNb@      00000001801d18ac     GuMetaData.obj
 0002:000028b0       ??_C@_0P@ENLHFHMD@mBigConvexData@ 00000001801d18b0     GuMetaData.obj
 0002:000028c0       ??_C@_05ILALLCHK@mMass@    00000001801d18c0     GuMetaData.obj
 0002:000028c8       ??_C@_07DBPDADGB@PxMat33@  00000001801d18c8     GuMetaData.obj
 0002:000028d0       ??_C@_08FNBHNDBI@mInertia@ 00000001801d18d0     GuMetaData.obj
 0002:000028e0       ??_C@_0O@FCKNKLMJ@GuMeshFactory@ 00000001801d18e0     GuMetaData.obj
 0002:000028f0       ??_C@_0N@EGBCLMAK@mMeshFactory@ 00000001801d18f0     GuMetaData.obj
 0002:00002900       ??_C@_0BE@CJJAMAMK@PxHeightFieldSample@ 00000001801d1900     GuMetaData.obj
 0002:00002914       ??_C@_05MBLIPEMA@PxI16@    00000001801d1914     GuMetaData.obj
 0002:0000291c       ??_C@_06LNLHEAAG@height@   00000001801d191c     GuMetaData.obj
 0002:00002928       ??_C@_0N@HHDGHJN@PxBitAndByte@ 00000001801d1928     GuMetaData.obj
 0002:00002938       ??_C@_0P@MBBMLBO@materialIndex0@ 00000001801d1938     GuMetaData.obj
 0002:00002948       ??_C@_0P@BFAKPKFP@materialIndex1@ 00000001801d1948     GuMetaData.obj
 0002:00002958       ??_C@_0BD@EBLPJEOE@PxHeightFieldFlags@ 00000001801d1958     GuMetaData.obj
 0002:00002970       ??_C@_0BK@FNNCFFCN@PxHeightFieldFormat?3?3Enum@ 00000001801d1970     GuMetaData.obj
 0002:00002990       ??_C@_0BA@CLNFMAAA@HeightFieldData@ 00000001801d1990     GuMetaData.obj
 0002:000029a0       ??_C@_04IMCGAIPI@rows@     00000001801d19a0     GuMetaData.obj
 0002:000029a8       ??_C@_07HIFEPIJN@columns@  00000001801d19a8     GuMetaData.obj
 0002:000029b0       ??_C@_08MOAGOABI@rowLimit@ 00000001801d19b0     GuMetaData.obj
 0002:000029c0       ??_C@_08BAGEHOBO@colLimit@ 00000001801d19c0     GuMetaData.obj
 0002:000029d0       ??_C@_09LKDBLADF@nbColumns@ 00000001801d19d0     GuMetaData.obj
 0002:000029e0       ??_C@_07ODIFGGLK@samples@  00000001801d19e0     GuMetaData.obj
 0002:000029e8       ??_C@_0BE@POHEGOJG@convexEdgeThreshold@ 00000001801d19e8     GuMetaData.obj
 0002:000029fc       ??_C@_05GECEPKB@flags@     00000001801d19fc     GuMetaData.obj
 0002:00002a04       ??_C@_06DLEPGFEF@format@   00000001801d1a04     GuMetaData.obj
 0002:00002a10       ??_C@_0BF@MOGDNMPL@PxMaterialTableIndex@ 00000001801d1a10     GuMetaData.obj
 0002:00002a28       ??_C@_0M@JMJICJJO@HeightField@ 00000001801d1a28     GuMetaData.obj
 0002:00002a38       ??_C@_0O@ENGHMLJP@mSampleStride@ 00000001801d1a38     GuMetaData.obj
 0002:00002a48       ??_C@_0L@EBEEMFFB@mMinHeight@ 00000001801d1a48     GuMetaData.obj
 0002:00002a58       ??_C@_0L@EAEIFPOF@mMaxHeight@ 00000001801d1a58     GuMetaData.obj
 0002:00002a68       ??_C@_0N@FEFJOKKE@mModifyCount@ 00000001801d1a68     GuMetaData.obj
 0002:00002a78       ??_C@_09PHDKHCK@RTreePage@ 00000001801d1a78     GuMetaData.obj
 0002:00002a84       ??_C@_04LLPOBGED@minx@     00000001801d1a84     GuMetaData.obj
 0002:00002a8c       ??_C@_04KCOFCHAC@miny@     00000001801d1a8c     GuMetaData.obj
 0002:00002a94       ??_C@_04IJMIHEMB@minz@     00000001801d1a94     GuMetaData.obj
 0002:00002a9c       ??_C@_04GGOBOBGO@maxx@     00000001801d1a9c     GuMetaData.obj
 0002:00002aa4       ??_C@_04HPPKNACP@maxy@     00000001801d1aa4     GuMetaData.obj
 0002:00002aac       ??_C@_04FENHIDOM@maxz@     00000001801d1aac     GuMetaData.obj
 0002:00002ab4       ??_C@_04HHDFEJON@ptrs@     00000001801d1ab4     GuMetaData.obj
 0002:00002abc       ??_C@_05FFEIGAJF@RTree@    00000001801d1abc     GuMetaData.obj
 0002:00002ac4       ??_C@_06OMCHPNEO@PxVec4@   00000001801d1ac4     GuMetaData.obj
 0002:00002ad0       ??_C@_0L@NBIFEFLN@mBoundsMin@ 00000001801d1ad0     GuMetaData.obj
 0002:00002ae0       ??_C@_0L@MDAOKBNC@mBoundsMax@ 00000001801d1ae0     GuMetaData.obj
 0002:00002af0       ??_C@_0N@NJEHLCOF@mInvDiagonal@ 00000001801d1af0     GuMetaData.obj
 0002:00002b00       ??_C@_0BA@BEFIGPFG@mDiagonalScaler@ 00000001801d1b00     GuMetaData.obj
 0002:00002b10       ??_C@_09DICGGKGO@mPageSize@ 00000001801d1b10     GuMetaData.obj
 0002:00002b20       ??_C@_0O@BOFFCNOL@mNumRootPages@ 00000001801d1b20     GuMetaData.obj
 0002:00002b30       ??_C@_0L@JKLGBKAE@mNumLevels@ 00000001801d1b30     GuMetaData.obj
 0002:00002b40       ??_C@_0M@PHDOHJGK@mTotalNodes@ 00000001801d1b40     GuMetaData.obj
 0002:00002b50       ??_C@_0M@GDGHALAO@mTotalPages@ 00000001801d1b50     GuMetaData.obj
 0002:00002b5c       ??_C@_06MHCBBJGP@mFlags@   00000001801d1b5c     GuMetaData.obj
 0002:00002b64       ??_C@_06MMNBLHOK@mPages@   00000001801d1b64     GuMetaData.obj
 0002:00002b70       ??_C@_0P@JNLGHJNH@SourceMeshBase@ 00000001801d1b70     GuMetaData.obj
 0002:00002b80       ??_C@_06JFCLJMNN@mVerts@   00000001801d1b80     GuMetaData.obj
 0002:00002b88       ??_C@_05GNIIDDHH@mType@    00000001801d1b88     GuMetaData.obj
 0002:00002b90       ??_C@_06DHAAKLFK@mRemap@   00000001801d1b90     GuMetaData.obj
 0002:00002b98       ??_C@_0L@LEOGNOEC@SourceMesh@ 00000001801d1b98     GuMetaData.obj
 0002:00002ba8       ??_C@_07MPIKOOAP@mNbTris@  00000001801d1ba8     GuMetaData.obj
 0002:00002bb0       ??_C@_0N@FBMOMEHF@mTriangles32@ 00000001801d1bb0     GuMetaData.obj
 0002:00002bc0       ??_C@_0N@DGCGNFBP@mTriangles16@ 00000001801d1bc0     GuMetaData.obj
 0002:00002bd0       ??_C@_0O@NLNHFNO@QuantizedAABB@ 00000001801d1bd0     GuMetaData.obj
 0002:00002be0       ??_C@_0BC@OOGBEMHH@mData?$FL0?$FN?4mExtents@ 00000001801d1be0     GuMetaData.obj
 0002:00002bf8       ??_C@_0BB@OCEDKIEF@mData?$FL0?$FN?4mCenter@ 00000001801d1bf8     GuMetaData.obj
 0002:00002c10       ??_C@_0BC@HFMEAABI@mData?$FL1?$FN?4mExtents@ 00000001801d1c10     GuMetaData.obj
 0002:00002c28       ??_C@_0BB@CDMNHHIF@mData?$FL1?$FN?4mCenter@ 00000001801d1c28     GuMetaData.obj
 0002:00002c40       ??_C@_0BC@CFKNCOI@mData?$FL2?$FN?4mExtents@ 00000001801d1c40     GuMetaData.obj
 0002:00002c58       ??_C@_0BB@LKCPBBIE@mData?$FL2?$FN?4mCenter@ 00000001801d1c58     GuMetaData.obj
 0002:00002c70       ??_C@_0O@MJJKKPFN@BVDataPackedQ@ 00000001801d1c70     GuMetaData.obj
 0002:00002c80       ??_C@_0O@JFMLAIPJ@CenterExtents@ 00000001801d1c80     GuMetaData.obj
 0002:00002c90       ??_C@_07GNKDIIKJ@mCenter@  00000001801d1c90     GuMetaData.obj
 0002:00002c98       ??_C@_0P@KBMJDPLO@BVDataPackedNQ@ 00000001801d1c98     GuMetaData.obj
 0002:00002ca8       ??_C@_0M@PNCEBOG@LocalBounds@ 00000001801d1ca8     GuMetaData.obj
 0002:00002cb4       ??_C@_05KNFBNCOH@float@    00000001801d1cb4     GuMetaData.obj
 0002:00002cc0       ??_C@_0BC@LADJKHPL@mExtentsMagnitude@ 00000001801d1cc0     GuMetaData.obj
 0002:00002cd8       ??_C@_07HELIOLAF@BV4Tree@  00000001801d1cd8     GuMetaData.obj
 0002:00002ce0       ??_C@_0P@EMMDNPMH@mMeshInterface@ 00000001801d1ce0     GuMetaData.obj
 0002:00002cf0       ??_C@_0N@DCKMHLCL@mLocalBounds@ 00000001801d1cf0     GuMetaData.obj
 0002:00002d00       ??_C@_08EEJOMIJL@mNbNodes@ 00000001801d1d00     GuMetaData.obj
 0002:00002d0c       ??_C@_06FIIIMFIO@mNodes@   00000001801d1d0c     GuMetaData.obj
 0002:00002d18       ??_C@_09FGKNPI@mInitData@  00000001801d1d18     GuMetaData.obj
 0002:00002d28       ??_C@_0BC@CLDEHKCO@mCenterOrMinCoeff@ 00000001801d1d28     GuMetaData.obj
 0002:00002d40       ??_C@_0BD@LAOLBNJ@mExtentsOrMaxCoeff@ 00000001801d1d40     GuMetaData.obj
 0002:00002d58       ??_C@_0P@JEECKKBL@mUserAllocated@ 00000001801d1d58     GuMetaData.obj
 0002:00002d68       ??_C@_0L@GLIMNECG@mQuantized@ 00000001801d1d68     GuMetaData.obj
 0002:00002d78       ??_C@_0L@CCOJDAID@mIsEdgeSet@ 00000001801d1d78     GuMetaData.obj
 0002:00002d88       ??_C@_08BNDBAGDH@mPadding@ 00000001801d1d88     GuMetaData.obj
 0002:00002d98       ??_C@_0N@OJNNNLIB@TriangleMesh@ 00000001801d1d98     GuMetaData.obj
 0002:00002da8       ??_C@_0M@OGEDMEAL@mNbVertices@ 00000001801d1da8     GuMetaData.obj
 0002:00002db8       ??_C@_0N@MGGDNHNI@mNbTriangles@ 00000001801d1db8     GuMetaData.obj
 0002:00002dc8       ??_C@_09LNNEGOJA@mVertices@ 00000001801d1dc8     GuMetaData.obj
 0002:00002dd8       ??_C@_0L@KBOFAKLO@mTriangles@ 00000001801d1dd8     GuMetaData.obj
 0002:00002de8       ??_C@_0P@MHDFIHLD@mExtraTrigData@ 00000001801d1de8     GuMetaData.obj
 0002:00002df8       ??_C@_0N@MGIKKCI@mGeomEpsilon@ 00000001801d1df8     GuMetaData.obj
 0002:00002e08       ??_C@_0BB@IFLOOCNA@mMaterialIndices@ 00000001801d1e08     GuMetaData.obj
 0002:00002e20       ??_C@_0L@OPJMBFMI@mFaceRemap@ 00000001801d1e20     GuMetaData.obj
 0002:00002e30       ??_C@_0N@BIOECAPM@mAdjacencies@ 00000001801d1e30     GuMetaData.obj
 0002:00002e40       ??_C@_09CICJHLPI@mEdgeList@ 00000001801d1e40     GuMetaData.obj
 0002:00002e50       ??_C@_0BD@IPKCNNIK@mLocalCenterOfMass@ 00000001801d1e50     GuMetaData.obj
 0002:00002e68       ??_C@_0BA@OCOIGPII@mGRB_triIndices@ 00000001801d1e68     GuMetaData.obj
 0002:00002e78       ??_C@_0BE@JPINNDAH@mGRB_triAdjacencies@ 00000001801d1e78     GuMetaData.obj
 0002:00002e90       ??_C@_0P@EDFJJHEF@mGRB_faceRemap@ 00000001801d1e90     GuMetaData.obj
 0002:00002ea0       ??_C@_0BG@EEALPPCP@mGRB_faceRemapInverse@ 00000001801d1ea0     GuMetaData.obj
 0002:00002eb8       ??_C@_0O@CKMBAIFN@mGRB_BV32Tree@ 00000001801d1eb8     GuMetaData.obj
 0002:00002ec8       ??_C@_0BE@MGIOIICI@mSdfData?4mMeshLower@ 00000001801d1ec8     GuMetaData.obj
 0002:00002ee0       ??_C@_0BC@NNEDELGI@mSdfData?4mSpacing@ 00000001801d1ee0     GuMetaData.obj
 0002:00002ef8       ??_C@_0BB@OHOFDAIL@mSdfData?4mDims?4x@ 00000001801d1ef8     GuMetaData.obj
 0002:00002f10       ??_C@_0BB@POPOABMK@mSdfData?4mDims?4y@ 00000001801d1f10     GuMetaData.obj
 0002:00002f28       ??_C@_0BB@NFNDFCAJ@mSdfData?4mDims?4z@ 00000001801d1f28     GuMetaData.obj
 0002:00002f40       ??_C@_0BC@GMPBGGPI@mSdfData?4mNumSdfs@ 00000001801d1f40     GuMetaData.obj
 0002:00002f58       ??_C@_0O@BCEBBLNE@mSdfData?4mSdf@ 00000001801d1f58     GuMetaData.obj
 0002:00002f68       ??_C@_0BG@HMHEFHIE@mSdfData?4mSubgridSize@ 00000001801d1f68     GuMetaData.obj
 0002:00002f80       ??_C@_0BI@OFJBKPGB@mSdfData?4mNumStartSlots@ 00000001801d1f80     GuMetaData.obj
 0002:00002f98       ??_C@_0BM@MGEPBEON@mSdfData?4mSubgridStartSlots@ 00000001801d1f98     GuMetaData.obj
 0002:00002fb8       ??_C@_0BJ@PKKGJLNM@mSdfData?4mNumSubgridSdfs@ 00000001801d1fb8     GuMetaData.obj
 0002:00002fd8       ??_C@_0BF@HLMPGIBH@mSdfData?4mSubgridSdf@ 00000001801d1fd8     GuMetaData.obj
 0002:00002ff0       ??_C@_0CF@GMJNHGOK@mSdfData?4mSdfSubgrids3DTexBlock@ 00000001801d1ff0     GuMetaData.obj
 0002:00003018       ??_C@_0CF@HFIGEHKL@mSdfData?4mSdfSubgrids3DTexBlock@ 00000001801d2018     GuMetaData.obj
 0002:00003040       ??_C@_0CF@FOKLBEGI@mSdfData?4mSdfSubgrids3DTexBlock@ 00000001801d2040     GuMetaData.obj
 0002:00003068       ??_C@_0BO@EIPCIOJH@mSdfData?4mSubgridsMinSdfValue@ 00000001801d2068     GuMetaData.obj
 0002:00003088       ??_C@_0BO@NIIBJOHN@mSdfData?4mSubgridsMaxSdfValue@ 00000001801d2088     GuMetaData.obj
 0002:000030a8       ??_C@_0BO@GKGODKFG@mSdfData?4mBytesPerSparsePixel@ 00000001801d20a8     GuMetaData.obj
 0002:000030c8       ??_C@_0BJ@LEBGJKBE@mAccumulatedTrianglesRef@ 00000001801d20c8     GuMetaData.obj
 0002:000030e8       ??_C@_0BF@OJMCNCDP@mTrianglesReferences@ 00000001801d20e8     GuMetaData.obj
 0002:00003100       ??_C@_0BH@LDGPOFA@mNbTrianglesReferences@ 00000001801d2100     GuMetaData.obj
 0002:00003118       ??_C@_0BC@IFGECKF@RTreeTriangleMesh@ 00000001801d2118     GuMetaData.obj
 0002:0000312c       ??_C@_06JDIHDDGN@mRTree@   00000001801d212c     GuMetaData.obj
 0002:00003138       ??_C@_0BA@LNNFPOKA@BV4TriangleMesh@ 00000001801d2138     GuMetaData.obj
 0002:00003148       ??_C@_08FKLPEGDB@mBV4Tree@ 00000001801d2148     GuMetaData.obj
 0002:00003180       ??_7?$SupportLocalImpl@VConvexHullNoScaleV@Gu@physx@@@Gu@physx@@6B@ 00000001801d2180     GuMTD.obj
 0002:000031a0       ?absMask@?1??FAbs@aos@physx@@YA?AT__m128@@T4@@Z@4QBIB 00000001801d21a0     GuMTD.obj
 0002:000031b0       ??_7GjkConvex@Gu@physx@@6B@ 00000001801d21b0     GuMTD.obj
 0002:000031e0       ??_7?$LocalConvex@VCapsuleV@Gu@physx@@@Gu@physx@@6B@ 00000001801d21e0     GuMTD.obj
 0002:00003210       ??_7?$LocalConvex@VConvexHullV@Gu@physx@@@Gu@physx@@6B@ 00000001801d2210     GuMTD.obj
 0002:00003240       __real@2edbe6ff            00000001801d2240     GuMTD.obj
 0002:00003244       __real@34000000            00000001801d2244     GuMTD.obj
 0002:00003248       __real@ff7fffff            00000001801d2248     GuMTD.obj
 0002:00003250       __xmm@34000000340000003400000034000000 00000001801d2250     GuMTD.obj
 0002:00003260       __xmm@358637bd358637bd358637bd358637bd 00000001801d2260     GuMTD.obj
 0002:00003270       __xmm@3dcccccd3dcccccd3dcccccd3dcccccd 00000001801d2270     GuMTD.obj
 0002:00003280       __xmm@3f7ff1413f7ff1413f7ff1413f7ff141 00000001801d2280     GuMTD.obj
 0002:00003290       __xmm@3f8000003f8000003f8000003f800000 00000001801d2290     GuMTD.obj
 0002:000032a0       ??_7?$RelativeConvex@VBoxV@Gu@physx@@@Gu@physx@@6B@ 00000001801d22a0     GuOverlapTests.obj
 0002:000032f0       ??_7?$RelativeConvex@VConvexHullV@Gu@physx@@@Gu@physx@@6B@ 00000001801d22f0     GuOverlapTests.obj
 0002:00003320       ??_C@_0EC@MLIJOGHA@Height?5Field?5Overlap?5test?5calle@ 00000001801d2320     GuOverlapTests.obj
 0002:00003370       ??_C@_0FJ@LCEKEDNM@F?3?2Downloads?2repos?2PhysX?9104?42?9@ 00000001801d2370     GuOverlapTests.obj
 0002:000033d0       ??_C@_0EC@GJLDADPE@Height?5Field?5Raycast?5test?5calle@ 00000001801d23d0     GuRaycastTests.obj
 0002:00003420       ??_C@_0FJ@EBIHDEHG@F?3?2Downloads?2repos?2PhysX?9104?42?9@ 00000001801d2420     GuRaycastTests.obj
 0002:000034b0       __real@1e3ce508            00000001801d24b0     GuRaycastTests.obj
 0002:000034b4       __real@28800000            00000001801d24b4     GuRaycastTests.obj
 0002:000034b8       __real@33d6bf95            00000001801d24b8     GuRaycastTests.obj
 0002:000034bc       __real@3727c5ac            00000001801d24bc     GuRaycastTests.obj
 0002:000034c0       __real@38d1b717            00000001801d24c0     GuRaycastTests.obj
 0002:000034c4       __real@3f0147ae            00000001801d24c4     GuRaycastTests.obj
 0002:000034c8       __real@3f7ffffe            00000001801d24c8     GuRaycastTests.obj
 0002:000034cc       __real@3f800347            00000001801d24cc     GuRaycastTests.obj
 0002:000034d0       __real@41200000            00000001801d24d0     GuRaycastTests.obj
 0002:000034d4       __real@80000000            00000001801d24d4     GuRaycastTests.obj
 0002:000034d8       __real@b3d6bf95            00000001801d24d8     GuRaycastTests.obj
 0002:000034dc       __real@b8d1b717            00000001801d24dc     GuRaycastTests.obj
 0002:000034e0       __real@c1200000            00000001801d24e0     GuRaycastTests.obj
 0002:00003520       ??_7?$MeshHitCallback@UPxGeomRaycastHit@physx@@@Gu@physx@@6B@ 00000001801d2520     GuSweepMTD.obj
 0002:00003530       ??_7MeshMTDGenerationCallback@@6B@ 00000001801d2530     GuSweepMTD.obj
 0002:00003540       ??_7MidPhaseQueryLocalReport@@6B@ 00000001801d2540     GuSweepMTD.obj
 0002:00003550       __real@3f8147ae            00000001801d2550     GuSweepMTD.obj
 0002:00003554       __real@3f933333            00000001801d2554     GuSweepMTD.obj
 0002:00003580       __real@3c23d70a            00000001801d2580     GuSweepSharedTests.obj
 0002:00003584       __real@42c80000            00000001801d2584     GuSweepSharedTests.obj
 0002:00003590       __xmm@ffffffffffffffffffffffffffffffff 00000001801d2590     GuSweepSharedTests.obj
 0002:000035c0       ??_C@_0EA@GNDJNJGB@Height?5Field?5Sweep?5test?5called?5@ 00000001801d25c0     GuSweepTests.obj
 0002:00003600       ??_C@_0FH@EFLCGANA@F?3?2Downloads?2repos?2PhysX?9104?42?9@ 00000001801d2600     GuSweepTests.obj
 0002:00003658       ??_7?$LocalConvex@VBoxV@Gu@physx@@@Gu@physx@@6B@ 00000001801d2658     GuSweepTests.obj
 0002:00003688       ??_7?$LocalConvex@VTriangleV@Gu@physx@@@Gu@physx@@6B@ 00000001801d2688     GuSweepTests.obj
 0002:000036c0       __xmm@00000002000000020000000200000002 00000001801d26c0     GuSweepTests.obj
 0002:000036d0       __xmm@3eaaaa9f3eaaaa9f3eaaaa9f3eaaaa9f 00000001801d26d0     GuSweepTests.obj
 0002:00003788       ??_7PxRunnable@physx@@6B@  00000001801d2788     GuSDF.obj
 0002:000037a0       ??_C@_0FA@DGNPPAHP@F?3?2Downloads?2repos?2PhysX?9104?42?9@ 00000001801d27a0     GuSDF.obj
 0002:000037f0       ??_7?$PxThreadT@V?$PxReflectionAllocator@VPxThreadImpl@physx@@@physx@@@physx@@6B@ 00000001801d27f0     GuSDF.obj
 0002:00003800       ??_C@_06FJHNOCKE@thread@   00000001801d2800     GuSDF.obj
 0002:00003810       ??_C@_0EP@COGCCFOC@F?3?2Downloads?2repos?2PhysX?9104?42?9@ 00000001801d2810     GuSDF.obj
 0002:00003860       __real@37800080            00000001801d2860     GuSDF.obj
 0002:00003864       __real@3b808081            00000001801d2864     GuSDF.obj
 0002:00003868       __real@3eaaaaab            00000001801d2868     GuSDF.obj
 0002:0000386c       __real@3f400000            00000001801d286c     GuSDF.obj
 0002:00003870       __real@3f7d70a4            00000001801d2870     GuSDF.obj
 0002:00003874       __real@4996b438            00000001801d2874     GuSDF.obj
 0002:00003878       __real@7e7fffff            00000001801d2878     GuSDF.obj
 0002:0000387c       __real@bf000000            00000001801d287c     GuSDF.obj
 0002:00003880       __real@fe7fffff            00000001801d2880     GuSDF.obj
 0002:00003890       __xmm@00000001000000000000000000000000 00000001801d2890     GuSDF.obj
 0002:000038a0       __xmm@80000000800000000000000000000000 00000001801d28a0     GuSDF.obj
 0002:000038b0       __real@437f0000            00000001801d28b0     GuCookingSDF.obj
 0002:000038b4       __real@477fff00            00000001801d28b4     GuCookingSDF.obj
 0002:000038e0       ??_7?$RelativeConvex@UCustomConvexV@@@Gu@physx@@6B@ 00000001801d28e0     GuGjkQuery.obj
 0002:00003910       ??_7?$LocalConvex@UCustomConvexV@@@Gu@physx@@6B@ 00000001801d2910     GuGjkQuery.obj
 0002:00003940       ??_7?$LocalConvex@UPointConvexV@@@Gu@physx@@6B@ 00000001801d2940     GuGjkQuery.obj
 0002:00003970       __xmm@3f0000003f0000003f0000003f000000 00000001801d2970     GuGjkQuery.obj
 0002:000039a0       __real@3da2f983            00000001801d29a0     GuWindingNumber.obj
 0002:000039a4       __real@3e22f983            00000001801d29a4     GuWindingNumber.obj
 0002:000039a8       __real@3f99999a            00000001801d29a8     GuWindingNumber.obj
 0002:00003a10       __real@3c343958            00000001801d2a10     GuCCDSweepConvexMesh.obj
 0002:00003a14       __real@3ca3d70a            00000001801d2a14     GuCCDSweepConvexMesh.obj
 0002:00003a18       __real@3f0ccccd            00000001801d2a18     GuCCDSweepConvexMesh.obj
 0002:00003a1c       __real@3f8ccccd            00000001801d2a1c     GuCCDSweepConvexMesh.obj
 0002:00003a20       __real@b58637bd            00000001801d2a20     GuCCDSweepConvexMesh.obj
 0002:00003a50       ??_7?$RelativeConvex@VCapsuleV@Gu@physx@@@Gu@physx@@6B@ 00000001801d2a50     GuCCDSweepPrimitives.obj
 0002:00003a80       ??_7?$RelativeConvex@VTriangleV@Gu@physx@@@Gu@physx@@6B@ 00000001801d2a80     GuCCDSweepPrimitives.obj
 0002:00003ab0       __real@3ba3d70a            00000001801d2ab0     GuCCDSweepPrimitives.obj
 0002:00003ab4       __real@501502f9            00000001801d2ab4     GuCCDSweepPrimitives.obj
 0002:00003ae0       ??_C@_0FP@BHNCEEAG@F?3?2Downloads?2repos?2PhysX?9104?42?9@ 00000001801d2ae0     GuAdjacencies.obj
 0002:00003b40       ??_C@_0DA@FMEHLBKI@Adjacencies?3?3UpdateLink?3?5invali@ 00000001801d2b40     GuAdjacencies.obj
 0002:00003b70       ??_C@_0EA@CPHOACLK@Adjacencies?3?3CreateDatabase?3?5ca@ 00000001801d2b70     GuAdjacencies.obj
 0002:00003bb0       ??_C@_0FM@GOHLFMAL@F?3?2Downloads?2repos?2PhysX?9104?42?9@ 00000001801d2bb0     GuEdgeList.obj
 0002:00003c10       ??_C@_0CO@GBNJFPN@EdgeList?3?3CreateFacesToEdges?3?5N@ 00000001801d2c10     GuEdgeList.obj
 0002:00003c40       ??_C@_0CO@EHJBBMNK@EdgeList?3?3ComputeActiveEdges?3?5N@ 00000001801d2c40     GuEdgeList.obj
 0002:00003c70       ??_C@_0DI@GBHLFOFP@ActiveEdges?3?3ComputeConvexEdges@ 00000001801d2c70     GuEdgeList.obj
 0002:00003ca8       ??_C@_0DM@JOGBLHDI@ActiveEdges?3?3ComputeConvexEdges@ 00000001801d2ca8     GuEdgeList.obj
 0002:00003cf0       ??_C@_0ED@FEMJKPEL@ActiveEdges?3?3ComputeConvexEdges@ 00000001801d2cf0     GuEdgeList.obj
 0002:00003d40       ??_C@_0EB@BFDPMFCD@ActiveEdges?3?3ComputeConvexEdges@ 00000001801d2d40     GuEdgeList.obj
 0002:00003d84       __real@bf7fbe77            00000001801d2d84     GuEdgeList.obj
 0002:00003d88       ??_7Quantizer@Gu@physx@@6B@ 00000001801d2d88     GuQuantizer.obj
 0002:00003db0       ??_7QuantizerImpl@@6B@     00000001801d2db0     GuQuantizer.obj
 0002:00003de0       ??_C@_0FN@FOFBNHDG@F?3?2Downloads?2repos?2PhysX?9104?42?9@ 00000001801d2de0     GuQuantizer.obj
 0002:00003e40       __real@3f0020c5            00000001801d2e40     GuQuantizer.obj
 0002:00003e44       __real@3f8020c5            00000001801d2e44     GuQuantizer.obj
 0002:00003e50       ??_C@_0FP@DCIJGJFC@F?3?2Downloads?2repos?2PhysX?9104?42?9@ 00000001801d2e50     GuMeshCleaner.obj
 0002:00003eb0       ??_C@_0GB@GKCMIEAJ@F?3?2Downloads?2repos?2PhysX?9104?42?9@ 00000001801d2eb0     GuVertexReducer.obj
 0002:00004010       __real@3f7fbe77            00000001801d3010     GuContactBoxBox.obj
 0002:00004040       __real@3f7ff2e5            00000001801d3040     GuContactCapsuleCapsule.obj
 0002:00004044       __real@40800000            00000001801d3044     GuContactCapsuleCapsule.obj
 0002:000040d0       __real@358637be            00000001801d30d0     GuContactCapsuleMesh.obj
 0002:000040d4       __real@ba83126f            00000001801d30d4     GuContactCapsuleMesh.obj
 0002:00004130       ??_7ConvexMeshContactGenerationCallback@@6B@ 00000001801d3130     GuContactConvexMesh.obj
 0002:000041b0       __real@3ec90fdb            00000001801d31b0     GuContactPolygonPolygon.obj
 0002:000041b4       __real@3f490fdb            00000001801d31b4     GuContactPolygonPolygon.obj
 0002:000041b8       __real@3f96cbe4            00000001801d31b8     GuContactPolygonPolygon.obj
 0002:000041bc       __real@3fc90fdb            00000001801d31bc     GuContactPolygonPolygon.obj
 0002:000041c0       __real@3ffb53d2            00000001801d31c0     GuContactPolygonPolygon.obj
 0002:000041c4       __real@4016cbe4            00000001801d31c4     GuContactPolygonPolygon.obj
 0002:000041c8       __real@402feddf            00000001801d31c8     GuContactPolygonPolygon.obj
 0002:000041d0       __xmm@ff7fffffff7fffffff7fffffff7fffff 00000001801d31d0     GuContactPolygonPolygon.obj
 0002:00004240       ??_C@_0EN@MFGCCDDK@F?3?2Downloads?2repos?2PhysX?9104?42?9@ 00000001801d3240     GuContactSphereMesh.obj
 0002:00004290       ??_C@_0GB@DIKPOACN@F?3?2Downloads?2repos?2PhysX?9104?42?9@ 00000001801d3290     GuBigConvexData.obj
 0002:00004320       ??_C@_0N@CDGINLLF@PxConvexMesh@ 00000001801d3320     GuConvexMesh.obj
 0002:00004330       ??_7PxBase@physx@@6B@      00000001801d3330     GuConvexMesh.obj
 0002:00004358       ??_C@_0N@OPPDBGAG@PxRefCounted@ 00000001801d3358     GuConvexMesh.obj
 0002:00004368       ??_7ConvexMesh@Gu@physx@@6B@ 00000001801d3368     GuConvexMesh.obj
 0002:00004400       ??_C@_0FO@BANIEFDC@F?3?2Downloads?2repos?2PhysX?9104?42?9@ 00000001801d3400     GuConvexMesh.obj
 0002:00004460       ??_C@_0DM@NEJKOFIP@Loading?5convex?5mesh?5failed?3?5Dep@ 00000001801d3460     GuConvexMesh.obj
 0002:000044a0       ??_C@_0DB@PAHEPIEL@PxConvexMesh?3?3release?3?5double?5d@ 00000001801d34a0     GuConvexMesh.obj
 0002:000044e0       ??_C@_0FG@JGILIBKF@F?3?2Downloads?2repos?2PhysX?9104?42?9@ 00000001801d34e0     GuConvexMesh.obj
 0002:00004560       __xmm@000000000000000000000000ffffffff 00000001801d3560     GuConvexSupportTable.obj
 0002:00004570       __xmm@0000000000000000ffffffff00000000 00000001801d3570     GuConvexSupportTable.obj
 0002:00004580       __xmm@0000000000000000ffffffffffffffff 00000001801d3580     GuConvexSupportTable.obj
 0002:00004590       __xmm@00000000ffffffff0000000000000000 00000001801d3590     GuConvexSupportTable.obj
 0002:000045a0       __xmm@00000000ffffffff00000000ffffffff 00000001801d35a0     GuConvexSupportTable.obj
 0002:000045b0       __xmm@00000000ffffffffffffffff00000000 00000001801d35b0     GuConvexSupportTable.obj
 0002:00004680       __real@2b8cbccc            00000001801d3680     GuDistanceSegmentTriangle.obj
 0002:00004690       __xmm@3f8000013f8000013f8000013f800001 00000001801d3690     GuDistanceSegmentTriangle.obj
 0002:000046a0       __xmm@b4000000b4000000b4000000b4000000 00000001801d36a0     GuDistanceSegmentTriangle.obj
 0002:00004700       __xmm@38d1b71738d1b71738d1b71738d1b717 00000001801d3700     GuGJKSimplex.obj
 0002:00004730       ??_C@_0O@PBAKPCEC@PxHeightField@ 00000001801d3730     GuHeightField.obj
 0002:00004740       ??_7HeightField@Gu@physx@@6B@ 00000001801d3740     GuHeightField.obj
 0002:000047f8       ??_C@_0DC@BDMMBOKH@PxHeightField?3?3release?3?5double?5@ 00000001801d37f8     GuHeightField.obj
 0002:00004830       ??_C@_0FL@IDOGDMIE@F?3?2Downloads?2repos?2PhysX?9104?42?9@ 00000001801d3830     GuHeightField.obj
 0002:00004890       ??_C@_0CI@DMKEKGNK@Gu?3?3HeightField?3?3load?3?5PX_ALLOC@ 00000001801d3890     GuHeightField.obj
 0002:000048c0       ??_C@_0EP@GKEGGMCO@F?3?2Downloads?2repos?2PhysX?9104?42?9@ 00000001801d38c0     GuHeightField.obj
 0002:00004930       __real@3a03126f            00000001801d3930     GuHeightFieldUtil.obj
 0002:00004934       __real@3f19999a            00000001801d3934     GuHeightFieldUtil.obj
 0002:00004940       __xmm@40000000000000000000000000000000 00000001801d3940     GuHeightFieldUtil.obj
 0002:000049d0       ??_7HeightFieldTraceSegmentReport@@6B@ 00000001801d39d0     GuSweepsHF.obj
 0002:000049e0       ??_7CapsuleTraceSegmentReport@@6B@ 00000001801d39e0     GuSweepsHF.obj
 0002:000049f0       ??_7ConvexTraceSegmentReport@@6B@ 00000001801d39f0     GuSweepsHF.obj
 0002:00004a00       ??_7BoxTraceSegmentReport@@6B@ 00000001801d3a00     GuSweepsHF.obj
 0002:00004a10       __real@aedbe6ff            00000001801d3a10     GuSweepsHF.obj
 0002:00004a40       __real@3089705f            00000001801d3a40     GuIntersectionRayBox.obj
 0002:00004a44       __real@b4000000            00000001801d3a44     GuIntersectionRayBox.obj
 0002:00004a50       __xmm@000000003089705f3089705f3089705f 00000001801d3a50     GuIntersectionRayBox.obj
 0002:00004a60       __xmm@00000000bf800000bf800000bf800000 00000001801d3a60     GuIntersectionRayBox.obj
 0002:00004a90       __real@ffc00000            00000001801d3a90     GuIntersectionTriangleTriangle.obj
 0002:00004aa0       __xmm@ffc00000ffc00000ffc00000ffc00000 00000001801d3aa0     GuIntersectionTriangleTriangle.obj
 0002:00004ad0       ??_7SourceMeshBase@Gu@physx@@6B@ 00000001801d3ad0     GuBV4.obj
 0002:00004af8       ??_7SourceMesh@Gu@physx@@6B@ 00000001801d3af8     GuBV4.obj
 0002:00004b20       ??_7TetrahedronSourceMesh@Gu@physx@@6B@ 00000001801d3b20     GuBV4.obj
 0002:00004b50       ??_C@_0FF@LDKDGNJE@F?3?2Downloads?2repos?2PhysX?9104?42?9@ 00000001801d3b50     GuBV4.obj
 0002:00004bd0       ??_C@_0FK@JBFOCGJB@F?3?2Downloads?2repos?2PhysX?9104?42?9@ 00000001801d3bd0     GuBV4Build.obj
 0002:00004c2c       __real@38000100            00000001801d3c2c     GuBV4Build.obj
 0002:00004c30       __real@3e93cd3a            00000001801d3c30     GuBV4Build.obj
 0002:00004c34       __real@46fffe00            00000001801d3c34     GuBV4Build.obj
 0002:00004c38       __real@be93cd3a            00000001801d3c38     GuBV4Build.obj
 0002:00004c60       __xmm@0000ffff0000ffff0000ffff0000ffff 00000001801d3c60     GuBV4_AABBSweep.obj
 0002:00004c70       __xmm@3089705f3089705f3089705f3089705f 00000001801d3c70     GuBV4_AABBSweep.obj
 0002:00004c80       __xmm@33d6bf9533d6bf9533d6bf9533d6bf95 00000001801d3c80     GuBV4_AABBSweep.obj
 0002:00004c90       __xmm@40000000400000004000000040000000 00000001801d3c90     GuBV4_AABBSweep.obj
 0002:00004d60       __real@00000000            00000001801d3d60     GuBV4_Raycast.obj
 0002:00004d90       __real@4f7fffff            00000001801d3d90     GuBV4_SphereOverlap.obj
 0002:00004de0       __xmm@000000007f7fffff0000000000000000 00000001801d3de0     GuMidphaseBV4.obj
 0002:00004e50       ??_C@_0FD@EHCCILIF@Adjacency?5information?5not?5creat@ 00000001801d3e50     GuMeshQuery.obj
 0002:00004eb0       ??_C@_0FL@IAAOMEOP@F?3?2Downloads?2repos?2PhysX?9104?42?9@ 00000001801d3eb0     GuMeshQuery.obj
 0002:00004f10       ??_C@_0FL@BKNMAHIA@PxMeshQuery?3?3findOverlapTriangl@ 00000001801d3f10     GuMeshQuery.obj
 0002:00004f6c       __real@4cbebc20            00000001801d3f6c     GuMeshQuery.obj
 0002:00004f90       ??_7Callback@RTree@Gu@physx@@6B@ 00000001801d3f90     GuMidphaseRTree.obj
 0002:00004fa8       ??_7?$RayRTreeCallback@$0A@$0A@@@6BCallbackRaycast@RTree@Gu@physx@@@ 00000001801d3fa8     GuMidphaseRTree.obj
 0002:00004fa8       ??_7?$RayRTreeCallback@$00$0A@@@6BCallbackRaycast@RTree@Gu@physx@@@ 00000001801d3fa8     GuMidphaseRTree.obj
 0002:00004fb8       ??_7?$RayRTreeCallback@$00$0A@@@6BCallback@RTree@Gu@physx@@@ 00000001801d3fb8     GuMidphaseRTree.obj
 0002:00004fb8       ??_7?$RayRTreeCallback@$0A@$0A@@@6BCallback@RTree@Gu@physx@@@ 00000001801d3fb8     GuMidphaseRTree.obj
 0002:00004fd0       ??_7RayMeshColliderCallback@@6B@ 00000001801d3fd0     GuMidphaseRTree.obj
 0002:00004fe0       ??_C@_0EN@DPPFLBLF@Point?9mesh?5distance?5query?5not?5s@ 00000001801d3fe0     GuMidphaseRTree.obj
 0002:00005030       ??_C@_0FP@FDAKKKHE@F?3?2Downloads?2repos?2PhysX?9104?42?9@ 00000001801d4030     GuMidphaseRTree.obj
 0002:00005090       ??_7?$RayRTreeCallback@$0A@$00@@6BCallbackRaycast@RTree@Gu@physx@@@ 00000001801d4090     GuMidphaseRTree.obj
 0002:000050a0       ??_7?$RayRTreeCallback@$0A@$00@@6BCallback@RTree@Gu@physx@@@ 00000001801d40a0     GuMidphaseRTree.obj
 0002:000050b8       ??_7?$RayRTreeCallback@$00$00@@6BCallbackRaycast@RTree@Gu@physx@@@ 00000001801d40b8     GuMidphaseRTree.obj
 0002:000050c8       ??_7?$RayRTreeCallback@$00$00@@6BCallback@RTree@Gu@physx@@@ 00000001801d40c8     GuMidphaseRTree.obj
 0002:00005140       __xmm@7f7fffff000000000000000000000000 00000001801d4140     GuMidphaseRTree.obj
 0002:000051c0       ??_7?$PxReportCallback@UPxGeomIndexPair@physx@@@physx@@6B@ 00000001801d41c0     GuOverlapTestsMesh.obj
 0002:000051e0       ??_C@_0EP@CEFGCJKJ@PxGeometryQuery?3?3overlap?$CI?$CJ?3?5onl@ 00000001801d41e0     GuOverlapTestsMesh.obj
 0002:00005230       ??_C@_0GC@NNJPJMEB@F?3?2Downloads?2repos?2PhysX?9104?42?9@ 00000001801d4230     GuOverlapTestsMesh.obj
 0002:000052a0       ?MN@RTreePage@Gu@physx@@2MB 00000001801d42a0     GuRTree.obj
 0002:000052a4       ?MX@RTreePage@Gu@physx@@2MB 00000001801d42a4     GuRTree.obj
 0002:000052d0       ??_C@_0FH@OOJANJLP@F?3?2Downloads?2repos?2PhysX?9104?42?9@ 00000001801d42d0     GuRTree.obj
 0002:000053a0       ??_7SweepShapeMeshHitCallback@Gu@physx@@6B@ 00000001801d43a0     GuSweepsMesh.obj
 0002:000053b0       ??_7SweepCapsuleMeshHitCallback@Gu@physx@@6B@ 00000001801d43b0     GuSweepsMesh.obj
 0002:000053c0       ??_7SweepBoxMeshHitCallback@Gu@physx@@6B@ 00000001801d43c0     GuSweepsMesh.obj
 0002:000053d0       ??_7SweepConvexMeshHitCallback@Gu@physx@@6B@ 00000001801d43d0     GuSweepsMesh.obj
 0002:00005400       ??_C@_0P@GGNFNHKF@PxTriangleMesh@ 00000001801d4400     GuTriangleMesh.obj
 0002:00005410       ??_7TriangleMesh@Gu@physx@@6B@ 00000001801d4410     GuTriangleMesh.obj
 0002:000054e8       ??_C@_0DD@LOOPMCGG@PxTriangleMesh?3?3release?3?5double@ 00000001801d44e8     GuTriangleMesh.obj
 0002:00005520       ??_C@_0FH@PMPAJDGI@PxTriangleMesh?3?3getVerticesForM@ 00000001801d4520     GuTriangleMesh.obj
 0002:00005580       ??_C@_0FO@COIIOKND@F?3?2Downloads?2repos?2PhysX?9104?42?9@ 00000001801d4580     GuTriangleMesh.obj
 0002:000055e0       ??_C@_0EF@GMNFLDH@PxTriangleMesh?3?3refitBVH?$CI?$CJ?5is?5n@ 00000001801d45e0     GuTriangleMesh.obj
 0002:00005630       __xmm@38383838383838383838383838383838 00000001801d4630     GuTriangleMesh.obj
 0002:00005660       ??_C@_0BE@CNJKIINO@PxBVH34TriangleMesh@ 00000001801d4660     GuTriangleMeshBV4.obj
 0002:00005678       ??_7BV4TriangleMesh@Gu@physx@@6B@ 00000001801d4678     GuTriangleMeshBV4.obj
 0002:00005750       ??_C@_0EF@JLFNNPLP@BVH34?5trees?3?5refit?5operation?5on@ 00000001801d4750     GuTriangleMeshBV4.obj
 0002:000057a0       ??_C@_0GB@PEJFNEKJ@F?3?2Downloads?2repos?2PhysX?9104?42?9@ 00000001801d47a0     GuTriangleMeshBV4.obj
 0002:00005804       __real@3951b717            00000001801d4804     GuTriangleMeshBV4.obj
 0002:00005830       ??_C@_0BE@EIFHCCBO@PxBVH33TriangleMesh@ 00000001801d4830     GuTriangleMeshRTree.obj
 0002:00005848       ??_7RTreeTriangleMesh@Gu@physx@@6B@ 00000001801d4848     GuTriangleMeshRTree.obj
 0002:00005920       ??_7?$RefitCallback@G@physx@@6B@ 00000001801d4920     GuTriangleMeshRTree.obj
 0002:00005930       ??_7?$RefitCallback@I@physx@@6B@ 00000001801d4930     GuTriangleMeshRTree.obj
 0002:00005960       ??_C@_0FG@ILJCBFCB@F?3?2Downloads?2repos?2PhysX?9104?42?9@ 00000001801d4960     GuBV32.obj
 0002:000059e0       ??_C@_0FL@NFMEBKNK@F?3?2Downloads?2repos?2PhysX?9104?42?9@ 00000001801d49e0     GuBV32Build.obj
 0002:00005a60       ??_C@_0BC@FDAIDHBP@PxTetrahedronMesh@ 00000001801d4a60     GuTetrahedronMesh.obj
 0002:00005a78       ??_C@_0BC@FBICGJIB@PxSoftBodyAuxData@ 00000001801d4a78     GuTetrahedronMesh.obj
 0002:00005a90       ??_C@_0P@CLLFGFAA@PxSoftBodyMesh@ 00000001801d4a90     GuTetrahedronMesh.obj
 0002:00005aa0       ??_7SoftBodyAuxData@Gu@physx@@6B@ 00000001801d4aa0     GuTetrahedronMesh.obj
 0002:00005ae0       ??_7TetrahedronMesh@Gu@physx@@6B@ 00000001801d4ae0     GuTetrahedronMesh.obj
 0002:00005b58       ??_7BVTetrahedronMesh@Gu@physx@@6B@ 00000001801d4b58     GuTetrahedronMesh.obj
 0002:00005bd0       ??_7SoftBodyMesh@Gu@physx@@6B@ 00000001801d4bd0     GuTetrahedronMesh.obj
 0002:00005c50       ??_C@_0DG@JJNMDPMD@PxTetrahedronMesh?3?3release?3?5dou@ 00000001801d4c50     GuTetrahedronMesh.obj
 0002:00005c88       ??_C@_0DD@GGFGEPII@PxSoftBodyMesh?3?3release?3?5double@ 00000001801d4c88     GuTetrahedronMesh.obj
 0002:00005cc0       ??_C@_0GB@BGNGDODN@F?3?2Downloads?2repos?2PhysX?9104?42?9@ 00000001801d4cc0     GuTetrahedronMesh.obj
 0002:00005d50       __xmm@00000000358637bd358637bd358637bd 00000001801d4d50     GuPCMContactBoxBox.obj
 0002:00005d60       __xmm@3f4ccccd3f4ccccd3f4ccccd3f4ccccd 00000001801d4d60     GuPCMContactBoxBox.obj
 0002:00005d70       __xmm@3f8003473f8003473f8003473f800347 00000001801d4d70     GuPCMContactBoxBox.obj
 0002:00005d80       __xmm@ffffffff00000000ffffffffffffffff 00000001801d4d80     GuPCMContactBoxBox.obj
 0002:00005db0       ??_7?$LocalConvex@VConvexHullNoScaleV@Gu@physx@@@Gu@physx@@6B@ 00000001801d4db0     GuPCMContactBoxConvex.obj
 0002:00005de0       __xmm@3f3504f33f3504f33f3504f33f3504f3 00000001801d4de0     GuPCMContactBoxConvex.obj
 0002:00005e30       __xmm@ffffffffffffffffffffffff00000000 00000001801d4e30     GuPCMContactCapsuleCapsule.obj
 0002:00005e60       __xmm@3fa000003fa000003fa000003fa00000 00000001801d4e60     GuPCMContactCapsuleConvex.obj
 0002:00005e90       ??_7PCMCapsuleVsHeightfieldContactGenerationCallback@@6B@ 00000001801d4e90     GuPCMContactCapsuleHeightField.obj
 0002:00005ea0       __real@3f7f3b64            00000001801d4ea0     GuPCMContactCapsuleHeightField.obj
 0002:00005ef0       __xmm@3f7ff9723f7ff9723f7ff9723f7ff972 00000001801d4ef0     GuPCMContactCapsuleMesh.obj
 0002:00005f00       __xmm@3f7fffef3f7fffef3f7fffef3f7fffef 00000001801d4f00     GuPCMContactCapsuleMesh.obj
 0002:00005f10       __xmm@60ad78ec60ad78ec60ad78ec60ad78ec 00000001801d4f10     GuPCMContactCapsuleMesh.obj
 0002:00005f40       ??_7?$SupportLocalImpl@VTriangleV@Gu@physx@@@Gu@physx@@6B@ 00000001801d4f40     GuPCMContactConvexCommon.obj
 0002:00005f60       __xmm@3cf5c2803cf5c2803cf5c2803cf5c280 00000001801d4f60     GuPCMContactConvexCommon.obj
 0002:00005f70       __xmm@3f7851ec3f7851ec3f7851ec3f7851ec 00000001801d4f70     GuPCMContactConvexCommon.obj
 0002:00005fa0       ??_7?$RelativeConvex@VConvexHullNoScaleV@Gu@physx@@@Gu@physx@@6B@ 00000001801d4fa0     GuPCMContactConvexConvex.obj
 0002:00005ff0       ??_7PCMConvexVsHeightfieldContactGenerationCallback@physx@@6B@ 00000001801d4ff0     GuPCMContactConvexHeightField.obj
 0002:00006000       __xmm@3f19999a3f19999a3f19999a3f19999a 00000001801d5000     GuPCMContactConvexHeightField.obj
 0002:00006040       ??_7PCMConvexVsMeshContactGenerationCallback@physx@@6B@ 00000001801d5040     GuPCMContactConvexMesh.obj
 0002:00006070       __xmm@3f34fdf43f34fdf43f34fdf43f34fdf4 00000001801d5070     GuPCMContactGenBoxConvex.obj
 0002:000060a0       __xmm@3f80a3d73f80a3d73f80a3d73f80a3d7 00000001801d50a0     GuPCMContactGenSphereCapsule.obj
 0002:000060b0       __xmm@bba3d70abba3d70abba3d70abba3d70a 00000001801d50b0     GuPCMContactGenSphereCapsule.obj
 0002:000060e0       __xmm@3f7ffd613f7ffd613f7ffd613f7ffd61 00000001801d50e0     GuPCMContactPlaneBox.obj
 0002:00006110       __real@3b23d70b            00000001801d5110     GuPCMContactPlaneCapsule.obj
 0002:00006120       __xmm@3ca3d70a3ca3d70a3ca3d70a3ca3d70a 00000001801d5120     GuPCMContactPlaneCapsule.obj
 0002:00006150       __xmm@3a03126f3a03126f3a03126f3a03126f 00000001801d5150     GuPCMContactPlaneConvex.obj
 0002:000061e0       ??_7PCMSphereVsHeightfieldContactGenerationCallback@physx@@6B@ 00000001801d51e0     GuPCMContactSphereHeightField.obj
 0002:00006230       ??_C@_0FG@IACIDBCO@F?3?2Downloads?2repos?2PhysX?9104?42?9@ 00000001801d5230     GuPCMContactSphereMesh.obj
 0002:000062d0       __xmm@3727c5ac3727c5ac3727c5ac3727c5ac 00000001801d52d0     GuPCMContactSphereSphere.obj
 0002:00006300       __xmm@3f7f06f73f7f06f73f7f06f73f7f06f7 00000001801d5300     GuPCMContactCustomGeometry.obj
 0002:00006310       ?gPCMBoxPolygonData@Gu@physx@@3QBEB 00000001801d5310     GuPCMShapeConvex.obj
 0002:00006370       ?invalidateThresholds@Gu@physx@@3QBMB 00000001801d5370     GuPersistentContactManifold.obj
 0002:00006388       ?invalidateQuatThresholds@Gu@physx@@3QBMB 00000001801d5388     GuPersistentContactManifold.obj
 0002:000063a0       ?invalidateThresholds2@Gu@physx@@3QBMB 00000001801d53a0     GuPersistentContactManifold.obj
 0002:000063b0       ?invalidateQuatThresholds2@Gu@physx@@3QBMB 00000001801d53b0     GuPersistentContactManifold.obj
 0002:000063e0       __xmm@00000000340000003400000034000000 00000001801d53e0     GuPersistentContactManifold.obj
 0002:000063f0       __xmm@000000003f8000003f80000000000000 00000001801d53f0     GuPersistentContactManifold.obj
 0002:00006400       __xmm@00000000bf8000003f80000000000000 00000001801d5400     GuPersistentContactManifold.obj
 0002:00006410       __xmm@ffffffffffffffff00000000ffffffff 00000001801d5410     GuPersistentContactManifold.obj
 0002:00006480       __real@b727c5ac            00000001801d5480     GuSweepBoxSphere.obj
 0002:000064f0       ??_C@_0GC@BPLFPJBD@F?3?2Downloads?2repos?2PhysX?9104?42?9@ 00000001801d54f0     GuSweepCapsuleBox.obj
 0002:00006580       __real@3f7fff58            00000001801d5580     GuSweepCapsuleTriangle.obj
 0002:000065f0       ??_C@_0CH@DHJGKCPD@Gu?3?3computeBounds?3?5Unknown?5shap@ 00000001801d55f0     GuBounds.obj
 0002:00006620       ??_C@_0FD@CNNEKILE@F?3?2Downloads?2repos?2PhysX?9104?42?9@ 00000001801d5620     GuBounds.obj
 0002:00006674       __real@34800000            00000001801d5674     GuBounds.obj
 0002:00006678       __real@3f7fffef            00000001801d5678     GuBounds.obj
 0002:00006680       __xmm@3f8147ae3f8147ae3f8147ae3f8147ae 00000001801d5680     GuBounds.obj
 0002:000066b0       ??_C@_0FF@IMNBCOPE@F?3?2Downloads?2repos?2PhysX?9104?42?9@ 00000001801d56b0     GuAABBTree.obj
 0002:00006710       __xmm@5a60b17f5a60b17f5a60b17f5a60b17f 00000001801d5710     GuAABBTree.obj
 0002:00006720       __xmm@da60b17fda60b17fda60b17fda60b17f 00000001801d5720     GuAABBTree.obj
 0002:00006790       ??_C@_0GA@CBKGMEEB@F?3?2Downloads?2repos?2PhysX?9104?42?9@ 00000001801d5790     GuIncrementalAABBTree.obj
 0002:000067f0       ??_C@_0EN@PJFHBFOE@F?3?2Downloads?2repos?2PhysX?9104?42?9@ 00000001801d57f0     GuIncrementalAABBTree.obj
 0002:00006840       __real@40400000            00000001801d5840     GuIncrementalAABBTree.obj
 0002:00006850       ??_C@_0FA@FOONLOKI@F?3?2Downloads?2repos?2PhysX?9104?42?9@ 00000001801d5850     GuSAH.obj
 0002:000068c0       ??_7PxBVH@physx@@6B@       00000001801d58c0     GuBVH.obj
 0002:00006950       ??_C@_05OKJNPKBM@PxBVH@    00000001801d5950     GuBVH.obj
 0002:00006958       ??_7RefCountable@Cm@physx@@6B@ 00000001801d5958     GuBVH.obj
 0002:00006968       ??_7BVH@Gu@physx@@6BPxBVH@2@@ 00000001801d5968     GuBVH.obj
 0002:000069f8       ??_7BVH@Gu@physx@@6BRefCountable@Cm@2@@ 00000001801d59f8     GuBVH.obj
 0002:00006a10       ??_C@_0FA@EMIFCNFN@F?3?2Downloads?2repos?2PhysX?9104?42?9@ 00000001801d5a10     GuBVH.obj
 0002:00006a60       ??_C@_0CK@HAIOEINI@PxBVH?3?3release?3?5double?5deletion@ 00000001801d5a60     GuBVH.obj
 0002:00006ab0       ??_C@_0GG@EGLHLGED@F?3?2Downloads?2repos?2PhysX?9104?42?9@ 00000001801d5ab0     GuIncrementalAABBPrunerCore.obj
 0002:00006b18       __real@3f80a3d7            00000001801d5b18     GuIncrementalAABBPrunerCore.obj
 0002:00006b40       ??_7BasePruner@Gu@physx@@6B@ 00000001801d5b40     GuIncrementalAABBPruner.obj
 0002:00006b58       ??_7IncrementalAABBPruner@Gu@physx@@6B@ 00000001801d5b58     GuIncrementalAABBPruner.obj
 0002:00006be0       ??_C@_0GC@ENPBMCO@F?3?2Downloads?2repos?2PhysX?9104?42?9@ 00000001801d5be0     GuIncrementalAABBPruner.obj
 0002:00006c70       ??_C@_0FI@PHJACOHD@F?3?2Downloads?2repos?2PhysX?9104?42?9@ 00000001801d5c70     GuPruningPool.obj
 0002:00006d10       ??_7BucketPruner@Gu@physx@@6B@ 00000001801d5d10     GuBucketPruner.obj
 0002:00006da0       ??_C@_0FJ@PFFIANPC@F?3?2Downloads?2repos?2PhysX?9104?42?9@ 00000001801d5da0     GuBucketPruner.obj
 0002:00006e00       __xmm@000000007e7fffff7e7fffff7e7fffff 00000001801d5e00     GuBucketPruner.obj
 0002:00006e10       __xmm@00000000fe7ffffffe7ffffffe7fffff 00000001801d5e10     GuBucketPruner.obj
 0002:00006e20       __xmm@3f13cd3a3f13cd3a3f13cd3a3f13cd3a 00000001801d5e20     GuBucketPruner.obj
 0002:00006e30       __xmm@bf13cd3abf13cd3abf13cd3a3f13cd3a 00000001801d5e30     GuBucketPruner.obj
 0002:00006e40       ?mIndices@MaverickNode@Gu@physx@@2QBIB 00000001801d5e40     GuMaverickNode.obj
 0002:00006ea0       ??_C@_0GB@ECJMPNNA@F?3?2Downloads?2repos?2PhysX?9104?42?9@ 00000001801d5ea0     GuExtendedBucketPruner.obj
 0002:00006f30       ??_7CompanionPruner@Gu@physx@@6B@ 00000001801d5f30     GuSecondaryPruner.obj
 0002:00006fb0       ??_7CompanionPrunerBucket@@6B@ 00000001801d5fb0     GuSecondaryPruner.obj
 0002:00007030       ??_7CompanionPrunerIncremental@@6B@ 00000001801d6030     GuSecondaryPruner.obj
 0002:000070b0       ??_7CompanionPrunerAABBTree@@6B@ 00000001801d60b0     GuSecondaryPruner.obj
 0002:00007130       ??_C@_0FM@KHCLCJKI@F?3?2Downloads?2repos?2PhysX?9104?42?9@ 00000001801d6130     GuSecondaryPruner.obj
 0002:000071b0       ??_7AABBPruner@Gu@physx@@6B@ 00000001801d61b0     GuAABBPruner.obj
 0002:00007250       ??_C@_0FH@NNLCOAMC@F?3?2Downloads?2repos?2PhysX?9104?42?9@ 00000001801d6250     GuAABBPruner.obj
 0002:000072b0       ??_C@_0FK@JDOJHMEC@F?3?2Downloads?2repos?2PhysX?9104?42?9@ 00000001801d62b0     GuActorShapeMap.obj
 0002:00007330       ??_C@_0BF@DNABLJAF@Invalid?5pruner?5index@ 00000001801d6330     GuQuerySystem.obj
 0002:00007350       ??_C@_0FI@KJPGNGPJ@F?3?2Downloads?2repos?2PhysX?9104?42?9@ 00000001801d6350     GuQuerySystem.obj
 0002:00007400       ??_C@_0FE@KJGJLING@F?3?2Downloads?2repos?2PhysX?9104?42?9@ 00000001801d6400     GuFactory.obj
 0002:00007480       ?reductionFactors@SubSortQuick@physx@@2QBMB 00000001801d6480     GuRTreeCooking.obj
 0002:00007490       ?stopAtTrisPerLeaf1@SubSortQuick@physx@@2QBIB 00000001801d6490     GuRTreeCooking.obj
 0002:00007540       ??_C@_0GB@KEEILHCF@F?3?2Downloads?2repos?2PhysX?9104?42?9@ 00000001801d6540     GuRTreeCooking.obj
 0002:000075a4       __real@41100000            00000001801d65a4     GuRTreeCooking.obj
 0002:000075a8       __real@41700000            00000001801d65a8     GuRTreeCooking.obj
 0002:000075ac       __real@42200000            00000001801d65ac     GuRTreeCooking.obj
 0002:000075b0       __xmm@00000004000000030000000200000001 00000001801d65b0     GuRTreeCooking.obj
 0002:000075e0       ??_C@_0FO@FCFGLFAF@F?3?2Downloads?2repos?2PhysX?9104?42?9@ 00000001801d65e0     GuCookingHF.obj
 0002:00007640       ??_C@_0EK@EKAIJEBL@Cooking?3?3cookConvexMesh?3?5user?9p@ 00000001801d6640     GuCookingConvexMesh.obj
 0002:00007690       ??_C@_0FA@GFFGAPML@Cooking?3?3cookConvexMesh?3?5provid@ 00000001801d6690     GuCookingConvexMesh.obj
 0002:000076e0       ??_C@_0EP@PKDCPNNO@Cooking?3?3cookConvexMesh?3?5provid@ 00000001801d66e0     GuCookingConvexMesh.obj
 0002:00007730       ??_C@_0EO@LKFMMDE@Cooking?3?3cookConvexMesh?3?5user?9p@ 00000001801d6730     GuCookingConvexMesh.obj
 0002:00007780       ??_C@_0EL@KJEPJALG@Cooking?3?3cookConvexMesh?3?5user?9p@ 00000001801d6780     GuCookingConvexMesh.obj
 0002:000077d0       ??_C@_0FM@LHMEBKMM@Cooking?3?3cookConvexMesh?3?5GPU?9co@ 00000001801d67d0     GuCookingConvexMesh.obj
 0002:00007830       ??_C@_0FJ@FHCFFABE@Cooking?3?3cookConvexMesh?3?5GPU?9co@ 00000001801d6830     GuCookingConvexMesh.obj
 0002:00007890       ??_C@_0GG@FIHCMOFO@F?3?2Downloads?2repos?2PhysX?9104?42?9@ 00000001801d6890     GuCookingConvexMesh.obj
 0002:00007920       ??_7TriangleMeshBuilder@physx@@6B@ 00000001801d6920     GuCookingTriangleMesh.obj
 0002:00007948       ??_7RTreeTriangleMeshBuilder@physx@@6B@ 00000001801d6948     GuCookingTriangleMesh.obj
 0002:00007970       ??_7BV4TriangleMeshBuilder@physx@@6B@ 00000001801d6970     GuCookingTriangleMesh.obj
 0002:000079a0       ??_C@_0GI@CNBBLEDJ@F?3?2Downloads?2repos?2PhysX?9104?42?9@ 00000001801d69a0     GuCookingTriangleMesh.obj
 0002:00007a08       ??_C@_0DJ@IGODLHLP@TriangleMesh?3?5Enable?5mesh?5weldi@ 00000001801d6a08     GuCookingTriangleMesh.obj
 0002:00007a50       ??_C@_0FJ@HHJLKGDF@TriangleMesh?3?5triangles?5are?5too@ 00000001801d6a50     GuCookingTriangleMesh.obj
 0002:00007ab0       ??_C@_0CN@KGPHHHLK@TriangleMesh?3?5mesh?5is?5too?5big?5f@ 00000001801d6ab0     GuCookingTriangleMesh.obj
 0002:00007ae0       ??_C@_0DD@CMJGDCNN@TriangleMesh?3?3loadFromDesc?3?5des@ 00000001801d6ae0     GuCookingTriangleMesh.obj
 0002:00007b20       ??_C@_0ED@ILJJNHIP@TriangleMesh?3?3loadFromDesc?3?5mPa@ 00000001801d6b20     GuCookingTriangleMesh.obj
 0002:00007b68       ??_C@_0BJ@BKHDBBHO@cleaning?5the?5mesh?5failed@ 00000001801d6b68     GuCookingTriangleMesh.obj
 0002:00007b88       ??_C@_0BK@JIDHMMCE@BV4?5tree?5failed?5to?5build?4@ 00000001801d6b88     GuCookingTriangleMesh.obj
 0002:00007ba8       ??_C@_0BL@DHNECNBE@BV32?5tree?5failed?5to?5build?4@ 00000001801d6ba8     GuCookingTriangleMesh.obj
 0002:00007bc8       ??_7RTreeCookerRemap@@6B@  00000001801d6bc8     GuCookingTriangleMesh.obj
 0002:00007be0       ??_C@_0FC@PJIHAFK@Cooking?3?3validateTriangleMesh?3?5@ 00000001801d6be0     GuCookingTriangleMesh.obj
 0002:00007c34       __real@48742400            00000001801d6c34     GuCookingTriangleMesh.obj
 0002:00007c60       ??_7PxCollisionTetrahedronMeshData@physx@@6B@ 00000001801d6c60     GuCookingTetrahedronMesh.obj
 0002:00007c90       ??_7PxSimulationTetrahedronMeshData@physx@@6B@ 00000001801d6c90     GuCookingTetrahedronMesh.obj
 0002:00007cb0       ??_7CollisionTetrahedronMeshData@Gu@physx@@6B@ 00000001801d6cb0     GuCookingTetrahedronMesh.obj
 0002:00007ce0       ??_7SimulationTetrahedronMeshData@Gu@physx@@6B@ 00000001801d6ce0     GuCookingTetrahedronMesh.obj
 0002:00007d00       ??_C@_0GL@BPEIDAHC@F?3?2Downloads?2repos?2PhysX?9104?42?9@ 00000001801d6d00     GuCookingTetrahedronMesh.obj
 0002:00007d70       ??_C@_0EG@BKGBJDHG@computeRestPoseAndPointMass?$CI?$CJ?3?5@ 00000001801d6d70     GuCookingTetrahedronMesh.obj
 0002:00007db8       ??_7?$LocalConvex@VTetrahedronV@Gu@physx@@@Gu@physx@@6B@ 00000001801d6db8     GuCookingTetrahedronMesh.obj
 0002:00007de8       ??_C@_0CD@OJGNHLOE@BV4_AABBTree?5tree?5failed?5to?5bui@ 00000001801d6de8     GuCookingTetrahedronMesh.obj
 0002:00007e10       ??_C@_0DG@NCNIEEHB@TetrahedronMesh?3?3loadFromDesc?3?5@ 00000001801d6e10     GuCookingTetrahedronMesh.obj
 0002:00007e50       ??_C@_0EG@CJIFGLMC@TetrahedronMesh?3?3loadFromDesc?3?5@ 00000001801d6e50     GuCookingTetrahedronMesh.obj
 0002:00007e98       __real@3e2aaaab            00000001801d6e98     GuCookingTetrahedronMesh.obj
 0002:00007e9c       __real@be2aaaab            00000001801d6e9c     GuCookingTetrahedronMesh.obj
 0002:00007ea0       __xmm@00000003000000030000000300000003 00000001801d6ea0     GuCookingTetrahedronMesh.obj
 0002:00007ed0       __real@3bc79ca10c924223    00000001801d6ed0     GuCookingVolumeIntegration.obj
 0002:00007ed8       __real@3f91111111111111    00000001801d6ed8     GuCookingVolumeIntegration.obj
 0002:00007ee0       __real@3fa5555555555555    00000001801d6ee0     GuCookingVolumeIntegration.obj
 0002:00007ee8       __real@3fa999999999999a    00000001801d6ee8     GuCookingVolumeIntegration.obj
 0002:00007ef0       __real@3fb5555555555555    00000001801d6ef0     GuCookingVolumeIntegration.obj
 0002:00007ef8       __real@3fc5555555555555    00000001801d6ef8     GuCookingVolumeIntegration.obj
 0002:00007f00       __real@3fd5555555555555    00000001801d6f00     GuCookingVolumeIntegration.obj
 0002:00007f08       __real@3fe0000000000000    00000001801d6f08     GuCookingVolumeIntegration.obj
 0002:00007f10       __real@3ff0000000000000    00000001801d6f10     GuCookingVolumeIntegration.obj
 0002:00007f18       __real@4008000000000000    00000001801d6f18     GuCookingVolumeIntegration.obj
 0002:00007f20       __real@4010000000000000    00000001801d6f20     GuCookingVolumeIntegration.obj
 0002:00007f28       __real@bf91111111111111    00000001801d6f28     GuCookingVolumeIntegration.obj
 0002:00007f30       __real@bfa999999999999a    00000001801d6f30     GuCookingVolumeIntegration.obj
 0002:00007f38       __real@bfb5555555555555    00000001801d6f38     GuCookingVolumeIntegration.obj
 0002:00007f40       __real@bfc5555555555555    00000001801d6f40     GuCookingVolumeIntegration.obj
 0002:00007f50       __xmm@3c0888893c0888893c0888893c088889 00000001801d6f50     GuCookingVolumeIntegration.obj
 0002:00007f60       __xmm@3c8888893c8888893c8888893c888889 00000001801d6f60     GuCookingVolumeIntegration.obj
 0002:00007f70       __xmm@3d2aaaab3d2aaaab3d2aaaab3d2aaaab 00000001801d6f70     GuCookingVolumeIntegration.obj
 0002:00007f80       __xmm@3e2aaaab3e2aaaab3e2aaaab3e2aaaab 00000001801d6f80     GuCookingVolumeIntegration.obj
 0002:00007f90       __xmm@3f811111111111113f81111111111111 00000001801d6f90     GuCookingVolumeIntegration.obj
 0002:00007fa0       __xmm@3f811111111111113f91111111111111 00000001801d6fa0     GuCookingVolumeIntegration.obj
 0002:00007fb0       __xmm@3f911111111111113f91111111111111 00000001801d6fb0     GuCookingVolumeIntegration.obj
 0002:00007fc0       __xmm@3fa55555555555553fa5555555555555 00000001801d6fc0     GuCookingVolumeIntegration.obj
 0002:00007fd0       __xmm@3fa55555555555553fc5555555555555 00000001801d6fd0     GuCookingVolumeIntegration.obj
 0002:00007fe0       __xmm@7fffffffffffffff7fffffffffffffff 00000001801d6fe0     GuCookingVolumeIntegration.obj
 0002:00007ff0       __xmm@80000000000000008000000000000000 00000001801d6ff0     GuCookingVolumeIntegration.obj
 0002:00008000       ??_7ConvexHullLib@physx@@6B@ 00000001801d7000     GuCookingQuickHullConvexHullLib.obj
 0002:00008020       ??_7QuickHullConvexHullLib@physx@@6B@ 00000001801d7020     GuCookingQuickHullConvexHullLib.obj
 0002:00008040       ??_C@_0HC@CCHPHICC@F?3?2Downloads?2repos?2PhysX?9104?42?9@ 00000001801d7040     GuCookingQuickHullConvexHullLib.obj
 0002:000080c0       ??_C@_0GA@EPPAEJPM@QuickHullConvexHullLib?3?3findSim@ 00000001801d70c0     GuCookingQuickHullConvexHullLib.obj
 0002:00008120       ??_C@_0FB@NEBIJMML@QuickHullConvexHullLib?3?3findSim@ 00000001801d7120     GuCookingQuickHullConvexHullLib.obj
 0002:00008180       ??_C@_0FB@CLLCBEMM@QuickHullConvexHullLib?3?3findSim@ 00000001801d7180     GuCookingQuickHullConvexHullLib.obj
 0002:000081d4       __real@34c00000            00000001801d71d4     GuCookingQuickHullConvexHullLib.obj
 0002:000081d8       ??_C@_0DP@PJBJBEGF@Meshmerizer?3?3extractHullPolygon@ 00000001801d71d8     GuCookingConvexPolygonsBuilder.obj
 0002:00008220       ??_C@_0HB@PCHDLAHD@F?3?2Downloads?2repos?2PhysX?9104?42?9@ 00000001801d7220     GuCookingConvexPolygonsBuilder.obj
 0002:00008298       ??_C@_0DL@IAFKOCCK@ConvexHullBuilder?3?5convex?5hull?5@ 00000001801d7298     GuCookingConvexPolygonsBuilder.obj
 0002:000082e0       ??_C@_0GF@OJLJHAMH@ConvexHullBuilder?3?3CreateTriang@ 00000001801d72e0     GuCookingConvexPolygonsBuilder.obj
 0002:00008370       ??_C@_0DF@LLFJIJGM@Gu?3?3ConvexMesh?3?3loadFromDesc?3?5d@ 00000001801d7370     GuCookingConvexMeshBuilder.obj
 0002:000083b0       ??_C@_0HK@JOGKIEAA@Gu?3?3ConvexMesh?3?5Mesh?5has?5a?5nega@ 00000001801d73b0     GuCookingConvexMeshBuilder.obj
 0002:00008430       ??_C@_0DH@NJPPHFFD@Gu?3?3ConvexMesh?3?5Error?5computing@ 00000001801d7430     GuCookingConvexMeshBuilder.obj
 0002:00008468       ??_C@_0DJ@LJDLGLDJ@Gu?3?3ConvexMesh?3?3loadConvexHull?3@ 00000001801d7468     GuCookingConvexMeshBuilder.obj
 0002:000084b0       ??_C@_0HJ@KJANPPOE@ConvexMeshBuilder?3?3computeHullP@ 00000001801d74b0     GuCookingConvexMeshBuilder.obj
 0002:00008530       ??_C@_0GN@MIJOPEGN@F?3?2Downloads?2repos?2PhysX?9104?42?9@ 00000001801d7530     GuCookingConvexMeshBuilder.obj
 0002:000085a0       ??_C@_0O@JMAGMMGG@PxHullPolygon@ 00000001801d75a0     GuCookingConvexMeshBuilder.obj
 0002:000085b0       __real@3f13cd3a            00000001801d75b0     GuCookingConvexMeshBuilder.obj
 0002:000085e0       ??_C@_0GL@GOMPGAGJ@F?3?2Downloads?2repos?2PhysX?9104?42?9@ 00000001801d75e0     GuCookingConvexHullUtils.obj
 0002:0000864c       __real@3e20d97c            00000001801d764c     GuCookingConvexHullUtils.obj
 0002:00008650       ??_C@_0GJ@JNJCLCHJ@F?3?2Downloads?2repos?2PhysX?9104?42?9@ 00000001801d7650     GuCookingConvexHullLib.obj
 0002:000086c0       ??_C@_0JE@PABBNGEL@ConvexHullLib?3?3cleanupVertices?3@ 00000001801d76c0     GuCookingConvexHullLib.obj
 0002:00008780       ??_C@_0GN@GDKFEDI@F?3?2Downloads?2repos?2PhysX?9104?42?9@ 00000001801d7780     GuCookingConvexHullBuilder.obj
 0002:000087f0       ??_C@_0EB@DCEIFDGC@ConvexHullBuilder?3?3init?3?5convex@ 00000001801d77f0     GuCookingConvexHullBuilder.obj
 0002:00008840       ??_C@_0FM@KICBLCBH@Gu?3?3ConvexMesh?3?3checkHullPolygo@ 00000001801d7840     GuCookingConvexHullBuilder.obj
 0002:000088a0       ??_C@_0GO@HBFIOGLL@Gu?3?3ConvexMesh?3?3checkHullPolygo@ 00000001801d78a0     GuCookingConvexHullBuilder.obj
 0002:00008910       ??_C@_0HF@OLJFBIEL@ConvexHullBuilder?3?5convex?5hull?5@ 00000001801d7910     GuCookingConvexHullBuilder.obj
 0002:00008990       ??_C@_0OG@JNHFOIL@ConvexHullBuilder?3?5convex?5hull?5@ 00000001801d7990     GuCookingConvexHullBuilder.obj
 0002:00008a80       ??_C@_0EJ@NIOIBAKH@Cooking?3?3cookConvexMesh?3?5non?9ma@ 00000001801d7a80     GuCookingConvexHullBuilder.obj
 0002:00008af0       ??_C@_0HA@BEJKMEA@F?3?2Downloads?2repos?2PhysX?9104?42?9@ 00000001801d7af0     GuCookingBigConvexDataBuilder.obj
 0002:00008b60       __sz_PhysXFoundation_64_dll 00000001801d7b60     PhysXFoundation_64:PhysXFoundation_64.dll
 0002:00008b78       ??_C@_1BK@DBDEIDLH@?$AAK?$AAE?$AAR?$AAN?$AAE?$AAL?$AA3?$AA2?$AA?4?$AAD?$AAL?$AAL@ 00000001801d7b78     Delayimp:delayhlp.obj
 0002:00008b98       ??_C@_0BI@OMNLIJDB@AcquireSRWLockExclusive@ 00000001801d7b98     Delayimp:delayhlp.obj
 0002:00008bb0       ??_C@_0BI@HMIEPCNJ@ReleaseSRWLockExclusive@ 00000001801d7bb0     Delayimp:delayhlp.obj
 0002:00008bc8       __pfnDliFailureHook2       00000001801d7bc8     Delayimp:delayhk1.obj
 0002:00008bd8       ??_7type_info@@6B@         00000001801d7bd8     LIBCMT:std_type_info_static.obj
 0002:00008c40       _pRawDllMain               00000001801d7c40     LIBCMT:dll_dllmain.obj
 0002:00008c40       _pDefaultRawDllMain        00000001801d7c40     LIBCMT:dll_dllmain.obj
 0002:00008c50       _load_config_used          00000001801d7c50     LIBCMT:loadcfg.obj
 0002:00008d88       _pDestructExceptionObject  00000001801d7d88     libvcruntime:ehhelpers.obj
 0002:00009490       ??_C@_08EHJDFFNH@__based?$CI@ 00000001801d8490     libvcruntime:undname.obj
 0002:000094a0       ??_C@_07KOLFKCDI@__cdecl@  00000001801d84a0     libvcruntime:undname.obj
 0002:000094a8       ??_C@_08GHMPAG@__pascal@   00000001801d84a8     libvcruntime:undname.obj
 0002:000094b8       ??_C@_09IFJBGAPI@__stdcall@ 00000001801d84b8     libvcruntime:undname.obj
 0002:000094c8       ??_C@_0L@NPHFGOKO@__thiscall@ 00000001801d84c8     libvcruntime:undname.obj
 0002:000094d8       ??_C@_0L@JMKHOMEK@__fastcall@ 00000001801d84d8     libvcruntime:undname.obj
 0002:000094e8       ??_C@_0N@BCKKPABJ@__vectorcall@ 00000001801d84e8     libvcruntime:undname.obj
 0002:000094f8       ??_C@_09HIJEGCPM@__clrcall@ 00000001801d84f8     libvcruntime:undname.obj
 0002:00009504       ??_C@_06GHPCKEAG@__eabi@   00000001801d8504     libvcruntime:undname.obj
 0002:00009510       ??_C@_09IOPIDJLG@__swift_1@ 00000001801d8510     libvcruntime:undname.obj
 0002:00009520       ??_C@_09KFNFGKHF@__swift_2@ 00000001801d8520     libvcruntime:undname.obj
 0002:00009530       ??_C@_07JOMMBBKO@__ptr64@  00000001801d8530     libvcruntime:undname.obj
 0002:00009538       ??_C@_0L@PILCLIHE@__restrict@ 00000001801d8538     libvcruntime:undname.obj
 0002:00009548       ??_C@_0M@GFIIJFMG@__unaligned@ 00000001801d8548     libvcruntime:undname.obj
 0002:00009558       ??_C@_09DHDLOLLB@restrict?$CI@ 00000001801d8558     libvcruntime:undname.obj
 0002:00009564       ??_C@_04NIHEBCM@?5new@     00000001801d8564     libvcruntime:undname.obj
 0002:00009570       ??_C@_07FPCDHGMM@?5delete@ 00000001801d8570     libvcruntime:undname.obj
 0002:00009578       ??_C@_01NEMOKFLO@?$DN@     00000001801d8578     libvcruntime:undname.obj
 0002:0000957c       ??_C@_02GPIOPFAK@?$DO?$DO@ 00000001801d857c     libvcruntime:undname.obj
 0002:00009580       ??_C@_02FODMEDOG@?$DM?$DM@ 00000001801d8580     libvcruntime:undname.obj
 0002:00009584       ??_C@_01DCLJPIOD@?$CB@     00000001801d8584     libvcruntime:undname.obj
 0002:00009588       ??_C@_02EGOFBIJA@?$DN?$DN@ 00000001801d8588     libvcruntime:undname.obj
 0002:0000958c       ??_C@_02FDNJECIE@?$CB?$DN@ 00000001801d858c     libvcruntime:undname.obj
 0002:00009590       ??_C@_02GPECMEKF@?$FL?$FN@ 00000001801d8590     libvcruntime:undname.obj
 0002:00009598       ??_C@_08LHJFAFGD@operator@ 00000001801d8598     libvcruntime:undname.obj
 0002:000095a4       ??_C@_02HBOOOICD@?9?$DO@   00000001801d85a4     libvcruntime:undname.obj
 0002:000095a8       ??_C@_01NBENCBCI@?$CK@     00000001801d85a8     libvcruntime:undname.obj
 0002:000095ac       ??_C@_02ECNGHCIF@?$CL?$CL@ 00000001801d85ac     libvcruntime:undname.obj
 0002:000095b0       ??_C@_02BAABKJLB@?9?9@     00000001801d85b0     libvcruntime:undname.obj
 0002:000095b4       ??_C@_01JOAMLHOP@?9@       00000001801d85b4     libvcruntime:undname.obj
 0002:000095b8       ??_C@_01MIFGBAGJ@?$CL@     00000001801d85b8     libvcruntime:undname.obj
 0002:000095bc       ??_C@_01HNPIGOCE@?$CG@     00000001801d85bc     libvcruntime:undname.obj
 0002:000095c0       ??_C@_03MNHNFDLC@?9?$DO?$CK@ 00000001801d85c0     libvcruntime:undname.obj
 0002:000095c4       ??_C@_01KMDKNFGN@?1@       00000001801d85c4     libvcruntime:undname.obj
 0002:000095c8       ??_C@_01FGNFDNOH@?$CF@     00000001801d85c8     libvcruntime:undname.obj
 0002:000095cc       ??_C@_01MNNFJEPP@?$DM@     00000001801d85cc     libvcruntime:undname.obj
 0002:000095d0       ??_C@_02EHCHHCKH@?$DM?$DN@ 00000001801d85d0     libvcruntime:undname.obj
 0002:000095d4       ??_C@_01PPODPGHN@?$DO@     00000001801d85d4     libvcruntime:undname.obj
 0002:000095d8       ??_C@_02EEKDKGMJ@?$DO?$DN@ 00000001801d85d8     libvcruntime:undname.obj
 0002:000095dc       ??_C@_01IHBHIGKO@?0@       00000001801d85dc     libvcruntime:undname.obj
 0002:000095e0       ??_C@_02HCKGKOFO@?$CI?$CJ@ 00000001801d85e0     libvcruntime:undname.obj
 0002:000095e4       ??_C@_01PJKLJHI@?$HO@      00000001801d85e4     libvcruntime:undname.obj
 0002:000095e8       ??_C@_01JKBOJNNK@?$FO@     00000001801d85e8     libvcruntime:undname.obj
 0002:000095ec       ??_C@_01DNKMNLPK@?$HM@     00000001801d85ec     libvcruntime:undname.obj
 0002:000095f0       ??_C@_02PPKAJPJL@?$CG?$CG@ 00000001801d85f0     libvcruntime:undname.obj
 0002:000095f4       ??_C@_02NONPIBCD@?$HM?$HM@ 00000001801d85f4     libvcruntime:undname.obj
 0002:000095f8       ??_C@_02FPIMKNGF@?$CK?$DN@ 00000001801d85f8     libvcruntime:undname.obj
 0002:000095fc       ??_C@_02FOEOMHFC@?$CL?$DN@ 00000001801d85fc     libvcruntime:undname.obj
 0002:00009600       ??_C@_02FKMDLLOA@?9?$DN@   00000001801d8600     libvcruntime:undname.obj
 0002:00009604       ??_C@_02FJEHGPIO@?1?$DN@   00000001801d8604     libvcruntime:undname.obj
 0002:00009608       ??_C@_02FENAOKFI@?$CF?$DN@ 00000001801d8608     libvcruntime:undname.obj
 0002:0000960c       ??_C@_03IKFCCPFF@?$DO?$DO?$DN@ 00000001801d860c     libvcruntime:undname.obj
 0002:00009610       ??_C@_03CDNPDDLA@?$DM?$DM?$DN@ 00000001801d8610     libvcruntime:undname.obj
 0002:00009614       ??_C@_02FGJGFEAB@?$CG?$DN@ 00000001801d8614     libvcruntime:undname.obj
 0002:00009618       ??_C@_02DHLNPPGH@?$HM?$DN@ 00000001801d8618     libvcruntime:undname.obj
 0002:0000961c       ??_C@_02MHEGNOJ@?$FO?$DN@  00000001801d861c     libvcruntime:undname.obj
 0002:00009620       ??_C@_09IFPLHPGF@?$GAvftable?8@ 00000001801d8620     libvcruntime:undname.obj
 0002:00009630       ??_C@_09BLBHBJP@?$GAvbtable?8@ 00000001801d8630     libvcruntime:undname.obj
 0002:00009640       ??_C@_07FEEIOKP@?$GAvcall?8@ 00000001801d8640     libvcruntime:undname.obj
 0002:00009648       ??_C@_08LLFFHHDJ@?$GAtypeof?8@ 00000001801d8648     libvcruntime:undname.obj
 0002:00009658       ??_C@_0BF@KDPPACIK@?$GAlocal?5static?5guard?8@ 00000001801d8658     libvcruntime:undname.obj
 0002:00009670       ??_C@_08OBABFOLI@?$GAstring?8@ 00000001801d8670     libvcruntime:undname.obj
 0002:00009680       ??_C@_0BD@JDLKDPAB@?$GAvbase?5destructor?8@ 00000001801d8680     libvcruntime:undname.obj
 0002:00009698       ??_C@_0BN@DEGPLNFK@?$GAvector?5deleting?5destructor?8@ 00000001801d8698     libvcruntime:undname.obj
 0002:000096b8       ??_C@_0BO@OBMKPJIG@?$GAdefault?5constructor?5closure?8@ 00000001801d86b8     libvcruntime:undname.obj
 0002:000096d8       ??_C@_0BN@IMDCHIKM@?$GAscalar?5deleting?5destructor?8@ 00000001801d86d8     libvcruntime:undname.obj
 0002:000096f8       ??_C@_0BO@PFGOCPJJ@?$GAvector?5constructor?5iterator?8@ 00000001801d86f8     libvcruntime:undname.obj
 0002:00009718       ??_C@_0BN@LFPFMEDL@?$GAvector?5destructor?5iterator?8@ 00000001801d8718     libvcruntime:undname.obj
 0002:00009738       ??_C@_0CE@IKBNEHA@?$GAvector?5vbase?5constructor?5itera@ 00000001801d8738     libvcruntime:undname.obj
 0002:00009760       ??_C@_0BL@NILFHHPC@?$GAvirtual?5displacement?5map?8@ 00000001801d8760     libvcruntime:undname.obj
 0002:00009780       ??_C@_0CB@JONCMFFK@?$GAeh?5vector?5constructor?5iterator@ 00000001801d8780     libvcruntime:undname.obj
 0002:000097a8       ??_C@_0CA@GCEOPDGL@?$GAeh?5vector?5destructor?5iterator?8@ 00000001801d87a8     libvcruntime:undname.obj
 0002:000097c8       ??_C@_0CH@OOJPLCPH@?$GAeh?5vector?5vbase?5constructor?5it@ 00000001801d87c8     libvcruntime:undname.obj
 0002:000097f0       ??_C@_0BL@LLKPOHJI@?$GAcopy?5constructor?5closure?8@ 00000001801d87f0     libvcruntime:undname.obj
 0002:00009810       ??_C@_0BA@KBCDOMBN@?$GAudt?5returning?8@ 00000001801d8810     libvcruntime:undname.obj
 0002:00009820       ??_C@_03KLGMFNMG@?$GAEH@   00000001801d8820     libvcruntime:undname.obj
 0002:00009824       ??_C@_05KHLCHHI@?$GARTTI@  00000001801d8824     libvcruntime:undname.obj
 0002:00009830       ??_C@_0BA@KKLDJDLB@?$GAlocal?5vftable?8@ 00000001801d8830     libvcruntime:undname.obj
 0002:00009840       ??_C@_0CE@IIHCMGGL@?$GAlocal?5vftable?5constructor?5clos@ 00000001801d8840     libvcruntime:undname.obj
 0002:00009864       ??_C@_06FHBGPFGH@?5new?$FL?$FN@ 00000001801d8864     libvcruntime:undname.obj
 0002:00009870       ??_C@_09LBNFPBCA@?5delete?$FL?$FN@ 00000001801d8870     libvcruntime:undname.obj
 0002:00009880       ??_C@_0P@HJKNJFNN@?$GAomni?5callsig?8@ 00000001801d8880     libvcruntime:undname.obj
 0002:00009890       ??_C@_0BL@CNOONJFP@?$GAplacement?5delete?5closure?8@ 00000001801d8890     libvcruntime:undname.obj
 0002:000098b0       ??_C@_0BN@CKNJLHMB@?$GAplacement?5delete?$FL?$FN?5closure?8@ 00000001801d88b0     libvcruntime:undname.obj
 0002:000098d0       ??_C@_0CG@CFDHKGGD@?$GAmanaged?5vector?5constructor?5ite@ 00000001801d88d0     libvcruntime:undname.obj
 0002:000098f8       ??_C@_0CF@IMGKMJNO@?$GAmanaged?5vector?5destructor?5iter@ 00000001801d88f8     libvcruntime:undname.obj
 0002:00009920       ??_C@_0CG@HLDDJMAG@?$GAeh?5vector?5copy?5constructor?5ite@ 00000001801d8920     libvcruntime:undname.obj
 0002:00009948       ??_C@_0CM@FCBBDIGB@?$GAeh?5vector?5vbase?5copy?5construct@ 00000001801d8948     libvcruntime:undname.obj
 0002:00009978       ??_C@_0BL@CLIPGLGB@?$GAdynamic?5initializer?5for?5?8@ 00000001801d8978     libvcruntime:undname.obj
 0002:00009998       ??_C@_0CB@PDBIFEP@?$GAdynamic?5atexit?5destructor?5for?5@ 00000001801d8998     libvcruntime:undname.obj
 0002:000099c0       ??_C@_0CD@CGAJBKEJ@?$GAvector?5copy?5constructor?5iterat@ 00000001801d89c0     libvcruntime:undname.obj
 0002:000099e8       ??_C@_0CJ@GJELGAMM@?$GAvector?5vbase?5copy?5constructor?5@ 00000001801d89e8     libvcruntime:undname.obj
 0002:00009a18       ??_C@_0CL@FGIJHLCE@?$GAmanaged?5vector?5copy?5constructo@ 00000001801d8a18     libvcruntime:undname.obj
 0002:00009a48       ??_C@_0BM@PMGGMLDN@?$GAlocal?5static?5thread?5guard?8@ 00000001801d8a48     libvcruntime:undname.obj
 0002:00009a68       ??_C@_0N@BDNMDMOL@operator?5?$CC?$CC?5@ 00000001801d8a68     libvcruntime:undname.obj
 0002:00009a78       ??_C@_0BC@GGEBGALA@operator?5co_await@ 00000001801d8a78     libvcruntime:undname.obj
 0002:00009a90       ??_C@_0M@GAAIMMOH@operator?$DM?$DN?$DO@ 00000001801d8a90     libvcruntime:undname.obj
 0002:00009aa0       ??_C@_0BC@DAFEJGAK@?5Type?5Descriptor?8@ 00000001801d8aa0     libvcruntime:undname.obj
 0002:00009ab8       ??_C@_0BM@LDKODKLH@?5Base?5Class?5Descriptor?5at?5?$CI@ 00000001801d8ab8     libvcruntime:undname.obj
 0002:00009ad8       ??_C@_0BD@LGICGFMM@?5Base?5Class?5Array?8@ 00000001801d8ad8     libvcruntime:undname.obj
 0002:00009af0       ??_C@_0BN@MECKDCOJ@?5Class?5Hierarchy?5Descriptor?8@ 00000001801d8af0     libvcruntime:undname.obj
 0002:00009b10       ??_C@_0BK@CFCOFLF@?5Complete?5Object?5Locator?8@ 00000001801d8b10     libvcruntime:undname.obj
 0002:00009b30       ??_C@_0BG@JNJLAMPM@?$GAanonymous?5namespace?8@ 00000001801d8b30     libvcruntime:undname.obj
 0002:00009b48       ??_C@_04HEJADOOB@CV?3?5@   00000001801d8b48     libvcruntime:undname.obj
 0002:00009b50       ??_C@_02MOLJINC@?3?3@      00000001801d8b50     libvcruntime:undname.obj
 0002:00009b58       ??_C@_0BE@JAEOCHPE@template?9parameter?9@ 00000001801d8b58     libvcruntime:undname.obj
 0002:00009b70       ??_C@_0BF@LNLGBBNL@?$GAtemplate?9parameter?9@ 00000001801d8b70     libvcruntime:undname.obj
 0002:00009b88       ??_C@_0O@KHGCOMHP@generic?9type?9@ 00000001801d8b88     libvcruntime:undname.obj
 0002:00009b98       ??_C@_0P@ODDENDLM@?$GAgeneric?9type?9@ 00000001801d8b98     libvcruntime:undname.obj
 0002:00009ba8       ??_C@_02OHHJMEON@?8?8@     00000001801d8ba8     libvcruntime:undname.obj
 0002:00009bb0       ??_C@_0BN@IBLMMFAP@?$GAnon?9type?9template?9parameter@ 00000001801d8bb0     libvcruntime:undname.obj
 0002:00009bd0       ??_C@_03DLDNIBIK@?$CFlf@   00000001801d8bd0     libvcruntime:undname.obj
 0002:00009bd4       ??_C@_04OFALKAJ@?$DP?$DP_C@ 00000001801d8bd4     libvcruntime:undname.obj
 0002:00009bdc       ??_C@_03KHICJKCI@?4?4?4@   00000001801d8bdc     libvcruntime:undname.obj
 0002:00009be0       ??_C@_04HIBGFPH@NULL@      00000001801d8be0     libvcruntime:undname.obj
 0002:00009be8       ??_C@_02DPKJAMEF@?$CFd@    00000001801d8be8     libvcruntime:undname.obj
 0002:00009bf0       ??_C@_0BK@IHCCFNEL@?$GAtemplate?9type?9parameter?9@ 00000001801d8bf0     libvcruntime:undname.obj
 0002:00009c10       ??_C@_0BK@OFCNNNKO@?$GAgeneric?9class?9parameter?9@ 00000001801d8c10     libvcruntime:undname.obj
 0002:00009c30       ??_C@_0BL@NGJBLFIL@?$GAgeneric?9method?9parameter?9@ 00000001801d8c30     libvcruntime:undname.obj
 0002:00009c50       ??_C@_07OHNGEDJK@nullptr@  00000001801d8c50     libvcruntime:undname.obj
 0002:00009c58       ??_C@_0BE@EODMJLIF@?$GAtemplate?9parameter@ 00000001801d8c58     libvcruntime:undname.obj
 0002:00009c6c       ??_C@_03OPGICMGF@?$HN?8?5@ 00000001801d8c6c     libvcruntime:undname.obj
 0002:00009c70       ??_C@_02IGFCGPIL@?$HN?8@   00000001801d8c70     libvcruntime:undname.obj
 0002:00009c78       ??_C@_0N@CBHHHENL@?$GAvtordispex?$HL@ 00000001801d8c78     libvcruntime:undname.obj
 0002:00009c88       ??_C@_0L@GHPFDFH@?$GAvtordisp?$HL@ 00000001801d8c88     libvcruntime:undname.obj
 0002:00009c98       ??_C@_0L@HNGCOGAE@?$GAadjustor?$HL@ 00000001801d8c98     libvcruntime:undname.obj
 0002:00009ca8       ??_C@_0CB@KJDOOODE@?$GAlocal?5static?5destructor?5helper@ 00000001801d8ca8     libvcruntime:undname.obj
 0002:00009cd0       ??_C@_0DB@ILEFOCIJ@?$GAtemplate?5static?5data?5member?5co@ 00000001801d8cd0     libvcruntime:undname.obj
 0002:00009d08       ??_C@_0DA@HGFJFBBE@?$GAtemplate?5static?5data?5member?5de@ 00000001801d8d08     libvcruntime:undname.obj
 0002:00009d38       ??_C@_07PGOEDBHP@static?5@ 00000001801d8d38     libvcruntime:undname.obj
 0002:00009d40       ??_C@_08NIEOINHE@virtual?5@ 00000001801d8d40     libvcruntime:undname.obj
 0002:00009d50       ??_C@_09LAPHOOG@private?3?5@ 00000001801d8d50     libvcruntime:undname.obj
 0002:00009d60       ??_C@_0M@GAIFPFIP@protected?3?5@ 00000001801d8d60     libvcruntime:undname.obj
 0002:00009d70       ??_C@_08GPDDCMKI@public?3?5@ 00000001801d8d70     libvcruntime:undname.obj
 0002:00009d80       ??_C@_08KJLFOPNE@?$FLthunk?$FN?3@ 00000001801d8d80     libvcruntime:undname.obj
 0002:00009d90       ??_C@_0M@DHNBOJMP@extern?5?$CCC?$CC?5@ 00000001801d8d90     libvcruntime:undname.obj
 0002:00009d9c       ??_C@_02KCKGHPCA@?$CJ?5@   00000001801d8d9c     libvcruntime:undname.obj
 0002:00009da0       ??_C@_05CIHEBHNO@char?5@   00000001801d8da0     libvcruntime:undname.obj
 0002:00009da8       ??_C@_06EHJMALKF@short?5@  00000001801d8da8     libvcruntime:undname.obj
 0002:00009db0       ??_C@_04LAHKHJMA@int?5@    00000001801d8db0     libvcruntime:undname.obj
 0002:00009db8       ??_C@_05CJIMAING@long?5@   00000001801d8db8     libvcruntime:undname.obj
 0002:00009dc0       ??_C@_09EBBEKKIH@unsigned?5@ 00000001801d8dc0     libvcruntime:undname.obj
 0002:00009dcc       ??_C@_05BEFAKPML@void?5@   00000001801d8dcc     libvcruntime:undname.obj
 0002:00009dd8       ??_C@_09GAIEOBLP@volatile?5@ 00000001801d8dd8     libvcruntime:undname.obj
 0002:00009de8       ??_C@_08PABEKFH@volatile@  00000001801d8de8     libvcruntime:undname.obj
 0002:00009df8       ??_C@_0BA@LKIJLKPP@std?3?3nullptr_t?5@ 00000001801d8df8     libvcruntime:undname.obj
 0002:00009e08       ??_C@_0P@GCOCNKDM@std?3?3nullptr_t@ 00000001801d8e08     libvcruntime:undname.obj
 0002:00009e18       ??_C@_0L@EGPHHEKN@?$DMellipsis?$DO@ 00000001801d8e18     libvcruntime:undname.obj
 0002:00009e24       ??_C@_04EENFHACM@?0?4?4?4@ 00000001801d8e24     libvcruntime:undname.obj
 0002:00009e30       ??_C@_0M@ELJOJFFH@?0?$DMellipsis?$DO@ 00000001801d8e30     libvcruntime:undname.obj
 0002:00009e40       ??_C@_09DNHFEOJI@?5noexcept@ 00000001801d8e40     libvcruntime:undname.obj
 0002:00009e4c       ??_C@_03PBJBJNON@cpu@      00000001801d8e4c     libvcruntime:undname.obj
 0002:00009e50       ??_C@_03DCBBJBAA@amp@      00000001801d8e50     libvcruntime:undname.obj
 0002:00009e54       ??_C@_02KEGNLNML@?0?5@     00000001801d8e54     libvcruntime:undname.obj
 0002:00009e58       ??_C@_04ENMBGAPA@char@     00000001801d8e58     libvcruntime:undname.obj
 0002:00009e60       ??_C@_05BFKKPKCG@short@    00000001801d8e60     libvcruntime:undname.obj
 0002:00009e68       ??_C@_03JBIPMCLC@int@      00000001801d8e68     libvcruntime:undname.obj
 0002:00009e6c       ??_C@_04GOKPGOLB@long@     00000001801d8e6c     libvcruntime:undname.obj
 0002:00009e74       ??_C@_06BNJCAIGJ@double@   00000001801d8e74     libvcruntime:undname.obj
 0002:00009e7c       ??_C@_06EBGKOKIG@__int8@   00000001801d8e7c     libvcruntime:undname.obj
 0002:00009e88       ??_C@_07ICFHOGAF@__int16@  00000001801d8e88     libvcruntime:undname.obj
 0002:00009e90       ??_C@_07OFLPPHGP@__int32@  00000001801d8e90     libvcruntime:undname.obj
 0002:00009e98       ??_C@_07LFCOJCAC@__int64@  00000001801d8e98     libvcruntime:undname.obj
 0002:00009ea0       ??_C@_08GAHOLHEO@__int128@ 00000001801d8ea0     libvcruntime:undname.obj
 0002:00009eb0       ??_C@_09EEKGDCPH@?$DMunknown?$DO@ 00000001801d8eb0     libvcruntime:undname.obj
 0002:00009ec0       ??_C@_07CFHGOPCN@char8_t@  00000001801d8ec0     libvcruntime:undname.obj
 0002:00009ec8       ??_C@_08HBIPOFJB@char16_t@ 00000001801d8ec8     libvcruntime:undname.obj
 0002:00009ed8       ??_C@_08IECNCBKG@char32_t@ 00000001801d8ed8     libvcruntime:undname.obj
 0002:00009ee8       ??_C@_07CLGGIAMF@wchar_t@  00000001801d8ee8     libvcruntime:undname.obj
 0002:00009ef0       ??_C@_04HAPDLBFF@auto@     00000001801d8ef0     libvcruntime:undname.obj
 0002:00009ef8       ??_C@_0P@LHCGKIGK@decltype?$CIauto?$CJ@ 00000001801d8ef8     libvcruntime:undname.obj
 0002:00009f08       ??_C@_06GCICPBLB@__w64?5@  00000001801d8f08     libvcruntime:undname.obj
 0002:00009f10       ??_C@_07NFANNNEC@UNKNOWN@  00000001801d8f10     libvcruntime:undname.obj
 0002:00009f18       ??_C@_07EDHNAJHC@signed?5@ 00000001801d8f18     libvcruntime:undname.obj
 0002:00009f20       ??_C@_05BNCCCJPP@const@    00000001801d8f20     libvcruntime:undname.obj
 0002:00009f28       ??_C@_09EFNPDFFP@?5volatile@ 00000001801d8f28     libvcruntime:undname.obj
 0002:00009f38       ??_C@_0P@GCIFDJCJ@?$GAunknown?5ecsu?8@ 00000001801d8f38     libvcruntime:undname.obj
 0002:00009f48       ??_C@_06MOJHIBMG@union?5@  00000001801d8f48     libvcruntime:undname.obj
 0002:00009f50       ??_C@_07DIBCDNGL@struct?5@ 00000001801d8f50     libvcruntime:undname.obj
 0002:00009f58       ??_C@_06LJBABKPM@class?5@  00000001801d8f58     libvcruntime:undname.obj
 0002:00009f60       ??_C@_08KOFANOFK@coclass?5@ 00000001801d8f60     libvcruntime:undname.obj
 0002:00009f70       ??_C@_0N@DLIEFKNA@cointerface?5@ 00000001801d8f70     libvcruntime:undname.obj
 0002:00009f80       ??_C@_05LJGMCFOG@enum?5@   00000001801d8f80     libvcruntime:undname.obj
 0002:00009f88       ??_C@_06LIJLOJAG@const?5@  00000001801d8f88     libvcruntime:undname.obj
 0002:00009f90       ??_C@_02KJPKDIBN@?$CG?5@   00000001801d8f90     libvcruntime:undname.obj
 0002:00009f94       ??_C@_03PCKGMOPB@?$CG?$CG?5@ 00000001801d8f94     libvcruntime:undname.obj
 0002:00009f98       ??_C@_0M@EALIELKG@cli?3?3array?$DM@ 00000001801d8f98     libvcruntime:undname.obj
 0002:00009fa8       ??_C@_0O@GKABPPIF@cli?3?3pin_ptr?$DM@ 00000001801d8fa8     libvcruntime:undname.obj
 0002:00009fb8       ??_C@_02GOGNNPBN@?$CJ?$FL@ 00000001801d8fb8     libvcruntime:undname.obj
 0002:00009fbc       ??_C@_06EEGAIFAK@?$HLflat?$HN@ 00000001801d8fbc     libvcruntime:undname.obj
 0002:00009fc4       ??_C@_05JIBOFOHK@?$HLfor?5@ 00000001801d8fc4     libvcruntime:undname.obj
 0002:00009fcc       ??_C@_02MDINNEEG@s?5@      00000001801d8fcc     libvcruntime:undname.obj
 0002:00009fd8       ??_7charNode@@6B@          00000001801d8fd8     libvcruntime:undname.obj
 0002:0000a000       ??_7pcharNode@@6B@         00000001801d9000     libvcruntime:undname.obj
 0002:0000a028       ??_7pDNameNode@@6B@        00000001801d9028     libvcruntime:undname.obj
 0002:0000a050       ??_7DNameStatusNode@@6B@   00000001801d9050     libvcruntime:undname.obj
 0002:0000a078       ??_7pairNode@@6B@          00000001801d9078     libvcruntime:undname.obj
 0002:0000a1a0       ??_C@_04OKOHEJBO@?5?$DP?$DP?5@ 00000001801d91a0     libvcruntime:undname.obj
 0002:0000a1b0       ?nodes@?1??make@DNameStatusNode@@SAPEBV2@W4DNameStatus@@@Z@4QBV2@B 00000001801d91b0     libvcruntime:undname.obj
 0002:0000a1f0       ?s_negLengthTab@FH4@@3QBCB 00000001801d91f0     libvcruntime:risctrnsctrl.obj
 0002:0000a200       ?s_shiftTab@FH4@@3QBEB     00000001801d9200     libvcruntime:risctrnsctrl.obj
 0002:0000a2c0       ??_C@_1DM@KHCHBNEB@?$AAa?$AAp?$AAi?$AA?9?$AAm?$AAs?$AA?9?$AAw?$AAi?$AAn?$AA?9?$AAc?$AAo?$AAr?$AAe@ 00000001801d92c0     libvcruntime:winapi_downlevel.obj
 0002:0000a300       ??_C@_1DK@LPPGFMPP@?$AAa?$AAp?$AAi?$AA?9?$AAm?$AAs?$AA?9?$AAw?$AAi?$AAn?$AA?9?$AAc?$AAo?$AAr?$AAe@ 00000001801d9300     libvcruntime:winapi_downlevel.obj
 0002:0000a340       ??_C@_1BC@GDMECMAK@?$AAk?$AAe?$AAr?$AAn?$AAe?$AAl?$AA3?$AA2@ 00000001801d9340     libvcruntime:winapi_downlevel.obj
 0002:0000a358       ??_C@_1BA@PFFKHIOG@?$AAa?$AAp?$AAi?$AA?9?$AAm?$AAs?$AA?9@ 00000001801d9358     libvcruntime:winapi_downlevel.obj
 0002:0000a370       ??_C@_08KNHFBNJ@FlsAlloc@  00000001801d9370     libvcruntime:winapi_downlevel.obj
 0002:0000a388       ??_C@_07PEJMOBNF@FlsFree@  00000001801d9388     libvcruntime:winapi_downlevel.obj
 0002:0000a398       ??_C@_0M@GDNOONDI@FlsGetValue@ 00000001801d9398     libvcruntime:winapi_downlevel.obj
 0002:0000a3b0       ??_C@_0M@JCPCPOEF@FlsSetValue@ 00000001801d93b0     libvcruntime:winapi_downlevel.obj
 0002:0000a3c8       ??_C@_0BM@HCFOFFN@InitializeCriticalSectionEx@ 00000001801d93c8     libvcruntime:winapi_downlevel.obj
 0002:0000a3f0       ??_7exception@std@@6B@     00000001801d93f0     libvcruntime:frame.obj
 0002:0000a400       ??_C@_0BC@EOODALEL@Unknown?5exception@ 00000001801d9400     libvcruntime:frame.obj
 0002:0000a420       ??_7bad_exception@std@@6B@ 00000001801d9420     libvcruntime:frame.obj
 0002:0000a430       ??_C@_0O@DPKOEFFH@bad?5exception@ 00000001801d9430     libvcruntime:frame.obj
 0002:0000a780       ?standard_lookup_table_spectre@__crt_stdio_output@@3V?$spectre_mitigated_lookup_table@Ustate_transition_pair@__crt_stdio_output@@$0IA@@1@B 00000001801d9780     libucrt:output.obj
 0002:0000ab80       ?format_validation_lookup_table_spectre@__crt_stdio_output@@3V?$spectre_mitigated_lookup_table@Ustate_transition_pair@__crt_stdio_output@@$0IA@@1@B 00000001801d9b80     libucrt:output.obj
 0002:0000af80       ??_C@_1O@CEDCILHN@?$AA?$CI?$AAn?$AAu?$AAl?$AAl?$AA?$CJ@ 00000001801d9f80     libucrt:output.obj
 0002:0000af90       ??_C@_06OJHGLDPL@?$CInull?$CJ@ 00000001801d9f90     libucrt:output.obj
 0002:0000c028       __real@3f1a36e2eb1c432d    00000001801db028     libucrt:atan2f.obj
 0002:0000c030       __real@3fb0000000000000    00000001801db030     libucrt:atan2f.obj
 0002:0000c038       __real@3fc2492482bd6be1    00000001801db038     libucrt:atan2f.obj
 0002:0000c040       __real@3fc99999999643a3    00000001801db040     libucrt:atan2f.obj
 0002:0000c048       __real@3fd5555555550877    00000001801db048     libucrt:atan2f.obj
 0002:0000c050       __real@3fd5555555555538    00000001801db050     libucrt:atan2f.obj
 0002:0000c058       __real@3ff921fb54442d18    00000001801db058     libucrt:atan2f.obj
 0002:0000c060       __real@400921fb54442d18    00000001801db060     libucrt:atan2f.obj
 0002:0000c068       __real@4070000000000000    00000001801db068     libucrt:atan2f.obj
 0002:0000c070       __real@bf490fdb            00000001801db070     libucrt:atan2f.obj
 0002:0000c074       __real@bfc90fdb            00000001801db074     libucrt:atan2f.obj
 0002:0000c078       __real@c016cbe4            00000001801db078     libucrt:atan2f.obj
 0002:0000c07c       __real@c0490fdb            00000001801db07c     libucrt:atan2f.obj
 0002:0000c080       ??_C@_05FFFCHCED@acosf@    00000001801db080     libucrt:acosf.obj
 0002:0000c088       __real@3b81ce6b            00000001801db088     libucrt:acosf.obj
 0002:0000c090       __real@3c91a62633145c07    00000001801db090     libucrt:acosf.obj
 0002:0000c098       __real@3d678bdd            00000001801db098     libucrt:acosf.obj
 0002:0000c09c       __real@3e3c94dc            00000001801db09c     libucrt:acosf.obj
 0002:0000c0a0       __real@3f561f0d            00000001801db0a0     libucrt:acosf.obj
 0002:0000c0a4       __real@3f8d6fa5            00000001801db0a4     libucrt:acosf.obj
 0002:0000c0a8       __real@bc5b3fe1            00000001801db0a8     libucrt:acosf.obj
 0002:0000c0b0       __acrt_exception_action_table 00000001801db0b0     libucrt:exception_filter.obj
 0002:0000c170       __acrt_signal_action_table_count 00000001801db170     libucrt:exception_filter.obj
 0002:0000c178       __acrt_signal_action_first_fpe_index 00000001801db178     libucrt:exception_filter.obj
 0002:0000c180       __acrt_signal_action_fpe_count 00000001801db180     libucrt:exception_filter.obj
 0002:0000c188       ??_C@_1BI@BGOHAHKC@?$AAm?$AAs?$AAc?$AAo?$AAr?$AAe?$AAe?$AA?4?$AAd?$AAl?$AAl@ 00000001801db188     libucrt:exit.obj
 0002:0000c1a0       ??_C@_0P@MIGLKIOC@CorExitProcess@ 00000001801db1a0     libucrt:exit.obj
 0002:0000c420       ??_C@_04LAGPAAHP@sinf@     00000001801db420     libucrt:sincos_special.obj
 0002:0000c428       ??_C@_04OBBKPIAC@cosf@     00000001801db428     libucrt:sincos_special.obj
 0002:0000c430       ??_C@_04MHPLPEIA@tanf@     00000001801db430     libucrt:sincos_special.obj
 0002:0000c440       __Lcosfarray               00000001801db440     libucrt:lsincosf_array.obj
 0002:0000c470       __Lsinfarray               00000001801db470     libucrt:lsincosf_array.obj
 0002:0000c490       __L_2_by_pi_bits           00000001801db490     libucrt:l2_by_pi_bits.obj
 0002:0000c7f0       ??_C@_1EA@JGEFHKEI@?$AAa?$AAp?$AAi?$AA?9?$AAm?$AAs?$AA?9?$AAw?$AAi?$AAn?$AA?9?$AAc?$AAo?$AAr?$AAe@ 00000001801db7f0     libucrt:winapi_thunks.obj
 0002:0000c830       ??_C@_1DI@IJCEHOCB@?$AAa?$AAp?$AAi?$AA?9?$AAm?$AAs?$AA?9?$AAw?$AAi?$AAn?$AA?9?$AAc?$AAo?$AAr?$AAe@ 00000001801db830     libucrt:winapi_thunks.obj
 0002:0000c870       ??_C@_1EI@MPIAOHOC@?$AAa?$AAp?$AAi?$AA?9?$AAm?$AAs?$AA?9?$AAw?$AAi?$AAn?$AA?9?$AAc?$AAo?$AAr?$AAe@ 00000001801db870     libucrt:winapi_thunks.obj
 0002:0000c8c0       ??_C@_1FK@FPHCKFIE@?$AAa?$AAp?$AAi?$AA?9?$AAm?$AAs?$AA?9?$AAw?$AAi?$AAn?$AA?9?$AAc?$AAo?$AAr?$AAe@ 00000001801db8c0     libucrt:winapi_thunks.obj
 0002:0000c920       ??_C@_1EM@DILCGIIO@?$AAa?$AAp?$AAi?$AA?9?$AAm?$AAs?$AA?9?$AAw?$AAi?$AAn?$AA?9?$AAc?$AAo?$AAr?$AAe@ 00000001801db920     libucrt:winapi_thunks.obj
 0002:0000c970       ??_C@_1DM@LNCGDDPN@?$AAa?$AAp?$AAi?$AA?9?$AAm?$AAs?$AA?9?$AAw?$AAi?$AAn?$AA?9?$AAc?$AAo?$AAr?$AAe@ 00000001801db970     libucrt:winapi_thunks.obj
 0002:0000c9b0       ??_C@_1DO@FPAPJEMD@?$AAa?$AAp?$AAi?$AA?9?$AAm?$AAs?$AA?9?$AAw?$AAi?$AAn?$AA?9?$AAc?$AAo?$AAr?$AAe@ 00000001801db9b0     libucrt:winapi_thunks.obj
 0002:0000c9f0       ??_C@_1DK@NDHNAHIO@?$AAa?$AAp?$AAi?$AA?9?$AAm?$AAs?$AA?9?$AAw?$AAi?$AAn?$AA?9?$AAc?$AAo?$AAr?$AAe@ 00000001801db9f0     libucrt:winapi_thunks.obj
 0002:0000ca30       ??_C@_1DM@KGHDGBCM@?$AAa?$AAp?$AAi?$AA?9?$AAm?$AAs?$AA?9?$AAw?$AAi?$AAn?$AA?9?$AAc?$AAo?$AAr?$AAe@ 00000001801dba30     libucrt:winapi_thunks.obj
 0002:0000ca70       ??_C@_1EO@IJIOEFOH@?$AAa?$AAp?$AAi?$AA?9?$AAm?$AAs?$AA?9?$AAw?$AAi?$AAn?$AA?9?$AAr?$AAt?$AAc?$AAo@ 00000001801dba70     libucrt:winapi_thunks.obj
 0002:0000cac0       ??_C@_1FG@HHGEKANL@?$AAa?$AAp?$AAi?$AA?9?$AAm?$AAs?$AA?9?$AAw?$AAi?$AAn?$AA?9?$AAs?$AAe?$AAc?$AAu@ 00000001801dbac0     libucrt:winapi_thunks.obj
 0002:0000cb20       ??_C@_1EG@DBIOJECG@?$AAe?$AAx?$AAt?$AA?9?$AAm?$AAs?$AA?9?$AAw?$AAi?$AAn?$AA?9?$AAn?$AAt?$AAu?$AAs@ 00000001801dbb20     libucrt:winapi_thunks.obj
 0002:0000cb70       ??_C@_1EO@FIHMJCLF@?$AAe?$AAx?$AAt?$AA?9?$AAm?$AAs?$AA?9?$AAw?$AAi?$AAn?$AA?9?$AAn?$AAt?$AAu?$AAs@ 00000001801dbb70     libucrt:winapi_thunks.obj
 0002:0000cbc0       ??_C@_1BC@DNHGCMLG@?$AAa?$AAd?$AAv?$AAa?$AAp?$AAi?$AA3?$AA2@ 00000001801dbbc0     libucrt:winapi_thunks.obj
 0002:0000cbd8       ??_C@_1M@OAIMIKLP@?$AAn?$AAt?$AAd?$AAl?$AAl@ 00000001801dbbd8     libucrt:winapi_thunks.obj
 0002:0000cbf0       ??_C@_1EG@DPGNFKGC@?$AAa?$AAp?$AAi?$AA?9?$AAm?$AAs?$AA?9?$AAw?$AAi?$AAn?$AA?9?$AAa?$AAp?$AAp?$AAm@ 00000001801dbbf0     libucrt:winapi_thunks.obj
 0002:0000cc38       ??_C@_1O@BCCLBEOE@?$AAu?$AAs?$AAe?$AAr?$AA3?$AA2@ 00000001801dbc38     libucrt:winapi_thunks.obj
 0002:0000cc48       ??_C@_1BA@IAIFMGEF@?$AAe?$AAx?$AAt?$AA?9?$AAm?$AAs?$AA?9@ 00000001801dbc48     libucrt:winapi_thunks.obj
 0002:0000cc60       ??_C@_0BA@FHFNEAED@AreFileApisANSI@ 00000001801dbc60     libucrt:winapi_thunks.obj
 0002:0000cca0       ??_C@_0O@KKBNKAPF@LCMapStringEx@ 00000001801dbca0     libucrt:winapi_thunks.obj
 0002:0000ccb8       ??_C@_0BB@HBDEELFH@LocaleNameToLCID@ 00000001801dbcb8     libucrt:winapi_thunks.obj
 0002:0000ccd0       ??_C@_0CF@OJOFEIGO@AppPolicyGetProcessTerminationM@ 00000001801dbcd0     libucrt:winapi_thunks.obj
 0002:0000cd80       ??_C@_03OEIAHPBN@INF@      00000001801dbd80     libucrt:cvt.obj
 0002:0000cd84       ??_C@_03OJHLLCGB@inf@      00000001801dbd84     libucrt:cvt.obj
 0002:0000cd88       ??_C@_03LKNCIKJB@NAN@      00000001801dbd88     libucrt:cvt.obj
 0002:0000cd8c       ??_C@_03LHCJEHON@nan@      00000001801dbd8c     libucrt:cvt.obj
 0002:0000cd90       ??_C@_09OFJJIMPC@NAN?$CISNAN?$CJ@ 00000001801dbd90     libucrt:cvt.obj
 0002:0000cda0       ??_C@_09IPFBKMDL@nan?$CIsnan?$CJ@ 00000001801dbda0     libucrt:cvt.obj
 0002:0000cdb0       ??_C@_08IKHNHAJ@NAN?$CIIND?$CJ@ 00000001801dbdb0     libucrt:cvt.obj
 0002:0000cdc0       ??_C@_08OFCDMILK@nan?$CIind?$CJ@ 00000001801dbdc0     libucrt:cvt.obj
 0002:0000cdcc       ??_C@_05KLBDPFGC@e?$CL000@ 00000001801dbdcc     libucrt:cvt.obj
 0002:0000cde0       __lc_time_c                00000001801dbde0     libucrt:nlsdata.obj
 0002:0000d0a0       ??_C@_03KOEHGMDN@Sun@      00000001801dc0a0     libucrt:nlsdata.obj
 0002:0000d0a4       ??_C@_03PDAGKDH@Mon@       00000001801dc0a4     libucrt:nlsdata.obj
 0002:0000d0a8       ??_C@_03NAGEINEP@Tue@      00000001801dc0a8     libucrt:nlsdata.obj
 0002:0000d0ac       ??_C@_03MHOMLAJA@Wed@      00000001801dc0ac     libucrt:nlsdata.obj
 0002:0000d0b0       ??_C@_03IOFIKPDN@Thu@      00000001801dc0b0     libucrt:nlsdata.obj
 0002:0000d0b4       ??_C@_03IDIOELNC@Fri@      00000001801dc0b4     libucrt:nlsdata.obj
 0002:0000d0b8       ??_C@_03FEFJNEK@Sat@       00000001801dc0b8     libucrt:nlsdata.obj
 0002:0000d0bc       ??_C@_06OOPIFAJ@Sunday@    00000001801dc0bc     libucrt:nlsdata.obj
 0002:0000d0c4       ??_C@_06JLEDEDGH@Monday@   00000001801dc0c4     libucrt:nlsdata.obj
 0002:0000d0d0       ??_C@_07BAAGCFCM@Tuesday@  00000001801dc0d0     libucrt:nlsdata.obj
 0002:0000d0d8       ??_C@_09DLIGFAKA@Wednesday@ 00000001801dc0d8     libucrt:nlsdata.obj
 0002:0000d0e8       ??_C@_08HACCIKIA@Thursday@ 00000001801dc0e8     libucrt:nlsdata.obj
 0002:0000d0f4       ??_C@_06JECMNKMI@Friday@   00000001801dc0f4     libucrt:nlsdata.obj
 0002:0000d100       ??_C@_08INBOOONO@Saturday@ 00000001801dc100     libucrt:nlsdata.obj
 0002:0000d10c       ??_C@_03JIHJHPIE@Jan@      00000001801dc10c     libucrt:nlsdata.obj
 0002:0000d110       ??_C@_03HJBDCHOM@Feb@      00000001801dc110     libucrt:nlsdata.obj
 0002:0000d114       ??_C@_03ODNJBKGA@Mar@      00000001801dc114     libucrt:nlsdata.obj
 0002:0000d118       ??_C@_03LEOLGMJP@Apr@      00000001801dc118     libucrt:nlsdata.obj
 0002:0000d11c       ??_C@_03CNMDKL@May@        00000001801dc11c     libucrt:nlsdata.obj
 0002:0000d120       ??_C@_03IDFGHECI@Jun@      00000001801dc120     libucrt:nlsdata.obj
 0002:0000d124       ??_C@_03LBGABGKK@Jul@      00000001801dc124     libucrt:nlsdata.obj
 0002:0000d128       ??_C@_03IFJFEIGA@Aug@      00000001801dc128     libucrt:nlsdata.obj
 0002:0000d12c       ??_C@_03GGCAPAJC@Sep@      00000001801dc12c     libucrt:nlsdata.obj
 0002:0000d130       ??_C@_03BMAOKBAD@Oct@      00000001801dc130     libucrt:nlsdata.obj
 0002:0000d134       ??_C@_03JPJOFNIA@Nov@      00000001801dc134     libucrt:nlsdata.obj
 0002:0000d138       ??_C@_03MKABNOCG@Dec@      00000001801dc138     libucrt:nlsdata.obj
 0002:0000d140       ??_C@_07CGJPFGJA@January@  00000001801dc140     libucrt:nlsdata.obj
 0002:0000d148       ??_C@_08GNJGEPFN@February@ 00000001801dc148     libucrt:nlsdata.obj
 0002:0000d154       ??_C@_05HPCKOFNC@March@    00000001801dc154     libucrt:nlsdata.obj
 0002:0000d15c       ??_C@_05DMJDNLEJ@April@    00000001801dc15c     libucrt:nlsdata.obj
 0002:0000d164       ??_C@_04CNLMGBGM@June@     00000001801dc164     libucrt:nlsdata.obj
 0002:0000d16c       ??_C@_04MIEPOIFP@July@     00000001801dc16c     libucrt:nlsdata.obj
 0002:0000d174       ??_C@_06LBBHFDDG@August@   00000001801dc174     libucrt:nlsdata.obj
 0002:0000d180       ??_C@_09BHHEALKD@September@ 00000001801dc180     libucrt:nlsdata.obj
 0002:0000d190       ??_C@_07JJNFCEND@October@  00000001801dc190     libucrt:nlsdata.obj
 0002:0000d198       ??_C@_08HCHEGEOA@November@ 00000001801dc198     libucrt:nlsdata.obj
 0002:0000d1a8       ??_C@_08EDHMEBNP@December@ 00000001801dc1a8     libucrt:nlsdata.obj
 0002:0000d1b4       ??_C@_02DEDBPAFC@AM@       00000001801dc1b4     libucrt:nlsdata.obj
 0002:0000d1b8       ??_C@_02CJNFDJBF@PM@       00000001801dc1b8     libucrt:nlsdata.obj
 0002:0000d1c0       ??_C@_08BPBNCDIB@MM?1dd?1yy@ 00000001801dc1c0     libucrt:nlsdata.obj
 0002:0000d1d0       ??_C@_0BE@CKGJFCPC@dddd?0?5MMMM?5dd?0?5yyyy@ 00000001801dc1d0     libucrt:nlsdata.obj
 0002:0000d1e8       ??_C@_08JCCMCCIL@HH?3mm?3ss@ 00000001801dc1e8     libucrt:nlsdata.obj
 0002:0000d1f8       ??_C@_17MBGCMIPB@?$AAS?$AAu?$AAn@ 00000001801dc1f8     libucrt:nlsdata.obj
 0002:0000d200       ??_C@_17KBOMKBF@?$AAM?$AAo?$AAn@ 00000001801dc200     libucrt:nlsdata.obj
 0002:0000d208       ??_C@_17BMKGEGOJ@?$AAT?$AAu?$AAe@ 00000001801dc208     libucrt:nlsdata.obj
 0002:0000d210       ??_C@_17CJEDCEPE@?$AAW?$AAe?$AAd@ 00000001801dc210     libucrt:nlsdata.obj
 0002:0000d218       ??_C@_17PDPHAADD@?$AAT?$AAh?$AAu@ 00000001801dc218     libucrt:nlsdata.obj
 0002:0000d220       ??_C@_17HFOLPPLP@?$AAF?$AAr?$AAi@ 00000001801dc220     libucrt:nlsdata.obj
 0002:0000d228       ??_C@_17GGIBDPIH@?$AAS?$AAa?$AAt@ 00000001801dc228     libucrt:nlsdata.obj
 0002:0000d230       ??_C@_1O@IHNHDHPB@?$AAS?$AAu?$AAn?$AAd?$AAa?$AAy@ 00000001801dc230     libucrt:nlsdata.obj
 0002:0000d240       ??_C@_1O@MMNBFLIA@?$AAM?$AAo?$AAn?$AAd?$AAa?$AAy@ 00000001801dc240     libucrt:nlsdata.obj
 0002:0000d250       ??_C@_1BA@ENFBFFEK@?$AAT?$AAu?$AAe?$AAs?$AAd?$AAa?$AAy@ 00000001801dc250     libucrt:nlsdata.obj
 0002:0000d260       ??_C@_1BE@EBOGMDOH@?$AAW?$AAe?$AAd?$AAn?$AAe?$AAs?$AAd?$AAa?$AAy@ 00000001801dc260     libucrt:nlsdata.obj
 0002:0000d278       ??_C@_1BC@HHMNLIHE@?$AAT?$AAh?$AAu?$AAr?$AAs?$AAd?$AAa?$AAy@ 00000001801dc278     libucrt:nlsdata.obj
 0002:0000d290       ??_C@_1O@PDICJHAG@?$AAF?$AAr?$AAi?$AAd?$AAa?$AAy@ 00000001801dc290     libucrt:nlsdata.obj
 0002:0000d2a0       ??_C@_1BC@ENMNNPAJ@?$AAS?$AAa?$AAt?$AAu?$AAr?$AAd?$AAa?$AAy@ 00000001801dc2a0     libucrt:nlsdata.obj
 0002:0000d2b8       ??_C@_17DKNBKCHM@?$AAJ?$AAa?$AAn@ 00000001801dc2b8     libucrt:nlsdata.obj
 0002:0000d2c0       ??_C@_17LMDJEKJN@?$AAF?$AAe?$AAb@ 00000001801dc2c0     libucrt:nlsdata.obj
 0002:0000d2c8       ??_C@_17CKNLEDEC@?$AAM?$AAa?$AAr@ 00000001801dc2c8     libucrt:nlsdata.obj
 0002:0000d2d0       ??_C@_17LFPOIHDD@?$AAA?$AAp?$AAr@ 00000001801dc2d0     libucrt:nlsdata.obj
 0002:0000d2d8       ??_C@_17PNNKMEED@?$AAM?$AAa?$AAy@ 00000001801dc2d8     libucrt:nlsdata.obj
 0002:0000d2e0       ??_C@_17KCJGOCPB@?$AAJ?$AAu?$AAn@ 00000001801dc2e0     libucrt:nlsdata.obj
 0002:0000d2e8       ??_C@_17IJPCKHK@?$AAJ?$AAu?$AAl@ 00000001801dc2e8     libucrt:nlsdata.obj
 0002:0000d2f0       ??_C@_17ICPELBCN@?$AAA?$AAu?$AAg@ 00000001801dc2f0     libucrt:nlsdata.obj
 0002:0000d2f8       ??_C@_17HCHCOKMG@?$AAS?$AAe?$AAp@ 00000001801dc2f8     libucrt:nlsdata.obj
 0002:0000d300       ??_C@_17FNLKOI@?$AAO?$AAc?$AAt@ 00000001801dc300     libucrt:nlsdata.obj
 0002:0000d308       ??_C@_17BBDMLCIG@?$AAN?$AAo?$AAv@ 00000001801dc308     libucrt:nlsdata.obj
 0002:0000d310       ??_C@_17EGKACKIF@?$AAD?$AAe?$AAc@ 00000001801dc310     libucrt:nlsdata.obj
 0002:0000d318       ??_C@_1BA@EFMEIEBA@?$AAJ?$AAa?$AAn?$AAu?$AAa?$AAr?$AAy@ 00000001801dc318     libucrt:nlsdata.obj
 0002:0000d328       ??_C@_1BC@JGDDFFAM@?$AAF?$AAe?$AAb?$AAr?$AAu?$AAa?$AAr?$AAy@ 00000001801dc328     libucrt:nlsdata.obj
 0002:0000d340       ??_C@_1M@IKEENEDF@?$AAM?$AAa?$AAr?$AAc?$AAh@ 00000001801dc340     libucrt:nlsdata.obj
 0002:0000d350       ??_C@_1M@GJNLMHFD@?$AAA?$AAp?$AAr?$AAi?$AAl@ 00000001801dc350     libucrt:nlsdata.obj
 0002:0000d360       ??_C@_19EPFLPGAP@?$AAJ?$AAu?$AAn?$AAe@ 00000001801dc360     libucrt:nlsdata.obj
 0002:0000d370       ??_C@_19BIFMLPCD@?$AAJ?$AAu?$AAl?$AAy@ 00000001801dc370     libucrt:nlsdata.obj
 0002:0000d380       ??_C@_1O@PAHLKOAC@?$AAA?$AAu?$AAg?$AAu?$AAs?$AAt@ 00000001801dc380     libucrt:nlsdata.obj
 0002:0000d390       ??_C@_1BE@DKAAMBJL@?$AAS?$AAe?$AAp?$AAt?$AAe?$AAm?$AAb?$AAe?$AAr@ 00000001801dc390     libucrt:nlsdata.obj
 0002:0000d3a8       ??_C@_1BA@EPANDLNG@?$AAO?$AAc?$AAt?$AAo?$AAb?$AAe?$AAr@ 00000001801dc3a8     libucrt:nlsdata.obj
 0002:0000d3b8       ??_C@_1BC@BGLIFPF@?$AAN?$AAo?$AAv?$AAe?$AAm?$AAb?$AAe?$AAr@ 00000001801dc3b8     libucrt:nlsdata.obj
 0002:0000d3d0       ??_C@_1BC@FEMKIFH@?$AAD?$AAe?$AAc?$AAe?$AAm?$AAb?$AAe?$AAr@ 00000001801dc3d0     libucrt:nlsdata.obj
 0002:0000d3e4       ??_C@_15ODEHAHHF@?$AAA?$AAM@ 00000001801dc3e4     libucrt:nlsdata.obj
 0002:0000d3ec       ??_C@_15CLMNNGEL@?$AAP?$AAM@ 00000001801dc3ec     libucrt:nlsdata.obj
 0002:0000d3f8       ??_C@_1BC@IEBCMHCM@?$AAM?$AAM?$AA?1?$AAd?$AAd?$AA?1?$AAy?$AAy@ 00000001801dc3f8     libucrt:nlsdata.obj
 0002:0000d410       ??_C@_1CI@KNAKOEBC@?$AAd?$AAd?$AAd?$AAd?$AA?0?$AA?5?$AAM?$AAM?$AAM?$AAM?$AA?5?$AAd?$AAd?$AA?0?$AA?5@ 00000001801dc410     libucrt:nlsdata.obj
 0002:0000d438       ??_C@_1BC@GDGBMEMK@?$AAH?$AAH?$AA?3?$AAm?$AAm?$AA?3?$AAs?$AAs@ 00000001801dc438     libucrt:nlsdata.obj
 0002:0000d450       ??_C@_1M@BMHNFIME@?$AAe?$AAn?$AA?9?$AAU?$AAS@ 00000001801dc450     libucrt:nlsdata.obj
 0002:0000d460       __two_to_jby64_table       00000001801dc460     libucrt:two_to_jby64_table.obj
 0002:0000d660       __log_F_inv_qword          00000001801dc660     libucrt:log_f_inv_qword_table.obj
 0002:0000de70       ??_C@_04MBFDLNIM@powf@     00000001801dce70     libucrt:pow_special.obj
 0002:0000de98       ??_C@_1M@HPNHIDJI@?$AAj?$AAa?$AA?9?$AAJ?$AAP@ 00000001801dce98     libucrt:mbctype.obj
 0002:0000dea8       ??_C@_1M@BIBDDEMK@?$AAz?$AAh?$AA?9?$AAC?$AAN@ 00000001801dcea8     libucrt:mbctype.obj
 0002:0000deb8       ??_C@_1M@JLOOOEGK@?$AAk?$AAo?$AA?9?$AAK?$AAR@ 00000001801dceb8     libucrt:mbctype.obj
 0002:0000dec8       ??_C@_1M@CLNBBOPM@?$AAz?$AAh?$AA?9?$AAT?$AAW@ 00000001801dcec8     libucrt:mbctype.obj
 0002:0000dee0       __newctype                 00000001801dcee0     libucrt:ctype.obj
 0002:0000e1e0       __newclmap                 00000001801dd1e0     libucrt:ctype.obj
 0002:0000e360       __newcumap                 00000001801dd360     libucrt:ctype.obj
 0002:0000f330       ??_C@_15EMKDOKLE@?$AAa?$AAr@ 00000001801de330     libucrt:lcidtoname_downlevel.obj
 0002:0000f338       ??_C@_15KNPADPLH@?$AAb?$AAg@ 00000001801de338     libucrt:lcidtoname_downlevel.obj
 0002:0000f340       ??_C@_15EDMHLDMO@?$AAc?$AAa@ 00000001801de340     libucrt:lcidtoname_downlevel.obj
 0002:0000f348       ??_C@_1O@BPEAJADD@?$AAz?$AAh?$AA?9?$AAC?$AAH?$AAS@ 00000001801de348     libucrt:lcidtoname_downlevel.obj
 0002:0000f358       ??_C@_15LJNHCMNK@?$AAc?$AAs@ 00000001801de358     libucrt:lcidtoname_downlevel.obj
 0002:0000f360       ??_C@_15FOMCIDHG@?$AAd?$AAa@ 00000001801de360     libucrt:lcidtoname_downlevel.obj
 0002:0000f368       ??_C@_15NBKABECB@?$AAd?$AAe@ 00000001801de368     libucrt:lcidtoname_downlevel.obj
 0002:0000f370       ??_C@_15GHPEIIAO@?$AAe?$AAl@ 00000001801de370     libucrt:lcidtoname_downlevel.obj
 0002:0000f378       ??_C@_15MNPNEAIF@?$AAe?$AAn@ 00000001801de378     libucrt:lcidtoname_downlevel.obj
 0002:0000f380       ??_C@_15GPIOMPMH@?$AAe?$AAs@ 00000001801de380     libucrt:lcidtoname_downlevel.obj
 0002:0000f388       ??_C@_15NGLOAKJC@?$AAf?$AAi@ 00000001801de388     libucrt:lcidtoname_downlevel.obj
 0002:0000f390       ??_C@_15FBKGNKAM@?$AAf?$AAr@ 00000001801de390     libucrt:lcidtoname_downlevel.obj
 0002:0000f398       ??_C@_15KGGCNEFK@?$AAh?$AAe@ 00000001801de398     libucrt:lcidtoname_downlevel.obj
 0002:0000f3a0       ??_C@_15PGHLIDMF@?$AAh?$AAu@ 00000001801de3a0     libucrt:lcidtoname_downlevel.obj
 0002:0000f3a8       ??_C@_15BIEMAPLM@?$AAi?$AAs@ 00000001801de3a8     libucrt:lcidtoname_downlevel.obj
 0002:0000f3b0       ??_C@_15IFJLDHAF@?$AAi?$AAt@ 00000001801de3b0     libucrt:lcidtoname_downlevel.obj
 0002:0000f3b8       ??_C@_15GEMIOCAG@?$AAj?$AAa@ 00000001801de3b8     libucrt:lcidtoname_downlevel.obj
 0002:0000f3c0       ??_C@_15EPELEGJA@?$AAk?$AAo@ 00000001801de3c0     libucrt:lcidtoname_downlevel.obj
 0002:0000f3c8       ??_C@_15NDDHIMN@?$AAn?$AAl@ 00000001801de3c8     libucrt:lcidtoname_downlevel.obj
 0002:0000f3d0       ??_C@_15BPIGNHCD@?$AAn?$AAo@ 00000001801de3d0     libucrt:lcidtoname_downlevel.obj
 0002:0000f3d8       ??_C@_15DEOPBLCG@?$AAp?$AAl@ 00000001801de3d8     libucrt:lcidtoname_downlevel.obj
 0002:0000f3e0       ??_C@_15KBECGEFG@?$AAp?$AAt@ 00000001801de3e0     libucrt:lcidtoname_downlevel.obj
 0002:0000f3e8       ??_C@_15GLJCBFMD@?$AAr?$AAo@ 00000001801de3e8     libucrt:lcidtoname_downlevel.obj
 0002:0000f3f0       ??_C@_15FEDGKCDI@?$AAr?$AAu@ 00000001801de3f0     libucrt:lcidtoname_downlevel.obj
 0002:0000f3f8       ??_C@_15GLKMLLHM@?$AAh?$AAr@ 00000001801de3f8     libucrt:lcidtoname_downlevel.obj
 0002:0000f400       ??_C@_15CPKMFBDB@?$AAs?$AAk@ 00000001801de400     libucrt:lcidtoname_downlevel.obj
