 PhysXCommon_64

 Timestamp is 640ea266 (Mon Mar 13 00:11:18 2023)

 Preferred load address is 0000000180000000

 Start         Length     Name                   Class
 0001:00000000 000031d0H .text$di                CODE
 0001:000031d0 001cd630H .text$mn                CODE
 0001:001d0800 00000040H .text$mn$00             CODE
 0001:001d0840 00000490H .text$x                 CODE
 0001:001d0cd0 0000000fH .text$yd                CODE
 0002:00000000 00000260H .idata$5                DATA
 0002:00000260 00000028H .00cfg                  DATA
 0002:00000288 00000008H .CRT$XCA                DATA
 0002:00000290 000018b0H .CRT$XCU                DATA
 0002:00001b40 00000008H .CRT$XCZ                DATA
 0002:00001b48 00000008H .CRT$XIA                DATA
 0002:00001b50 00000018H .CRT$XIC                DATA
 0002:00001b68 00000008H .CRT$XIZ                DATA
 0002:00001b70 00000008H .CRT$XPA                DATA
 0002:00001b78 00000010H .CRT$XPX                DATA
 0002:00001b88 00000008H .CRT$XPXA               DATA
 0002:00001b90 00000008H .CRT$XPZ                DATA
 0002:00001b98 00000008H .CRT$XTA                DATA
 0002:00001ba0 00000010H .CRT$XTZ                DATA
 0002:00001ba8 00000000H .gehcont$y              DATA
 0002:00001ba8 00000000H .gfids$y                DATA
 0002:00001bb0 00012d50H .rdata                  DATA
 0002:00014900 00000000H .rdata$CastGuardVftablesA DATA
 0002:00014900 00000000H .rdata$CastGuardVftablesC DATA
 0002:00014900 0000043cH .rdata$r                DATA
 0002:00014d3c 00000104H .rdata$voltmd           DATA
 0002:00014e40 00000438H .rdata$zzzdbg           DATA
 0002:00015278 00000008H .rtc$IAA                DATA
 0002:00015280 00000008H .rtc$IZZ                DATA
 0002:00015288 00000008H .rtc$TAA                DATA
 0002:00015290 00000008H .rtc$TZZ                DATA
 0002:00015298 000145f0H .xdata                  DATA
 0002:00029888 00000084H .xdata$x                DATA
 0002:0002990c 00000020H .didat$2                DATA
 0002:0002992c 00000024H .didat$3                DATA
 0002:00029950 000000c8H .didat$4                DATA
 0002:00029a18 00000410H .didat$6                DATA
 0002:00029e28 000000c8H .didat$7                DATA
 0002:00029ef0 0000c478H .edata                  DATA
 0002:00036368 00000014H .idata$2                DATA
 0002:0003637c 00000014H .idata$3                DATA
 0002:00036390 00000260H .idata$4                DATA
 0002:000365f0 0000058cH .idata$6                DATA
 0003:00000000 00001c40H .data                   DATA
 0003:00001c40 000010e0H .data$r                 DATA
 0003:00002d20 000000f0H .data$rs                DATA
 0003:00002e10 000000d0H .didat$5                DATA
 0003:00002ee0 000043fcH .bss                    DATA
 0004:00000000 0000c03cH .pdata                  DATA
 0005:00000000 00002304H _RDATA                  DATA
 0006:00000000 000000a0H .rsrc$01                DATA
 0006:000000a0 000004b0H .rsrc$02                DATA

  Address         Publics by Value              Rva+Base               Lib:Object

 0000:00000000       __arm64x_extra_rfe_table   0000000000000000     <absolute>
 0000:00000000       __guard_iat_count          0000000000000000     <absolute>
 0000:00000000       __guard_longjmp_count      0000000000000000     <absolute>
 0000:00000000       __guard_fids_count         0000000000000000     <absolute>
 0000:00000000       __dynamic_value_reloc_table 0000000000000000     <absolute>
 0000:00000000       __hybrid_code_map          0000000000000000     <absolute>
 0000:00000000       __arm64x_extra_rfe_table_size 0000000000000000     <absolute>
 0000:00000000       __hybrid_auxiliary_iat     0000000000000000     <absolute>
 0000:00000000       __arm64x_redirection_metadata 0000000000000000     <absolute>
 0000:00000000       ___safe_se_handler_count   0000000000000000     <absolute>
 0000:00000000       __hybrid_auxiliary_iat_copy 0000000000000000     <absolute>
 0000:00000000       __AbsoluteZero             0000000000000000     <absolute>
 0000:00000000       __guard_iat_table          0000000000000000     <absolute>
 0000:00000000       ___safe_se_handler_table   0000000000000000     <absolute>
 0000:00000000       __guard_check_icall_a64n_fptr 0000000000000000     <absolute>
 0000:00000000       __x64_code_ranges_to_entry_points 0000000000000000     <absolute>
 0000:00000000       __guard_eh_cont_count      0000000000000000     <absolute>
 0000:00000000       __guard_fids_table         0000000000000000     <absolute>
 0000:00000000       __guard_longjmp_table      0000000000000000     <absolute>
 0000:00000000       __arm64x_redirection_metadata_count 0000000000000000     <absolute>
 0000:00000000       __enclave_config           0000000000000000     <absolute>
 0000:00000000       __x64_code_ranges_to_entry_points_count 0000000000000000     <absolute>
 0000:00000000       __guard_eh_cont_table      0000000000000000     <absolute>
 0000:00000000       __arm64x_native_entrypoint 0000000000000000     <absolute>
 0000:00000000       __hybrid_code_map_count    0000000000000000     <absolute>
 0000:00000100       __guard_flags              0000000000000100     <absolute>
 0000:00000000       __ImageBase                0000000180000000     <linker-defined>
 0001:000031d0       ??0PtrTable@Cm@physx@@QEAA@W4PxEMPTY@2@@Z 00000001800041d0 f i CmPtrTable.obj
 0001:000031f0       ??0PtrTable@Cm@physx@@QEAA@XZ 00000001800041f0 f   CmPtrTable.obj
 0001:00003200       ?visualize@BasePruner@Gu@physx@@UEBAXAEAVPxRenderOutput@3@II@Z 0000000180004200 f   GuIncrementalAABBPruner.obj
 0001:00003200       ?merge@IncrementalAABBPruner@Gu@physx@@UEAAXPEBX@Z 0000000180004200 f   GuIncrementalAABBPruner.obj
 0001:00003200       ??1AABBTreeBuildNode@Gu@physx@@QEAA@XZ 0000000180004200 f   GuMeshFactory.obj
 0001:00003200       ??1Box@Gu@physx@@QEAA@XZ   0000000180004200 f   GuBox.obj
 0001:00003200       _guard_check_icall_nop     0000000180004200 f   LIBCMT:guard_support.obj
 0001:00003200       ?merge@BucketPruner@Gu@physx@@UEAAXPEBX@Z 0000000180004200 f   GuBucketPruner.obj
 0001:00003200       ?swapIndex@CompanionPrunerBucket@@UEAAXII@Z 0000000180004200 f   GuSecondaryPruner.obj
 0001:00003200       ?requiresObjects@ConvexMesh@Gu@physx@@UEAAXAEAVPxProcessPxBaseCallback@3@@Z 0000000180004200 f   GuConvexMesh.obj
 0001:00003200       ?swapIndex@CompanionPrunerAABBTree@@UEAAXII@Z 0000000180004200 f   GuSecondaryPruner.obj
 0001:00003200       ?checkTreeLeaf@IncrementalAABBTree@Gu@physx@@QEAAXPEAVIncrementalAABBTreeNode@23@I@Z 0000000180004200 f   GuIncrementalAABBTree.obj
 0001:00003200       ?timeStampChange@CompanionPrunerBucket@@UEAAXXZ 0000000180004200 f   GuSecondaryPruner.obj
 0001:00003200       ?requiresObjects@HeightField@Gu@physx@@UEAAXAEAVPxProcessPxBaseCallback@3@@Z 0000000180004200 f   GuHeightField.obj
 0001:00003200       ?purge@BucketPruner@Gu@physx@@UEAAXXZ 0000000180004200 f   GuBucketPruner.obj
 0001:00003200       ?build@CompanionPrunerIncremental@@UEAAXXZ 0000000180004200 f   GuSecondaryPruner.obj
 0001:00003200       ??1BigConvexDataBuilder@physx@@QEAA@XZ 0000000180004200 f   GuCookingBigConvexDataBuilder.obj
 0001:00003200       ?profile@Callback@RTree@Gu@physx@@UEAAXXZ 0000000180004200 f   GuMidphaseRTree.obj
 0001:00003200       ?onMeshIndexFormatChange@TriangleMeshBuilder@physx@@UEAAXXZ 0000000180004200 f   GuCookingTriangleMesh.obj
 0001:00003200       ?execute@?$PxThreadT@V?$PxReflectionAllocator@VPxThreadImpl@physx@@@physx@@@physx@@UEAAXXZ 0000000180004200 f   GuSDF.obj
 0001:00003200       ?timeStampChange@CompanionPrunerAABBTree@@UEAAXXZ 0000000180004200 f   GuSecondaryPruner.obj
 0001:00003200       ??1HeightFieldData@Gu@physx@@QEAA@XZ 0000000180004200 f   GuCCTSweepTests.obj
 0001:00003200       ?requiresObjects@SoftBodyMesh@Gu@physx@@UEAAXAEAVPxProcessPxBaseCallback@3@@Z 0000000180004200 f   GuTetrahedronMesh.obj
 0001:00003200       ?execute@PxRunnable@physx@@UEAAXXZ 0000000180004200 f   GuSDF.obj
 0001:00003200       ??1PtrTable@Cm@physx@@QEAA@XZ 0000000180004200 f   CmPtrTable.obj
 0001:00003200       ?requiresObjects@TriangleMesh@Gu@physx@@UEAAXAEAVPxProcessPxBaseCallback@3@@Z 0000000180004200 f   GuTriangleMesh.obj
 0001:00003210       ??4AABBTreeBounds@Gu@physx@@QEAAAEAV012@AEBV012@@Z 0000000180004210 f i GuMeshFactory.obj
 0001:00003210       ??4PtrTable@Cm@physx@@QEAAAEAU012@AEBU012@@Z 0000000180004210 f i CmPtrTable.obj
 0001:00003210       ??4CmModuleUpdateLoader@Cm@physx@@QEAAAEAV012@AEBV012@@Z 0000000180004210 f i CmWindowsModuleUpdateLoader.obj
 0001:00003220       ?add@PtrTable@Cm@physx@@QEAAXPEAXAEAVPtrTableStorageManager@23@@Z 0000000180004220 f   CmPtrTable.obj
 0001:00003330       ?clear@PtrTable@Cm@physx@@QEAAXAEAVPtrTableStorageManager@23@@Z 0000000180004330 f   CmPtrTable.obj
 0001:000033a0       ?exportExtraData@PtrTable@Cm@physx@@QEAAXAEAVPxSerializationContext@3@@Z 00000001800043a0 f   CmPtrTable.obj
 0001:000033f0       ?find@PtrTable@Cm@physx@@QEBAIPEBX@Z 00000001800043f0 f   CmPtrTable.obj
 0001:00003420       ?getBinaryMetaData@PtrTable@Cm@physx@@SAXAEAVPxOutputStream@3@@Z 0000000180004420 f   CmPtrTable.obj
 0001:00003610       ?getCount@PtrTable@Cm@physx@@QEBAIXZ 0000000180004610 f i CmPtrTable.obj
 0001:00003620       ?getPtrs@PtrTable@Cm@physx@@QEAAPEAPEAXXZ 0000000180004620 f i CmPtrTable.obj
 0001:00003620       ?getPtrs@PtrTable@Cm@physx@@QEBAPEBQEAXXZ 0000000180004620 f i CmPtrTable.obj
 0001:00003630       ?importExtraData@PtrTable@Cm@physx@@QEAAXAEAVPxDeserializationContext@3@@Z 0000000180004630 f   CmPtrTable.obj
 0001:00003660       ?realloc@PtrTable@Cm@physx@@AEAAXIIAEAVPtrTableStorageManager@23@@Z 0000000180004660 f   CmPtrTable.obj
 0001:000036f0       ?replaceWithLast@PtrTable@Cm@physx@@QEAAXIAEAVPtrTableStorageManager@23@@Z 00000001800046f0 f   CmPtrTable.obj
 0001:000037f0       ??_ECollection@Cm@physx@@UEAAPEAXI@Z 00000001800047f0 f i CmCollection.obj
 0001:000037f0       ??_GCollection@Cm@physx@@UEAAPEAXI@Z 00000001800047f0 f i CmCollection.obj
 0001:000038a0       ??_GPxCollection@physx@@MEAAPEAXI@Z 00000001800048a0 f i CmCollection.obj
 0001:000038a0       ??_EPxCollection@physx@@MEAAPEAXI@Z 00000001800048a0 f i CmCollection.obj
 0001:000038d0       ?add@Collection@Cm@physx@@UEAAXAEAVPxBase@3@_K@Z 00000001800048d0 f   CmCollection.obj
 0001:000039c0       ?add@Collection@Cm@physx@@UEAAXAEAVPxCollection@3@@Z 00000001800049c0 f   CmCollection.obj
 0001:00003be0       ?addId@Collection@Cm@physx@@UEAAXAEAVPxBase@3@_K@Z 0000000180004be0 f   CmCollection.obj
 0001:00003d10       ?contains@Collection@Cm@physx@@UEBA_NAEAVPxBase@3@@Z 0000000180004d10 f   CmCollection.obj
 0001:00003dc0       ?create@?$PxHashBase@V?$PxPair@QEAVPxBase@physx@@_K@physx@@PEAVPxBase@2@U?$PxHash@PEAVPxBase@physx@@@2@UGetKey@?$PxHashMapBase@PEAVPxBase@physx@@_KU?$PxHash@PEAVPxBase@physx@@@2@VPxAllocator@2@@2@VPxAllocator@2@$00@physx@@QEAAPEAV?$PxPair@QEAVPxBase@physx@@_K@2@AEBQEAVPxBase@2@AEA_N@Z 0000000180004dc0 f i CmCollection.obj
 0001:00003dc0       ?create@?$PxHashBase@V?$PxPair@$$CB_KPEAVPxBase@physx@@@physx@@_KU?$PxHash@_K@2@UGetKey@?$PxHashMapBase@_KPEAVPxBase@physx@@U?$PxHash@_K@2@VPxAllocator@2@@2@VPxAllocator@2@$00@physx@@QEAAPEAV?$PxPair@$$CB_KPEAVPxBase@physx@@@2@AEB_KAEA_N@Z 0000000180004dc0 f i CmCollection.obj
 0001:00003f60       ?erase@?$PxHashBase@V?$PxPair@$$CB_KPEAVPxBase@physx@@@physx@@_KU?$PxHash@_K@2@UGetKey@?$PxHashMapBase@_KPEAVPxBase@physx@@U?$PxHash@_K@2@VPxAllocator@2@@2@VPxAllocator@2@$00@physx@@QEAA_NAEB_K@Z 0000000180004f60 f i CmCollection.obj
 0001:00003f60       ?erase@?$PxHashBase@V?$PxPair@QEAVPxBase@physx@@_K@physx@@PEAVPxBase@2@U?$PxHash@PEAVPxBase@physx@@@2@UGetKey@?$PxHashMapBase@PEAVPxBase@physx@@_KU?$PxHash@PEAVPxBase@physx@@@2@VPxAllocator@2@@2@VPxAllocator@2@$00@physx@@QEAA_NAEBQEAVPxBase@2@@Z 0000000180004f60 f i CmCollection.obj
 0001:00004100       ?find@?$PxHashMapBase@PEAVPxBase@physx@@_KU?$PxHash@PEAVPxBase@physx@@@2@VPxAllocator@2@@physx@@QEBAPEBV?$PxPair@QEAVPxBase@physx@@_K@2@AEBQEAVPxBase@2@@Z 0000000180005100 f i CmCollection.obj
 0001:00004100       ?find@?$PxHashMapBase@_KPEAVPxBase@physx@@U?$PxHash@_K@2@VPxAllocator@2@@physx@@QEBAPEBV?$PxPair@$$CB_KPEAVPxBase@physx@@@2@AEB_K@Z 0000000180005100 f i CmCollection.obj
 0001:000041a0       ?find@Collection@Cm@physx@@UEBAPEAVPxBase@3@_K@Z 00000001800051a0 f   CmCollection.obj
 0001:00004200       ?getId@Collection@Cm@physx@@UEBA_KAEBVPxBase@3@@Z 0000000180005200 f   CmCollection.obj
 0001:000042b0       ?getIds@Collection@Cm@physx@@UEBAIPEA_KII@Z 00000001800052b0 f   CmCollection.obj
 0001:000043c0       ?getNbIds@Collection@Cm@physx@@UEBAIXZ 00000001800053c0 f   CmCollection.obj
 0001:000043d0       ?getNbObjects@Collection@Cm@physx@@UEBAIXZ 00000001800053d0 f   CmCollection.obj
 0001:000043e0       ?getObject@Collection@Cm@physx@@UEBAAEAVPxBase@3@I@Z 00000001800053e0 f   CmCollection.obj
 0001:000043f0       ?getObjects@Collection@Cm@physx@@UEBAIPEAPEAVPxBase@3@II@Z 00000001800053f0 f   CmCollection.obj
 0001:00004490       ?insert@?$PxHashMapBase@_KPEAVPxBase@physx@@U?$PxHash@_K@2@VPxAllocator@2@@physx@@QEAA_N_KQEAVPxBase@2@@Z 0000000180005490 f i CmCollection.obj
 0001:000044e0       ?release@Collection@Cm@physx@@UEAAXXZ 00000001800054e0 f i CmCollection.obj
 0001:00004500       ?remove@Collection@Cm@physx@@UEAAXAEAVPxBase@3@@Z 0000000180005500 f   CmCollection.obj
 0001:00004640       ?remove@Collection@Cm@physx@@UEAAXAEAVPxCollection@3@@Z 0000000180005640 f   CmCollection.obj
 0001:000047a0       ?removeId@Collection@Cm@physx@@UEAAX_K@Z 00000001800057a0 f   CmCollection.obj
 0001:00004890       ?reserveInternal@?$PxHashBase@V?$PxPair@$$CB_KPEAVPxBase@physx@@@physx@@_KU?$PxHash@_K@2@UGetKey@?$PxHashMapBase@_KPEAVPxBase@physx@@U?$PxHash@_K@2@VPxAllocator@2@@2@VPxAllocator@2@$00@physx@@AEAAXI@Z 0000000180005890 f i CmCollection.obj
 0001:00004890       ?reserveInternal@?$PxHashBase@V?$PxPair@QEAVPxBase@physx@@_K@physx@@PEAVPxBase@2@U?$PxHash@PEAVPxBase@physx@@@2@UGetKey@?$PxHashMapBase@PEAVPxBase@physx@@_KU?$PxHash@PEAVPxBase@physx@@@2@VPxAllocator@2@@2@VPxAllocator@2@$00@physx@@AEAAXI@Z 0000000180005890 f i CmCollection.obj
 0001:00004a80       PxCreateCollection         0000000180005a80 f   CmCollection.obj
 0001:00004b80       ??0RadixSort@Cm@physx@@QEAA@XZ 0000000180005b80 f   CmRadixSort.obj
 0001:00004bb0       ??0RadixSortBuffered@Cm@physx@@QEAA@XZ 0000000180005bb0 f   CmRadixSort.obj
 0001:00004be0       ??1RadixSort@Cm@physx@@UEAA@XZ 0000000180005be0 f   CmRadixSort.obj
 0001:00004bf0       ??1RadixSortBuffered@Cm@physx@@UEAA@XZ 0000000180005bf0 f   CmRadixSort.obj
 0001:00004c20       ??_ERadixSort@Cm@physx@@UEAAPEAXI@Z 0000000180005c20 f i CmRadixSort.obj
 0001:00004cb0       ??_ERadixSortBuffered@Cm@physx@@UEAAPEAXI@Z 0000000180005cb0 f i CmRadixSort.obj
 0001:00004df0       ?CheckResize@RadixSortBuffered@Cm@physx@@AEAAXI@Z 0000000180005df0 f i CmRadixSort.obj
 0001:00004e30       ?GetNbHits@RadixSort@Cm@physx@@QEBAIXZ 0000000180005e30 f i CmRadixSort.obj
 0001:00004e40       ?GetNbTotalCalls@RadixSort@Cm@physx@@QEBAIXZ 0000000180005e40 f i CmRadixSort.obj
 0001:00004e50       ?getSimulationMesh@SoftBodyMesh@Gu@physx@@UEBAPEBVPxTetrahedronMesh@3@XZ 0000000180005e50 f i GuTetrahedronMesh.obj
 0001:00004e50       ?GetRanks@RadixSort@Cm@physx@@QEBAPEBIXZ 0000000180005e50 f i CmRadixSort.obj
 0001:00004e50       ?getHeightField@HeightFieldUtil@Gu@physx@@QEBAAEBVHeightField@23@XZ 0000000180005e50 f i GuCCTSweepTests.obj
 0001:00004e50       ?getSimulationMesh@SoftBodyMesh@Gu@physx@@UEAAPEAVPxTetrahedronMesh@3@XZ 0000000180005e50 f i GuTetrahedronMesh.obj
 0001:00004e60       ?getCollisionMesh@SoftBodyMesh@Gu@physx@@UEAAPEAVPxTetrahedronMesh@3@XZ 0000000180005e60 f i GuTetrahedronMesh.obj
 0001:00004e60       ?getVertices@TetrahedronMesh@Gu@physx@@UEBAPEBV?$PxVec3T@M@3@XZ 0000000180005e60 f i GuTetrahedronMesh.obj
 0001:00004e60       ?GetValencies@BigConvexData@physx@@QEBAPEBUValency@Gu@2@XZ 0000000180005e60 f i GuMetaData.obj
 0001:00004e60       ?getObjects@PruningPool@Gu@physx@@QEBAPEAUPrunerPayload@23@XZ 0000000180005e60 f i GuIncrementalAABBPrunerCore.obj
 0001:00004e60       ?GetRecyclable@RadixSort@Cm@physx@@QEBAPEAIXZ 0000000180005e60 f i CmRadixSort.obj
 0001:00004e60       ?getHeightFieldGeometry@HeightFieldUtil@Gu@physx@@QEBAAEBVPxHeightFieldGeometry@3@XZ 0000000180005e60 f i GuCCTSweepTests.obj
 0001:00004e60       ?getVertices@TriangleMesh@Gu@physx@@UEBAPEBV?$PxVec3T@M@3@XZ 0000000180005e60 f i GuTriangleMesh.obj
 0001:00004e60       ?getPos@AABBTreeBuildNode@Gu@physx@@QEBAPEBV123@XZ 0000000180005e60 f i GuMeshFactory.obj
 0001:00004e60       ?getCollisionMesh@SoftBodyMesh@Gu@physx@@UEBAPEBVPxTetrahedronMesh@3@XZ 0000000180005e60 f i GuTetrahedronMesh.obj
 0001:00004e70       ?Resize@RadixSortBuffered@Cm@physx@@AEAA_NI@Z 0000000180005e70 f   CmRadixSort.obj
 0001:00004f60       ?SetBuffers@RadixSort@Cm@physx@@QEAA_NPEAI00PEAPEAI@Z 0000000180005f60 f   CmRadixSort.obj
 0001:00004fa0       ?Sort@RadixSort@Cm@physx@@QEAAAEAV123@PEBIIW4RadixHint@23@@Z 0000000180005fa0 f   CmRadixSort.obj
 0001:000055f0       ?Sort@RadixSort@Cm@physx@@QEAAAEAV123@PEBMI@Z 00000001800065f0 f   CmRadixSort.obj
 0001:00005d50       ?Sort@RadixSortBuffered@Cm@physx@@QEAAAEAV123@PEBIIW4RadixHint@23@@Z 0000000180006d50 f   CmRadixSort.obj
 0001:00005df0       ?Sort@RadixSortBuffered@Cm@physx@@QEAAAEAV123@PEBMI@Z 0000000180006df0 f   CmRadixSort.obj
 0001:00005e80       ?invalidateRanks@RadixSort@Cm@physx@@QEAAXXZ 0000000180006e80 f i CmRadixSort.obj
 0001:00005e90       ?reset@RadixSortBuffered@Cm@physx@@QEAAXXZ 0000000180006e90 f   CmRadixSort.obj
 0001:00005f10       ?ReadHeader@Cm@physx@@YA_NEEEEAEAIAEA_NAEAVPxInputStream@2@@Z 0000000180006f10 f   CmSerialize.obj
 0001:00006070       ?ReadIndices@Cm@physx@@YAXGIPEAGAEAVPxInputStream@2@_N@Z 0000000180007070 f   CmSerialize.obj
 0001:000061c0       ?StoreIndices@Cm@physx@@YAXGIPEBGAEAVPxOutputStream@2@_N@Z 00000001800071c0 f   CmSerialize.obj
 0001:00006280       ?WriteHeader@Cm@physx@@YA_NEEEEI_NAEAVPxOutputStream@2@@Z 0000000180007280 f   CmSerialize.obj
 0001:000063b0       ?computeMaxIndex@physx@@YAGPEBGI@Z 00000001800073b0 f   CmSerialize.obj
 0001:000063e0       ?computeMaxIndex@physx@@YAIPEBII@Z 00000001800073e0 f   CmSerialize.obj
 0001:00006410       ?readByteBuffer@physx@@YAXPEAEIAEAVPxInputStream@1@@Z 0000000180007410 f   CmSerialize.obj
 0001:00006410       ?writeByteBuffer@physx@@YAXPEBEIAEAVPxOutputStream@1@@Z 0000000180007410 f   CmSerialize.obj
 0001:00006430       ?readChunk@physx@@YAXAEAC000AEAVPxInputStream@1@@Z 0000000180007430 f   CmSerialize.obj
 0001:000064b0       ?readDword@physx@@YAI_NAEAVPxInputStream@1@@Z 00000001800074b0 f   CmSerialize.obj
 0001:00006510       ?readFloat@physx@@YAM_NAEAVPxInputStream@1@@Z 0000000180007510 f   CmSerialize.obj
 0001:00006570       ?readFloatBuffer@physx@@YA_NPEAMI_NAEAVPxInputStream@1@@Z 0000000180007570 f   CmSerialize.obj
 0001:000065f0       ?readHeader@physx@@YA_NCCCCAEAIAEA_NAEAVPxInputStream@1@@Z 00000001800075f0 f   CmSerialize.obj
 0001:00006740       ?readIndices@physx@@YAXIIPEAIAEAVPxInputStream@1@_N@Z 0000000180007740 f   CmSerialize.obj
 0001:00006830       ?readWord@physx@@YAG_NAEAVPxInputStream@1@@Z 0000000180007830 f   CmSerialize.obj
 0001:00006870       ?readWordBuffer@physx@@YAXPEAGI_NAEAVPxInputStream@1@@Z 0000000180007870 f   CmSerialize.obj
 0001:000068e0       ?storeIndices@physx@@YAXIIPEBIAEAVPxOutputStream@1@_N@Z 00000001800078e0 f   CmSerialize.obj
 0001:00006a40       ?writeDword@physx@@YAXI_NAEAVPxOutputStream@1@@Z 0000000180007a40 f   CmSerialize.obj
 0001:00006a90       ?writeFloat@physx@@YAXM_NAEAVPxOutputStream@1@@Z 0000000180007a90 f   CmSerialize.obj
 0001:00006ae0       ?writeFloatBuffer@physx@@YAXPEBMI_NAEAVPxOutputStream@1@@Z 0000000180007ae0 f   CmSerialize.obj
 0001:00006b80       ?writeHeader@physx@@YA_NCCCCI_NAEAVPxOutputStream@1@@Z 0000000180007b80 f   CmSerialize.obj
 0001:00006cb0       ?writeWord@physx@@YAXG_NAEAVPxOutputStream@1@@Z 0000000180007cb0 f   CmSerialize.obj
 0001:00006cf0       ?writeWordBuffer@physx@@YAXPEBGI_NAEAVPxOutputStream@1@@Z 0000000180007cf0 f   CmSerialize.obj
 0001:00006d70       ??0PxRenderOutput@physx@@QEAA@AEAVPxRenderBuffer@1@@Z 0000000180007d70 f i CmVisualization.obj
 0001:00006dc0       ??0PxRenderOutput@physx@@QEAA@AEBV01@@Z 0000000180007dc0 f i CmVisualization.obj
 0001:00006e60       ??6PxRenderOutput@physx@@QEAAAEAV01@AEBV?$PxMat44T@M@1@@Z 0000000180007e60 f i CmVisualization.obj
 0001:00006ed0       ??6PxRenderOutput@physx@@QEAAAEAV01@AEBV?$PxTransformT@M@1@@Z 0000000180007ed0 f i CmVisualization.obj
 0001:00007050       ??6PxRenderOutput@physx@@QEAAAEAV01@AEBV?$PxVec3T@M@1@@Z 0000000180008050 f i CmVisualization.obj
 0001:00007350       ??6PxRenderOutput@physx@@QEAAAEAV01@I@Z 0000000180008350 f i CmVisualization.obj
 0001:00007360       ??6PxRenderOutput@physx@@QEAAAEAV01@W4Primitive@01@@Z 0000000180008360 f i CmVisualization.obj
 0001:00007370       ?outputCapsule@PxRenderOutput@physx@@QEAAAEAV12@MMAEBV?$PxMat44T@M@2@@Z 0000000180008370 f i CmVisualization.obj
 0001:00008080       ?outputSegment@PxRenderOutput@physx@@QEAAXAEBV?$PxVec3T@M@2@0@Z 0000000180009080 f i CmVisualization.obj
 0001:000080f0       ?renderOutputDebugArrow@Cm@physx@@YAXAEAVPxRenderOutput@2@AEBUPxDebugArrow@2@@Z 00000001800090f0 f   CmVisualization.obj
 0001:00008490       ?renderOutputDebugBasis@Cm@physx@@YAXAEAVPxRenderOutput@2@AEBUPxDebugBasis@2@@Z 0000000180009490 f   CmVisualization.obj
 0001:00008980       ?renderOutputDebugBox@Cm@physx@@YAXAEAVPxRenderOutput@2@AEBVPxBounds3@2@@Z 0000000180009980 f   CmVisualization.obj
 0001:00008bf0       ?renderOutputDebugCircle@Cm@physx@@YAXAEAVPxRenderOutput@2@IM@Z 0000000180009bf0 f   CmVisualization.obj
 0001:00008cd0       ?reservePoints@PxRenderOutput@physx@@QEAAPEAUPxDebugPoint@2@I@Z 0000000180009cd0 f i CmVisualization.obj
 0001:00008ce0       ?reserveSegments@PxRenderOutput@physx@@QEAAPEAUPxDebugLine@2@I@Z 0000000180009ce0 f i CmVisualization.obj
 0001:00008cf0       ?visualizeAngularLimit@Cm@physx@@YAXAEAVPxRenderOutput@2@MAEBV?$PxTransformT@M@2@MM_N@Z 0000000180009cf0 f   CmVisualization.obj
 0001:00008e90       ?visualizeDoubleCone@Cm@physx@@YAXAEAVPxRenderOutput@2@MAEBV?$PxTransformT@M@2@M_N@Z 0000000180009e90 f   CmVisualization.obj
 0001:000090a0       ?visualizeJointFrames@Cm@physx@@YAXAEAVPxRenderOutput@2@MAEBV?$PxTransformT@M@2@1@Z 000000018000a0a0 f   CmVisualization.obj
 0001:00009ab0       ?visualizeLimitCone@Cm@physx@@YAXAEAVPxRenderOutput@2@MAEBV?$PxTransformT@M@2@MM_N@Z 000000018000aab0 f   CmVisualization.obj
 0001:00009d00       ?visualizeLinearLimit@Cm@physx@@YAXAEAVPxRenderOutput@2@MAEBV?$PxTransformT@M@2@1M_N@Z 000000018000ad00 f   CmVisualization.obj
 0001:0000a300       ??0CmModuleUpdateLoader@Cm@physx@@QEAA@PEBD@Z 000000018000b300 f   CmWindowsModuleUpdateLoader.obj
 0001:0000a340       ??1CmModuleUpdateLoader@Cm@physx@@QEAA@XZ 000000018000b340 f   CmWindowsModuleUpdateLoader.obj
 0001:0000a370       ?LoadModule@CmModuleUpdateLoader@Cm@physx@@QEAAPEAUHINSTANCE__@@PEBD0@Z 000000018000b370 f   CmWindowsModuleUpdateLoader.obj
 0001:0000a3e0       __local_stdio_printf_options 000000018000b3e0 f i CmWindowsModuleUpdateLoader.obj
 0001:0000a3f0       printf                     000000018000b3f0 f i CmWindowsModuleUpdateLoader.obj
 0001:0000a450       ?commonDelayHook@@YAP6A_JXZIPEAUDelayLoadInfo@@@Z 000000018000b450 f   CmWindowsDelayLoadHook.obj
 0001:0000a530       PxSetPhysXCommonDelayLoadHook 000000018000b530 f   CmWindowsDelayLoadHook.obj
 0001:0000a540       ??0?$PxQuatT@M@physx@@QEAA@AEBV?$PxMat33T@M@1@@Z 000000018000b540 f i GuBox.obj
 0001:0000a720       ??4Box@Gu@physx@@QEAAAEBV012@AEBV012@@Z 000000018000b720 f i GuBox.obj
 0001:0000a720       ??0Box@Gu@physx@@QEAA@AEBV012@@Z 000000018000b720 f i GuBox.obj
 0001:0000a780       ??0Box@Gu@physx@@QEAA@AEBV?$PxVec3T@M@2@0AEBV?$PxMat33T@M@2@@Z 000000018000b780 f i GuBox.obj
 0001:0000a7f0       ?getAABB@AABBTreeBuildNode@Gu@physx@@QEBAAEBVPxBounds3@3@XZ 000000018000b7f0 f i GuMeshFactory.obj
 0001:0000a7f0       ??0BigConvexData@physx@@QEAA@W4PxEMPTY@1@@Z 000000018000b7f0 f i GuMetaData.obj
 0001:0000a7f0       ??0Box@Gu@physx@@QEAA@XZ   000000018000b7f0 f i GuBox.obj
 0001:0000a7f0       ??$forward@_K@std@@YA$$QEA_KAEA_K@Z 000000018000b7f0 f i libvcruntime:undname.obj
 0001:0000a7f0       ?getPaddedBounds@HeightFieldData@Gu@physx@@QEBAAEBVCenterExtentsPadded@23@XZ 000000018000b7f0 f i GuCCTSweepTests.obj
 0001:0000a7f0       ??0AABBTreeBuildNode@Gu@physx@@QEAA@XZ 000000018000b7f0 f i GuMeshFactory.obj
 0001:0000a7f0       ??0HeightFieldData@Gu@physx@@QEAA@W4PxEMPTY@2@@Z 000000018000b7f0 f i GuCCTSweepTests.obj
 0001:0000a800       ?computeAABBExtent@Box@Gu@physx@@QEBA?AV?$PxVec3T@M@3@XZ 000000018000b800 f i GuBox.obj
 0001:0000a8c0       ?computeBoxPoints@Box@Gu@physx@@QEBAXPEIAV?$PxVec3T@M@3@@Z 000000018000b8c0 f i GuBox.obj
 0001:0000a900       ?computeOBBPoints@Gu@physx@@YAXPEIAV?$PxVec3T@M@2@AEBV32@1111@Z 000000018000b900 f   GuBox.obj
 0001:0000ab80       ?create@Box@Gu@physx@@QEAAXAEBVCapsule@23@@Z 000000018000bb80 f   GuBox.obj
 0001:0000adb0       ?getBoxEdges@Gu@physx@@YAPEBEXZ 000000018000bdb0 f   GuBox.obj
 0001:0000adc0       ?getTransform@Box@Gu@physx@@QEBA?AV?$PxTransformT@M@3@XZ 000000018000bdc0 f i GuBox.obj
 0001:0000ae20       ?isValid@Box@Gu@physx@@QEBA_NXZ 000000018000be20 f i GuBox.obj
 0001:0000ae40       ?rotate@Box@Gu@physx@@QEBA?AV?$PxVec3T@M@3@AEBV43@@Z 000000018000be40 f i GuBox.obj
 0001:0000aed0       ?rotateInv@Box@Gu@physx@@QEBA?AV?$PxVec3T@M@3@AEBV43@@Z 000000018000bed0 f i GuBox.obj
 0001:0000af60       ?setAxes@Box@Gu@physx@@QEAAXAEBV?$PxVec3T@M@3@00@Z 000000018000bf60 f i GuBox.obj
 0001:0000afa0       ?setEmpty@Box@Gu@physx@@QEAAXXZ 000000018000bfa0 f i GuBox.obj
 0001:0000afe0       ?transform@Box@Gu@physx@@QEBA?AV?$PxVec3T@M@3@AEBV43@@Z 000000018000bfe0 f i GuBox.obj
 0001:0000b080       ?PxComputeBasisVectors@physx@@YAXAEBV?$PxVec3T@M@1@0AEAV21@11@Z 000000018000c080 f i GuCapsule.obj
 0001:0000b220       ?computeBoxAroundCapsule@Gu@physx@@YAXAEBVCapsule@12@AEAVBox@12@@Z 000000018000c220 f   GuCapsule.obj
 0001:0000b370       ??0HeightFieldData@Gu@physx@@QEAA@AEBU012@@Z 000000018000c370 f i GuCCTSweepTests.obj
 0001:0000b370       ??0HeightFieldData@Gu@physx@@QEAA@$$QEAU012@@Z 000000018000c370 f i GuCCTSweepTests.obj
 0001:0000b370       ??4HeightFieldData@Gu@physx@@QEAAAEAU012@AEBU012@@Z 000000018000c370 f i GuCCTSweepTests.obj
 0001:0000b370       ??4HeightFieldData@Gu@physx@@QEAAAEAU012@$$QEAU012@@Z 000000018000c370 f i GuCCTSweepTests.obj
 0001:0000b3d0       ??0HeightFieldData@Gu@physx@@QEAA@XZ 000000018000c3d0 f i GuCCTSweepTests.obj
 0001:0000b3e0       ??0HeightFieldTraceUtil@Gu@physx@@QEAA@AEBVPxHeightFieldGeometry@2@@Z 000000018000c3e0 f i GuCCTSweepTests.obj
 0001:0000b3e0       ??0HeightFieldUtil@Gu@physx@@QEAA@AEBVPxHeightFieldGeometry@2@@Z 000000018000c3e0 f i GuCCTSweepTests.obj
 0001:0000b420       ??4HeightFieldUtil@Gu@physx@@QEAAAEAV012@AEBV012@@Z 000000018000c420 f i GuCCTSweepTests.obj
 0001:0000b420       ??4AABBTreeBuildParams@Gu@physx@@QEAAAEAV012@AEBV012@@Z 000000018000c420 f i GuMeshFactory.obj
 0001:0000b420       ??4HeightFieldTraceUtil@Gu@physx@@QEAAAEAV012@AEBV012@@Z 000000018000c420 f i GuCCTSweepTests.obj
 0001:0000b420       ??4HeightFieldTraceUtil@Gu@physx@@QEAAAEAV012@$$QEAV012@@Z 000000018000c420 f i GuCCTSweepTests.obj
 0001:0000b440       ??4HeightFieldUtil@Gu@physx@@QEAAAEAV012@$$QEAV012@@Z 000000018000c440 f i GuCCTSweepTests.obj
 0001:0000b4a0       ??_GOverlapCallback@PxBVH@physx@@UEAAPEAXI@Z 000000018000c4a0 f i GuQuerySystem.obj
 0001:0000b4a0       ??_GRaycastCallback@PxBVH@physx@@UEAAPEAXI@Z 000000018000c4a0 f i GuQuerySystem.obj
 0001:0000b4a0       ??_GOverlapReport@Gu@physx@@UEAAPEAXI@Z 000000018000c4a0 f i GuCCTSweepTests.obj
 0001:0000b4a0       ??_GEntityReport@Gu@physx@@UEAAPEAXI@Z 000000018000c4a0 f i GuSweepsHF.obj
 0001:0000b4a0       ??_EEntityReport@Gu@physx@@UEAAPEAXI@Z 000000018000c4a0 f i GuSweepsHF.obj
 0001:0000b4a0       ??_GRemapCallback@RTreeCooker@physx@@UEAAPEAXI@Z 000000018000c4a0 f i GuCookingTriangleMesh.obj
 0001:0000b4a0       ??_ERemapCallback@RTreeCooker@physx@@UEAAPEAXI@Z 000000018000c4a0 f i GuCookingTriangleMesh.obj
 0001:0000b4a0       ??_ERaycastCallback@PxBVH@physx@@UEAAPEAXI@Z 000000018000c4a0 f i GuQuerySystem.obj
 0001:0000b4a0       ??_EOverlapReport@Gu@physx@@UEAAPEAXI@Z 000000018000c4a0 f i GuCCTSweepTests.obj
 0001:0000b4a0       ??_EOverlapCallback@PxBVH@physx@@UEAAPEAXI@Z 000000018000c4a0 f i GuQuerySystem.obj
 0001:0000b4d0       ??_H@YAXPEAX_K1P6APEAX0@Z@Z 000000018000c4d0 f i GuCCTSweepTests.obj
 0001:0000b520       ?ceilUp@HeightFieldTraceUtil@Gu@physx@@SAMM@Z 000000018000c520 f i GuCCTSweepTests.obj
 0001:0000b560       ?floorDown@HeightFieldTraceUtil@Gu@physx@@SAMM@Z 000000018000c560 f i GuCCTSweepTests.obj
 0001:0000b5a0       ?getHeightAtShapePoint@HeightFieldUtil@Gu@physx@@QEBAMMM@Z 000000018000c5a0 f i GuCCTSweepTests.obj
 0001:0000b600       ?getHeightInternal2@HeightField@Gu@physx@@QEBAMIMM@Z 000000018000c600 f i GuCCTSweepTests.obj
 0001:0000b770       ?getNormalAtShapePoint@HeightFieldUtil@Gu@physx@@QEBA?AV?$PxVec3T@M@3@MM@Z 000000018000c770 f i GuCCTSweepTests.obj
 0001:0000b830       ?getNormal_2@HeightField@Gu@physx@@QEBA?AV?$PxVec3T@M@3@IMMMMM@Z 000000018000c830 f i GuCCTSweepTests.obj
 0001:0000b950       ?getOneOverColumnScale@HeightFieldUtil@Gu@physx@@QEBAMXZ 000000018000c950 f i GuCCTSweepTests.obj
 0001:0000b960       ?getOneOverHeightScale@HeightFieldUtil@Gu@physx@@QEBAMXZ 000000018000c960 f i GuCCTSweepTests.obj
 0001:0000b970       ?getOneOverRowScale@HeightFieldUtil@Gu@physx@@QEBAMXZ 000000018000c970 f i GuCCTSweepTests.obj
 0001:0000b980       ?hf2shapen@HeightFieldUtil@Gu@physx@@QEBA?AV?$PxVec3T@M@3@AEBV43@@Z 000000018000c980 f i GuCCTSweepTests.obj
 0001:0000b980       ?shape2hfp@HeightFieldUtil@Gu@physx@@QEBA?AV?$PxVec3T@M@3@AEBV43@@Z 000000018000c980 f i GuCCTSweepTests.obj
 0001:0000b9c0       ?hf2shapep@HeightFieldUtil@Gu@physx@@QEBA?AV?$PxVec3T@M@3@AEBV43@@Z 000000018000c9c0 f i GuCCTSweepTests.obj
 0001:0000ba00       ?hf2worldn@HeightFieldUtil@Gu@physx@@QEBA?AV?$PxVec3T@M@3@AEBV?$PxTransformT@M@3@AEBV43@@Z 000000018000ca00 f i GuCCTSweepTests.obj
 0001:0000bb70       ?hf2worldp@HeightFieldUtil@Gu@physx@@QEBA?AV?$PxVec3T@M@3@AEBV?$PxTransformT@M@3@AEBV43@@Z 000000018000cb70 f i GuCCTSweepTests.obj
 0001:0000bcf0       ?overlapAABBTriangles0to1@HeightFieldUtil@Gu@physx@@QEBAXAEBV?$PxTransformT@M@3@AEBVPxBounds3@3@AEAVOverlapReport@23@I@Z 000000018000ccf0 f i GuCCTSweepTests.obj
 0001:0000c070       ?overlapAABBTriangles@HeightFieldUtil@Gu@physx@@QEBAXAEBV?$PxTransformT@M@3@0AEBVPxBounds3@3@AEAVOverlapReport@23@I@Z 000000018000d070 f i GuCCTSweepTests.obj
 0001:0000c680       ?overlapAABBTriangles@HeightFieldUtil@Gu@physx@@QEBAXAEBV?$PxTransformT@M@3@AEBVPxBounds3@3@AEAVOverlapReport@23@I@Z 000000018000d680 f i GuCCTSweepTests.obj
 0001:0000cd30       ?sweepBoxTriangles_Precise@Gu@physx@@YA_NIPEBVPxTriangle@2@_NAEBVPxBoxGeometry@2@AEBV?$PxTransformT@M@2@AEBV?$PxVec3T@M@2@MAEAUPxGeomSweepHit@2@PEBIMV?$PxFlags@W4Enum@PxHitFlag@physx@@G@2@@Z 000000018000dd30 f   GuCCTSweepTests.obj
 0001:0000dab0       ?sweepBox_BoxGeom_Precise@@YA_NAEBVPxGeometry@physx@@AEBV?$PxTransformT@M@2@AEBVPxBoxGeometry@2@1AEBVBox@Gu@2@AEBV?$PxVec3T@M@2@MAEAUPxGeomSweepHit@2@V?$PxFlags@W4Enum@PxHitFlag@physx@@G@2@MPEAUPxQueryThreadContext@2@@Z 000000018000eab0 f   GuCCTSweepTests.obj
 0001:0000dc70       ?sweepBox_CapsuleGeom_Precise@@YA_NAEBVPxGeometry@physx@@AEBV?$PxTransformT@M@2@AEBVPxBoxGeometry@2@1AEBVBox@Gu@2@AEBV?$PxVec3T@M@2@MAEAUPxGeomSweepHit@2@V?$PxFlags@W4Enum@PxHitFlag@physx@@G@2@MPEAUPxQueryThreadContext@2@@Z 000000018000ec70 f   GuCCTSweepTests.obj
 0001:0000e040       ?sweepBox_HeightFieldGeom_Precise@@YA_NAEBVPxGeometry@physx@@AEBV?$PxTransformT@M@2@AEBVPxBoxGeometry@2@1AEBVBox@Gu@2@AEBV?$PxVec3T@M@2@MAEAUPxGeomSweepHit@2@V?$PxFlags@W4Enum@PxHitFlag@physx@@G@2@MPEAUPxQueryThreadContext@2@@Z 000000018000f040 f   GuCCTSweepTests.obj
 0001:0000e840       ?sweepBox_SphereGeom_Precise@@YA_NAEBVPxGeometry@physx@@AEBV?$PxTransformT@M@2@AEBVPxBoxGeometry@2@1AEBVBox@Gu@2@AEBV?$PxVec3T@M@2@MAEAUPxGeomSweepHit@2@V?$PxFlags@W4Enum@PxHitFlag@physx@@G@2@MPEAUPxQueryThreadContext@2@@Z 000000018000f840 f   GuCCTSweepTests.obj
 0001:0000eb20       ?sweepCapsule_BoxGeom_Precise@@YA_NAEBVPxGeometry@physx@@AEBV?$PxTransformT@M@2@AEBVPxCapsuleGeometry@2@1AEBVCapsule@Gu@2@AEBV?$PxVec3T@M@2@MAEAUPxGeomSweepHit@2@V?$PxFlags@W4Enum@PxHitFlag@physx@@G@2@MPEAUPxQueryThreadContext@2@@Z 000000018000fb20 f   GuCCTSweepTests.obj
 0001:0000f180       ??0?$CacheMap@UCachedEdge@Gu@physx@@$0IA@@Gu@physx@@QEAA@XZ 0000000180010180 f i GuGeometryQuery.obj
 0001:0000f240       ??0?$CacheMap@UCachedVertex@Gu@physx@@$0IA@@Gu@physx@@QEAA@XZ 0000000180010240 f i GuGeometryQuery.obj
 0001:0000f300       ??0MultiplePersistentContactManifold@Gu@physx@@QEAA@XZ 0000000180010300 f i GuGeometryQuery.obj
 0001:0000f350       ??0PCMMeshContactGeneration@Gu@physx@@QEAA@AEBT__m128@@0AEBVPxTransformV@aos@2@1AEAVMultiplePersistentContactManifold@12@AEAVPxContactBuffer@2@PEAV?$PxInlineArray@I$0DMA@V?$PxReflectionAllocator@I@physx@@@2@PEAVPxRenderOutput@2@@Z 0000000180010350 f i GuGeometryQuery.obj
 0001:0000fc70       ??0PolygonalBox@Gu@physx@@QEAA@AEBV012@@Z 0000000180010c70 f i GuGeometryQuery.obj
 0001:0000fef0       ??4MultiplePersistentContactManifold@Gu@physx@@QEAAAEAV012@$$QEAV012@@Z 0000000180010ef0 f i GuGeometryQuery.obj
 0001:00010200       ??4MultiplePersistentContactManifold@Gu@physx@@QEAAAEAV012@AEBV012@@Z 0000000180011200 f i GuGeometryQuery.obj
 0001:00010220       ??_E?$SupportLocalImpl@VConvexHullNoScaleV@Gu@physx@@@Gu@physx@@UEAAPEAXI@Z 0000000180011220 f i GuMTD.obj
 0001:00010220       ??_G?$SupportLocalImpl@VConvexHullNoScaleV@Gu@physx@@@Gu@physx@@UEAAPEAXI@Z 0000000180011220 f i GuMTD.obj
 0001:00010220       ??_G?$SupportLocalImpl@VTriangleV@Gu@physx@@@Gu@physx@@UEAAPEAXI@Z 0000000180011220 f i GuPCMContactConvexCommon.obj
 0001:00010220       ??_E?$SupportLocalImpl@VBoxV@Gu@physx@@@Gu@physx@@UEAAPEAXI@Z 0000000180011220 f i GuGeometryQuery.obj
 0001:00010220       ??_G?$SupportLocalImpl@VConvexHullV@Gu@physx@@@Gu@physx@@UEAAPEAXI@Z 0000000180011220 f i GuGeometryQuery.obj
 0001:00010220       ??_E?$SupportLocalImpl@VConvexHullV@Gu@physx@@@Gu@physx@@UEAAPEAXI@Z 0000000180011220 f i GuGeometryQuery.obj
 0001:00010220       ??_G?$SupportLocalImpl@VBoxV@Gu@physx@@@Gu@physx@@UEAAPEAXI@Z 0000000180011220 f i GuGeometryQuery.obj
 0001:00010220       ??_E?$SupportLocalImpl@VTriangleV@Gu@physx@@@Gu@physx@@UEAAPEAXI@Z 0000000180011220 f i GuPCMContactConvexCommon.obj
 0001:00010250       ??_ESupportLocal@Gu@physx@@UEAAPEAXI@Z 0000000180011250 f i GuGeometryQuery.obj
 0001:00010250       ??_GSupportLocal@Gu@physx@@UEAAPEAXI@Z 0000000180011250 f i GuGeometryQuery.obj
 0001:00010280       ?clearManifold@MultiplePersistentContactManifold@Gu@physx@@QEAAXXZ 0000000180011280 f i GuGeometryQuery.obj
 0001:000102e0       ?computeGeomBounds@PxGeometryQuery@physx@@SAXAEAVPxBounds3@2@AEBVPxGeometry@2@AEBV?$PxTransformT@M@2@MMV?$PxFlags@W4Enum@PxGeometryQueryFlag@physx@@I@2@@Z 00000001800112e0 f   GuGeometryQuery.obj
 0001:000103f0       ?computePenetration@PxGeometryQuery@physx@@SA_NAEAV?$PxVec3T@M@2@AEAMAEBVPxGeometry@2@AEBV?$PxTransformT@M@2@23V?$PxFlags@W4Enum@PxGeometryQueryFlag@physx@@I@2@@Z 00000001800113f0 f   GuGeometryQuery.obj
 0001:000105a0       ?doSupport@?$SupportLocalImpl@VBoxV@Gu@physx@@@Gu@physx@@UEBA?AT__m128@@AEBT4@@Z 00000001800115a0 f i GuGeometryQuery.obj
 0001:000105d0       ?doSupport@?$SupportLocalImpl@VBoxV@Gu@physx@@@Gu@physx@@UEBAXAEBT__m128@@AEAT4@1@Z 00000001800115d0 f i GuGeometryQuery.obj
 0001:00010620       ?doSupport@?$SupportLocalImpl@VConvexHullV@Gu@physx@@@Gu@physx@@UEBA?AT__m128@@AEBT4@@Z 0000000180011620 f i GuGeometryQuery.obj
 0001:00010700       ?doSupport@?$SupportLocalImpl@VConvexHullV@Gu@physx@@@Gu@physx@@UEBAXAEBT__m128@@AEAT4@1@Z 0000000180011700 f i GuGeometryQuery.obj
 0001:00010a60       ?generateTriangleContacts@PxGeometryQuery@physx@@SA_NAEBVPxGeometry@2@AEBV?$PxTransformT@M@2@QEBV?$PxVec3T@M@2@IMMMAEAVPxContactBuffer@2@@Z 0000000180011a60 f   GuGeometryQuery.obj
 0001:00012380       ?getEmptyManifold@MultiplePersistentContactManifold@Gu@physx@@QEAAPEAVSinglePersistentContactManifold@23@XZ 0000000180013380 f i GuGeometryQuery.obj
 0001:000123a0       ?getManifold@MultiplePersistentContactManifold@Gu@physx@@QEAAPEAVSinglePersistentContactManifold@23@I@Z 00000001800133a0 f i GuGeometryQuery.obj
 0001:000123c0       ?getUniqueID@PxCustomGeometry@physx@@SAIXZ 00000001800133c0 f   GuGeometryQuery.obj
 0001:000123e0       ?getWorldBounds@PxGeometryQuery@physx@@SA?AVPxBounds3@2@AEBVPxGeometry@2@AEBV?$PxTransformT@M@2@M@Z 00000001800133e0 f   GuGeometryQuery.obj
 0001:00012520       ?hillClimbing@ConvexHullV@Gu@physx@@QEBAIAEBT__m128@@@Z 0000000180013520 f i GuGeometryQuery.obj
 0001:00012750       ?initialize@MultiplePersistentContactManifold@Gu@physx@@QEAAXXZ 0000000180013750 f i GuGeometryQuery.obj
 0001:000127b0       ?invalidate@MultiplePersistentContactManifold@Gu@physx@@QEAAIAEBVPxTransformV@aos@3@AEBT__m128@@1@Z 00000001800137b0 f i GuGeometryQuery.obj
 0001:00012820       ?invalidate@MultiplePersistentContactManifold@Gu@physx@@QEAAIAEBVPxTransformV@aos@3@AEBT__m128@@@Z 0000000180013820 f i GuGeometryQuery.obj
 0001:00012890       ?isFinite@?$PxQuatT@M@physx@@QEBA_NXZ 0000000180013890 f i GuGeometryQuery.obj
 0001:00012900       ?isFinite@?$PxVec3T@M@physx@@QEBA_NXZ 0000000180013900 f i GuGeometryQuery.obj
 0001:00012960       ?isUnit@?$PxQuatT@M@physx@@QEBA_NXZ 0000000180013960 f i GuGeometryQuery.obj
 0001:000129d0       ?isValid@?$PxTransformT@M@physx@@QEBA_NXZ 00000001800139d0 f i GuGeometryQuery.obj
 0001:00012a40       ?isValid@PxGeometryQuery@physx@@SA_NAEBVPxGeometry@2@@Z 0000000180013a40 f   GuGeometryQuery.obj
 0001:00012d30       ?maxTransformPositionDelta@MultiplePersistentContactManifold@Gu@physx@@QEAA?AT__m128@@AEBT4@@Z 0000000180013d30 f i GuGeometryQuery.obj
 0001:00012d70       ?maxTransformQuatDelta@MultiplePersistentContactManifold@Gu@physx@@QEAA?AT__m128@@AEBT4@@Z 0000000180013d70 f i GuGeometryQuery.obj
 0001:00012db0       ?overlap@PxGeometryQuery@physx@@SA_NAEBVPxGeometry@2@AEBV?$PxTransformT@M@2@01V?$PxFlags@W4Enum@PxGeometryQueryFlag@physx@@I@2@PEAUPxQueryThreadContext@2@@Z 0000000180013db0 f   GuGeometryQuery.obj
 0001:00012f00       ?pointDistance@PxGeometryQuery@physx@@SAMAEBV?$PxVec3T@M@2@AEBVPxGeometry@2@AEBV?$PxTransformT@M@2@PEAV32@PEAIV?$PxFlags@W4Enum@PxGeometryQueryFlag@physx@@I@2@@Z 0000000180013f00 f   GuGeometryQuery.obj
 0001:000136f0       ?populateVerts@?$SupportLocalImpl@VBoxV@Gu@physx@@@Gu@physx@@UEBAXPEBEIPEBV?$PxVec3T@M@3@PEAT__m128@@@Z 00000001800146f0 f i GuGeometryQuery.obj
 0001:00013730       ?populateVerts@?$SupportLocalImpl@VConvexHullV@Gu@physx@@@Gu@physx@@UEBAXPEBEIPEBV?$PxVec3T@M@3@PEAT__m128@@@Z 0000000180014730 f i GuGeometryQuery.obj
 0001:00013790       ?raycast@PxGeometryQuery@physx@@SAIAEBV?$PxVec3T@M@2@0AEBVPxGeometry@2@AEBV?$PxTransformT@M@2@MV?$PxFlags@W4Enum@PxHitFlag@physx@@G@2@IPEIAUPxGeomRaycastHit@2@IV?$PxFlags@W4Enum@PxGeometryQueryFlag@physx@@I@2@PEAUPxQueryThreadContext@2@@Z 0000000180014790 f   GuGeometryQuery.obj
 0001:00013a60       ?reduceManifoldContactsInDifferentPatches@MultiplePersistentContactManifold@Gu@physx@@QEAAIPEAPEAUPCMContactPatch@23@IPEAVMeshPersistentContact@23@IAEBT__m128@@@Z 0000000180014a60 f i GuGeometryQuery.obj
 0001:00013bc0       ?refineContactPatchConnective@MultiplePersistentContactManifold@Gu@physx@@QEAAXPEAPEAUPCMContactPatch@23@IPEAVMeshPersistentContact@23@AEBT__m128@@@Z 0000000180014bc0 f i GuGeometryQuery.obj
 0001:00013cb0       ?refreshManifold@MultiplePersistentContactManifold@Gu@physx@@QEAAXAEBVPxMatTransformV@aos@3@AEBT__m128@@1@Z 0000000180014cb0 f i GuGeometryQuery.obj
 0001:00013db0       ?setRelativeTransform@MultiplePersistentContactManifold@Gu@physx@@QEAAXAEBVPxTransformV@aos@3@@Z 0000000180014db0 f i GuGeometryQuery.obj
 0001:00013dc0       ?supportVertexIndex@ConvexHullV@Gu@physx@@QEBAIAEBT__m128@@@Z 0000000180014dc0 f i GuGeometryQuery.obj
 0001:00014040       ?sweep@PxGeometryQuery@physx@@SA_NAEBV?$PxVec3T@M@2@MAEBVPxGeometry@2@AEBV?$PxTransformT@M@2@12AEAUPxGeomSweepHit@2@V?$PxFlags@W4Enum@PxHitFlag@physx@@G@2@MV?$PxFlags@W4Enum@PxGeometryQueryFlag@physx@@I@2@PEAUPxQueryThreadContext@2@@Z 0000000180015040 f   GuGeometryQuery.obj
 0001:00014670       ?toBuffer@MultiplePersistentContactManifold@Gu@physx@@QEAAXPEIAE@Z 0000000180015670 f i GuGeometryQuery.obj
 0001:00014750       ?computeBoxPoints@Gu@physx@@YAXAEBVPxBounds3@2@PEIAV?$PxVec3T@M@2@@Z 0000000180015750 f   GuInternal.obj
 0001:000147f0       ?computeSweptBox@Gu@physx@@YAXAEAVBox@12@AEBV?$PxVec3T@M@2@1AEBV?$PxMat33T@M@2@1M@Z 00000001800157f0 f   GuInternal.obj
 0001:00014d20       ?getPlane@Gu@physx@@YA?AVPxPlane@2@AEBV?$PxTransformT@M@2@@Z 0000000180015d20 f   GuInternal.obj
 0001:00015280       ??_ECallbackRefit@RTree@Gu@physx@@UEAAPEAXI@Z 0000000180016280 f i GuTriangleMeshRTree.obj
 0001:00015280       ??_GPxInsertionCallback@physx@@MEAAPEAXI@Z 0000000180016280 f i GuMeshFactory.obj
 0001:00015280       ??_ECallbackRaycast@RTree@Gu@physx@@UEAAPEAXI@Z 0000000180016280 f i GuMidphaseRTree.obj
 0001:00015280       ??_GCallbackRefit@RTree@Gu@physx@@UEAAPEAXI@Z 0000000180016280 f i GuTriangleMeshRTree.obj
 0001:00015280       ??_EPxInsertionCallback@physx@@MEAAPEAXI@Z 0000000180016280 f i GuMeshFactory.obj
 0001:00015280       ??_GCallbackRaycast@RTree@Gu@physx@@UEAAPEAXI@Z 0000000180016280 f i GuMidphaseRTree.obj
 0001:000152b0       ??$copy@V?$PxReflectionAllocator@USlab@NodeAllocator@Gu@physx@@@physx@@@?$PxArray@USlab@NodeAllocator@Gu@physx@@V?$PxReflectionAllocator@USlab@NodeAllocator@Gu@physx@@@4@@physx@@IEAAXAEBV01@@Z 00000001800162b0 f i GuMeshFactory.obj
 0001:00015370       ??0AABBTreeBounds@Gu@physx@@QEAA@XZ 0000000180016370 f i GuMeshFactory.obj
 0001:00015380       ??0AABBTreeBuildNode@Gu@physx@@QEAA@AEBV012@@Z 0000000180016380 f i GuMeshFactory.obj
 0001:00015380       ??4AABBTreeBuildNode@Gu@physx@@QEAAAEAV012@AEBV012@@Z 0000000180016380 f i GuMeshFactory.obj
 0001:000153c0       ??0AABBTreeBuildParams@Gu@physx@@QEAA@IIPEBVAABBTreeBounds@12@W4BVHBuildStrategy@12@@Z 00000001800163c0 f i GuMeshFactory.obj
 0001:000153e0       ??0MeshFactory@Gu@physx@@QEAA@XZ 00000001800163e0 f   GuMeshFactory.obj
 0001:000155e0       ??0NodeAllocator@Gu@physx@@QEAA@AEBV012@@Z 00000001800165e0 f i GuMeshFactory.obj
 0001:00015620       ??0TriangleMeshData@Gu@physx@@QEAA@XZ 0000000180016620 f i GuMeshFactory.obj
 0001:00015730       ??1AABBTreeBounds@Gu@physx@@QEAA@XZ 0000000180016730 f i GuMeshFactory.obj
 0001:00015740       ?reset@AABBTreeBuildParams@Gu@physx@@QEAAXXZ 0000000180016740 f i GuMeshFactory.obj
 0001:00015740       ??1AABBTreeBuildParams@Gu@physx@@QEAA@XZ 0000000180016740 f i GuMeshFactory.obj
 0001:00015790       ??1CollisionMeshMappingData@Gu@physx@@UEAA@XZ 0000000180016790 f i GuMeshFactory.obj
 0001:000158d0       ??1MeshDataBase@Gu@physx@@UEAA@XZ 00000001800168d0 f i GuMeshFactory.obj
 0001:00015a10       ??1MeshFactory@Gu@physx@@MEAA@XZ 0000000180016a10 f   GuMeshFactory.obj
 0001:00015b40       ??1RTreeTriangleData@Gu@physx@@UEAA@XZ 0000000180016b40 f i GuMeshFactory.obj
 0001:00015bb0       ??1SoftBodyCollisionData@Gu@physx@@UEAA@XZ 0000000180016bb0 f i GuMeshFactory.obj
 0001:00015ce0       ??1SoftBodySimulationData@Gu@physx@@UEAA@XZ 0000000180016ce0 f i GuMeshFactory.obj
 0001:00015df0       ??1TetrahedronMeshData@Gu@physx@@QEAA@XZ 0000000180016df0 f i GuMeshFactory.obj
 0001:00015e80       ??1TriangleMeshData@Gu@physx@@UEAA@XZ 0000000180016e80 f i GuMeshFactory.obj
 0001:00015fb0       ??4NodeAllocator@Gu@physx@@QEAAAEAV012@AEBV012@@Z 0000000180016fb0 f i GuMeshFactory.obj
 0001:00016060       ??_EMeshFactory@Gu@physx@@MEAAPEAXI@Z 0000000180017060 f i GuMeshFactory.obj
 0001:00016170       ??_FAABBTreeBuildParams@Gu@physx@@QEAAXXZ 0000000180017170 f i GuMeshFactory.obj
 0001:00016190       ??_GBV4TriangleData@Gu@physx@@UEAAPEAXI@Z 0000000180017190 f i GuMeshFactory.obj
 0001:00016190       ??_EBV4TriangleData@Gu@physx@@UEAAPEAXI@Z 0000000180017190 f i GuMeshFactory.obj
 0001:00016220       ??_GCollisionMeshMappingData@Gu@physx@@UEAAPEAXI@Z 0000000180017220 f i GuMeshFactory.obj
 0001:00016220       ??_ECollisionMeshMappingData@Gu@physx@@UEAAPEAXI@Z 0000000180017220 f i GuMeshFactory.obj
 0001:00016290       ??_GMeshDataBase@Gu@physx@@UEAAPEAXI@Z 0000000180017290 f i GuMeshFactory.obj
 0001:00016290       ??_EMeshDataBase@Gu@physx@@UEAAPEAXI@Z 0000000180017290 f i GuMeshFactory.obj
 0001:00016300       ??_GPxCollisionMeshMappingData@physx@@UEAAPEAXI@Z 0000000180017300 f i GuMeshFactory.obj
 0001:00016300       ??_EPxCollisionMeshMappingData@physx@@UEAAPEAXI@Z 0000000180017300 f i GuMeshFactory.obj
 0001:00016350       ??_GRTreeTriangleData@Gu@physx@@UEAAPEAXI@Z 0000000180017350 f i GuMeshFactory.obj
 0001:00016350       ??_ERTreeTriangleData@Gu@physx@@UEAAPEAXI@Z 0000000180017350 f i GuMeshFactory.obj
 0001:00016400       ??_GSoftBodyCollisionData@Gu@physx@@UEAAPEAXI@Z 0000000180017400 f i GuMeshFactory.obj
 0001:00016400       ??_ESoftBodyCollisionData@Gu@physx@@UEAAPEAXI@Z 0000000180017400 f i GuMeshFactory.obj
 0001:00016470       ??_GSoftBodySimulationData@Gu@physx@@UEAAPEAXI@Z 0000000180017470 f i GuMeshFactory.obj
 0001:00016470       ??_ESoftBodySimulationData@Gu@physx@@UEAAPEAXI@Z 0000000180017470 f i GuMeshFactory.obj
 0001:000164e0       ??_ETriangleMeshData@Gu@physx@@UEAAPEAXI@Z 00000001800174e0 f i GuMeshFactory.obj
 0001:000164e0       ??_GTriangleMeshData@Gu@physx@@UEAAPEAXI@Z 00000001800174e0 f i GuMeshFactory.obj
 0001:00016550       ?__global_delete@@YAXPEAX_K@Z 0000000180017550 f i GuMeshFactory.obj
 0001:00016550       ??_V@YAXPEAX_K@Z           0000000180017550 f i LIBCMT:delete_array_size.obj
 0001:00016560       ?addBVH@MeshFactory@Gu@physx@@QEAAXPEAVBVH@23@_N@Z 0000000180017560 f   GuMeshFactory.obj
 0001:00016600       ?addConvexMesh@MeshFactory@Gu@physx@@QEAAXPEAVConvexMesh@23@_N@Z 0000000180017600 f   GuMeshFactory.obj
 0001:000166a0       ?addFactoryListener@MeshFactory@Gu@physx@@QEAAXAEAVMeshFactoryListener@23@@Z 00000001800176a0 f   GuMeshFactory.obj
 0001:00016710       ?addHeightField@MeshFactory@Gu@physx@@QEAAXPEAVHeightField@23@_N@Z 0000000180017710 f   GuMeshFactory.obj
 0001:000167b0       ?addSoftBodyMesh@MeshFactory@Gu@physx@@QEAAXPEAVSoftBodyMesh@23@_N@Z 00000001800177b0 f   GuMeshFactory.obj
 0001:00016850       ?addTetrahedronMesh@MeshFactory@Gu@physx@@QEAAXPEAVTetrahedronMesh@23@_N@Z 0000000180017850 f   GuMeshFactory.obj
 0001:000168f0       ?addTriangleMesh@MeshFactory@Gu@physx@@QEAAXPEAVTriangleMesh@23@_N@Z 00000001800178f0 f   GuMeshFactory.obj
 0001:00016990       ?allocate@?$PxArray@USlab@NodeAllocator@Gu@physx@@V?$PxReflectionAllocator@USlab@NodeAllocator@Gu@physx@@@4@@physx@@IEAAPEAUSlab@NodeAllocator@Gu@2@I@Z 0000000180017990 f i GuMeshFactory.obj
 0001:00016a40       ?allocateAdjacencies@TriangleMeshData@Gu@physx@@QEAAPEAIXZ 0000000180017a40 f i GuMeshFactory.obj
 0001:00016ab0       ?allocateExtraTrigData@TriangleMeshData@Gu@physx@@QEAAPEAEXZ 0000000180017ab0 f i GuMeshFactory.obj
 0001:00016b20       ?allocateFaceRemap@TriangleMeshData@Gu@physx@@QEAAPEAIXZ 0000000180017b20 f i GuMeshFactory.obj
 0001:00016b90       ?allocateGridModelData@SoftBodySimulationData@Gu@physx@@QEAAXIIIIIII@Z 0000000180017b90 f i GuMeshFactory.obj
 0001:00016e00       ?allocateMaterials@TetrahedronMeshData@Gu@physx@@QEAAPEAGXZ 0000000180017e00 f i GuMeshFactory.obj
 0001:00016e70       ?allocateMaterials@TriangleMeshData@Gu@physx@@QEAAPEAGXZ 0000000180017e70 f i GuMeshFactory.obj
 0001:00016ee0       ?allocateTetrahedrons@TetrahedronMeshData@Gu@physx@@QEAAXII@Z 0000000180017ee0 f i GuMeshFactory.obj
 0001:00016f70       ?allocateTriangles@TriangleMeshData@Gu@physx@@QEAAPEAXI_NI@Z 0000000180017f70 f i GuMeshFactory.obj
 0001:00017060       ?allocateVertices@MeshDataBase@Gu@physx@@QEAAPEAV?$PxVec3T@M@3@I@Z 0000000180018060 f i GuMeshFactory.obj
 0001:000170d0       ?allocateVertices@TetrahedronMeshData@Gu@physx@@QEAAPEAV?$PxVec3T@M@3@II@Z 00000001800180d0 f i GuMeshFactory.obj
 0001:00017170       ?allocatemappingData@CollisionMeshMappingData@Gu@physx@@QEAAXIIII@Z 0000000180018170 f i GuMeshFactory.obj
 0001:00017340       ?create@?$PxHashBase@PEAVConvexMesh@Gu@physx@@PEAV123@U?$PxHash@PEAVConvexMesh@Gu@physx@@@3@UGetKey@?$PxHashSetBase@PEAVConvexMesh@Gu@physx@@U?$PxHash@PEAVConvexMesh@Gu@physx@@@3@VPxAllocator@3@$00@3@VPxAllocator@3@$00@physx@@QEAAPEAPEAVConvexMesh@Gu@2@AEBQEAV342@AEA_N@Z 0000000180018340 f i GuMeshFactory.obj
 0001:00017340       ?create@?$PxHashBase@PEAVTetrahedronMesh@Gu@physx@@PEAV123@U?$PxHash@PEAVTetrahedronMesh@Gu@physx@@@3@UGetKey@?$PxHashSetBase@PEAVTetrahedronMesh@Gu@physx@@U?$PxHash@PEAVTetrahedronMesh@Gu@physx@@@3@VPxAllocator@3@$00@3@VPxAllocator@3@$00@physx@@QEAAPEAPEAVTetrahedronMesh@Gu@2@AEBQEAV342@AEA_N@Z 0000000180018340 f i GuMeshFactory.obj
 0001:00017340       ?create@?$PxHashBase@PEAVTriangleMesh@Gu@physx@@PEAV123@U?$PxHash@PEAVTriangleMesh@Gu@physx@@@3@UGetKey@?$PxHashSetBase@PEAVTriangleMesh@Gu@physx@@U?$PxHash@PEAVTriangleMesh@Gu@physx@@@3@VPxAllocator@3@$00@3@VPxAllocator@3@$00@physx@@QEAAPEAPEAVTriangleMesh@Gu@2@AEBQEAV342@AEA_N@Z 0000000180018340 f i GuMeshFactory.obj
 0001:00017340       ?create@?$PxHashBase@PEAVBVH@Gu@physx@@PEAV123@U?$PxHash@PEAVBVH@Gu@physx@@@3@UGetKey@?$PxHashSetBase@PEAVBVH@Gu@physx@@U?$PxHash@PEAVBVH@Gu@physx@@@3@VPxAllocator@3@$00@3@VPxAllocator@3@$00@physx@@QEAAPEAPEAVBVH@Gu@2@AEBQEAV342@AEA_N@Z 0000000180018340 f i GuMeshFactory.obj
 0001:00017340       ?create@?$PxHashBase@PEAVSoftBodyMesh@Gu@physx@@PEAV123@U?$PxHash@PEAVSoftBodyMesh@Gu@physx@@@3@UGetKey@?$PxHashSetBase@PEAVSoftBodyMesh@Gu@physx@@U?$PxHash@PEAVSoftBodyMesh@Gu@physx@@@3@VPxAllocator@3@$00@3@VPxAllocator@3@$00@physx@@QEAAPEAPEAVSoftBodyMesh@Gu@2@AEBQEAV342@AEA_N@Z 0000000180018340 f i GuMeshFactory.obj
 0001:00017340       ?create@?$PxHashBase@PEAVHeightField@Gu@physx@@PEAV123@U?$PxHash@PEAVHeightField@Gu@physx@@@3@UGetKey@?$PxHashSetBase@PEAVHeightField@Gu@physx@@U?$PxHash@PEAVHeightField@Gu@physx@@@3@VPxAllocator@3@$00@3@VPxAllocator@3@$00@physx@@QEAAPEAPEAVHeightField@Gu@2@AEBQEAV342@AEA_N@Z 0000000180018340 f i GuMeshFactory.obj
 0001:000174e0       ?createBVH@MeshFactory@Gu@physx@@IEAAPEAVPxBVH@3@AEAVBVHData@23@@Z 00000001800184e0 f   GuMeshFactory.obj
 0001:00017640       ?createBVH@MeshFactory@Gu@physx@@QEAAPEAVPxBVH@3@AEAVPxInputStream@3@@Z 0000000180018640 f   GuMeshFactory.obj
 0001:000177c0       ?createBVH@MeshFactory@Gu@physx@@QEAAPEAVPxBVH@3@PEAX@Z 00000001800187c0 f   GuMeshFactory.obj
 0001:000177d0       ?createConvexMesh@MeshFactory@Gu@physx@@IEAAPEAVPxConvexMesh@3@AEAUConvexHullInitData@23@@Z 00000001800187d0 f   GuMeshFactory.obj
 0001:00017920       ?createConvexMesh@MeshFactory@Gu@physx@@QEAAPEAVPxConvexMesh@3@AEAVPxInputStream@3@@Z 0000000180018920 f   GuMeshFactory.obj
 0001:00017a80       ?createConvexMesh@MeshFactory@Gu@physx@@QEAAPEAVPxConvexMesh@3@PEAX@Z 0000000180018a80 f   GuMeshFactory.obj
 0001:00017a90       ?createHeightField@MeshFactory@Gu@physx@@QEAAPEAVPxHeightField@3@AEAVPxInputStream@3@@Z 0000000180018a90 f   GuMeshFactory.obj
 0001:00017c10       ?createHeightField@MeshFactory@Gu@physx@@QEAAPEAVPxHeightField@3@PEAX@Z 0000000180018c10 f   GuMeshFactory.obj
 0001:00017d70       ?createSoftBodyMesh@MeshFactory@Gu@physx@@IEAAPEAVPxSoftBodyMesh@3@AEAVSoftBodyMeshData@23@@Z 0000000180018d70 f   GuMeshFactory.obj
 0001:00017ec0       ?createSoftBodyMesh@MeshFactory@Gu@physx@@QEAAPEAVPxSoftBodyMesh@3@AEAVPxInputStream@3@@Z 0000000180018ec0 f   GuMeshFactory.obj
 0001:00018480       ?createSoftBodyMesh@MeshFactory@Gu@physx@@QEAAPEAVPxSoftBodyMesh@3@PEAX@Z 0000000180019480 f   GuMeshFactory.obj
 0001:00018490       ?createTetrahedronMesh@MeshFactory@Gu@physx@@IEAAPEAVPxTetrahedronMesh@3@AEAVTetrahedronMeshData@23@@Z 0000000180019490 f   GuMeshFactory.obj
 0001:000185f0       ?createTetrahedronMesh@MeshFactory@Gu@physx@@QEAAPEAVPxTetrahedronMesh@3@AEAVPxInputStream@3@@Z 00000001800195f0 f   GuMeshFactory.obj
 0001:00018650       ?createTetrahedronMesh@MeshFactory@Gu@physx@@QEAAPEAVPxTetrahedronMesh@3@PEAX@Z 0000000180019650 f   GuMeshFactory.obj
 0001:00018660       ?createTriangleMesh@MeshFactory@Gu@physx@@IEAAPEAVPxTriangleMesh@3@AEAVTriangleMeshData@23@@Z 0000000180019660 f   GuMeshFactory.obj
 0001:00018860       ?createTriangleMesh@MeshFactory@Gu@physx@@QEAAPEAVPxTriangleMesh@3@AEAVPxInputStream@3@@Z 0000000180019860 f   GuMeshFactory.obj
 0001:000188c0       ?createTriangleMesh@MeshFactory@Gu@physx@@QEAAPEAVPxTriangleMesh@3@PEAX@Z 00000001800198c0 f   GuMeshFactory.obj
 0001:000188d0       ?erase@?$PxHashBase@PEAVTriangleMesh@Gu@physx@@PEAV123@U?$PxHash@PEAVTriangleMesh@Gu@physx@@@3@UGetKey@?$PxHashSetBase@PEAVTriangleMesh@Gu@physx@@U?$PxHash@PEAVTriangleMesh@Gu@physx@@@3@VPxAllocator@3@$00@3@VPxAllocator@3@$00@physx@@QEAA_NAEBQEAVTriangleMesh@Gu@2@@Z 00000001800198d0 f i GuMeshFactory.obj
 0001:000188d0       ?erase@?$PxHashBase@PEAVSoftBodyMesh@Gu@physx@@PEAV123@U?$PxHash@PEAVSoftBodyMesh@Gu@physx@@@3@UGetKey@?$PxHashSetBase@PEAVSoftBodyMesh@Gu@physx@@U?$PxHash@PEAVSoftBodyMesh@Gu@physx@@@3@VPxAllocator@3@$00@3@VPxAllocator@3@$00@physx@@QEAA_NAEBQEAVSoftBodyMesh@Gu@2@@Z 00000001800198d0 f i GuMeshFactory.obj
 0001:000188d0       ?erase@?$PxHashBase@PEAVConvexMesh@Gu@physx@@PEAV123@U?$PxHash@PEAVConvexMesh@Gu@physx@@@3@UGetKey@?$PxHashSetBase@PEAVConvexMesh@Gu@physx@@U?$PxHash@PEAVConvexMesh@Gu@physx@@@3@VPxAllocator@3@$00@3@VPxAllocator@3@$00@physx@@QEAA_NAEBQEAVConvexMesh@Gu@2@@Z 00000001800198d0 f i GuMeshFactory.obj
 0001:000188d0       ?erase@?$PxHashBase@PEAVBVH@Gu@physx@@PEAV123@U?$PxHash@PEAVBVH@Gu@physx@@@3@UGetKey@?$PxHashSetBase@PEAVBVH@Gu@physx@@U?$PxHash@PEAVBVH@Gu@physx@@@3@VPxAllocator@3@$00@3@VPxAllocator@3@$00@physx@@QEAA_NAEBQEAVBVH@Gu@2@@Z 00000001800198d0 f i GuMeshFactory.obj
 0001:000188d0       ?erase@?$PxHashBase@PEAVHeightField@Gu@physx@@PEAV123@U?$PxHash@PEAVHeightField@Gu@physx@@@3@UGetKey@?$PxHashSetBase@PEAVHeightField@Gu@physx@@U?$PxHash@PEAVHeightField@Gu@physx@@@3@VPxAllocator@3@$00@3@VPxAllocator@3@$00@physx@@QEAA_NAEBQEAVHeightField@Gu@2@@Z 00000001800198d0 f i GuMeshFactory.obj
 0001:000188d0       ?erase@?$PxHashBase@PEAVTetrahedronMesh@Gu@physx@@PEAV123@U?$PxHash@PEAVTetrahedronMesh@Gu@physx@@@3@UGetKey@?$PxHashSetBase@PEAVTetrahedronMesh@Gu@physx@@U?$PxHash@PEAVTetrahedronMesh@Gu@physx@@@3@VPxAllocator@3@$00@3@VPxAllocator@3@$00@physx@@QEAA_NAEBQEAVTetrahedronMesh@Gu@2@@Z 00000001800198d0 f i GuMeshFactory.obj
 0001:00018a40       ?getBVHs@MeshFactory@Gu@physx@@QEBAIPEAPEAVPxBVH@3@II@Z 0000000180019a40 f   GuMeshFactory.obj
 0001:00018ae0       ?getBounds@AABBTreeBounds@Gu@physx@@QEBAPEBVPxBounds3@3@XZ 0000000180019ae0 f i GuMeshFactory.obj
 0001:00018ae0       ?getBounds@AABBTreeBounds@Gu@physx@@QEAAPEAVPxBounds3@3@XZ 0000000180019ae0 f i GuMeshFactory.obj
 0001:00018af0       ?getConvexMeshes@MeshFactory@Gu@physx@@QEBAIPEAPEAVPxConvexMesh@3@II@Z 0000000180019af0 f   GuMeshFactory.obj
 0001:00018b90       ?getHeightFields@MeshFactory@Gu@physx@@QEBAIPEAPEAVPxHeightField@3@II@Z 0000000180019b90 f   GuMeshFactory.obj
 0001:00018c30       ?getNbBVHs@MeshFactory@Gu@physx@@QEBAIXZ 0000000180019c30 f   GuMeshFactory.obj
 0001:00018c70       ?getNbConvexMeshes@MeshFactory@Gu@physx@@QEBAIXZ 0000000180019c70 f   GuMeshFactory.obj
 0001:00018cb0       ?getNbHeightFields@MeshFactory@Gu@physx@@QEBAIXZ 0000000180019cb0 f   GuMeshFactory.obj
 0001:00018cf0       ?getNbPrimitives@AABBTreeBuildNode@Gu@physx@@QEBAIXZ 0000000180019cf0 f i GuMeshFactory.obj
 0001:00018cf0       ?getNbRuntimePrimitives@AABBTreeBuildNode@Gu@physx@@QEBAIXZ 0000000180019cf0 f i GuMeshFactory.obj
 0001:00018d00       ?getNbSoftBodyMeshes@MeshFactory@Gu@physx@@QEBAIXZ 0000000180019d00 f   GuMeshFactory.obj
 0001:00018d40       ?getNbTetrahedronMeshes@MeshFactory@Gu@physx@@QEBAIXZ 0000000180019d40 f   GuMeshFactory.obj
 0001:00018d80       ?getNbTriangleMeshes@MeshFactory@Gu@physx@@QEBAIXZ 0000000180019d80 f   GuMeshFactory.obj
 0001:00018dc0       ?getNeg@AABBTreeBuildNode@Gu@physx@@QEBAPEBV123@XZ 0000000180019dc0 f i GuMeshFactory.obj
 0001:00018de0       ?getPrimitives@AABBTreeBuildNode@Gu@physx@@QEBAPEBIPEBI@Z 0000000180019de0 f i GuMeshFactory.obj
 0001:00018de0       ?getPrimitives@AABBTreeBuildNode@Gu@physx@@QEAAPEAIPEAI@Z 0000000180019de0 f i GuMeshFactory.obj
 0001:00018df0       ?getSoftBodyMeshes@MeshFactory@Gu@physx@@QEBAIPEAPEAVPxSoftBodyMesh@3@II@Z 0000000180019df0 f   GuMeshFactory.obj
 0001:00018e90       ?getTetrahedronMeshes@MeshFactory@Gu@physx@@QEBAIPEAPEAVPxTetrahedronMesh@3@II@Z 0000000180019e90 f   GuMeshFactory.obj
 0001:00018f20       ?getTriangleMeshes@MeshFactory@Gu@physx@@QEBAIPEAPEAVPxTriangleMesh@3@II@Z 0000000180019f20 f   GuMeshFactory.obj
 0001:00018fb0       ?growAndPushBack@?$PxArray@PEAVMeshFactoryListener@Gu@physx@@V?$PxReflectionAllocator@PEAVMeshFactoryListener@Gu@physx@@@3@@physx@@IEAAAEAPEAVMeshFactoryListener@Gu@2@AEBQEAV342@@Z 0000000180019fb0 f i GuMeshFactory.obj
 0001:000190f0       ?isLeaf@AABBTreeBuildNode@Gu@physx@@QEBA_NXZ 000000018001a0f0 f i GuMeshFactory.obj
 0001:0001ab80       ?moveFrom@AABBTreeBounds@Gu@physx@@QEAAXAEAV123@@Z 000000018001bb80 f i GuMeshFactory.obj
 0001:0001ab90       ?notifyFactoryListener@MeshFactory@Gu@physx@@QEAAXPEBVPxBase@3@G@Z 000000018001bb90 f   GuMeshFactory.obj
 0001:0001ac00       ?notifyListenersAdd@MeshFactory@Gu@physx@@IEAAXPEBVPxBase@3@@Z 000000018001bc00 f   GuMeshFactory.obj
 0001:0001ac50       ?notifyListenersRemove@MeshFactory@Gu@physx@@IEAAXPEBVPxBase@3@@Z 000000018001bc50 f   GuMeshFactory.obj
 0001:0001aca0       ?ownsMemory@AABBTreeBounds@Gu@physx@@QEBA_NXZ 000000018001bca0 f i GuMeshFactory.obj
 0001:0001af20       ?recreate@?$PxArray@USlab@NodeAllocator@Gu@physx@@V?$PxReflectionAllocator@USlab@NodeAllocator@Gu@physx@@@4@@physx@@IEAAXI@Z 000000018001bf20 f i GuMeshFactory.obj
 0001:0001afd0       ?release@CollisionMeshMappingData@Gu@physx@@UEAAXXZ 000000018001bfd0 f i GuMeshFactory.obj
 0001:0001aff0       ?release@MeshFactory@Gu@physx@@QEAAXXZ 000000018001bff0 f   GuMeshFactory.obj
 0001:0001b0e0       ?remove@MeshFactory@Gu@physx@@QEAA_NAEAVPxBase@3@@Z 000000018001c0e0 f   GuMeshFactory.obj
 0001:0001b130       ?removeBVH@MeshFactory@Gu@physx@@QEAA_NAEAVPxBVH@3@@Z 000000018001c130 f   GuMeshFactory.obj
 0001:0001b1c0       ?removeConvexMesh@MeshFactory@Gu@physx@@QEAA_NAEAVPxConvexMesh@3@@Z 000000018001c1c0 f   GuMeshFactory.obj
 0001:0001b250       ?removeFactoryListener@MeshFactory@Gu@physx@@QEAAXAEAVMeshFactoryListener@23@@Z 000000018001c250 f   GuMeshFactory.obj
 0001:0001b2e0       ?removeHeightField@MeshFactory@Gu@physx@@QEAA_NAEAVPxHeightField@3@@Z 000000018001c2e0 f   GuMeshFactory.obj
 0001:0001b370       ?removeSoftBodyMesh@MeshFactory@Gu@physx@@QEAA_NAEAVPxSoftBodyMesh@3@@Z 000000018001c370 f   GuMeshFactory.obj
 0001:0001b400       ?removeTetrahedronMesh@MeshFactory@Gu@physx@@QEAA_NAEAVPxTetrahedronMesh@3@@Z 000000018001c400 f   GuMeshFactory.obj
 0001:0001b490       ?removeTriangleMesh@MeshFactory@Gu@physx@@QEAA_NAEAVPxTriangleMesh@3@@Z 000000018001c490 f   GuMeshFactory.obj
 0001:0001b520       ?reserveInternal@?$PxHashBase@PEAVBVH@Gu@physx@@PEAV123@U?$PxHash@PEAVBVH@Gu@physx@@@3@UGetKey@?$PxHashSetBase@PEAVBVH@Gu@physx@@U?$PxHash@PEAVBVH@Gu@physx@@@3@VPxAllocator@3@$00@3@VPxAllocator@3@$00@physx@@AEAAXI@Z 000000018001c520 f i GuMeshFactory.obj
 0001:0001b520       ?reserveInternal@?$PxHashBase@PEAVHeightField@Gu@physx@@PEAV123@U?$PxHash@PEAVHeightField@Gu@physx@@@3@UGetKey@?$PxHashSetBase@PEAVHeightField@Gu@physx@@U?$PxHash@PEAVHeightField@Gu@physx@@@3@VPxAllocator@3@$00@3@VPxAllocator@3@$00@physx@@AEAAXI@Z 000000018001c520 f i GuMeshFactory.obj
 0001:0001b520       ?reserveInternal@?$PxHashBase@PEAVConvexMesh@Gu@physx@@PEAV123@U?$PxHash@PEAVConvexMesh@Gu@physx@@@3@UGetKey@?$PxHashSetBase@PEAVConvexMesh@Gu@physx@@U?$PxHash@PEAVConvexMesh@Gu@physx@@@3@VPxAllocator@3@$00@3@VPxAllocator@3@$00@physx@@AEAAXI@Z 000000018001c520 f i GuMeshFactory.obj
 0001:0001b520       ?reserveInternal@?$PxHashBase@PEAVSoftBodyMesh@Gu@physx@@PEAV123@U?$PxHash@PEAVSoftBodyMesh@Gu@physx@@@3@UGetKey@?$PxHashSetBase@PEAVSoftBodyMesh@Gu@physx@@U?$PxHash@PEAVSoftBodyMesh@Gu@physx@@@3@VPxAllocator@3@$00@3@VPxAllocator@3@$00@physx@@AEAAXI@Z 000000018001c520 f i GuMeshFactory.obj
 0001:0001b520       ?reserveInternal@?$PxHashBase@PEAVTriangleMesh@Gu@physx@@PEAV123@U?$PxHash@PEAVTriangleMesh@Gu@physx@@@3@UGetKey@?$PxHashSetBase@PEAVTriangleMesh@Gu@physx@@U?$PxHash@PEAVTriangleMesh@Gu@physx@@@3@VPxAllocator@3@$00@3@VPxAllocator@3@$00@physx@@AEAAXI@Z 000000018001c520 f i GuMeshFactory.obj
 0001:0001b520       ?reserveInternal@?$PxHashBase@PEAVTetrahedronMesh@Gu@physx@@PEAV123@U?$PxHash@PEAVTetrahedronMesh@Gu@physx@@@3@UGetKey@?$PxHashSetBase@PEAVTetrahedronMesh@Gu@physx@@U?$PxHash@PEAVTetrahedronMesh@Gu@physx@@@3@VPxAllocator@3@$00@3@VPxAllocator@3@$00@physx@@AEAAXI@Z 000000018001c520 f i GuMeshFactory.obj
 0001:0001b6f0       ?setBounds@AABBTreeBounds@Gu@physx@@QEAAXPEAVPxBounds3@3@@Z 000000018001c6f0 f i GuMeshFactory.obj
 0001:0001b700       ?setNbRunTimePrimitives@AABBTreeBuildNode@Gu@physx@@QEAAXI@Z 000000018001c700 f i GuMeshFactory.obj
 0001:0001b710       ?takeOwnership@AABBTreeBounds@Gu@physx@@QEAAXXZ 000000018001c710 f i GuMeshFactory.obj
 0001:0001b720       getInsertionCallback       000000018001c720 f   GuMeshFactory.obj
 0001:0001b730       ??4BigConvexData@physx@@QEAAAEAV01@AEBV01@@Z 000000018001c730 f i GuMetaData.obj
 0001:0001b750       ?getTransforms@PruningPool@Gu@physx@@QEAAPEAV?$PxTransformT@M@3@XZ 000000018001c750 f i GuIncrementalAABBPrunerCore.obj
 0001:0001b750       ?getSoftBodyAuxData@SoftBodyMesh@Gu@physx@@UEAAPEAVPxSoftBodyAuxData@3@XZ 000000018001c750 f i GuTetrahedronMesh.obj
 0001:0001b750       ?getTransforms@PruningPool@Gu@physx@@QEBAPEBV?$PxTransformT@M@3@XZ 000000018001c750 f i GuIncrementalAABBPrunerCore.obj
 0001:0001b750       ?getTriangles@TriangleMesh@Gu@physx@@UEBAPEBXXZ 000000018001c750 f i GuTriangleMesh.obj
 0001:0001b750       ?getSoftBodyAuxData@SoftBodyMesh@Gu@physx@@UEBAPEBVPxSoftBodyAuxData@3@XZ 000000018001c750 f i GuTetrahedronMesh.obj
 0001:0001b750       ?GetAdjacentVerts@BigConvexData@physx@@QEBAPEBEXZ 000000018001c750 f i GuMetaData.obj
 0001:0001b760       ?GetNbNeighbors@BigConvexData@physx@@QEBAGI@Z 000000018001c760 f i GuMetaData.obj
 0001:0001b760       ?GetValency@BigConvexData@physx@@QEBAGI@Z 000000018001c760 f i GuMetaData.obj
 0001:0001b770       ?GetNbSamples@BigConvexData@physx@@QEBAIXZ 000000018001c770 f i GuMetaData.obj
 0001:0001b780       ?getNbVertices@TriangleMesh@Gu@physx@@UEBAIXZ 000000018001c780 f i GuTriangleMesh.obj
 0001:0001b780       ?raw_length@pcharNode@@UEBAHXZ 000000018001c780 f i libvcruntime:undname.obj
 0001:0001b780       ?length@pcharNode@@UEBAHXZ 000000018001c780 f i libvcruntime:undname.obj
 0001:0001b780       ?GetNbVerts@BigConvexData@physx@@QEBAIXZ 000000018001c780 f i GuMetaData.obj
 0001:0001b780       ?getNbVertices@TetrahedronMesh@Gu@physx@@UEBAIXZ 000000018001c780 f i GuTetrahedronMesh.obj
 0001:0001b790       ?GetNeighbors@BigConvexData@physx@@QEBAPEBEI@Z 000000018001c790 f i GuMetaData.obj
 0001:0001b7a0       ?GetOffset@BigConvexData@physx@@QEBAGI@Z 000000018001c7a0 f i GuMetaData.obj
 0001:0001b7b0       ?GetSubdiv@BigConvexData@physx@@QEBAIXZ 000000018001c7b0 f i GuMetaData.obj
 0001:0001b7c0       ?getBinaryMetaData@BV4Tree@Gu@physx@@SAXAEAVPxOutputStream@3@@Z 000000018001c7c0 f   GuMetaData.obj
 0001:0001bd60       ?getBinaryMetaData@BV4TriangleMesh@Gu@physx@@SAXAEAVPxOutputStream@3@@Z 000000018001cd60 f   GuMetaData.obj
 0001:0001c0e0       ?getBinaryMetaData@BigConvexData@physx@@SAXAEAVPxOutputStream@2@@Z 000000018001d0e0 f   GuMetaData.obj
 0001:0001c3a0       ?getBinaryMetaData@ConvexMesh@Gu@physx@@SAXAEAVPxOutputStream@3@@Z 000000018001d3a0 f   GuMetaData.obj
 0001:0001ca30       ?getBinaryMetaData@HeightField@Gu@physx@@SAXAEAVPxOutputStream@3@@Z 000000018001da30 f   GuMetaData.obj
 0001:0001ce20       ?getBinaryMetaData@RTree@Gu@physx@@SAXAEAVPxOutputStream@3@@Z 000000018001de20 f   GuMetaData.obj
 0001:0001d150       ?getBinaryMetaData@RTreeTriangleMesh@Gu@physx@@SAXAEAVPxOutputStream@3@@Z 000000018001e150 f   GuMetaData.obj
 0001:0001d230       ?getBinaryMetaData@TriangleMesh@Gu@physx@@SAXAEAVPxOutputStream@3@@Z 000000018001e230 f   GuMetaData.obj
 0001:0001ed70       ?doSupport@?$SupportLocalImpl@VConvexHullNoScaleV@Gu@physx@@@Gu@physx@@UEBA?AT__m128@@AEBT4@@Z 000000018001fd70 f i GuMTD.obj
 0001:0001edc0       ?doSupport@?$SupportLocalImpl@VConvexHullNoScaleV@Gu@physx@@@Gu@physx@@UEBAXAEBT__m128@@AEAT4@1@Z 000000018001fdc0 f i GuMTD.obj
 0001:0001ef40       ?populateVerts@?$SupportLocalImpl@VConvexHullNoScaleV@Gu@physx@@@Gu@physx@@UEBAXPEBEIPEBV?$PxVec3T@M@3@PEAT__m128@@@Z 000000018001ff40 f i GuMTD.obj
 0001:0001ef80       ?isDynamic@Pruner@Gu@physx@@UEBA_NXZ 000000018001ff80 f   GuIncrementalAABBPruner.obj
 0001:0001ef80       ?getInternalData@TriangleMesh@Gu@physx@@UEBA_NAEAUPxTriangleMeshInternalData@3@_N@Z 000000018001ff80 f   GuTriangleMesh.obj
 0001:00020b40       ??$gjk@U?$LocalConvex@VCapsuleV@Gu@physx@@@Gu@physx@@U?$LocalConvex@VConvexHullV@Gu@physx@@@23@@Gu@physx@@YA?AW4GjkStatus@01@AEBU?$LocalConvex@VCapsuleV@Gu@physx@@@01@AEBU?$LocalConvex@VConvexHullV@Gu@physx@@@01@AEBT__m128@@2AEAT5@333@Z 0000000180021b40 f i GuMTD.obj
 0001:000218a0       ??0SeparatingAxes@Gu@physx@@QEAA@AEBV012@@Z 00000001800228a0 f i GuMTD.obj
 0001:000218a0       ??0SeparatingAxes@Gu@physx@@QEAA@$$QEAV012@@Z 00000001800228a0 f i GuMTD.obj
 0001:000219b0       ??0SeparatingAxes@Gu@physx@@QEAA@XZ 00000001800229b0 f i GuMTD.obj
 0001:000219c0       ??4SeparatingAxes@Gu@physx@@QEAAAEAV012@$$QEAV012@@Z 00000001800229c0 f i GuMTD.obj
 0001:000219c0       ??4SeparatingAxes@Gu@physx@@QEAAAEAV012@AEBV012@@Z 00000001800229c0 f i GuMTD.obj
 0001:00021ad0       ??_G?$LocalConvex@UPointConvexV@@@Gu@physx@@UEAAPEAXI@Z 0000000180022ad0 f i GuGjkQuery.obj
 0001:00021ad0       ??_GGjkConvex@Gu@physx@@UEAAPEAXI@Z 0000000180022ad0 f i GuMTD.obj
 0001:00021ad0       ??_E?$LocalConvex@VBoxV@Gu@physx@@@Gu@physx@@UEAAPEAXI@Z 0000000180022ad0 f i GuSweepTests.obj
 0001:00021ad0       ??_EGjkConvex@Gu@physx@@UEAAPEAXI@Z 0000000180022ad0 f i GuMTD.obj
 0001:00021ad0       ??_G?$LocalConvex@VConvexHullNoScaleV@Gu@physx@@@Gu@physx@@UEAAPEAXI@Z 0000000180022ad0 f i GuPCMContactBoxConvex.obj
 0001:00021ad0       ??_E?$LocalConvex@VCapsuleV@Gu@physx@@@Gu@physx@@UEAAPEAXI@Z 0000000180022ad0 f i GuMTD.obj
 0001:00021ad0       ??_G?$LocalConvex@VTriangleV@Gu@physx@@@Gu@physx@@UEAAPEAXI@Z 0000000180022ad0 f i GuSweepTests.obj
 0001:00021ad0       ??_G?$LocalConvex@VConvexHullV@Gu@physx@@@Gu@physx@@UEAAPEAXI@Z 0000000180022ad0 f i GuMTD.obj
 0001:00021ad0       ??_E?$LocalConvex@VTetrahedronV@Gu@physx@@@Gu@physx@@UEAAPEAXI@Z 0000000180022ad0 f i GuCookingTetrahedronMesh.obj
 0001:00021ad0       ??_E?$LocalConvex@UPointConvexV@@@Gu@physx@@UEAAPEAXI@Z 0000000180022ad0 f i GuGjkQuery.obj
 0001:00021ad0       ??_G?$LocalConvex@VBoxV@Gu@physx@@@Gu@physx@@UEAAPEAXI@Z 0000000180022ad0 f i GuSweepTests.obj
 0001:00021ad0       ??_E?$LocalConvex@VTriangleV@Gu@physx@@@Gu@physx@@UEAAPEAXI@Z 0000000180022ad0 f i GuSweepTests.obj
 0001:00021ad0       ??_G?$LocalConvex@UCustomConvexV@@@Gu@physx@@UEAAPEAXI@Z 0000000180022ad0 f i GuGjkQuery.obj
 0001:00021ad0       ??_E?$LocalConvex@VConvexHullNoScaleV@Gu@physx@@@Gu@physx@@UEAAPEAXI@Z 0000000180022ad0 f i GuPCMContactBoxConvex.obj
 0001:00021ad0       ??_G?$LocalConvex@VTetrahedronV@Gu@physx@@@Gu@physx@@UEAAPEAXI@Z 0000000180022ad0 f i GuCookingTetrahedronMesh.obj
 0001:00021ad0       ??_E?$LocalConvex@UCustomConvexV@@@Gu@physx@@UEAAPEAXI@Z 0000000180022ad0 f i GuGjkQuery.obj
 0001:00021ad0       ??_E?$LocalConvex@VConvexHullV@Gu@physx@@@Gu@physx@@UEAAPEAXI@Z 0000000180022ad0 f i GuMTD.obj
 0001:00021ad0       ??_G?$LocalConvex@VCapsuleV@Gu@physx@@@Gu@physx@@UEAAPEAXI@Z 0000000180022ad0 f i GuMTD.obj
 0001:00025f30       ?getAxes@SeparatingAxes@Gu@physx@@QEBAPEBV?$PxVec3T@M@3@XZ 0000000180026f30 f i GuMTD.obj
 0001:00025f40       ?getCenter@?$LocalConvex@VConvexHullV@Gu@physx@@@Gu@physx@@UEBA?AT__m128@@XZ 0000000180026f40 f i GuMTD.obj
 0001:00025f40       ?getCenter@?$LocalConvex@VTetrahedronV@Gu@physx@@@Gu@physx@@UEBA?AT__m128@@XZ 0000000180026f40 f i GuCookingTetrahedronMesh.obj
 0001:00025f40       ?getCenter@?$LocalConvex@UCustomConvexV@@@Gu@physx@@UEBA?AT__m128@@XZ 0000000180026f40 f i GuGjkQuery.obj
 0001:00025f40       ?getCenter@?$LocalConvex@VConvexHullNoScaleV@Gu@physx@@@Gu@physx@@UEBA?AT__m128@@XZ 0000000180026f40 f i GuPCMContactBoxConvex.obj
 0001:00025f40       ?getCenter@?$LocalConvex@VCapsuleV@Gu@physx@@@Gu@physx@@UEBA?AT__m128@@XZ 0000000180026f40 f i GuMTD.obj
 0001:00025f40       ?getCenter@?$LocalConvex@UPointConvexV@@@Gu@physx@@UEBA?AT__m128@@XZ 0000000180026f40 f i GuGjkQuery.obj
 0001:00025f40       ?getCenter@?$LocalConvex@VTriangleV@Gu@physx@@@Gu@physx@@UEBA?AT__m128@@XZ 0000000180026f40 f i GuSweepTests.obj
 0001:00025f40       ?getCenter@?$LocalConvex@VBoxV@Gu@physx@@@Gu@physx@@UEBA?AT__m128@@XZ 0000000180026f40 f i GuSweepTests.obj
 0001:00025f50       ?getNumAxes@SeparatingAxes@Gu@physx@@QEBAIXZ 0000000180026f50 f i GuMTD.obj
 0001:00025f50       ?getNbActiveObjects@PruningPool@Gu@physx@@QEBAIXZ 0000000180026f50 f i GuIncrementalAABBPrunerCore.obj
 0001:00025f50       ?getCount@BuildStats@Gu@physx@@QEBAIXZ 0000000180026f50 f i GuBV4Build.obj
 0001:00025f60       ?getSweepMargin@?$RelativeConvex@VCapsuleV@Gu@physx@@@Gu@physx@@UEBA?AT__m128@@XZ 0000000180026f60 f i GuCCDSweepPrimitives.obj
 0001:00025f60       ?getSweepMargin@?$LocalConvex@VCapsuleV@Gu@physx@@@Gu@physx@@UEBA?AT__m128@@XZ 0000000180026f60 f i GuMTD.obj
 0001:00025f70       ?getSweepMargin@?$LocalConvex@UCustomConvexV@@@Gu@physx@@UEBA?AT__m128@@XZ 0000000180026f70 f i GuGjkQuery.obj
 0001:00025f70       ?getSweepMargin@?$RelativeConvex@VConvexHullNoScaleV@Gu@physx@@@Gu@physx@@UEBA?AT__m128@@XZ 0000000180026f70 f i GuPCMContactConvexConvex.obj
 0001:00025f70       ?getSweepMargin@?$RelativeConvex@VBoxV@Gu@physx@@@Gu@physx@@UEBA?AT__m128@@XZ 0000000180026f70 f i GuOverlapTests.obj
 0001:00025f70       ?getSweepMargin@?$LocalConvex@VConvexHullV@Gu@physx@@@Gu@physx@@UEBA?AT__m128@@XZ 0000000180026f70 f i GuMTD.obj
 0001:00025f70       ?getSweepMargin@?$LocalConvex@VBoxV@Gu@physx@@@Gu@physx@@UEBA?AT__m128@@XZ 0000000180026f70 f i GuSweepTests.obj
 0001:00025f70       ?getSweepMargin@?$RelativeConvex@UCustomConvexV@@@Gu@physx@@UEBA?AT__m128@@XZ 0000000180026f70 f i GuGjkQuery.obj
 0001:00025f70       ?getSweepMargin@?$LocalConvex@VConvexHullNoScaleV@Gu@physx@@@Gu@physx@@UEBA?AT__m128@@XZ 0000000180026f70 f i GuPCMContactBoxConvex.obj
 0001:00025f70       ?getSweepMargin@?$RelativeConvex@VConvexHullV@Gu@physx@@@Gu@physx@@UEBA?AT__m128@@XZ 0000000180026f70 f i GuOverlapTests.obj
 0001:00025f70       ?getSweepMargin@?$LocalConvex@UPointConvexV@@@Gu@physx@@UEBA?AT__m128@@XZ 0000000180026f70 f i GuGjkQuery.obj
 0001:00025f90       ?getSweepMargin@GjkConvex@Gu@physx@@UEBA?AT__m128@@XZ 0000000180026f90 f i GuMTD.obj
 0001:00025fb0       ?pointConvexDistance@@YA_NAEAV?$PxVec3T@M@physx@@0AEAMAEBV12@PEBVConvexMesh@Gu@2@AEBVPxMeshScale@2@AEBV?$PxTransformT@M@2@@Z 0000000180026fb0 f   GuMTD.obj
 0001:00026d10       ?reset@SeparatingAxes@Gu@physx@@QEAAXXZ 0000000180027d10 f i GuMTD.obj
 0001:00026d20       ?support@?$LocalConvex@VCapsuleV@Gu@physx@@@Gu@physx@@UEBA?AT__m128@@AEBT4@@Z 0000000180027d20 f i GuMTD.obj
 0001:00026d80       ?support@?$LocalConvex@VCapsuleV@Gu@physx@@@Gu@physx@@UEBA?AT__m128@@AEBT4@AEAH@Z 0000000180027d80 f i GuMTD.obj
 0001:00026df0       ?support@?$LocalConvex@VConvexHullV@Gu@physx@@@Gu@physx@@UEBA?AT__m128@@AEBT4@@Z 0000000180027df0 f i GuMTD.obj
 0001:00026ed0       ?support@?$LocalConvex@VConvexHullV@Gu@physx@@@Gu@physx@@UEBA?AT__m128@@AEBT4@AEAH@Z 0000000180027ed0 f i GuMTD.obj
 0001:00026fa0       ?support@GjkConvex@Gu@physx@@UEBA?AT__m128@@AEBT4@@Z 0000000180027fa0 f i GuMTD.obj
 0001:00026fc0       ?support@GjkConvex@Gu@physx@@UEBA?AT__m128@@AEBT4@AEAH@Z 0000000180027fc0 f i GuMTD.obj
 0001:00026fe0       ?supportPoint@?$LocalConvex@VCapsuleV@Gu@physx@@@Gu@physx@@UEBA?AT__m128@@H@Z 0000000180027fe0 f i GuMTD.obj
 0001:00027010       ?supportPoint@?$LocalConvex@VConvexHullV@Gu@physx@@@Gu@physx@@UEBA?AT__m128@@H@Z 0000000180028010 f i GuMTD.obj
 0001:00027060       ?supportPoint@GjkConvex@Gu@physx@@UEBA?AT__m128@@H@Z 0000000180028060 f i GuMTD.obj
 0001:00027080       ?supportPoint@?$RelativeConvex@VBoxV@Gu@physx@@@Gu@physx@@UEBA?AT__m128@@H@Z 0000000180028080 f i GuOverlapTests.obj
 0001:000270f0       ?support@?$RelativeConvex@VBoxV@Gu@physx@@@Gu@physx@@UEBA?AT__m128@@AEBT4@@Z 00000001800280f0 f i GuOverlapTests.obj
 0001:00027170       ?support@?$RelativeConvex@VBoxV@Gu@physx@@@Gu@physx@@UEBA?AT__m128@@AEBT4@AEAH@Z 0000000180028170 f i GuOverlapTests.obj
 0001:00027200       ?getCenter@?$RelativeConvex@VTriangleV@Gu@physx@@@Gu@physx@@UEBA?AT__m128@@XZ 0000000180028200 f i GuCCDSweepPrimitives.obj
 0001:00027200       ?getCenter@?$RelativeConvex@VConvexHullV@Gu@physx@@@Gu@physx@@UEBA?AT__m128@@XZ 0000000180028200 f i GuOverlapTests.obj
 0001:00027200       ?getCenter@?$RelativeConvex@VConvexHullNoScaleV@Gu@physx@@@Gu@physx@@UEBA?AT__m128@@XZ 0000000180028200 f i GuPCMContactConvexConvex.obj
 0001:00027200       ?getCenter@?$RelativeConvex@VCapsuleV@Gu@physx@@@Gu@physx@@UEBA?AT__m128@@XZ 0000000180028200 f i GuCCDSweepPrimitives.obj
 0001:00027200       ?getCenter@?$RelativeConvex@VBoxV@Gu@physx@@@Gu@physx@@UEBA?AT__m128@@XZ 0000000180028200 f i GuOverlapTests.obj
 0001:00027200       ?getCenter@?$RelativeConvex@UCustomConvexV@@@Gu@physx@@UEBA?AT__m128@@XZ 0000000180028200 f i GuGjkQuery.obj
 0001:00027240       ??_G?$RelativeConvex@VConvexHullNoScaleV@Gu@physx@@@Gu@physx@@UEAAPEAXI@Z 0000000180028240 f i GuPCMContactConvexConvex.obj
 0001:00027240       ??_G?$RelativeConvex@VBoxV@Gu@physx@@@Gu@physx@@UEAAPEAXI@Z 0000000180028240 f i GuOverlapTests.obj
 0001:00027240       ??_G?$RelativeConvex@UCustomConvexV@@@Gu@physx@@UEAAPEAXI@Z 0000000180028240 f i GuGjkQuery.obj
 0001:00027240       ??_E?$RelativeConvex@UCustomConvexV@@@Gu@physx@@UEAAPEAXI@Z 0000000180028240 f i GuGjkQuery.obj
 0001:00027240       ??_E?$RelativeConvex@VConvexHullNoScaleV@Gu@physx@@@Gu@physx@@UEAAPEAXI@Z 0000000180028240 f i GuPCMContactConvexConvex.obj
 0001:00027240       ??_E?$RelativeConvex@VBoxV@Gu@physx@@@Gu@physx@@UEAAPEAXI@Z 0000000180028240 f i GuOverlapTests.obj
 0001:00027240       ??_E?$RelativeConvex@VConvexHullV@Gu@physx@@@Gu@physx@@UEAAPEAXI@Z 0000000180028240 f i GuOverlapTests.obj
 0001:00027240       ??_G?$RelativeConvex@VConvexHullV@Gu@physx@@@Gu@physx@@UEAAPEAXI@Z 0000000180028240 f i GuOverlapTests.obj
 0001:00027240       ??_E?$RelativeConvex@VCapsuleV@Gu@physx@@@Gu@physx@@UEAAPEAXI@Z 0000000180028240 f i GuCCDSweepPrimitives.obj
 0001:00027240       ??_G?$RelativeConvex@VCapsuleV@Gu@physx@@@Gu@physx@@UEAAPEAXI@Z 0000000180028240 f i GuCCDSweepPrimitives.obj
 0001:00027240       ??_G?$RelativeConvex@VTriangleV@Gu@physx@@@Gu@physx@@UEAAPEAXI@Z 0000000180028240 f i GuCCDSweepPrimitives.obj
 0001:00027240       ??_E?$RelativeConvex@VTriangleV@Gu@physx@@@Gu@physx@@UEAAPEAXI@Z 0000000180028240 f i GuCCDSweepPrimitives.obj
 0001:000293b0       ?supportPoint@?$RelativeConvex@VConvexHullV@Gu@physx@@@Gu@physx@@UEBA?AT__m128@@H@Z 000000018002a3b0 f i GuOverlapTests.obj
 0001:00029430       ?support@?$RelativeConvex@VConvexHullV@Gu@physx@@@Gu@physx@@UEBA?AT__m128@@AEBT4@@Z 000000018002a430 f i GuOverlapTests.obj
 0001:00029560       ?support@?$RelativeConvex@VConvexHullV@Gu@physx@@@Gu@physx@@UEBA?AT__m128@@AEBT4@AEAH@Z 000000018002a560 f i GuOverlapTests.obj
 0001:00029730       ??$gjk@U?$RelativeConvex@VBoxV@Gu@physx@@@Gu@physx@@U?$LocalConvex@VConvexHullV@Gu@physx@@@23@@Gu@physx@@YA?AW4GjkStatus@01@AEBU?$RelativeConvex@VBoxV@Gu@physx@@@01@AEBU?$LocalConvex@VConvexHullV@Gu@physx@@@01@AEBT__m128@@2AEAT5@333@Z 000000018002a730 f i GuOverlapTests.obj
 0001:0002a4f0       ??$gjk@U?$RelativeConvex@VConvexHullV@Gu@physx@@@Gu@physx@@U?$LocalConvex@VConvexHullV@Gu@physx@@@23@@Gu@physx@@YA?AW4GjkStatus@01@AEBU?$RelativeConvex@VConvexHullV@Gu@physx@@@01@AEBU?$LocalConvex@VConvexHullV@Gu@physx@@@01@AEBT__m128@@2AEAT5@333@Z 000000018002b4f0 f i GuOverlapTests.obj
 0001:0002b370       ?ComputeCubemapNearestOffset@physx@@YAIAEBV?$PxVec3T@M@1@I@Z 000000018002c370 f i GuOverlapTests.obj
 0001:0002b470       ?getOverlapFuncTable@Gu@physx@@YAPEAY0L@Q6A_NAEBVPxGeometry@2@AEBV?$PxTransformT@M@2@01PEAUTriggerCache@12@PEAUPxQueryThreadContext@2@@ZXZ 000000018002c470 f   GuOverlapTests.obj
 0001:0002d010       ?registerHeightFields@Gu@physx@@YAXXZ 000000018002e010 f   GuOverlapTests.obj
 0001:0002d060       ?raycast_box@@YAIAEBVPxGeometry@physx@@AEBV?$PxTransformT@M@2@AEBV?$PxVec3T@M@2@2MV?$PxFlags@W4Enum@PxHitFlag@physx@@G@2@IPEIAUPxGeomRaycastHit@2@IPEAUPxQueryThreadContext@2@@Z 000000018002e060 f   GuRaycastTests.obj
 0001:0002d690       ?raycast_sphere@@YAIAEBVPxGeometry@physx@@AEBV?$PxTransformT@M@2@AEBV?$PxVec3T@M@2@2MV?$PxFlags@W4Enum@PxHitFlag@physx@@G@2@IPEIAUPxGeomRaycastHit@2@IPEAUPxQueryThreadContext@2@@Z 000000018002e690 f   GuRaycastTests.obj
 0001:0002d820       ?raycast_capsule@@YAIAEBVPxGeometry@physx@@AEBV?$PxTransformT@M@2@AEBV?$PxVec3T@M@2@2MV?$PxFlags@W4Enum@PxHitFlag@physx@@G@2@IPEIAUPxGeomRaycastHit@2@IPEAUPxQueryThreadContext@2@@Z 000000018002e820 f   GuRaycastTests.obj
 0001:0002dd80       ?raycast_plane@@YAIAEBVPxGeometry@physx@@AEBV?$PxTransformT@M@2@AEBV?$PxVec3T@M@2@2MV?$PxFlags@W4Enum@PxHitFlag@physx@@G@2@IPEIAUPxGeomRaycastHit@2@IPEAUPxQueryThreadContext@2@@Z 000000018002ed80 f   GuRaycastTests.obj
 0001:0002def0       ?raycast_convexMesh@@YAIAEBVPxGeometry@physx@@AEBV?$PxTransformT@M@2@AEBV?$PxVec3T@M@2@2MV?$PxFlags@W4Enum@PxHitFlag@physx@@G@2@IPEIAUPxGeomRaycastHit@2@IPEAUPxQueryThreadContext@2@@Z 000000018002eef0 f   GuRaycastTests.obj
 0001:0002ea00       ?raycast_hairsystem@@YAIAEBVPxGeometry@physx@@AEBV?$PxTransformT@M@2@AEBV?$PxVec3T@M@2@2MV?$PxFlags@W4Enum@PxHitFlag@physx@@G@2@IPEIAUPxGeomRaycastHit@2@IPEAUPxQueryThreadContext@2@@Z 000000018002fa00 f   GuRaycastTests.obj
 0001:0002ea00       ?raycast_softbody@@YAIAEBVPxGeometry@physx@@AEBV?$PxTransformT@M@2@AEBV?$PxVec3T@M@2@2MV?$PxFlags@W4Enum@PxHitFlag@physx@@G@2@IPEIAUPxGeomRaycastHit@2@IPEAUPxQueryThreadContext@2@@Z 000000018002fa00 f   GuRaycastTests.obj
 0001:0002ea00       ?getMidphaseID@RTreeTriangleMeshBuilder@physx@@UEBA?AW4Enum@PxMeshMidPhase@2@XZ 000000018002fa00 f   GuCookingTriangleMesh.obj
 0001:0002ea00       ?getMidphaseID@RTreeTriangleMesh@Gu@physx@@UEBA?AW4Enum@PxMeshMidPhase@3@XZ 000000018002fa00 f   GuTriangleMeshRTree.obj
 0001:0002ea00       ?raycast_particlesystem@@YAIAEBVPxGeometry@physx@@AEBV?$PxTransformT@M@2@AEBV?$PxVec3T@M@2@2MV?$PxFlags@W4Enum@PxHitFlag@physx@@G@2@IPEIAUPxGeomRaycastHit@2@IPEAUPxQueryThreadContext@2@@Z 000000018002fa00 f   GuRaycastTests.obj
 0001:0002ea00       ?getTetrahedraRemap@TetrahedronMesh@Gu@physx@@UEBAPEBIXZ 000000018002fa00 f   GuTetrahedronMesh.obj
 0001:0002ea10       ?raycast_triangleMesh@@YAIAEBVPxGeometry@physx@@AEBV?$PxTransformT@M@2@AEBV?$PxVec3T@M@2@2MV?$PxFlags@W4Enum@PxHitFlag@physx@@G@2@IPEIAUPxGeomRaycastHit@2@IPEAUPxQueryThreadContext@2@@Z 000000018002fa10 f   GuRaycastTests.obj
 0001:0002fdf0       ??Dphysx@@YA?AV?$PxMat34T@M@0@AEBVPxMeshScale@0@AEBV?$PxTransformT@M@0@@Z 0000000180030df0 f i GuRaycastTests.obj
 0001:000308d0       ?getRaycastFuncTable@Gu@physx@@YAAEAY0L@Q6AIAEBVPxGeometry@2@AEBV?$PxTransformT@M@2@AEBV?$PxVec3T@M@2@2MV?$PxFlags@W4Enum@PxHitFlag@physx@@G@2@IPEIAUPxGeomRaycastHit@2@IPEAUPxQueryThreadContext@2@@ZXZ 00000001800318d0 f   GuRaycastTests.obj
 0001:000308e0       ?raycast_heightField@@YAIAEBVPxGeometry@physx@@AEBV?$PxTransformT@M@2@AEBV?$PxVec3T@M@2@2MV?$PxFlags@W4Enum@PxHitFlag@physx@@G@2@IPEIAUPxGeomRaycastHit@2@IPEAUPxQueryThreadContext@2@@Z 00000001800318e0 f   GuRaycastTests.obj
 0001:00031020       ?registerHeightFields_Raycasts@@YAXXZ 0000000180032020 f   GuRaycastTests.obj
 0001:00031030       ??Dphysx@@YA?AV?$PxMat34T@M@0@AEBV?$PxTransformT@M@0@AEBVPxMeshScale@0@@Z 0000000180032030 f i GuSweepMTD.obj
 0001:00031570       ??_E?$MeshHitCallback@UPxGeomRaycastHit@physx@@@Gu@physx@@UEAAPEAXI@Z 0000000180032570 f i GuSweepMTD.obj
 0001:00031570       ??_G?$MeshHitCallback@UPxGeomRaycastHit@physx@@@Gu@physx@@UEAAPEAXI@Z 0000000180032570 f i GuSweepMTD.obj
 0001:000315a0       ??_GMeshMTDGenerationCallback@@UEAAPEAXI@Z 00000001800325a0 f i GuSweepMTD.obj
 0001:000315a0       ??_EMeshMTDGenerationCallback@@UEAAPEAXI@Z 00000001800325a0 f i GuSweepMTD.obj
 0001:000315d0       ??_GMidPhaseQueryLocalReport@@UEAAPEAXI@Z 00000001800325d0 f i GuSweepMTD.obj
 0001:000315d0       ??_ERTreeCookerRemap@@UEAAPEAXI@Z 00000001800325d0 f i GuCookingTriangleMesh.obj
 0001:000315d0       ??_GRTreeCookerRemap@@UEAAPEAXI@Z 00000001800325d0 f i GuCookingTriangleMesh.obj
 0001:000315d0       ??_EMidPhaseQueryLocalReport@@UEAAPEAXI@Z 00000001800325d0 f i GuSweepMTD.obj
 0001:00031600       ?allocate@?$PxArray@IV?$PxReflectionAllocator@I@physx@@@physx@@IEAAPEAII@Z 0000000180032600 f i GuSweepMTD.obj
 0001:000316b0       ?computeBox_HeightFieldMTD@Gu@physx@@YA_NAEBVPxHeightFieldGeometry@2@AEBV?$PxTransformT@M@2@AEBVBox@12@1M_NAEAUPxGeomSweepHit@2@@Z 00000001800326b0 f   GuSweepMTD.obj
 0001:00032430       ?computeBox_TriangleMeshMTD@Gu@physx@@YA_NAEBVPxTriangleMeshGeometry@2@AEBV?$PxTransformT@M@2@AEBVBox@12@1M_NAEAUPxGeomSweepHit@2@@Z 0000000180033430 f   GuSweepMTD.obj
 0001:000333e0       ?computeCapsule_CapsuleMTD@Gu@physx@@YA_NAEBVCapsule@12@0AEAUPxGeomSweepHit@2@@Z 00000001800343e0 f   GuSweepMTD.obj
 0001:00033620       ?computeCapsule_HeightFieldMTD@Gu@physx@@YA_NAEBVPxHeightFieldGeometry@2@AEBV?$PxTransformT@M@2@AEAVCapsuleV@12@M_NAEAUPxGeomSweepHit@2@@Z 0000000180034620 f   GuSweepMTD.obj
 0001:00033e00       ?computeCapsule_TriangleMeshMTD@Gu@physx@@YA_NAEBVPxTriangleMeshGeometry@2@AEBV?$PxTransformT@M@2@AEAVCapsuleV@12@M_NAEAUPxGeomSweepHit@2@@Z 0000000180034e00 f   GuSweepMTD.obj
 0001:000346c0       ?computeConvex_HeightFieldMTD@Gu@physx@@YA_NAEBVPxHeightFieldGeometry@2@AEBV?$PxTransformT@M@2@AEBVPxConvexMeshGeometry@2@1M_NAEAUPxGeomSweepHit@2@@Z 00000001800356c0 f   GuSweepMTD.obj
 0001:00035990       ?computeConvex_TriangleMeshMTD@Gu@physx@@YA_NAEBVPxTriangleMeshGeometry@2@AEBV?$PxTransformT@M@2@AEBVPxConvexMeshGeometry@2@1M_NAEAUPxGeomSweepHit@2@@Z 0000000180036990 f   GuSweepMTD.obj
 0001:00036f10       ?computePlane_BoxMTD@Gu@physx@@YA_NAEBVPxPlane@2@AEBVBox@12@AEAUPxGeomSweepHit@2@@Z 0000000180037f10 f   GuSweepMTD.obj
 0001:00037240       ?computePlane_CapsuleMTD@Gu@physx@@YA_NAEBVPxPlane@2@AEBVCapsule@12@AEAUPxGeomSweepHit@2@@Z 0000000180038240 f   GuSweepMTD.obj
 0001:00037360       ?computePlane_ConvexMTD@Gu@physx@@YA_NAEBVPxPlane@2@AEBVPxConvexMeshGeometry@2@AEBV?$PxTransformT@M@2@AEAUPxGeomSweepHit@2@@Z 0000000180038360 f   GuSweepMTD.obj
 0001:00037ed0       ?computeSphere_CapsuleMTD@Gu@physx@@YA_NAEBVSphere@12@AEBVCapsule@12@AEAUPxGeomSweepHit@2@@Z 0000000180038ed0 f   GuSweepMTD.obj
 0001:00038080       ?computeSphere_SphereMTD@Gu@physx@@YA_NAEBVSphere@12@0AEAUPxGeomSweepHit@2@@Z 0000000180039080 f   GuSweepMTD.obj
 0001:00038170       ?getInverse@?$PxMat33T@M@physx@@QEBA?BV12@XZ 0000000180039170 f i GuSweepMTD.obj
 0001:000383c0       ?growAndPushBack@?$PxArray@IV?$PxReflectionAllocator@I@physx@@@physx@@IEAAAEAIAEBI@Z 00000001800393c0 f i GuSweepMTD.obj
 0001:00038480       ?init@FastVertex2ShapeScaling@Cm@physx@@QEAAXAEBV?$PxVec3T@M@3@AEBV?$PxQuatT@M@3@@Z 0000000180039480 f i GuSweepMTD.obj
 0001:00038d50       ?processHit@MeshMTDGenerationCallback@@UEAA_NAEBUPxGeomRaycastHit@physx@@AEBV?$PxVec3T@M@3@11AEAMPEBI@Z 0000000180039d50 f i GuSweepMTD.obj
 0001:00038da0       ?recreate@?$PxArray@IV?$PxReflectionAllocator@I@physx@@@physx@@IEAAXI@Z 0000000180039da0 f i GuSweepMTD.obj
 0001:00038e40       ?reportTouchedTris@MidPhaseQueryLocalReport@@UEAA_NIPEBI@Z 0000000180039e40 f i GuSweepMTD.obj
 0001:00038eb0       ??$gjkPenetration@U?$LocalConvex@VCapsuleV@Gu@physx@@@Gu@physx@@U?$LocalConvex@VConvexHullV@Gu@physx@@@23@@Gu@physx@@YA?AW4GjkStatus@01@AEBU?$LocalConvex@VCapsuleV@Gu@physx@@@01@AEBU?$LocalConvex@VConvexHullV@Gu@physx@@@01@AEBT__m128@@2_NPEIAE4AEAEAEAUGjkOutput@01@@Z 0000000180039eb0 f i GuSweepSharedTests.obj
 0001:00038f20       ??$gjkPenetration@U?$LocalConvex@VCapsuleV@Gu@physx@@@Gu@physx@@U?$LocalConvex@VConvexHullV@Gu@physx@@@23@@Gu@physx@@YA?AW4GjkStatus@01@AEBU?$LocalConvex@VCapsuleV@Gu@physx@@@01@AEBU?$LocalConvex@VConvexHullV@Gu@physx@@@01@AEBT__m128@@2_NPEIAE4PEIAT5@5AEAEAEAUGjkOutput@01@@Z 0000000180039f20 f i GuSweepSharedTests.obj
 0001:0003a440       ??$gjkPenetration@U?$RelativeConvex@VBoxV@Gu@physx@@@Gu@physx@@U?$LocalConvex@VConvexHullV@Gu@physx@@@23@@Gu@physx@@YA?AW4GjkStatus@01@AEBU?$RelativeConvex@VBoxV@Gu@physx@@@01@AEBU?$LocalConvex@VConvexHullV@Gu@physx@@@01@AEBT__m128@@2_NPEIAE4AEAEAEAUGjkOutput@01@@Z 000000018003b440 f i GuSweepSharedTests.obj
 0001:0003a4b0       ??$gjkPenetration@U?$RelativeConvex@VBoxV@Gu@physx@@@Gu@physx@@U?$LocalConvex@VConvexHullV@Gu@physx@@@23@@Gu@physx@@YA?AW4GjkStatus@01@AEBU?$RelativeConvex@VBoxV@Gu@physx@@@01@AEBU?$LocalConvex@VConvexHullV@Gu@physx@@@01@AEBT__m128@@2_NPEIAE4PEIAT5@5AEAEAEAUGjkOutput@01@@Z 000000018003b4b0 f i GuSweepSharedTests.obj
 0001:0003ba10       ??$gjkPenetration@U?$RelativeConvex@VConvexHullV@Gu@physx@@@Gu@physx@@U?$LocalConvex@VConvexHullV@Gu@physx@@@23@@Gu@physx@@YA?AW4GjkStatus@01@AEBU?$RelativeConvex@VConvexHullV@Gu@physx@@@01@AEBU?$LocalConvex@VConvexHullV@Gu@physx@@@01@AEBT__m128@@2_NPEIAE4AEAEAEAUGjkOutput@01@@Z 000000018003ca10 f i GuSweepSharedTests.obj
 0001:0003ba80       ??$gjkPenetration@U?$RelativeConvex@VConvexHullV@Gu@physx@@@Gu@physx@@U?$LocalConvex@VConvexHullV@Gu@physx@@@23@@Gu@physx@@YA?AW4GjkStatus@01@AEBU?$RelativeConvex@VConvexHullV@Gu@physx@@@01@AEBU?$LocalConvex@VConvexHullV@Gu@physx@@@01@AEBT__m128@@2_NPEIAE4PEIAT5@5AEAEAEAUGjkOutput@01@@Z 000000018003ca80 f i GuSweepSharedTests.obj
 0001:0003d090       ??$gjkRaycast@U?$LocalConvex@VCapsuleV@Gu@physx@@@Gu@physx@@U?$LocalConvex@VConvexHullV@Gu@physx@@@23@@Gu@physx@@YA_NAEBU?$LocalConvex@VCapsuleV@Gu@physx@@@01@AEBU?$LocalConvex@VConvexHullV@Gu@physx@@@01@AEBT__m128@@222AEAT4@33M@Z 000000018003e090 f i GuSweepSharedTests.obj
 0001:0003dda0       ??$gjkRaycast@U?$RelativeConvex@VBoxV@Gu@physx@@@Gu@physx@@U?$LocalConvex@VConvexHullV@Gu@physx@@@23@@Gu@physx@@YA_NAEBU?$RelativeConvex@VBoxV@Gu@physx@@@01@AEBU?$LocalConvex@VConvexHullV@Gu@physx@@@01@AEBT__m128@@222AEAT4@33M@Z 000000018003eda0 f i GuSweepSharedTests.obj
 0001:0003eb50       ??$gjkRaycast@U?$RelativeConvex@VConvexHullV@Gu@physx@@@Gu@physx@@U?$LocalConvex@VConvexHullV@Gu@physx@@@23@@Gu@physx@@YA_NAEBU?$RelativeConvex@VConvexHullV@Gu@physx@@@01@AEBU?$LocalConvex@VConvexHullV@Gu@physx@@@01@AEBT__m128@@222AEAT4@33M@Z 000000018003fb50 f i GuSweepSharedTests.obj
 0001:0003f9f0       ??$gjkRaycastPenetration@U?$RelativeConvex@VConvexHullV@Gu@physx@@@Gu@physx@@U?$LocalConvex@VConvexHullV@Gu@physx@@@23@@Gu@physx@@YA_NAEBU?$RelativeConvex@VConvexHullV@Gu@physx@@@01@AEBU?$LocalConvex@VConvexHullV@Gu@physx@@@01@AEBT__m128@@222AEAT4@33M_N@Z 00000001800409f0 f i GuSweepSharedTests.obj
 0001:00040620       ?sweepBox_ConvexGeom@@YA_NAEBVPxGeometry@physx@@AEBV?$PxTransformT@M@2@AEBVPxBoxGeometry@2@1AEBVBox@Gu@2@AEBV?$PxVec3T@M@2@MAEAUPxGeomSweepHit@2@V?$PxFlags@W4Enum@PxHitFlag@physx@@G@2@MPEAUPxQueryThreadContext@2@@Z 0000000180041620 f   GuSweepSharedTests.obj
 0001:00041420       ?sweepBox_PlaneGeom@@YA_NAEBVPxGeometry@physx@@AEBV?$PxTransformT@M@2@AEBVPxBoxGeometry@2@1AEBVBox@Gu@2@AEBV?$PxVec3T@M@2@MAEAUPxGeomSweepHit@2@V?$PxFlags@W4Enum@PxHitFlag@physx@@G@2@MPEAUPxQueryThreadContext@2@@Z 0000000180042420 f   GuSweepSharedTests.obj
 0001:000418c0       ?sweepCapsuleTriangles@Gu@physx@@YA_NIPEBVPxTriangle@2@_NAEBVPxCapsuleGeometry@2@AEBV?$PxTransformT@M@2@AEBV?$PxVec3T@M@2@MAEAUPxGeomSweepHit@2@PEBIMV?$PxFlags@W4Enum@PxHitFlag@physx@@G@2@@Z 00000001800428c0 f   GuSweepSharedTests.obj
 0001:00041ab0       ?sweepCapsule_CapsuleGeom@@YA_NAEBVPxGeometry@physx@@AEBV?$PxTransformT@M@2@AEBVPxCapsuleGeometry@2@1AEBVCapsule@Gu@2@AEBV?$PxVec3T@M@2@MAEAUPxGeomSweepHit@2@V?$PxFlags@W4Enum@PxHitFlag@physx@@G@2@MPEAUPxQueryThreadContext@2@@Z 0000000180042ab0 f   GuSweepSharedTests.obj
 0001:00041c90       ?sweepCapsule_ConvexGeom@@YA_NAEBVPxGeometry@physx@@AEBV?$PxTransformT@M@2@AEBVPxCapsuleGeometry@2@1AEBVCapsule@Gu@2@AEBV?$PxVec3T@M@2@MAEAUPxGeomSweepHit@2@V?$PxFlags@W4Enum@PxHitFlag@physx@@G@2@MPEAUPxQueryThreadContext@2@@Z 0000000180042c90 f   GuSweepSharedTests.obj
 0001:000429e0       ?sweepCapsule_PlaneGeom@@YA_NAEBVPxGeometry@physx@@AEBV?$PxTransformT@M@2@AEBVPxCapsuleGeometry@2@1AEBVCapsule@Gu@2@AEBV?$PxVec3T@M@2@MAEAUPxGeomSweepHit@2@V?$PxFlags@W4Enum@PxHitFlag@physx@@G@2@MPEAUPxQueryThreadContext@2@@Z 00000001800439e0 f   GuSweepSharedTests.obj
 0001:00042cd0       ?sweepCapsule_SphereGeom@@YA_NAEBVPxGeometry@physx@@AEBV?$PxTransformT@M@2@AEBVPxCapsuleGeometry@2@1AEBVCapsule@Gu@2@AEBV?$PxVec3T@M@2@MAEAUPxGeomSweepHit@2@V?$PxFlags@W4Enum@PxHitFlag@physx@@G@2@MPEAUPxQueryThreadContext@2@@Z 0000000180043cd0 f   GuSweepSharedTests.obj
 0001:00042e60       ?sweepConvex_BoxGeom@@YA_NAEBVPxGeometry@physx@@AEBV?$PxTransformT@M@2@AEBVPxConvexMeshGeometry@2@1AEBV?$PxVec3T@M@2@MAEAUPxGeomSweepHit@2@V?$PxFlags@W4Enum@PxHitFlag@physx@@G@2@MPEAUPxQueryThreadContext@2@@Z 0000000180043e60 f   GuSweepSharedTests.obj
 0001:00043080       ?sweepConvex_CapsuleGeom@@YA_NAEBVPxGeometry@physx@@AEBV?$PxTransformT@M@2@AEBVPxConvexMeshGeometry@2@1AEBV?$PxVec3T@M@2@MAEAUPxGeomSweepHit@2@V?$PxFlags@W4Enum@PxHitFlag@physx@@G@2@MPEAUPxQueryThreadContext@2@@Z 0000000180044080 f   GuSweepSharedTests.obj
 0001:000432b0       ?sweepConvex_ConvexGeom@@YA_NAEBVPxGeometry@physx@@AEBV?$PxTransformT@M@2@AEBVPxConvexMeshGeometry@2@1AEBV?$PxVec3T@M@2@MAEAUPxGeomSweepHit@2@V?$PxFlags@W4Enum@PxHitFlag@physx@@G@2@MPEAUPxQueryThreadContext@2@@Z 00000001800442b0 f   GuSweepSharedTests.obj
 0001:00044220       ?sweepConvex_PlaneGeom@@YA_NAEBVPxGeometry@physx@@AEBV?$PxTransformT@M@2@AEBVPxConvexMeshGeometry@2@1AEBV?$PxVec3T@M@2@MAEAUPxGeomSweepHit@2@V?$PxFlags@W4Enum@PxHitFlag@physx@@G@2@MPEAUPxQueryThreadContext@2@@Z 0000000180045220 f   GuSweepSharedTests.obj
 0001:00044670       ?sweepConvex_SphereGeom@@YA_NAEBVPxGeometry@physx@@AEBV?$PxTransformT@M@2@AEBVPxConvexMeshGeometry@2@1AEBV?$PxVec3T@M@2@MAEAUPxGeomSweepHit@2@V?$PxFlags@W4Enum@PxHitFlag@physx@@G@2@MPEAUPxQueryThreadContext@2@@Z 0000000180045670 f   GuSweepSharedTests.obj
 0001:00045270       ?sweepCapsule_BoxGeom@@YA_NAEBVPxGeometry@physx@@AEBV?$PxTransformT@M@2@AEBVPxCapsuleGeometry@2@1AEBVCapsule@Gu@2@AEBV?$PxVec3T@M@2@MAEAUPxGeomSweepHit@2@V?$PxFlags@W4Enum@PxHitFlag@physx@@G@2@MPEAUPxQueryThreadContext@2@@Z 0000000180046270 f   GuSweepTests.obj
 0001:00045b20       ?sweepBox_SphereGeom@@YA_NAEBVPxGeometry@physx@@AEBV?$PxTransformT@M@2@AEBVPxBoxGeometry@2@1AEBVBox@Gu@2@AEBV?$PxVec3T@M@2@MAEAUPxGeomSweepHit@2@V?$PxFlags@W4Enum@PxHitFlag@physx@@G@2@MPEAUPxQueryThreadContext@2@@Z 0000000180046b20 f   GuSweepTests.obj
 0001:00046200       ?sweepBox_CapsuleGeom@@YA_NAEBVPxGeometry@physx@@AEBV?$PxTransformT@M@2@AEBVPxBoxGeometry@2@1AEBVBox@Gu@2@AEBV?$PxVec3T@M@2@MAEAUPxGeomSweepHit@2@V?$PxFlags@W4Enum@PxHitFlag@physx@@G@2@MPEAUPxQueryThreadContext@2@@Z 0000000180047200 f   GuSweepTests.obj
 0001:00046ab0       ?sweepBox_BoxGeom@@YA_NAEBVPxGeometry@physx@@AEBV?$PxTransformT@M@2@AEBVPxBoxGeometry@2@1AEBVBox@Gu@2@AEBV?$PxVec3T@M@2@MAEAUPxGeomSweepHit@2@V?$PxFlags@W4Enum@PxHitFlag@physx@@G@2@MPEAUPxQueryThreadContext@2@@Z 0000000180047ab0 f   GuSweepTests.obj
 0001:00047590       ??$gjkPenetration@U?$LocalConvex@VCapsuleV@Gu@physx@@@Gu@physx@@U?$LocalConvex@VBoxV@Gu@physx@@@23@@Gu@physx@@YA?AW4GjkStatus@01@AEBU?$LocalConvex@VCapsuleV@Gu@physx@@@01@AEBU?$LocalConvex@VBoxV@Gu@physx@@@01@AEBT__m128@@2_NPEIAE4AEAEAEAUGjkOutput@01@@Z 0000000180048590 f i GuSweepTests.obj
 0001:00047600       ??$gjkPenetration@U?$LocalConvex@VCapsuleV@Gu@physx@@@Gu@physx@@U?$LocalConvex@VBoxV@Gu@physx@@@23@@Gu@physx@@YA?AW4GjkStatus@01@AEBU?$LocalConvex@VCapsuleV@Gu@physx@@@01@AEBU?$LocalConvex@VBoxV@Gu@physx@@@01@AEBT__m128@@2_NPEIAE4PEIAT5@5AEAEAEAUGjkOutput@01@@Z 0000000180048600 f i GuSweepTests.obj
 0001:00048a40       ??$gjkPenetration@U?$RelativeConvex@VBoxV@Gu@physx@@@Gu@physx@@U?$LocalConvex@VBoxV@Gu@physx@@@23@@Gu@physx@@YA?AW4GjkStatus@01@AEBU?$RelativeConvex@VBoxV@Gu@physx@@@01@AEBU?$LocalConvex@VBoxV@Gu@physx@@@01@AEBT__m128@@2_NPEIAE4AEAEAEAUGjkOutput@01@@Z 0000000180049a40 f i GuSweepTests.obj
 0001:00048ab0       ??$gjkPenetration@U?$RelativeConvex@VBoxV@Gu@physx@@@Gu@physx@@U?$LocalConvex@VBoxV@Gu@physx@@@23@@Gu@physx@@YA?AW4GjkStatus@01@AEBU?$RelativeConvex@VBoxV@Gu@physx@@@01@AEBU?$LocalConvex@VBoxV@Gu@physx@@@01@AEBT__m128@@2_NPEIAE4PEIAT5@5AEAEAEAUGjkOutput@01@@Z 0000000180049ab0 f i GuSweepTests.obj
 0001:00049f40       ??$gjkRaycast@U?$LocalConvex@VCapsuleV@Gu@physx@@@Gu@physx@@U?$LocalConvex@VBoxV@Gu@physx@@@23@@Gu@physx@@YA_NAEBU?$LocalConvex@VCapsuleV@Gu@physx@@@01@AEBU?$LocalConvex@VBoxV@Gu@physx@@@01@AEBT__m128@@222AEAT4@33M@Z 000000018004af40 f i GuSweepTests.obj
 0001:0004aae0       ??$gjkRaycast@U?$LocalConvex@VTriangleV@Gu@physx@@@Gu@physx@@U?$LocalConvex@VBoxV@Gu@physx@@@23@@Gu@physx@@YA_NAEBU?$LocalConvex@VTriangleV@Gu@physx@@@01@AEBU?$LocalConvex@VBoxV@Gu@physx@@@01@AEBT__m128@@222AEAT4@33M@Z 000000018004bae0 f i GuSweepTests.obj
 0001:0004b740       ??$gjkRaycast@U?$RelativeConvex@VBoxV@Gu@physx@@@Gu@physx@@U?$LocalConvex@VBoxV@Gu@physx@@@23@@Gu@physx@@YA_NAEBU?$RelativeConvex@VBoxV@Gu@physx@@@01@AEBU?$LocalConvex@VBoxV@Gu@physx@@@01@AEBT__m128@@222AEAT4@33M@Z 000000018004c740 f i GuSweepTests.obj
 0001:0004c370       ?getSweepFuncTable@Gu@physx@@YAAEBUGeomSweepFuncs@12@XZ 000000018004d370 f   GuSweepTests.obj
 0001:0004c380       ?getSweepMargin@?$LocalConvex@VTetrahedronV@Gu@physx@@@Gu@physx@@UEBA?AT__m128@@XZ 000000018004d380 f i GuCookingTetrahedronMesh.obj
 0001:0004c380       ?getSweepMargin@?$LocalConvex@VTriangleV@Gu@physx@@@Gu@physx@@UEBA?AT__m128@@XZ 000000018004d380 f i GuSweepTests.obj
 0001:0004c380       ?getSweepMargin@?$RelativeConvex@VTriangleV@Gu@physx@@@Gu@physx@@UEBA?AT__m128@@XZ 000000018004d380 f i GuCCDSweepPrimitives.obj
 0001:0004c390       ?registerHeightFields_Sweeps@@YAXXZ 000000018004d390 f   GuSweepTests.obj
 0001:0004c3d0       ?support@?$LocalConvex@VBoxV@Gu@physx@@@Gu@physx@@UEBA?AT__m128@@AEBT4@@Z 000000018004d3d0 f i GuSweepTests.obj
 0001:0004c400       ?support@?$LocalConvex@VBoxV@Gu@physx@@@Gu@physx@@UEBA?AT__m128@@AEBT4@AEAH@Z 000000018004d400 f i GuSweepTests.obj
 0001:0004c440       ?support@?$LocalConvex@VTriangleV@Gu@physx@@@Gu@physx@@UEBA?AT__m128@@AEBT4@@Z 000000018004d440 f i GuSweepTests.obj
 0001:0004c4d0       ?support@?$LocalConvex@VTriangleV@Gu@physx@@@Gu@physx@@UEBA?AT__m128@@AEBT4@AEAH@Z 000000018004d4d0 f i GuSweepTests.obj
 0001:0004c5b0       ?supportPoint@?$LocalConvex@VBoxV@Gu@physx@@@Gu@physx@@UEBA?AT__m128@@H@Z 000000018004d5b0 f i GuSweepTests.obj
 0001:0004c5f0       ?supportPoint@?$LocalConvex@VTetrahedronV@Gu@physx@@@Gu@physx@@UEBA?AT__m128@@H@Z 000000018004d5f0 f i GuCookingTetrahedronMesh.obj
 0001:0004c5f0       ?supportPoint@?$LocalConvex@VTriangleV@Gu@physx@@@Gu@physx@@UEBA?AT__m128@@H@Z 000000018004d5f0 f i GuSweepTests.obj
 0001:0004c610       ?sweepBoxTriangles@Gu@physx@@YA_NIPEBVPxTriangle@2@_NAEBVPxBoxGeometry@2@AEBV?$PxTransformT@M@2@AEBV?$PxVec3T@M@2@MAEAUPxGeomSweepHit@2@PEBIMV?$PxFlags@W4Enum@PxHitFlag@physx@@G@2@@Z 000000018004d610 f   GuSweepTests.obj
 0001:0004d080       ??$traverseBVH@VClosestDistanceToTrimeshTraversalController@Gu@physx@@@Gu@physx@@YAXPEBUBVHNode@01@AEAVClosestDistanceToTrimeshTraversalController@01@H@Z 000000018004e080 f i GuSDF.obj
 0001:0004d4a0       ??$traverseBVH@VLineSegmentTrimeshIntersectionTraversalController@Gu@physx@@@Gu@physx@@YAXPEBUBVHNode@01@AEAVLineSegmentTrimeshIntersectionTraversalController@01@H@Z 000000018004e4a0 f i GuSDF.obj
 0001:0004d9b0       ??1SDF@Gu@physx@@QEAA@XZ   000000018004e9b0 f   GuSDF.obj
 0001:0004da40       ??_E?$PxThreadT@V?$PxReflectionAllocator@VPxThreadImpl@physx@@@physx@@@physx@@UEAAPEAXI@Z 000000018004ea40 f i GuSDF.obj
 0001:0004da40       ??_G?$PxThreadT@V?$PxReflectionAllocator@VPxThreadImpl@physx@@@physx@@@physx@@UEAAPEAXI@Z 000000018004ea40 f i GuSDF.obj
 0001:0004dae0       ??_GPxRunnable@physx@@UEAAPEAXI@Z 000000018004eae0 f i GuSDF.obj
 0001:0004dae0       ??_EPxRunnable@physx@@UEAAPEAXI@Z 000000018004eae0 f i GuSDF.obj
 0001:0004db10       ?SDFUsingWindingNumbers@Gu@physx@@YAXAEAV?$PxArray@UBVHNode@Gu@physx@@V?$PxReflectionAllocator@UBVHNode@Gu@physx@@@3@@2@AEAV?$PxHashMap@IU?$ClusterApproximationT@MV?$PxVec3T@M@physx@@@Gu@physx@@U?$PxHash@I@3@VPxAllocator@3@@2@PEBV?$PxVec3T@M@2@PEBIIIIIPEAMAEAVGridQueryPointSampler@12@PEAV52@I_N7@Z 000000018004eb10 f   GuSDF.obj
 0001:0004e010       ?SDFUsingWindingNumbers@Gu@physx@@YAXPEBV?$PxVec3T@M@2@PEBIIIIIPEAMV32@3PEAV32@_NI@Z 000000018004f010 f   GuSDF.obj
 0001:0004e320       ?SDFUsingWindingNumbersSparse@Gu@physx@@YAXPEBV?$PxVec3T@M@2@PEBIIIIIAEBV32@2MIAEAV?$PxArray@MV?$PxReflectionAllocator@M@physx@@@2@AEAV?$PxArray@IV?$PxReflectionAllocator@I@physx@@@2@33AEAM5I@Z 000000018004f320 f   GuSDF.obj
 0001:0004f140       ?allocate@?$PxArray@HV?$PxInlineAllocator@$0EAA@V?$PxReflectionAllocator@H@physx@@@physx@@@physx@@IEAAPEAHI@Z 0000000180050140 f i GuSDF.obj
 0001:0004f210       ?allocate@?$PxArray@MV?$PxReflectionAllocator@M@physx@@@physx@@IEAAPEAMI@Z 0000000180050210 f i GuSDF.obj
 0001:0004f2c0       ?allocateSdfs@SDF@Gu@physx@@QEAAPEAMAEBV?$PxVec3T@M@3@AEBMIIIIIIIMMI@Z 00000001800502c0 f   GuSDF.obj
 0001:0004f4d0       ?buildTree@Gu@physx@@YAXPEBIIPEBV?$PxVec3T@M@2@AEAV?$PxArray@UBVHNode@Gu@physx@@V?$PxReflectionAllocator@UBVHNode@Gu@physx@@@3@@2@M@Z 00000001800504d0 f   GuSDF.obj
 0001:0004f700       ?computeSDFThreadJob@Gu@physx@@YAPEAXPEAX@Z 0000000180050700 f   GuSDF.obj
 0001:000501e0       ?convertSparseSDFTo3DTextureLayout@Gu@physx@@YAXIIIIPEAIPEBMIAEAV?$PxArray@MV?$PxReflectionAllocator@M@physx@@@2@AEAI33@Z 00000001800511e0 f   GuSDF.obj
 0001:00050550       ?createTriangles@Gu@physx@@YAXHHHMQEAMAEBV?$PxHashMap@_KIU?$PxHash@_K@physx@@VPxAllocator@2@@2@AEBV?$PxArray@V?$PxVec3T@M@physx@@V?$PxReflectionAllocator@V?$PxVec3T@M@physx@@@2@@2@AEAV?$PxArray@IV?$PxReflectionAllocator@I@physx@@@2@@Z 0000000180051550 f   GuSDF.obj
 0001:00050d80       ?extractIsosurfaceFromSDF@Gu@physx@@YAXAEBVSDF@12@AEAV?$PxArray@V?$PxVec3T@M@physx@@V?$PxReflectionAllocator@V?$PxVec3T@M@physx@@@2@@2@AEAV?$PxArray@IV?$PxReflectionAllocator@I@physx@@@2@@Z 0000000180051d80 f   GuSDF.obj
 0001:00052dd0       ?fixSdfForNonClosedGeometry@Gu@physx@@YAXIIIPEAMAEBV?$PxVec3T@M@2@@Z 0000000180053dd0 f   GuSDF.obj
 0001:00053e80       ?generatePointInCell@Gu@physx@@YA_NAEBVSDF@12@HHHAEAV?$PxVec3T@M@2@QEAY111M@Z 0000000180054e80 f   GuSDF.obj
 0001:000542e0       ?growAndPushBack@?$PxArray@HV?$PxInlineAllocator@$0EAA@V?$PxReflectionAllocator@H@physx@@@physx@@@physx@@IEAAAEAHAEBH@Z 00000001800552e0 f i GuSDF.obj
 0001:000543d0       ?growAndPushBack@?$PxArray@MV?$PxReflectionAllocator@M@physx@@@physx@@IEAAAEAMAEBM@Z 00000001800553d0 f i GuSDF.obj
 0001:000544b0       ?growAndPushBack@?$PxArray@PEAV?$PxThreadT@V?$PxReflectionAllocator@VPxThreadImpl@physx@@@physx@@@physx@@V?$PxReflectionAllocator@PEAV?$PxThreadT@V?$PxReflectionAllocator@VPxThreadImpl@physx@@@physx@@@physx@@@2@@physx@@IEAAAEAPEAV?$PxThreadT@V?$PxReflectionAllocator@VPxThreadImpl@physx@@@physx@@@2@AEBQEAV32@@Z 00000001800554b0 f i GuSDF.obj
 0001:000545f0       ?growAndPushBack@?$PxArray@UMutation@Gu@physx@@V?$PxReflectionAllocator@UMutation@Gu@physx@@@3@@physx@@IEAAAEAUMutation@Gu@2@AEBU342@@Z 00000001800555f0 f i GuSDF.obj
 0001:00054750       ?growAndPushBack@?$PxArray@URange@Gu@physx@@V?$PxReflectionAllocator@URange@Gu@physx@@@3@@physx@@IEAAAEAURange@Gu@2@AEBU342@@Z 0000000180055750 f i GuSDF.obj
 0001:000548c0       ?growAndPushBack@?$PxArray@USDFCalculationData@Gu@physx@@V?$PxReflectionAllocator@USDFCalculationData@Gu@physx@@@3@@physx@@IEAAAEAUSDFCalculationData@Gu@2@AEBU342@@Z 00000001800558c0 f i GuSDF.obj
 0001:00054a70       ?growAndPushBack@?$PxArray@V?$PxVec3T@M@physx@@V?$PxReflectionAllocator@V?$PxVec3T@M@physx@@@2@@physx@@IEAAAEAV?$PxVec3T@M@2@AEBV32@@Z 0000000180055a70 f i GuSDF.obj
 0001:00054c60       ?recreate@?$PxArray@MV?$PxReflectionAllocator@M@physx@@@physx@@IEAAXI@Z 0000000180055c60 f i GuSDF.obj
 0001:00054d40       ?reserveInternal@?$PxHashBase@V?$PxPair@$$CBIU?$ClusterApproximationT@MV?$PxVec3T@M@physx@@@Gu@physx@@@physx@@IU?$PxHash@I@2@UGetKey@?$PxHashMapBase@IU?$ClusterApproximationT@MV?$PxVec3T@M@physx@@@Gu@physx@@U?$PxHash@I@3@VPxAllocator@3@@2@VPxAllocator@2@$00@physx@@AEAAXI@Z 0000000180055d40 f i GuSDF.obj
 0001:00054f50       ?reserveInternal@?$PxHashBase@V?$PxPair@$$CB_KH@physx@@_KU?$PxHash@_K@2@UGetKey@?$PxHashMapBase@_KHU?$PxHash@_K@physx@@VPxAllocator@2@@2@VPxAllocator@2@$00@physx@@AEAAXI@Z 0000000180055f50 f i GuMeshAnalysis.obj
 0001:00054f50       ?reserveInternal@?$PxHashBase@V?$PxPair@$$CB_KI@physx@@_KU?$PxHash@_K@2@UGetKey@?$PxHashMapBase@_KIU?$PxHash@_K@physx@@VPxAllocator@2@@2@VPxAllocator@2@$00@physx@@AEAAXI@Z 0000000180055f50 f i GuSDF.obj
 0001:00055140       ?resize@?$PxArray@MV?$PxReflectionAllocator@M@physx@@@physx@@QEAAXIAEBM@Z 0000000180056140 f i GuSDF.obj
 0001:00055250       ?sampleSDFDirect@?$DenseSDF@M@Gu@physx@@QEAAMAEBV?$PxVec3T@M@3@@Z 0000000180056250 f i GuSDF.obj
 0001:000553e0       ?windingNumbers@Gu@physx@@YAXPEBV?$PxVec3T@M@2@PEBIIIIIPEAMV32@3PEAV32@@Z 00000001800563e0 f   GuSDF.obj
 0001:00055770       ?windingNumbersInsideCheck@Gu@physx@@YAXPEBV?$PxVec3T@M@2@PEBIIIIIPEA_NV32@3PEAV32@@Z 0000000180056770 f   GuSDF.obj
 0001:000560b0       ??0MeshData@physx@@QEAA@AEBVPxTriangleMeshDesc@1@@Z 00000001800570b0 f i GuCookingSDF.obj
 0001:00056190       ?GetBounds@MeshData@physx@@QEBAXAEAV?$PxVec3T@M@2@0@Z 0000000180057190 f i GuCookingSDF.obj
 0001:00056430       ?buildSDF@physx@@YA_NAEAVPxTriangleMeshDesc@1@AEAV?$PxArray@MV?$PxReflectionAllocator@M@physx@@@1@AEAV?$PxArray@EV?$PxReflectionAllocator@E@physx@@@1@AEAV?$PxArray@IV?$PxReflectionAllocator@I@physx@@@1@@Z 0000000180057430 f   GuCookingSDF.obj
 0001:00056d60       ?quantizeSparseSDF@physx@@YAXW4Enum@PxSdfBitsPerSubgridPixel@1@AEBV?$PxArray@MV?$PxReflectionAllocator@M@physx@@@1@AEAV?$PxArray@EV?$PxReflectionAllocator@E@physx@@@1@MM@Z 0000000180057d60 f   GuCookingSDF.obj
 0001:00056e40       ?recreate@?$PxArray@EV?$PxReflectionAllocator@E@physx@@@physx@@IEAAXI@Z 0000000180057e40 f i GuCookingSDF.obj
 0001:00056f30       ?recreate@?$PxArray@V?$PxVec3T@M@physx@@V?$PxReflectionAllocator@V?$PxVec3T@M@physx@@@2@@physx@@IEAAXI@Z 0000000180057f30 f i GuCookingSDF.obj
 0001:00057100       ?resize@?$PxArray@EV?$PxReflectionAllocator@E@physx@@@physx@@QEAAXIAEBE@Z 0000000180058100 f i GuCookingSDF.obj
 0001:000571c0       ?resize@?$PxArray@IV?$PxReflectionAllocator@I@physx@@@physx@@QEAAXIAEBI@Z 00000001800581c0 f i GuCookingSDF.obj
 0001:00057280       ?resize@?$PxArray@V?$PxVec3T@M@physx@@V?$PxReflectionAllocator@V?$PxVec3T@M@physx@@@2@@physx@@QEAAXIAEBV?$PxVec3T@M@2@@Z 0000000180058280 f i GuCookingSDF.obj
 0001:00057370       ??$gjk@U?$RelativeConvex@UCustomConvexV@@@Gu@physx@@U?$LocalConvex@UCustomConvexV@@@23@@Gu@physx@@YA?AW4GjkStatus@01@AEBU?$RelativeConvex@UCustomConvexV@@@01@AEBU?$LocalConvex@UCustomConvexV@@@01@AEBT__m128@@2AEAT5@333@Z 0000000180058370 f i GuGjkQuery.obj
 0001:000580f0       ??$gjkPenetration@U?$RelativeConvex@UCustomConvexV@@@Gu@physx@@U?$LocalConvex@UCustomConvexV@@@23@@Gu@physx@@YA?AW4GjkStatus@01@AEBU?$RelativeConvex@UCustomConvexV@@@01@AEBU?$LocalConvex@UCustomConvexV@@@01@AEBT__m128@@2_NPEIAE4PEIAT5@5AEAEAEAUGjkOutput@01@@Z 00000001800590f0 f i GuGjkQuery.obj
 0001:00059630       ??$gjkPenetration@U?$RelativeConvex@UCustomConvexV@@@Gu@physx@@U?$LocalConvex@UCustomConvexV@@@23@@Gu@physx@@YA?AW4GjkStatus@01@AEBU?$RelativeConvex@UCustomConvexV@@@01@AEBU?$LocalConvex@UCustomConvexV@@@01@AEBT__m128@@2_NPEIAT5@4AEAEAEAUGjkOutput@01@@Z 000000018005a630 f i GuGjkQuery.obj
 0001:00059690       ??$gjkRaycast@U?$RelativeConvex@UCustomConvexV@@@Gu@physx@@U?$LocalConvex@UCustomConvexV@@@23@@Gu@physx@@YA_NAEBU?$RelativeConvex@UCustomConvexV@@@01@AEBU?$LocalConvex@UCustomConvexV@@@01@AEBT__m128@@222AEAT4@33M@Z 000000018005a690 f i GuGjkQuery.obj
 0001:0005a3e0       ??$gjkRaycast@U?$RelativeConvex@UCustomConvexV@@@Gu@physx@@U?$LocalConvex@UPointConvexV@@@23@@Gu@physx@@YA_NAEBU?$RelativeConvex@UCustomConvexV@@@01@AEBU?$LocalConvex@UPointConvexV@@@01@AEBT__m128@@222AEAT4@33M@Z 000000018005b3e0 f i GuGjkQuery.obj
 0001:0005b030       ?overlap@PxGjkQuery@physx@@SA_NAEBUSupport@12@0AEBV?$PxTransformT@M@2@1@Z 000000018005c030 f   GuGjkQuery.obj
 0001:0005b3b0       ?proximityInfo@PxGjkQuery@physx@@SA_NAEBUSupport@12@0AEBV?$PxTransformT@M@2@1MMAEAV?$PxVec3T@M@2@22AEAM@Z 000000018005c3b0 f   GuGjkQuery.obj
 0001:0005c0f0       ?raycast@PxGjkQuery@physx@@SA_NAEBUSupport@12@AEBV?$PxTransformT@M@2@AEBV?$PxVec3T@M@2@2MAEAMAEAV52@4@Z 000000018005d0f0 f   GuGjkQuery.obj
 0001:0005c590       ?support@?$LocalConvex@UCustomConvexV@@@Gu@physx@@UEBA?AT__m128@@AEBT4@@Z 000000018005d590 f i GuGjkQuery.obj
 0001:0005c610       ?support@?$LocalConvex@UCustomConvexV@@@Gu@physx@@UEBA?AT__m128@@AEBT4@AEAH@Z 000000018005d610 f i GuGjkQuery.obj
 0001:0005c690       ?supportPoint@?$LocalConvex@UPointConvexV@@@Gu@physx@@UEBA?AT__m128@@H@Z 000000018005d690 f i GuGjkQuery.obj
 0001:0005c690       ?support@?$LocalConvex@UPointConvexV@@@Gu@physx@@UEBA?AT__m128@@AEBT4@@Z 000000018005d690 f i GuGjkQuery.obj
 0001:0005c6a0       ?support@?$LocalConvex@UPointConvexV@@@Gu@physx@@UEBA?AT__m128@@AEBT4@AEAH@Z 000000018005d6a0 f i GuGjkQuery.obj
 0001:0005c6c0       ?support@?$RelativeConvex@UCustomConvexV@@@Gu@physx@@UEBA?AT__m128@@AEBT4@@Z 000000018005d6c0 f i GuGjkQuery.obj
 0001:0005c790       ?support@?$RelativeConvex@UCustomConvexV@@@Gu@physx@@UEBA?AT__m128@@AEBT4@AEAH@Z 000000018005d790 f i GuGjkQuery.obj
 0001:0005c870       ?supportPoint@?$LocalConvex@UCustomConvexV@@@Gu@physx@@UEBA?AT__m128@@H@Z 000000018005d870 f i GuGjkQuery.obj
 0001:0005c8e0       ?supportPoint@?$RelativeConvex@UCustomConvexV@@@Gu@physx@@UEBA?AT__m128@@H@Z 000000018005d8e0 f i GuGjkQuery.obj
 0001:0005c980       ?sweep@PxGjkQuery@physx@@SA_NAEBUSupport@12@0AEBV?$PxTransformT@M@2@1AEBV?$PxVec3T@M@2@MAEAMAEAV52@4@Z 000000018005d980 f   GuGjkQuery.obj
 0001:0005d120       ??$approximateCluster@MV?$PxVec3T@M@physx@@@Gu@physx@@YAXAEBV?$PxArray@HV?$PxReflectionAllocator@H@physx@@@1@IIPEBIPEBV?$PxVec3T@M@1@AEBV?$PxArray@MV?$PxReflectionAllocator@M@physx@@@1@AEBV?$PxArray@V?$PxVec3T@M@physx@@V?$PxReflectionAllocator@V?$PxVec3T@M@physx@@@2@@1@4AEAU?$ClusterApproximationT@MV?$PxVec3T@M@physx@@@01@@Z 000000018005e120 f i GuWindingNumber.obj
 0001:0005d960       ??$copy@V?$PxReflectionAllocator@M@physx@@@?$PxArray@MV?$PxReflectionAllocator@M@physx@@@physx@@IEAAXAEBV01@@Z 000000018005e960 f i GuWindingNumber.obj
 0001:0005d9c0       ??$precomputeClusterInformation@MV?$PxVec3T@M@physx@@@Gu@physx@@YAXHPEBUBVHNode@01@PEBIIPEBV?$PxVec3T@M@1@AEAV?$PxHashMap@IU?$ClusterApproximationT@MV?$PxVec3T@M@physx@@@Gu@physx@@U?$PxHash@I@3@VPxAllocator@3@@1@V?$PxArray@MV?$PxReflectionAllocator@M@physx@@@1@AEBV?$PxArray@V?$PxVec3T@M@physx@@V?$PxReflectionAllocator@V?$PxVec3T@M@physx@@@2@@1@5@Z 000000018005e9c0 f i GuWindingNumber.obj
 0001:0005dd80       ??$precomputeClusterInformation@MV?$PxVec3T@M@physx@@@Gu@physx@@YAXPEBUBVHNode@01@PEBIIPEBV?$PxVec3T@M@1@AEAV?$PxHashMap@IU?$ClusterApproximationT@MV?$PxVec3T@M@physx@@@Gu@physx@@U?$PxHash@I@3@VPxAllocator@3@@1@H@Z 000000018005ed80 f i GuWindingNumber.obj
 0001:0005e180       ??$traverseBVH@V?$WindingNumberTraversalController@MV?$PxVec3T@M@physx@@@Gu@physx@@@Gu@physx@@YAXPEBUBVHNode@01@AEAV?$WindingNumberTraversalController@MV?$PxVec3T@M@physx@@@01@H@Z 000000018005f180 f i GuWindingNumber.obj
 0001:0005e720       ?allocate@?$PxArray@HV?$PxReflectionAllocator@H@physx@@@physx@@IEAAPEAHI@Z 000000018005f720 f i GuWindingNumber.obj
 0001:0005e7d0       ?computeWindingNumber@Gu@physx@@YAMPEBUBVHNode@12@AEBV?$PxVec3T@M@2@AEBV?$PxHashMap@IU?$ClusterApproximationT@MV?$PxVec3T@M@physx@@@Gu@physx@@U?$PxHash@I@3@VPxAllocator@3@@2@PEBIPEBV42@@Z 000000018005f7d0 f   GuWindingNumber.obj
 0001:0005e840       ?computeWindingNumber@Gu@physx@@YAMPEBUBVHNode@12@AEBV?$PxVec3T@M@2@MAEBV?$PxHashMap@IU?$ClusterApproximationT@MV?$PxVec3T@M@physx@@@Gu@physx@@U?$PxHash@I@3@VPxAllocator@3@@2@PEBIPEBV42@@Z 000000018005f840 f   GuWindingNumber.obj
 0001:0005e8b0       ?copy@?$PxArray@MV?$PxReflectionAllocator@M@physx@@@physx@@KAXPEAM0PEBM@Z 000000018005f8b0 f i GuWindingNumber.obj
 0001:0005e910       ?create@?$PxHashBase@V?$PxPair@$$CBIU?$ClusterApproximationT@MV?$PxVec3T@M@physx@@@Gu@physx@@@physx@@IU?$PxHash@I@2@UGetKey@?$PxHashMapBase@IU?$ClusterApproximationT@MV?$PxVec3T@M@physx@@@Gu@physx@@U?$PxHash@I@3@VPxAllocator@3@@2@VPxAllocator@2@$00@physx@@QEAAPEAV?$PxPair@$$CBIU?$ClusterApproximationT@MV?$PxVec3T@M@physx@@@Gu@physx@@@2@AEBIAEA_N@Z 000000018005f910 f i GuWindingNumber.obj
 0001:0005ea70       ?growAndPushBack@?$PxArray@HV?$PxReflectionAllocator@H@physx@@@physx@@IEAAAEAHAEBH@Z 000000018005fa70 f i GuWindingNumber.obj
 0001:0005eb30       ?growAndPushBack@?$PxArray@USection@Gu@physx@@V?$PxReflectionAllocator@USection@Gu@physx@@@3@@physx@@IEAAAEAUSection@Gu@2@AEBU342@@Z 000000018005fb30 f i GuWindingNumber.obj
 0001:0005ec70       ?precomputeClusterInformation@Gu@physx@@YAXPEBUBVHNode@12@PEBIIPEBV?$PxVec3T@M@2@AEAV?$PxHashMap@IU?$ClusterApproximationT@MV?$PxVec3T@M@physx@@@Gu@physx@@U?$PxHash@I@3@VPxAllocator@3@@2@H@Z 000000018005fc70 f   GuWindingNumber.obj
 0001:0005ec80       ?recreate@?$PxArray@HV?$PxReflectionAllocator@H@physx@@@physx@@IEAAXI@Z 000000018005fc80 f i GuWindingNumber.obj
 0001:0005edb0       ?SweepAnyShapeHeightfield@Gu@physx@@YAMAEBUCCDShape@12@0AEBV?$PxTransformT@M@2@111MAEAV?$PxVec3T@M@2@2MAEAIM@Z 000000018005fdb0 f   GuCCDSweepConvexMesh.obj
 0001:00060330       ?SweepAnyShapeMesh@Gu@physx@@YAMAEBUCCDShape@12@0AEBV?$PxTransformT@M@2@111MAEAV?$PxVec3T@M@2@2MAEAIM@Z 0000000180061330 f   GuCCDSweepConvexMesh.obj
 0001:00061930       ?SweepEstimateAnyShapeHeightfield@Gu@physx@@YAMAEBUCCDShape@12@0MM@Z 0000000180062930 f   GuCCDSweepConvexMesh.obj
 0001:000625a0       ?SweepEstimateAnyShapeMesh@Gu@physx@@YAMAEBUCCDShape@12@0MM@Z 00000001800635a0 f   GuCCDSweepConvexMesh.obj
 0001:00062840       ?allocate@?$PxArray@IV?$PxInlineAllocator@$0BAA@V?$PxReflectionAllocator@I@physx@@@physx@@@physx@@IEAAPEAII@Z 0000000180063840 f i GuCCDSweepConvexMesh.obj
 0001:00063320       ?growAndPushBack@?$PxArray@IV?$PxInlineAllocator@$0BAA@V?$PxReflectionAllocator@I@physx@@@physx@@@physx@@IEAAAEAIAEBI@Z 0000000180064320 f i GuCCDSweepConvexMesh.obj
 0001:00063960       ?recreate@?$PxArray@IV?$PxInlineAllocator@$0BAA@V?$PxReflectionAllocator@I@physx@@@physx@@@physx@@IEAAXI@Z 0000000180064960 f i GuCCDSweepConvexMesh.obj
 0001:00063a90       ?resize@?$PxArray@IV?$PxInlineAllocator@$0BAA@V?$PxReflectionAllocator@I@physx@@@physx@@@physx@@QEAAXIAEBI@Z 0000000180064a90 f i GuCCDSweepConvexMesh.obj
 0001:00063b60       ?transformBoxOrthonormal@physx@@YA?AVBox@Gu@1@AEBV231@AEBV?$PxTransformT@M@1@@Z 0000000180064b60 f i GuCCDSweepConvexMesh.obj
 0001:00063ff0       ?UnimplementedSweep@Gu@physx@@YAMAEBUCCDShape@12@0AEBV?$PxTransformT@M@2@111MAEAV?$PxVec3T@M@2@2MAEAIM@Z 0000000180064ff0 f   GuCCDSweepPrimitives.obj
 0001:00067b80       ?UnimplementedTriangleSweep@Gu@physx@@YAMAEBVPxGeometry@2@0AEBV?$PxTransformT@M@2@111MAEAV?$PxVec3T@M@2@2AEBVFastVertex2ShapeScaling@Cm@2@AEAVTriangleV@12@M@Z 0000000180068b80 f   GuCCDSweepPrimitives.obj
 0001:00067b90       ??$SweepGeomTriangles@VCapsuleV@Gu@physx@@@Gu@physx@@YAMAEBVPxGeometry@1@0AEBV?$PxTransformT@M@1@111MAEAV?$PxVec3T@M@1@2AEBVFastVertex2ShapeScaling@Cm@1@AEAVTriangleV@01@M@Z 0000000180068b90 f i GuCCDSweepPrimitives.obj
 0001:000682c0       ??$SweepGeomTriangles@VBoxV@Gu@physx@@@Gu@physx@@YAMAEBVPxGeometry@1@0AEBV?$PxTransformT@M@1@111MAEAV?$PxVec3T@M@1@2AEBVFastVertex2ShapeScaling@Cm@1@AEAVTriangleV@01@M@Z 00000001800692c0 f i GuCCDSweepPrimitives.obj
 0001:00068a10       ??$SweepGeomTriangles@VConvexHullV@Gu@physx@@@Gu@physx@@YAMAEBVPxGeometry@1@0AEBV?$PxTransformT@M@1@111MAEAV?$PxVec3T@M@1@2AEBVFastVertex2ShapeScaling@Cm@1@AEAVTriangleV@01@M@Z 0000000180069a10 f i GuCCDSweepPrimitives.obj
 0001:00069500       ?supportPoint@?$RelativeConvex@VCapsuleV@Gu@physx@@@Gu@physx@@UEBA?AT__m128@@H@Z 000000018006a500 f i GuCCDSweepPrimitives.obj
 0001:00069560       ?support@?$RelativeConvex@VCapsuleV@Gu@physx@@@Gu@physx@@UEBA?AT__m128@@AEBT4@@Z 000000018006a560 f i GuCCDSweepPrimitives.obj
 0001:00069610       ?support@?$RelativeConvex@VCapsuleV@Gu@physx@@@Gu@physx@@UEBA?AT__m128@@AEBT4@AEAH@Z 000000018006a610 f i GuCCDSweepPrimitives.obj
 0001:000696d0       ?supportPoint@?$RelativeConvex@VTriangleV@Gu@physx@@@Gu@physx@@UEBA?AT__m128@@H@Z 000000018006a6d0 f i GuCCDSweepPrimitives.obj
 0001:00069720       ?support@?$RelativeConvex@VTriangleV@Gu@physx@@@Gu@physx@@UEBA?AT__m128@@AEBT4@@Z 000000018006a720 f i GuCCDSweepPrimitives.obj
 0001:00069820       ?support@?$RelativeConvex@VTriangleV@Gu@physx@@@Gu@physx@@UEBA?AT__m128@@AEBT4@AEAH@Z 000000018006a820 f i GuCCDSweepPrimitives.obj
 0001:00069960       ??$gjkPenetration@U?$RelativeConvex@VCapsuleV@Gu@physx@@@Gu@physx@@U?$LocalConvex@VBoxV@Gu@physx@@@23@@Gu@physx@@YA?AW4GjkStatus@01@AEBU?$RelativeConvex@VCapsuleV@Gu@physx@@@01@AEBU?$LocalConvex@VBoxV@Gu@physx@@@01@AEBT__m128@@2_NPEIAE4AEAEAEAUGjkOutput@01@@Z 000000018006a960 f i GuCCDSweepPrimitives.obj
 0001:000699d0       ??$gjkPenetration@U?$RelativeConvex@VCapsuleV@Gu@physx@@@Gu@physx@@U?$LocalConvex@VBoxV@Gu@physx@@@23@@Gu@physx@@YA?AW4GjkStatus@01@AEBU?$RelativeConvex@VCapsuleV@Gu@physx@@@01@AEBU?$LocalConvex@VBoxV@Gu@physx@@@01@AEBT__m128@@2_NPEIAE4PEIAT5@5AEAEAEAUGjkOutput@01@@Z 000000018006a9d0 f i GuCCDSweepPrimitives.obj
 0001:0006ae80       ??$gjkPenetration@U?$RelativeConvex@VCapsuleV@Gu@physx@@@Gu@physx@@U?$LocalConvex@VCapsuleV@Gu@physx@@@23@@Gu@physx@@YA?AW4GjkStatus@01@AEBU?$RelativeConvex@VCapsuleV@Gu@physx@@@01@AEBU?$LocalConvex@VCapsuleV@Gu@physx@@@01@AEBT__m128@@2_NPEIAE4AEAEAEAUGjkOutput@01@@Z 000000018006be80 f i GuCCDSweepPrimitives.obj
 0001:0006aef0       ??$gjkPenetration@U?$RelativeConvex@VCapsuleV@Gu@physx@@@Gu@physx@@U?$LocalConvex@VCapsuleV@Gu@physx@@@23@@Gu@physx@@YA?AW4GjkStatus@01@AEBU?$RelativeConvex@VCapsuleV@Gu@physx@@@01@AEBU?$LocalConvex@VCapsuleV@Gu@physx@@@01@AEBT__m128@@2_NPEIAE4PEIAT5@5AEAEAEAUGjkOutput@01@@Z 000000018006bef0 f i GuCCDSweepPrimitives.obj
 0001:0006c390       ??$gjkPenetration@U?$RelativeConvex@VCapsuleV@Gu@physx@@@Gu@physx@@U?$LocalConvex@VConvexHullV@Gu@physx@@@23@@Gu@physx@@YA?AW4GjkStatus@01@AEBU?$RelativeConvex@VCapsuleV@Gu@physx@@@01@AEBU?$LocalConvex@VConvexHullV@Gu@physx@@@01@AEBT__m128@@2_NPEIAE4AEAEAEAUGjkOutput@01@@Z 000000018006d390 f i GuCCDSweepPrimitives.obj
 0001:0006c400       ??$gjkPenetration@U?$RelativeConvex@VCapsuleV@Gu@physx@@@Gu@physx@@U?$LocalConvex@VConvexHullV@Gu@physx@@@23@@Gu@physx@@YA?AW4GjkStatus@01@AEBU?$RelativeConvex@VCapsuleV@Gu@physx@@@01@AEBU?$LocalConvex@VConvexHullV@Gu@physx@@@01@AEBT__m128@@2_NPEIAE4PEIAT5@5AEAEAEAUGjkOutput@01@@Z 000000018006d400 f i GuCCDSweepPrimitives.obj
 0001:0006d980       ??$gjkPenetration@U?$RelativeConvex@VTriangleV@Gu@physx@@@Gu@physx@@U?$LocalConvex@VBoxV@Gu@physx@@@23@@Gu@physx@@YA?AW4GjkStatus@01@AEBU?$RelativeConvex@VTriangleV@Gu@physx@@@01@AEBU?$LocalConvex@VBoxV@Gu@physx@@@01@AEBT__m128@@2_NPEIAE4AEAEAEAUGjkOutput@01@@Z 000000018006e980 f i GuCCDSweepPrimitives.obj
 0001:0006d9f0       ??$gjkPenetration@U?$RelativeConvex@VTriangleV@Gu@physx@@@Gu@physx@@U?$LocalConvex@VBoxV@Gu@physx@@@23@@Gu@physx@@YA?AW4GjkStatus@01@AEBU?$RelativeConvex@VTriangleV@Gu@physx@@@01@AEBU?$LocalConvex@VBoxV@Gu@physx@@@01@AEBT__m128@@2_NPEIAE4PEIAT5@5AEAEAEAUGjkOutput@01@@Z 000000018006e9f0 f i GuCCDSweepPrimitives.obj
 0001:0006eee0       ??$gjkPenetration@U?$RelativeConvex@VTriangleV@Gu@physx@@@Gu@physx@@U?$LocalConvex@VCapsuleV@Gu@physx@@@23@@Gu@physx@@YA?AW4GjkStatus@01@AEBU?$RelativeConvex@VTriangleV@Gu@physx@@@01@AEBU?$LocalConvex@VCapsuleV@Gu@physx@@@01@AEBT__m128@@2_NPEIAE4AEAEAEAUGjkOutput@01@@Z 000000018006fee0 f i GuCCDSweepPrimitives.obj
 0001:0006ef50       ??$gjkPenetration@U?$RelativeConvex@VTriangleV@Gu@physx@@@Gu@physx@@U?$LocalConvex@VCapsuleV@Gu@physx@@@23@@Gu@physx@@YA?AW4GjkStatus@01@AEBU?$RelativeConvex@VTriangleV@Gu@physx@@@01@AEBU?$LocalConvex@VCapsuleV@Gu@physx@@@01@AEBT__m128@@2_NPEIAE4PEIAT5@5AEAEAEAUGjkOutput@01@@Z 000000018006ff50 f i GuCCDSweepPrimitives.obj
 0001:00070450       ??$gjkPenetration@U?$RelativeConvex@VTriangleV@Gu@physx@@@Gu@physx@@U?$LocalConvex@VConvexHullV@Gu@physx@@@23@@Gu@physx@@YA?AW4GjkStatus@01@AEBU?$RelativeConvex@VTriangleV@Gu@physx@@@01@AEBU?$LocalConvex@VConvexHullV@Gu@physx@@@01@AEBT__m128@@2_NPEIAE4AEAEAEAUGjkOutput@01@@Z 0000000180071450 f i GuCCDSweepPrimitives.obj
 0001:000704c0       ??$gjkPenetration@U?$RelativeConvex@VTriangleV@Gu@physx@@@Gu@physx@@U?$LocalConvex@VConvexHullV@Gu@physx@@@23@@Gu@physx@@YA?AW4GjkStatus@01@AEBU?$RelativeConvex@VTriangleV@Gu@physx@@@01@AEBU?$LocalConvex@VConvexHullV@Gu@physx@@@01@AEBT__m128@@2_NPEIAE4PEIAT5@5AEAEAEAUGjkOutput@01@@Z 00000001800714c0 f i GuCCDSweepPrimitives.obj
 0001:00071a70       ??$gjkRaycast@U?$RelativeConvex@VCapsuleV@Gu@physx@@@Gu@physx@@U?$LocalConvex@VBoxV@Gu@physx@@@23@@Gu@physx@@YA_NAEBU?$RelativeConvex@VCapsuleV@Gu@physx@@@01@AEBU?$LocalConvex@VBoxV@Gu@physx@@@01@AEBT__m128@@222AEAT4@33M@Z 0000000180072a70 f i GuCCDSweepPrimitives.obj
 0001:000726c0       ??$gjkRaycast@U?$RelativeConvex@VCapsuleV@Gu@physx@@@Gu@physx@@U?$LocalConvex@VCapsuleV@Gu@physx@@@23@@Gu@physx@@YA_NAEBU?$RelativeConvex@VCapsuleV@Gu@physx@@@01@AEBU?$LocalConvex@VCapsuleV@Gu@physx@@@01@AEBT__m128@@222AEAT4@33M@Z 00000001800736c0 f i GuCCDSweepPrimitives.obj
 0001:00073390       ??$gjkRaycast@U?$RelativeConvex@VCapsuleV@Gu@physx@@@Gu@physx@@U?$LocalConvex@VConvexHullV@Gu@physx@@@23@@Gu@physx@@YA_NAEBU?$RelativeConvex@VCapsuleV@Gu@physx@@@01@AEBU?$LocalConvex@VConvexHullV@Gu@physx@@@01@AEBT__m128@@222AEAT4@33M@Z 0000000180074390 f i GuCCDSweepPrimitives.obj
 0001:000741a0       ??$gjkRaycast@U?$RelativeConvex@VTriangleV@Gu@physx@@@Gu@physx@@U?$LocalConvex@VBoxV@Gu@physx@@@23@@Gu@physx@@YA_NAEBU?$RelativeConvex@VTriangleV@Gu@physx@@@01@AEBU?$LocalConvex@VBoxV@Gu@physx@@@01@AEBT__m128@@222AEAT4@33M@Z 00000001800751a0 f i GuCCDSweepPrimitives.obj
 0001:00074ea0       ??$gjkRaycast@U?$RelativeConvex@VTriangleV@Gu@physx@@@Gu@physx@@U?$LocalConvex@VCapsuleV@Gu@physx@@@23@@Gu@physx@@YA_NAEBU?$RelativeConvex@VTriangleV@Gu@physx@@@01@AEBU?$LocalConvex@VCapsuleV@Gu@physx@@@01@AEBT__m128@@222AEAT4@33M@Z 0000000180075ea0 f i GuCCDSweepPrimitives.obj
 0001:00075c20       ??$gjkRaycast@U?$RelativeConvex@VTriangleV@Gu@physx@@@Gu@physx@@U?$LocalConvex@VConvexHullV@Gu@physx@@@23@@Gu@physx@@YA_NAEBU?$RelativeConvex@VTriangleV@Gu@physx@@@01@AEBU?$LocalConvex@VConvexHullV@Gu@physx@@@01@AEBT__m128@@222AEAT4@33M@Z 0000000180076c20 f i GuCCDSweepPrimitives.obj
 0001:00076a90       ?SweepShapeShape@Gu@physx@@YAMAEBUCCDShape@12@0AEBV?$PxTransformT@M@2@111MAEAV?$PxVec3T@M@2@2MAEAIM@Z 0000000180077a90 f   GuCCDSweepPrimitives.obj
 0001:00076ab0       ?SweepShapeTriangle@Gu@physx@@YAMAEBVPxGeometry@2@0AEBV?$PxTransformT@M@2@111MAEAV?$PxVec3T@M@2@2AEBVFastVertex2ShapeScaling@Cm@2@AEAVTriangleV@12@M@Z 0000000180077ab0 f   GuCCDSweepPrimitives.obj
 0001:00076ad0       ?barycentricCoordinates@Gu@physx@@YAXAEBT__m128@@000AEAT3@1@Z 0000000180077ad0 f   GuBarycentricCoordinates.obj
 0001:00076c10       ?barycentricCoordinates@Gu@physx@@YAXAEBT__m128@@00AEAT3@@Z 0000000180077c10 f   GuBarycentricCoordinates.obj
 0001:00076c80       ??$?_UV?$PxReflectionAllocator@VAdjTriangle@Gu@physx@@@physx@@@PxUserAllocated@physx@@SAPEAX_KV?$PxReflectionAllocator@VAdjTriangle@Gu@physx@@@1@PEBDH@Z 0000000180077c80 f i GuAdjacencies.obj
 0001:00076d60       ??0AdjacenciesBuilder@Gu@physx@@QEAA@XZ 0000000180077d60 f   GuAdjacencies.obj
 0001:00076d70       ??1AdjacenciesBuilder@Gu@physx@@QEAA@XZ 0000000180077d70 f   GuAdjacencies.obj
 0001:00076dc0       ?ComputeNbBoundaryEdges@Adjacencies@Gu@physx@@QEBAIXZ 0000000180077dc0 f   GuAdjacencies.obj
 0001:00077050       ?Init@AdjacenciesBuilder@Gu@physx@@QEAA_NAEBUADJACENCIESCREATE@23@@Z 0000000180078050 f   GuAdjacencies.obj
 0001:00077620       ??0EdgeList@Gu@physx@@QEAA@XZ 0000000180078620 f   GuEdgeList.obj
 0001:00077640       ??1EdgeList@Gu@physx@@QEAA@XZ 0000000180078640 f   GuEdgeList.obj
 0001:000776f0       ?computeActiveEdges@EdgeList@Gu@physx@@AEAA_NIPEBIPEBGPEBV?$PxVec3T@M@3@M@Z 00000001800786f0 f   GuEdgeList.obj
 0001:00078a80       ?createEdgesToFaces@EdgeList@Gu@physx@@AEAA_NIPEBIPEBG@Z 0000000180079a80 f   GuEdgeList.obj
 0001:00078ce0       ?createFacesToEdges@EdgeList@Gu@physx@@AEAA_NIPEBIPEBG@Z 0000000180079ce0 f   GuEdgeList.obj
 0001:00079110       ?init@EdgeList@Gu@physx@@QEAA_NAEBUEDGELISTCREATE@23@@Z 000000018007a110 f   GuEdgeList.obj
 0001:00079240       ?addAxis@SeparatingAxes@Gu@physx@@QEAA_NAEBV?$PxVec3T@M@3@@Z 000000018007a240 f   GuSeparatingAxes.obj
 0001:00079300       ??$kmeans_cluster@V?$PxVec3T@M@physx@@M@@YAIPEBV?$PxVec3T@M@physx@@IIPEAV01@PEAIMM@Z 000000018007a300 f i GuQuantizer.obj
 0001:00079c20       ??_EQuantizer@Gu@physx@@MEAAPEAXI@Z 000000018007ac20 f i GuQuantizer.obj
 0001:00079c20       ??_GQuantizer@Gu@physx@@MEAAPEAXI@Z 000000018007ac20 f i GuQuantizer.obj
 0001:00079c50       ??_EQuantizerImpl@@EEAAPEAXI@Z 000000018007ac50 f i GuQuantizer.obj
 0001:00079c50       ??_GQuantizerImpl@@EEAAPEAXI@Z 000000018007ac50 f i GuQuantizer.obj
 0001:00079d20       ?createQuantizer@Gu@physx@@YAPEAVQuantizer@12@XZ 000000018007ad20 f   GuQuantizer.obj
 0001:00079dd0       ?getDenormalizeCenter@QuantizerImpl@@UEBAAEBV?$PxVec3T@M@physx@@XZ 000000018007add0 f i GuQuantizer.obj
 0001:00079de0       ?getDenormalizeScale@QuantizerImpl@@UEBAAEBV?$PxVec3T@M@physx@@XZ 000000018007ade0 f i GuQuantizer.obj
 0001:00079de0       ?getCurrentAABBTreeBounds@PruningPool@Gu@physx@@QEBAAEBVAABBTreeBounds@23@XZ 000000018007ade0 f i GuIncrementalAABBPrunerCore.obj
 0001:00079df0       ?kmeansQuantize3D@QuantizerImpl@@UEAAPEBV?$PxVec3T@M@physx@@IPEBV23@I_NIAEAI@Z 000000018007adf0 f i GuQuantizer.obj
 0001:0007a050       ?normalizeInput@QuantizerImpl@@AEAAXIPEBV?$PxVec3T@M@physx@@I@Z 000000018007b050 f i GuQuantizer.obj
 0001:0007a480       ?release@QuantizerImpl@@UEAAXXZ 000000018007b480 f i GuQuantizer.obj
 0001:0007a4a0       ??0MeshCleaner@Gu@physx@@QEAA@IPEBV?$PxVec3T@M@2@IPEBIM@Z 000000018007b4a0 f   GuMeshCleaner.obj
 0001:0007ae40       ??1MeshCleaner@Gu@physx@@QEAA@XZ 000000018007be40 f   GuMeshCleaner.obj
 0001:0007aed0       ??0ReducedVertexCloud@Gu@physx@@QEAA@PEBV?$PxVec3T@M@2@I@Z 000000018007bed0 f   GuVertexReducer.obj
 0001:0007aef0       ??1ReducedVertexCloud@Gu@physx@@QEAA@XZ 000000018007bef0 f   GuVertexReducer.obj
 0001:0007af00       ?clean@ReducedVertexCloud@Gu@physx@@QEAAAEAV123@XZ 000000018007bf00 f   GuVertexReducer.obj
 0001:0007af70       ?reduce@ReducedVertexCloud@Gu@physx@@QEAA_NPEAUREDUCEDCLOUD@23@@Z 000000018007bf70 f   GuVertexReducer.obj
 0001:0007b210       ??$copy@V?$PxReflectionAllocator@H@physx@@@?$PxArray@HV?$PxReflectionAllocator@H@physx@@@physx@@IEAAXAEBV01@@Z 000000018007c210 f i GuMeshAnalysis.obj
 0001:0007b280       ?buildTriangleAdjacency@MeshAnalyzer@Gu@physx@@SA_NPEBU?$IndexedTriangleT@H@23@IAEAV?$PxArray@HV?$PxReflectionAllocator@H@physx@@@3@AEAV?$PxHashMap@_KHU?$PxHash@_K@physx@@VPxAllocator@2@@3@@Z 000000018007c280 f   GuMeshAnalysis.obj
 0001:0007b740       ?checkConsistentTriangleOrientation@MeshAnalyzer@Gu@physx@@SA_NPEBU?$IndexedTriangleT@H@23@IAEAV?$PxArray@_NV?$PxReflectionAllocator@_N@physx@@@3@AEAV?$PxHashMap@_KHU?$PxHash@_K@physx@@VPxAllocator@2@@3@@Z 000000018007c740 f   GuMeshAnalysis.obj
 0001:0007bb70       ?checkMeshWatertightness@MeshAnalyzer@Gu@physx@@SA_NPEBU?$IndexedTriangleT@H@23@I@Z 000000018007cb70 f   GuMeshAnalysis.obj
 0001:0007bca0       ?create@?$PxHashBase@V?$PxPair@$$CB_KH@physx@@_KU?$PxHash@_K@2@UGetKey@?$PxHashMapBase@_KHU?$PxHash@_K@physx@@VPxAllocator@2@@2@VPxAllocator@2@$00@physx@@QEAAPEAV?$PxPair@$$CB_KH@2@AEB_KAEA_N@Z 000000018007cca0 f i GuMeshAnalysis.obj
 0001:0007be40       ?growAndPushBack@?$PxArray@V?$PxArray@HV?$PxReflectionAllocator@H@physx@@@physx@@V?$PxReflectionAllocator@V?$PxArray@HV?$PxReflectionAllocator@H@physx@@@physx@@@2@@physx@@IEAAAEAV?$PxArray@HV?$PxReflectionAllocator@H@physx@@@2@AEBV32@@Z 000000018007ce40 f i GuMeshAnalysis.obj
 0001:0007bff0       ?makeTriOrientationConsistent@MeshAnalyzer@Gu@physx@@SA_NPEAU?$IndexedTriangleT@H@23@I_N@Z 000000018007cff0 f   GuMeshAnalysis.obj
 0001:0007c100       ?recreate@?$PxArray@_NV?$PxReflectionAllocator@_N@physx@@@physx@@IEAAXI@Z 000000018007d100 f i GuMeshAnalysis.obj
 0001:0007c1f0       ?resize@?$PxArray@HV?$PxReflectionAllocator@H@physx@@@physx@@QEAAXIAEBH@Z 000000018007d1f0 f i GuMeshAnalysis.obj
 0001:0007c2b0       ?resize@?$PxArray@_NV?$PxReflectionAllocator@_N@physx@@@physx@@QEAAXIAEB_N@Z 000000018007d2b0 f i GuMeshAnalysis.obj
 0001:0007c370       ?contactBoxBox@Gu@physx@@YA_NAEBVPxGeometry@2@0AEBV?$PxTransformT@M@2@1AEBUNarrowPhaseParams@12@AEAUCache@12@AEAVPxContactBuffer@2@PEAVPxRenderOutput@2@@Z 000000018007d370 f   GuContactBoxBox.obj
 0001:00080780       ?contactCapsuleBox@Gu@physx@@YA_NAEBVPxGeometry@2@0AEBV?$PxTransformT@M@2@1AEBUNarrowPhaseParams@12@AEAUCache@12@AEAVPxContactBuffer@2@PEAVPxRenderOutput@2@@Z 0000000180081780 f   GuContactCapsuleBox.obj
 0001:00080d20       ?contactCapsuleCapsule@Gu@physx@@YA_NAEBVPxGeometry@2@0AEBV?$PxTransformT@M@2@1AEBUNarrowPhaseParams@12@AEAUCache@12@AEAVPxContactBuffer@2@PEAVPxRenderOutput@2@@Z 0000000180081d20 f   GuContactCapsuleCapsule.obj
 0001:000835e0       ?contactCapsuleConvex@Gu@physx@@YA_NAEBVPxGeometry@2@0AEBV?$PxTransformT@M@2@1AEBUNarrowPhaseParams@12@AEAUCache@12@AEAVPxContactBuffer@2@PEAVPxRenderOutput@2@@Z 00000001800845e0 f   GuContactCapsuleConvex.obj
 0001:00085af0       ?contactCapsuleHeightfield@Gu@physx@@YA_NAEBVPxGeometry@2@0AEBV?$PxTransformT@M@2@1AEBUNarrowPhaseParams@12@AEAUCache@12@AEAVPxContactBuffer@2@PEAVPxRenderOutput@2@@Z 0000000180086af0 f   GuContactCapsuleMesh.obj
 0001:00086300       ?contactCapsuleMesh@Gu@physx@@YA_NAEBVPxGeometry@2@0AEBV?$PxTransformT@M@2@1AEBUNarrowPhaseParams@12@AEAUCache@12@AEAVPxContactBuffer@2@PEAVPxRenderOutput@2@@Z 0000000180087300 f   GuContactCapsuleMesh.obj
 0001:00087480       ?transformQueryBounds@FastVertex2ShapeScaling@Cm@physx@@QEBAXAEAV?$PxVec3T@M@3@0AEAV?$PxMat33T@M@3@@Z 0000000180088480 f i GuContactCapsuleMesh.obj
 0001:0008b790       ?contactBoxConvex@Gu@physx@@YA_NAEBVPxGeometry@2@0AEBV?$PxTransformT@M@2@1AEBUNarrowPhaseParams@12@AEAUCache@12@AEAVPxContactBuffer@2@PEAVPxRenderOutput@2@@Z 000000018008c790 f   GuContactConvexConvex.obj
 0001:0008b960       ?contactConvexConvex@Gu@physx@@YA_NAEBVPxGeometry@2@0AEBV?$PxTransformT@M@2@1AEBUNarrowPhaseParams@12@AEAUCache@12@AEAVPxContactBuffer@2@PEAVPxRenderOutput@2@@Z 000000018008c960 f   GuContactConvexConvex.obj
 0001:0008bde0       ?transformPlaneToShapeSpace@FastVertex2ShapeScaling@Cm@physx@@QEBAXAEBV?$PxVec3T@M@3@MAEAV43@AEAM@Z 000000018008cde0 f i GuContactConvexConvex.obj
 0001:0008c290       ??_GConvexMeshContactGenerationCallback@@UEAAPEAXI@Z 000000018008d290 f i GuContactConvexMesh.obj
 0001:0008c290       ??_EConvexMeshContactGenerationCallback@@UEAAPEAXI@Z 000000018008d290 f i GuContactConvexMesh.obj
 0001:0008c2f0       ?addData@?$CacheMap@UCachedEdge@Gu@physx@@$0IA@@Gu@physx@@QEAA_NAEBUCachedEdge@23@@Z 000000018008d2f0 f i GuContactConvexMesh.obj
 0001:0008c3d0       ?addData@?$CacheMap@UCachedVertex@Gu@physx@@$0IA@@Gu@physx@@QEAA_NAEBUCachedVertex@23@@Z 000000018008d3d0 f i GuContactConvexMesh.obj
 0001:0008c460       ?allocate@?$PxArray@IV?$PxInlineAllocator@$0BBAA@V?$PxReflectionAllocator@I@physx@@@physx@@@physx@@IEAAPEAII@Z 000000018008d460 f i GuContactConvexMesh.obj
 0001:0008c870       ?contactBoxHeightfield@Gu@physx@@YA_NAEBVPxGeometry@2@0AEBV?$PxTransformT@M@2@1AEBUNarrowPhaseParams@12@AEAUCache@12@AEAVPxContactBuffer@2@PEAVPxRenderOutput@2@@Z 000000018008d870 f   GuContactConvexMesh.obj
 0001:0008c9f0       ?contactBoxMesh@Gu@physx@@YA_NAEBVPxGeometry@2@0AEBV?$PxTransformT@M@2@1AEBUNarrowPhaseParams@12@AEAUCache@12@AEAVPxContactBuffer@2@PEAVPxRenderOutput@2@@Z 000000018008d9f0 f   GuContactConvexMesh.obj
 0001:0008cbc0       ?contactConvexHeightfield@Gu@physx@@YA_NAEBVPxGeometry@2@0AEBV?$PxTransformT@M@2@1AEBUNarrowPhaseParams@12@AEAUCache@12@AEAVPxContactBuffer@2@PEAVPxRenderOutput@2@@Z 000000018008dbc0 f   GuContactConvexMesh.obj
 0001:0008cd10       ?contactConvexMesh@Gu@physx@@YA_NAEBVPxGeometry@2@0AEBV?$PxTransformT@M@2@1AEBUNarrowPhaseParams@12@AEAUCache@12@AEAVPxContactBuffer@2@PEAVPxRenderOutput@2@@Z 000000018008dd10 f   GuContactConvexMesh.obj
 0001:00090460       ?processHit@ConvexMeshContactGenerationCallback@@UEAA_NAEBUPxGeomRaycastHit@physx@@AEBV?$PxVec3T@M@3@11AEAMPEBI@Z 0000000180091460 f i GuContactConvexMesh.obj
 0001:00090dd0       ?recreate@?$PxArray@IV?$PxInlineAllocator@$0BBAA@V?$PxReflectionAllocator@I@physx@@@physx@@@physx@@IEAAXI@Z 0000000180091dd0 f i GuContactConvexMesh.obj
 0001:00092200       ?contactPlaneBox@Gu@physx@@YA_NAEBVPxGeometry@2@0AEBV?$PxTransformT@M@2@1AEBUNarrowPhaseParams@12@AEAUCache@12@AEAVPxContactBuffer@2@PEAVPxRenderOutput@2@@Z 0000000180093200 f   GuContactPlaneBox.obj
 0001:00092e90       ?contactPlaneCapsule@Gu@physx@@YA_NAEBVPxGeometry@2@0AEBV?$PxTransformT@M@2@1AEBUNarrowPhaseParams@12@AEAUCache@12@AEAVPxContactBuffer@2@PEAVPxRenderOutput@2@@Z 0000000180093e90 f   GuContactPlaneCapsule.obj
 0001:00093530       ?contactPlaneConvex@Gu@physx@@YA_NAEBVPxGeometry@2@0AEBV?$PxTransformT@M@2@1AEBUNarrowPhaseParams@12@AEAUCache@12@AEAVPxContactBuffer@2@PEAVPxRenderOutput@2@@Z 0000000180094530 f   GuContactPlaneConvex.obj
 0001:000952e0       ?contactPolygonPolygonExt@Gu@physx@@YA_NIPEBV?$PxVec3T@M@2@PEBEAEBV?$PxMat34T@M@2@AEBVPxPlane@2@AEBV?$PxMat33T@M@2@I01234AEBV32@22IIAEAVPxContactBuffer@2@_N5M@Z 00000001800962e0 f   GuContactPolygonPolygon.obj
 0001:00096a30       ?findRotationMatrixFromZ@Gu@physx@@YA?AV?$PxMat33T@M@2@AEBV?$PxVec3T@M@2@@Z 0000000180097a30 f   GuContactPolygonPolygon.obj
 0001:00097460       ?contactSphereBox@Gu@physx@@YA_NAEBVPxGeometry@2@0AEBV?$PxTransformT@M@2@1AEBUNarrowPhaseParams@12@AEAUCache@12@AEAVPxContactBuffer@2@PEAVPxRenderOutput@2@@Z 0000000180098460 f   GuContactSphereBox.obj
 0001:00097a40       ?contactSphereCapsule@Gu@physx@@YA_NAEBVPxGeometry@2@0AEBV?$PxTransformT@M@2@1AEBUNarrowPhaseParams@12@AEAUCache@12@AEAVPxContactBuffer@2@PEAVPxRenderOutput@2@@Z 0000000180098a40 f   GuContactSphereCapsule.obj
 0001:00098820       ?contactSphereHeightfield@Gu@physx@@YA_NAEBVPxGeometry@2@0AEBV?$PxTransformT@M@2@1AEBUNarrowPhaseParams@12@AEAUCache@12@AEAVPxContactBuffer@2@PEAVPxRenderOutput@2@@Z 0000000180099820 f   GuContactSphereMesh.obj
 0001:00099230       ?contactSphereMesh@Gu@physx@@YA_NAEBVPxGeometry@2@0AEBV?$PxTransformT@M@2@1AEBUNarrowPhaseParams@12@AEAUCache@12@AEAVPxContactBuffer@2@PEAVPxRenderOutput@2@@Z 000000018009a230 f   GuContactSphereMesh.obj
 0001:0009b610       ?contactSpherePlane@Gu@physx@@YA_NAEBVPxGeometry@2@0AEBV?$PxTransformT@M@2@1AEBUNarrowPhaseParams@12@AEAUCache@12@AEAVPxContactBuffer@2@PEAVPxRenderOutput@2@@Z 000000018009c610 f   GuContactSpherePlane.obj
 0001:0009b820       ?contactSphereSphere@Gu@physx@@YA_NAEBVPxGeometry@2@0AEBV?$PxTransformT@M@2@1AEBUNarrowPhaseParams@12@AEAUCache@12@AEAVPxContactBuffer@2@PEAVPxRenderOutput@2@@Z 000000018009c820 f   GuContactSphereSphere.obj
 0001:0009b9a0       ?contactCustomGeometryGeometry@Gu@physx@@YA_NAEBVPxGeometry@2@0AEBV?$PxTransformT@M@2@1AEBUNarrowPhaseParams@12@AEAUCache@12@AEAVPxContactBuffer@2@PEAVPxRenderOutput@2@@Z 000000018009c9a0 f   GuContactCustomGeometry.obj
 0001:0009ba00       ?contactGeometryCustomGeometry@Gu@physx@@YA_NAEBVPxGeometry@2@0AEBV?$PxTransformT@M@2@1AEBUNarrowPhaseParams@12@AEAUCache@12@AEAVPxContactBuffer@2@PEAVPxRenderOutput@2@@Z 000000018009ca00 f   GuContactCustomGeometry.obj
 0001:0009bac0       ?selectNormal@Gu@physx@@YA_NEMM@Z 000000018009cac0 f   GuFeatureCode.obj
 0001:0009bb40       ??0BigConvexData@physx@@QEAA@XZ 000000018009cb40 f   GuBigConvexData.obj
 0001:0009bb60       ??1BigConvexData@physx@@QEAA@XZ 000000018009cb60 f   GuBigConvexData.obj
 0001:0009bc20       ?ComputeNearestOffset@BigConvexData@physx@@QEBAIAEBV?$PxVec3T@M@2@@Z 000000018009cc20 f   GuBigConvexData.obj
 0001:0009bd20       ?ComputeOffset@BigConvexData@physx@@QEBAIAEBV?$PxVec3T@M@2@@Z 000000018009cd20 f   GuBigConvexData.obj
 0001:0009be20       ?CreateOffsets@BigConvexData@physx@@IEAAXXZ 000000018009ce20 f   GuBigConvexData.obj
 0001:0009be70       ?Load@BigConvexData@physx@@QEAA_NAEAVPxInputStream@2@@Z 000000018009ce70 f   GuBigConvexData.obj
 0001:0009bf80       ?VLoad@BigConvexData@physx@@IEAA_NAEAVPxInputStream@2@@Z 000000018009cf80 f   GuBigConvexData.obj
 0001:0009c120       ?exportExtraData@BigConvexData@physx@@QEAAXAEAVPxSerializationContext@2@@Z 000000018009d120 f   GuBigConvexData.obj
 0001:0009c1a0       ?importExtraData@BigConvexData@physx@@QEAAXAEAVPxDeserializationContext@2@@Z 000000018009d1a0 f   GuBigConvexData.obj
 0001:0009c210       ?findUniqueConvexEdges@Gu@physx@@YAIIPEIAUConvexEdge@12@IPEIBUHullPolygonData@12@PEIBE@Z 000000018009d210 f   GuConvexHelper.obj
 0001:0009c350       ?getConvexData@Gu@physx@@YA_NAEBVPxConvexMeshGeometry@2@AEAVFastVertex2ShapeScaling@Cm@2@AEAVPxBounds3@2@AEAUPolygonalData@12@@Z 000000018009d350 f   GuConvexHelper.obj
 0001:0009c5d0       ?getScaledConvex@Gu@physx@@YAXAEAPEAV?$PxVec3T@M@2@AEAPEAEPEAV32@PEAE_NPEBV32@PEBEIAEBVFastVertex2ShapeScaling@Cm@2@@Z 000000018009d5d0 f   GuConvexHelper.obj
 0001:0009c700       ??0ConvexMesh@Gu@physx@@QEAA@PEAVMeshFactory@12@@Z 000000018009d700 f   GuConvexMesh.obj
 0001:0009c790       ??0ConvexMesh@Gu@physx@@QEAA@PEAVMeshFactory@12@AEAUConvexHullInitData@12@@Z 000000018009d790 f   GuConvexMesh.obj
 0001:0009c8b0       ??_GConvexMesh@Gu@physx@@UEAAPEAXI@Z 000000018009d8b0 f i GuConvexMesh.obj
 0001:0009c8b0       ??_EConvexMesh@Gu@physx@@UEAAPEAXI@Z 000000018009d8b0 f i GuConvexMesh.obj
 0001:0009c9b0       ??_GPxBVH@physx@@MEAAPEAXI@Z 000000018009d9b0 f i GuBVH.obj
 0001:0009c9b0       ??_GPxBase@physx@@MEAAPEAXI@Z 000000018009d9b0 f i GuConvexMesh.obj
 0001:0009c9b0       ??_EPxBase@physx@@MEAAPEAXI@Z 000000018009d9b0 f i GuConvexMesh.obj
 0001:0009c9b0       ??_EPxBVH@physx@@MEAAPEAXI@Z 000000018009d9b0 f i GuBVH.obj
 0001:0009c9e0       ?acquireReference@HeightField@Gu@physx@@UEAAXXZ 000000018009d9e0 f   GuHeightField.obj
 0001:0009c9e0       ?acquireReference@SoftBodyMesh@Gu@physx@@UEAAXXZ 000000018009d9e0 f   GuTetrahedronMesh.obj
 0001:0009c9e0       ?acquireReference@TriangleMesh@Gu@physx@@UEAAXXZ 000000018009d9e0 f   GuTriangleMesh.obj
 0001:0009c9e0       ?acquireReference@ConvexMesh@Gu@physx@@UEAAXXZ 000000018009d9e0 f   GuConvexMesh.obj
 0001:0009c9e0       ?acquireReference@TetrahedronMesh@Gu@physx@@UEAAXXZ 000000018009d9e0 f   GuTetrahedronMesh.obj
 0001:0009c9e0       ?acquireReference@SoftBodyAuxData@Gu@physx@@UEAAXXZ 000000018009d9e0 f   GuTetrahedronMesh.obj
 0001:0009ceb0       ?createObject@ConvexMesh@Gu@physx@@SAPEAV123@AEAPEAEAEAVPxDeserializationContext@3@@Z 000000018009deb0 f   GuConvexMesh.obj
 0001:0009cfa0       ?exportExtraData@ConvexMesh@Gu@physx@@UEAAXAEAVPxSerializationContext@3@@Z 000000018009dfa0 f   GuConvexMesh.obj
 0001:0009d070       ?getConcreteTypeName@PxConvexMesh@physx@@UEBAPEBDXZ 000000018009e070 f i GuConvexMesh.obj
 0001:0009d080       ?getIndexBuffer@ConvexMesh@Gu@physx@@UEBAPEBEXZ 000000018009e080 f i GuConvexMesh.obj
 0001:0009d0c0       ?getLocalBounds@ConvexMesh@Gu@physx@@UEBA?AVPxBounds3@3@XZ 000000018009e0c0 f   GuConvexMesh.obj
 0001:0009d150       ?getMassInformation@ConvexMesh@Gu@physx@@UEBAXAEAMAEAV?$PxMat33T@M@3@AEAV?$PxVec3T@M@3@@Z 000000018009e150 f   GuConvexMesh.obj
 0001:0009d1c0       ?getNbPolygons@ConvexMesh@Gu@physx@@UEBAIXZ 000000018009e1c0 f i GuConvexMesh.obj
 0001:0009d1d0       ?getNbVertices@ConvexMesh@Gu@physx@@UEBAIXZ 000000018009e1d0 f i GuConvexMesh.obj
 0001:0009d1e0       ?getPolygonData@ConvexMesh@Gu@physx@@UEBA_NIAEAUPxHullPolygon@3@@Z 000000018009e1e0 f   GuConvexMesh.obj
 0001:0009d230       ?getReferenceCount@SoftBodyMesh@Gu@physx@@UEBAIXZ 000000018009e230 f   GuTetrahedronMesh.obj
 0001:0009d230       ?raw_length@DNameStatusNode@@UEBAHXZ 000000018009e230 f   libvcruntime:undname.obj
 0001:0009d230       ?getReferenceCount@HeightField@Gu@physx@@UEBAIXZ 000000018009e230 f   GuHeightField.obj
 0001:0009d230       ?length@DNameStatusNode@@UEBAHXZ 000000018009e230 f   libvcruntime:undname.obj
 0001:0009d230       ?getReferenceCount@TriangleMesh@Gu@physx@@UEBAIXZ 000000018009e230 f   GuTriangleMesh.obj
 0001:0009d230       ?getReferenceCount@SoftBodyAuxData@Gu@physx@@UEBAIXZ 000000018009e230 f   GuTetrahedronMesh.obj
 0001:0009d230       ?getReferenceCount@TetrahedronMesh@Gu@physx@@UEBAIXZ 000000018009e230 f   GuTetrahedronMesh.obj
 0001:0009d230       ?getReferenceCount@ConvexMesh@Gu@physx@@UEBAIXZ 000000018009e230 f   GuConvexMesh.obj
 0001:0009d240       ?getSDF@ConvexMesh@Gu@physx@@UEBAPEBMXZ 000000018009e240 f   GuConvexMesh.obj
 0001:0009d250       ?getVertices@ConvexMesh@Gu@physx@@UEBAPEBV?$PxVec3T@M@3@XZ 000000018009e250 f i GuConvexMesh.obj
 0001:0009d270       ?isGpuCompatible@ConvexMesh@Gu@physx@@UEBA_NXZ 000000018009e270 f   GuConvexMesh.obj
 0001:0009d2b0       ?isKindOf@PxBase@physx@@MEBA_NPEBD@Z 000000018009e2b0 f i GuConvexMesh.obj
 0001:0009d2e0       ?isKindOf@PxConvexMesh@physx@@MEBA_NPEBD@Z 000000018009e2e0 f i GuConvexMesh.obj
 0001:0009d350       ?isReleasable@PxBase@physx@@UEBA_NXZ 000000018009e350 f i GuConvexMesh.obj
 0001:0009d360       ?load@ConvexMesh@Gu@physx@@QEAA_NAEAVPxInputStream@3@@Z 000000018009e360 f   GuConvexMesh.obj
 0001:0009d8f0       ?onRefCountZero@ConvexMesh@Gu@physx@@UEAAXXZ 000000018009e8f0 f   GuConvexMesh.obj
 0001:0009da20       ?release@SoftBodyMesh@Gu@physx@@UEAAXXZ 000000018009ea20 f   GuTetrahedronMesh.obj
 0001:0009da20       ?release@ConvexMesh@Gu@physx@@UEAAXXZ 000000018009ea20 f   GuConvexMesh.obj
 0001:0009da20       ?release@TriangleMesh@Gu@physx@@UEAAXXZ 000000018009ea20 f   GuTriangleMesh.obj
 0001:0009da20       ?release@TetrahedronMesh@Gu@physx@@UEAAXXZ 000000018009ea20 f   GuTetrahedronMesh.obj
 0001:0009da20       ?release@HeightField@Gu@physx@@UEAAXXZ 000000018009ea20 f   GuHeightField.obj
 0001:0009da20       ?release@SoftBodyAuxData@Gu@physx@@UEAAXXZ 000000018009ea20 f   GuTetrahedronMesh.obj
 0001:0009da50       ??Dphysx@@YA?AV?$PxMat34T@M@0@AEBVPxMeshScale@0@AEBV10@@Z 000000018009ea50 f i GuConvexUtilsInternal.obj
 0001:0009dfc0       ?computeHullOBB@Gu@physx@@YAXAEAVBox@12@AEBVPxBounds3@2@MAEBV?$PxMat34T@M@2@2AEBVFastVertex2ShapeScaling@Cm@2@_N@Z 000000018009efc0 f   GuConvexUtilsInternal.obj
 0001:0009e470       ?computeOBBAroundConvex@Gu@physx@@YAXAEAVBox@12@AEBVPxConvexMeshGeometry@2@PEBVPxConvexMesh@2@AEBV?$PxTransformT@M@2@@Z 000000018009f470 f   GuConvexUtilsInternal.obj
 0001:0009ecd0       ?computeVertexSpaceOBB@Gu@physx@@YAXAEAVBox@12@AEBV312@AEBV?$PxTransformT@M@2@AEBVPxMeshScale@2@@Z 000000018009fcd0 f   GuConvexUtilsInternal.obj
 0001:0009f000       ?transform@physx@@YA?AVBox@Gu@1@AEBV?$PxMat34T@M@1@AEBV231@@Z 00000001800a0000 f i GuConvexUtilsInternal.obj
 0001:0009f250       ?localSearch@physx@@YAXAEAIAEBV?$PxVec3T@M@1@PEBV21@PEBUBigConvexRawData@Gu@1@@Z 00000001800a0250 f   GuHillClimbing.obj
 0001:0009f380       ??0PolygonalBox@Gu@physx@@QEAA@AEBV?$PxVec3T@M@2@@Z 00000001800a0380 f   GuShapeConvex.obj
 0001:0009f380       ??0PCMPolygonalBox@Gu@physx@@QEAA@AEBV?$PxVec3T@M@2@@Z 00000001800a0380 f   GuPCMShapeConvex.obj
 0001:000a0840       ?getPolygonalData@PolygonalBox@Gu@physx@@QEBAXPEIAUPolygonalData@23@@Z 00000001800a1840 f   GuShapeConvex.obj
 0001:000a08b0       ?getPolygonalData_Convex@Gu@physx@@YAXPEIAUPolygonalData@12@PEIBUConvexHullData@12@AEBVFastVertex2ShapeScaling@Cm@2@@Z 00000001800a18b0 f   GuShapeConvex.obj
 0001:000a0a10       ?distancePointBoxSquared@Gu@physx@@YAMAEBV?$PxVec3T@M@2@00AEBV?$PxMat33T@M@2@PEAV32@@Z 00000001800a1a10 f   GuDistancePointBox.obj
 0001:000a0b60       ?closestPtPointTriangle@Gu@physx@@YA?AV?$PxVec3T@M@2@AEBV32@000AEAM1@Z 00000001800a1b60 f   GuDistancePointTriangle.obj
 0001:000a1080       ?distancePointTriangleSquared@Gu@physx@@YA?AT__m128@@AEBT3@000AEAT3@11@Z 00000001800a2080 f   GuDistancePointTriangle.obj
 0001:000a1dd0       ?distanceSegmentBoxSquared@Gu@physx@@YAMAEBV?$PxVec3T@M@2@000AEBV?$PxMat33T@M@2@PEAMPEAV32@@Z 00000001800a2dd0 f   GuDistanceSegmentBox.obj
 0001:000a2650       ?distanceSegmentSegmentSquared4@Gu@physx@@YA?AT__m128@@AEBT3@000000000AEAT3@1@Z 00000001800a3650 f   GuDistanceSegmentSegment.obj
 0001:000a2970       ?distanceSegmentSegmentSquared@Gu@physx@@YA?AT__m128@@AEBT3@000AEAT3@1@Z 00000001800a3970 f   GuDistanceSegmentSegment.obj
 0001:000a2b30       ?distanceSegmentSegmentSquared@Gu@physx@@YAMAEBV?$PxVec3T@M@2@000PEAM1@Z 00000001800a3b30 f   GuDistanceSegmentSegment.obj
 0001:000a2dc0       ?distanceSegmentSegmentSquared@Gu@physx@@YAMAEBV?$PxVec3T@M@2@0M00MPEAM1@Z 00000001800a3dc0 f   GuDistanceSegmentSegment.obj
 0001:000a3510       ?distanceSegmentTriangleSquared@Gu@physx@@YA?AT__m128@@AEBT3@0000AEAT3@1@Z 00000001800a4510 f   GuDistanceSegmentTriangle.obj
 0001:000a3c50       ?distanceSegmentTriangleSquared@Gu@physx@@YAMAEBV?$PxVec3T@M@2@0000PEAM11@Z 00000001800a4c50 f   GuDistanceSegmentTriangle.obj
 0001:000a52e0       ?PointOutsideOfPlane4@Gu@physx@@YA?AV?$PxVec4T@M@2@AEBV?$PxVec3T@M@2@0000@Z 00000001800a62e0 f   GuDistancePointTetrahedron.obj
 0001:000a5750       ?closestPtPointTetrahedron@Gu@physx@@YA?AV?$PxVec3T@M@2@AEBV32@0000AEBV?$PxVec4T@M@2@@Z 00000001800a6750 f   GuDistancePointTetrahedron.obj
 0001:000a6840       ?PenetrationDepth@EPA@Gu@physx@@QEAA?AW4GjkStatus@23@AEBUGjkConvex@23@0PEIBT__m128@@1E_NT6@AEAUGjkOutput@23@@Z 00000001800a7840 f   GuEPA.obj
 0001:000a7320       ?addFacet@EPA@Gu@physx@@QEAAPEAVFacet@23@IIIAEBT__m128@@@Z 00000001800a8320 f   GuEPA.obj
 0001:000a7760       ?epaPenetration@Gu@physx@@YA?AW4GjkStatus@12@AEBUGjkConvex@12@0PEIBE1E_NT__m128@@AEAUGjkOutput@12@@Z 00000001800a8760 f   GuEPA.obj
 0001:000a78d0       ?epaPenetration@Gu@physx@@YA?AW4GjkStatus@12@AEBUGjkConvex@12@0PEIBT__m128@@1E_NT5@AEAUGjkOutput@12@@Z 00000001800a88d0 f   GuEPA.obj
 0001:000a7980       ?silhouette@Facet@Gu@physx@@QEAAXAEBT__m128@@PEIBT4@1AEAVEdgeBuffer@23@AEAV?$InlineDeferredIDPool@$0EA@@Cm@3@@Z 00000001800a8980 f   GuEPA.obj
 0001:000a7b50       ?closestPtPointTetrahedron@Gu@physx@@YA?AT__m128@@PEIAT3@00AEAI@Z 00000001800a8b50 f   GuGJKSimplex.obj
 0001:000a82c0       ?closestPtPointTetrahedron@Gu@physx@@YA?AT__m128@@PEIAT3@00PEIAH1AEAI@Z 00000001800a92c0 f   GuGJKSimplex.obj
 0001:000a9d50       ??$gjk@UGjkConvex@Gu@physx@@U123@@Gu@physx@@YA?AW4GjkStatus@01@AEBUGjkConvex@01@0AEBT__m128@@1AEAT4@222@Z 00000001800aad50 f i GuGJKTest.obj
 0001:000aa970       ??$gjkPenetration@UGjkConvex@Gu@physx@@U123@@Gu@physx@@YA?AW4GjkStatus@01@AEBUGjkConvex@01@0AEBT__m128@@1_NPEIAE3AEAEAEAUGjkOutput@01@@Z 00000001800ab970 f i GuGJKTest.obj
 0001:000aa9e0       ??$gjkPenetration@UGjkConvex@Gu@physx@@U123@@Gu@physx@@YA?AW4GjkStatus@01@AEBUGjkConvex@01@0AEBT__m128@@1_NPEIAE3PEIAT4@4AEAEAEAUGjkOutput@01@@Z 00000001800ab9e0 f i GuGJKTest.obj
 0001:000abe00       ?testEpaPenetration@Gu@physx@@YA?AW4GjkStatus@12@AEBUGjkConvex@12@0PEBE1EAEAUGjkOutput@12@@Z 00000001800ace00 f   GuGJKTest.obj
 0001:000abe50       ?testGjk@Gu@physx@@YA?AW4GjkStatus@12@AEBUGjkConvex@12@0AEBT__m128@@1AEAT5@222@Z 00000001800ace50 f   GuGJKTest.obj
 0001:000abe60       ?testGjkPenetration@Gu@physx@@YA?AW4GjkStatus@12@AEBUGjkConvex@12@0AEBT__m128@@1PEAE2AEAEAEAUGjkOutput@12@@Z 00000001800ace60 f   GuGJKTest.obj
 0001:000abeb0       ??0HeightField@Gu@physx@@QEAA@PEAVMeshFactory@12@@Z 00000001800aceb0 f   GuHeightField.obj
 0001:000abf00       ??0HeightField@Gu@physx@@QEAA@PEAVMeshFactory@12@AEAUHeightFieldData@12@@Z 00000001800acf00 f   GuHeightField.obj
 0001:000abfb0       ??1HeightField@Gu@physx@@UEAA@XZ 00000001800acfb0 f   GuHeightField.obj
 0001:000ac030       ??_EHeightField@Gu@physx@@UEAAPEAXI@Z 00000001800ad030 f i GuHeightField.obj
 0001:000ac030       ??_GHeightField@Gu@physx@@UEAAPEAXI@Z 00000001800ad030 f i GuHeightField.obj
 0001:000ac0d0       ?computeCellCoordinates@HeightField@Gu@physx@@QEBAIMMAEAM0@Z 00000001800ad0d0 f   GuHeightField.obj
 0001:000ac1f0       ?createObject@HeightField@Gu@physx@@SAPEAV123@AEAPEAEAEAVPxDeserializationContext@3@@Z 00000001800ad1f0 f   GuHeightField.obj
 0001:000ac250       ?exportExtraData@HeightField@Gu@physx@@UEAAXAEAVPxSerializationContext@3@@Z 00000001800ad250 f   GuHeightField.obj
 0001:000ac2a0       ?getConcreteTypeName@PxHeightField@physx@@UEBAPEBDXZ 00000001800ad2a0 f i GuHeightField.obj
 0001:000ac2b0       ?getConvexEdgeThreshold@HeightField@Gu@physx@@UEBAMXZ 00000001800ad2b0 f i GuHeightField.obj
 0001:000ac2c0       ?getFlags@HeightField@Gu@physx@@UEBA?AV?$PxFlags@W4Enum@PxHeightFieldFlag@physx@@G@3@XZ 00000001800ad2c0 f i GuHeightField.obj
 0001:000ac2d0       ?getFormat@HeightField@Gu@physx@@UEBA?AW4Enum@PxHeightFieldFormat@3@XZ 00000001800ad2d0 f i GuHeightField.obj
 0001:000ac2e0       ?getHeight@HeightField@Gu@physx@@UEBAMMM@Z 00000001800ad2e0 f i GuHeightField.obj
 0001:000ac400       ?getNbColumns@HeightField@Gu@physx@@UEBAIXZ 00000001800ad400 f i GuHeightField.obj
 0001:000ac410       ?getNbRows@HeightField@Gu@physx@@UEBAIXZ 00000001800ad410 f i GuHeightField.obj
 0001:000ac410       ?getNbBounds@BVH@Gu@physx@@UEBAIXZ 00000001800ad410 f i GuBVH.obj
 0001:000ac410       ?getNbPrimitives@TetrahedronSourceMesh@Gu@physx@@UEBAIXZ 00000001800ad410 f i GuBV4.obj
 0001:000ac410       ?getNbPrimitives@SourceMesh@Gu@physx@@UEBAIXZ 00000001800ad410 f i GuBV4.obj
 0001:000ac420       ?getSample@HeightField@Gu@physx@@UEBAAEBUPxHeightFieldSample@3@II@Z 00000001800ad420 f i GuHeightField.obj
 0001:000ac430       ?getSampleStride@HeightField@Gu@physx@@UEBAIXZ 00000001800ad430 f i GuHeightField.obj
 0001:000ac440       ?getTimestamp@HeightField@Gu@physx@@UEBAIXZ 00000001800ad440 f i GuHeightField.obj
 0001:000ac450       ?getTriangleMaterialIndex@HeightField@Gu@physx@@UEBAGI@Z 00000001800ad450 f i GuHeightField.obj
 0001:000ac480       ?getTriangleNormal@HeightField@Gu@physx@@UEBA?AV?$PxVec3T@M@3@I@Z 00000001800ad480 f i GuHeightField.obj
 0001:000ac760       ?isCollisionVertexPreca@HeightField@Gu@physx@@QEBA_NIIIG@Z 00000001800ad760 f   GuHeightField.obj
 0001:000ac800       ?isConvexVertex@HeightField@Gu@physx@@QEBA_NIII@Z 00000001800ad800 f i GuHeightField.obj
 0001:000ac8d0       ?isKindOf@PxHeightField@physx@@MEBA_NPEBD@Z 00000001800ad8d0 f i GuHeightField.obj
 0001:000ac940       ?isSolidVertex@HeightField@Gu@physx@@QEBA_NIIIGAEA_N@Z 00000001800ad940 f   GuHeightField.obj
 0001:000acbd0       ?load@HeightField@Gu@physx@@QEAA_NAEAVPxInputStream@3@@Z 00000001800adbd0 f   GuHeightField.obj
 0001:000acf30       ?loadFromDesc@HeightField@Gu@physx@@QEAA_NAEBVPxHeightFieldDesc@3@@Z 00000001800adf30 f   GuHeightField.obj
 0001:000ad1b0       ?modifySamples@HeightField@Gu@physx@@UEAA_NHHAEBVPxHeightFieldDesc@3@_N@Z 00000001800ae1b0 f   GuHeightField.obj
 0001:000ad550       ?onRefCountZero@HeightField@Gu@physx@@UEAAXXZ 00000001800ae550 f   GuHeightField.obj
 0001:000ad620       ?parseTrianglesForCollisionVertices@HeightField@Gu@physx@@QEAAXG@Z 00000001800ae620 f   GuHeightField.obj
 0001:000adb00       ?releaseMemory@HeightField@Gu@physx@@QEAAXXZ 00000001800aeb00 f   GuHeightField.obj
 0001:000adb50       ?resizeAndClear@?$PxBitMapBase@VPxAllocator@physx@@@physx@@QEAAXI@Z 00000001800aeb50 f i GuHeightField.obj
 0001:000adc10       ?save@HeightField@Gu@physx@@QEAA_NAEAVPxOutputStream@3@_N@Z 00000001800aec10 f   GuHeightField.obj
 0001:000ade50       ?saveCells@HeightField@Gu@physx@@UEBAIPEAXI@Z 00000001800aee50 f   GuHeightField.obj
 0001:000ade90       ?computeLocalBounds@HeightFieldUtil@Gu@physx@@QEBAXAEAVPxBounds3@3@@Z 00000001800aee90 f   GuHeightFieldUtil.obj
 0001:000ae350       ?getTriangle@HeightFieldUtil@Gu@physx@@QEBAIAEBV?$PxTransformT@M@3@AEAVPxTriangle@3@PEAI2I_N3@Z 00000001800af350 f   GuHeightFieldUtil.obj
 0001:000aeb50       ?getTriangleAdjacencyIndices@HeightField@Gu@physx@@QEBAXIIIIAEAI00@Z 00000001800afb50 f i GuHeightFieldUtil.obj
 0001:000aed30       ?getTriangleVertexIndices@HeightField@Gu@physx@@QEBAXIAEAI00@Z 00000001800afd30 f i GuHeightFieldUtil.obj
 0001:000aedf0       ?overlapAABBTriangles@HeightFieldUtil@Gu@physx@@QEBAXAEBVPxBounds3@3@AEAVOverlapReport@23@I@Z 00000001800afdf0 f   GuHeightFieldUtil.obj
 0001:000af250       ??$gjk@U?$RelativeConvex@VTriangleV@Gu@physx@@@Gu@physx@@U?$LocalConvex@VConvexHullV@Gu@physx@@@23@@Gu@physx@@YA?AW4GjkStatus@01@AEBU?$RelativeConvex@VTriangleV@Gu@physx@@@01@AEBU?$LocalConvex@VConvexHullV@Gu@physx@@@01@AEBT__m128@@2AEAT5@333@Z 00000001800b0250 f i GuOverlapTestsHF.obj
 0001:000b0190       ?GeomOverlapCallback_BoxHeightfield@@YA_NAEBVPxGeometry@physx@@AEBV?$PxTransformT@M@2@01PEAUTriggerCache@Gu@2@PEAUPxQueryThreadContext@2@@Z 00000001800b1190 f   GuOverlapTestsHF.obj
 0001:000b06f0       ?GeomOverlapCallback_CapsuleHeightfield@@YA_NAEBVPxGeometry@physx@@AEBV?$PxTransformT@M@2@01PEAUTriggerCache@Gu@2@PEAUPxQueryThreadContext@2@@Z 00000001800b16f0 f   GuOverlapTestsHF.obj
 0001:000b0cf0       ?GeomOverlapCallback_ConvexHeightfield@@YA_NAEBVPxGeometry@physx@@AEBV?$PxTransformT@M@2@01PEAUTriggerCache@Gu@2@PEAUPxQueryThreadContext@2@@Z 00000001800b1cf0 f   GuOverlapTestsHF.obj
 0001:000b1740       ?GeomOverlapCallback_SphereHeightfield@@YA_NAEBVPxGeometry@physx@@AEBV?$PxTransformT@M@2@01PEAUTriggerCache@Gu@2@PEAUPxQueryThreadContext@2@@Z 00000001800b2740 f   GuOverlapTestsHF.obj
 0001:000b2300       ??$gjkRaycast@U?$LocalConvex@VTriangleV@Gu@physx@@@Gu@physx@@U?$LocalConvex@VConvexHullV@Gu@physx@@@23@@Gu@physx@@YA_NAEBU?$LocalConvex@VTriangleV@Gu@physx@@@01@AEBU?$LocalConvex@VConvexHullV@Gu@physx@@@01@AEBT__m128@@222AEAT4@33M@Z 00000001800b3300 f i GuSweepsHF.obj
 0001:000b30a0       ??$traceSegment@VCapsuleTraceSegmentReport@@$0A@$00@HeightFieldTraceUtil@Gu@physx@@QEBAXAEBV?$PxVec3T@M@2@0MPEAVCapsuleTraceSegmentReport@@AEBVPxBounds3@2@_NPEBV32@@Z 00000001800b40a0 f i GuSweepsHF.obj
 0001:000b30a0       ??$traceSegment@VBoxTraceSegmentReport@@$0A@$00@HeightFieldTraceUtil@Gu@physx@@QEBAXAEBV?$PxVec3T@M@2@0MPEAVBoxTraceSegmentReport@@AEBVPxBounds3@2@_NPEBV32@@Z 00000001800b40a0 f i GuSweepsHF.obj
 0001:000b30a0       ??$traceSegment@VConvexTraceSegmentReport@@$0A@$00@HeightFieldTraceUtil@Gu@physx@@QEBAXAEBV?$PxVec3T@M@2@0MPEAVConvexTraceSegmentReport@@AEBVPxBounds3@2@_NPEBV32@@Z 00000001800b40a0 f i GuSweepsHF.obj
 0001:000b3ac0       ??0ConvexTraceSegmentReport@@QEAA@AEBVHeightFieldUtil@Gu@physx@@AEBUConvexHullData@23@AEBVPxMeshScale@3@AEBV?$PxTransformT@M@3@3AEBV?$PxVec3T@M@3@MV?$PxFlags@W4Enum@PxHitFlag@physx@@G@3@M@Z 00000001800b4ac0 f i GuSweepsHF.obj
 0001:000b4430       ??_GBoxTraceSegmentReport@@UEAAPEAXI@Z 00000001800b5430 f i GuSweepsHF.obj
 0001:000b4430       ??_EBoxTraceSegmentReport@@UEAAPEAXI@Z 00000001800b5430 f i GuSweepsHF.obj
 0001:000b4460       ??_ECapsuleTraceSegmentReport@@UEAAPEAXI@Z 00000001800b5460 f i GuSweepsHF.obj
 0001:000b4460       ??_GCapsuleTraceSegmentReport@@UEAAPEAXI@Z 00000001800b5460 f i GuSweepsHF.obj
 0001:000b4490       ??_GConvexTraceSegmentReport@@UEAAPEAXI@Z 00000001800b5490 f i GuSweepsHF.obj
 0001:000b4490       ??_EConvexTraceSegmentReport@@UEAAPEAXI@Z 00000001800b5490 f i GuSweepsHF.obj
 0001:000b44c0       ??_GHeightFieldTraceSegmentReport@@UEAAPEAXI@Z 00000001800b54c0 f i GuSweepsHF.obj
 0001:000b44c0       ??_EHeightFieldTraceSegmentReport@@UEAAPEAXI@Z 00000001800b54c0 f i GuSweepsHF.obj
 0001:000b44f0       ?finalizeHit@ConvexTraceSegmentReport@@QEAA_NAEAUPxGeomSweepHit@physx@@AEBVPxHeightFieldGeometry@3@AEBV?$PxTransformT@M@3@AEBVPxConvexMeshGeometry@3@2AEBV?$PxVec3T@M@3@M@Z 00000001800b54f0 f i GuSweepsHF.obj
 0001:000b4720       ?onEvent@BoxTraceSegmentReport@@UEAA_NIPEBI@Z 00000001800b5720 f i GuSweepsHF.obj
 0001:000b4b70       ?onEvent@CapsuleTraceSegmentReport@@UEAA_NIPEBI@Z 00000001800b5b70 f i GuSweepsHF.obj
 0001:000b4d80       ?onEvent@ConvexTraceSegmentReport@@UEAA_NIPEBI@Z 00000001800b5d80 f i GuSweepsHF.obj
 0001:000b5340       ?prepare@?$OverlapTraceSegment@VCapsuleTraceSegmentReport@@@HeightFieldTraceUtil@Gu@physx@@QEAAXAEBV?$PxVec3T@M@4@00AEAM1@Z 00000001800b6340 f i GuSweepsHF.obj
 0001:000b5340       ?prepare@?$OverlapTraceSegment@VConvexTraceSegmentReport@@@HeightFieldTraceUtil@Gu@physx@@QEAAXAEBV?$PxVec3T@M@4@00AEAM1@Z 00000001800b6340 f i GuSweepsHF.obj
 0001:000b5340       ?prepare@?$OverlapTraceSegment@VBoxTraceSegmentReport@@@HeightFieldTraceUtil@Gu@physx@@QEAAXAEBV?$PxVec3T@M@4@00AEAM1@Z 00000001800b6340 f i GuSweepsHF.obj
 0001:000b55e0       ?sweepBox_HeightFieldGeom@@YA_NAEBVPxGeometry@physx@@AEBV?$PxTransformT@M@2@AEBVPxBoxGeometry@2@1AEBVBox@Gu@2@AEBV?$PxVec3T@M@2@MAEAUPxGeomSweepHit@2@V?$PxFlags@W4Enum@PxHitFlag@physx@@G@2@MPEAUPxQueryThreadContext@2@@Z 00000001800b65e0 f   GuSweepsHF.obj
 0001:000b6420       ?sweepCapsule_HeightFieldGeom@@YA_NAEBVPxGeometry@physx@@AEBV?$PxTransformT@M@2@AEBVPxCapsuleGeometry@2@1AEBVCapsule@Gu@2@AEBV?$PxVec3T@M@2@MAEAUPxGeomSweepHit@2@V?$PxFlags@W4Enum@PxHitFlag@physx@@G@2@MPEAUPxQueryThreadContext@2@@Z 00000001800b7420 f   GuSweepsHF.obj
 0001:000b6d70       ?sweepConvex_HeightFieldGeom@@YA_NAEBVPxGeometry@physx@@AEBV?$PxTransformT@M@2@AEBVPxConvexMeshGeometry@2@1AEBV?$PxVec3T@M@2@MAEAUPxGeomSweepHit@2@V?$PxFlags@W4Enum@PxHitFlag@physx@@G@2@MPEAUPxQueryThreadContext@2@@Z 00000001800b7d70 f   GuSweepsHF.obj
 0001:000b7730       ?testVertexIndex@?$OverlapTraceSegment@VBoxTraceSegmentReport@@@HeightFieldTraceUtil@Gu@physx@@QEAA_NI@Z 00000001800b8730 f i GuSweepsHF.obj
 0001:000b7730       ?testVertexIndex@?$OverlapTraceSegment@VCapsuleTraceSegmentReport@@@HeightFieldTraceUtil@Gu@physx@@QEAA_NI@Z 00000001800b8730 f i GuSweepsHF.obj
 0001:000b7730       ?testVertexIndex@?$OverlapTraceSegment@VConvexTraceSegmentReport@@@HeightFieldTraceUtil@Gu@physx@@QEAA_NI@Z 00000001800b8730 f i GuSweepsHF.obj
 0001:000b7880       ?transformFast@PxBounds3@physx@@SA?AV12@AEBV?$PxTransformT@M@2@AEBV12@@Z 00000001800b8880 f i GuSweepsHF.obj
 0001:000b7c60       ?intersectOBBOBB@Gu@physx@@YA_NAEBV?$PxVec3T@M@2@0AEBV?$PxMat33T@M@2@001_N@Z 00000001800b8c60 f   GuIntersectionBoxBox.obj
 0001:000b82c0       ?intersectCapsuleTriangle@Gu@physx@@YA_NAEBV?$PxVec3T@M@2@000AEBVCapsule@12@AEBUCapsuleTriangleOverlapData@12@@Z 00000001800b92c0 f   GuIntersectionCapsuleTriangle.obj
 0001:000b8e50       ?intersectEdgeEdge@Gu@physx@@YA_NAEBV?$PxVec3T@M@2@0000AEAMAEAV32@@Z 00000001800b9e50 f   GuIntersectionEdgeEdge.obj
 0001:000b9180       ?intersectRayAABB2@Gu@physx@@YA_NAEBT__m128@@0000AEAT3@1@Z 00000001800ba180 f   GuIntersectionRayBox.obj
 0001:000b9240       ?intersectRayAABB2@Gu@physx@@YA_NAEBV?$PxVec3T@M@2@000MAEAM1@Z 00000001800ba240 f   GuIntersectionRayBox.obj
 0001:000b93f0       ?intersectRayAABB@Gu@physx@@YAHAEBV?$PxVec3T@M@2@000AEAM1@Z 00000001800ba3f0 f   GuIntersectionRayBox.obj
 0001:000b9510       ?rayAABBIntersect2@Gu@physx@@YAIAEBV?$PxVec3T@M@2@000AEAV32@AEAM@Z 00000001800ba510 f   GuIntersectionRayBox.obj
 0001:000b9720       ?intersectRayCapsuleInternal@Gu@physx@@YAIAEBV?$PxVec3T@M@2@000MQEAM@Z 00000001800ba720 f   GuIntersectionRayCapsule.obj
 0001:000b9bf0       ?intersectRaySphere@Gu@physx@@YA_NAEBV?$PxVec3T@M@2@0M0MAEAMPEAV32@@Z 00000001800babf0 f   GuIntersectionRaySphere.obj
 0001:000b9ce0       ?intersectRaySphereBasic@Gu@physx@@YA_NAEBV?$PxVec3T@M@2@0M0MAEAMPEAV32@@Z 00000001800bace0 f   GuIntersectionRaySphere.obj
 0001:000b9e40       ?intersectSphereBox@Gu@physx@@YA_NAEBVSphere@12@AEBVBox@12@@Z 00000001800bae40 f   GuIntersectionSphereBox.obj
 0001:000ba070       ?intersectTetrahedronBox@Gu@physx@@YA_NAEBV?$PxVec3T@M@2@000AEBVPxBounds3@2@@Z 00000001800bb070 f   GuIntersectionTetrahedronBox.obj
 0001:000ba450       ?intersectTriangleBox@Gu@physx@@YAHAEBVBoxPadded@12@AEBV?$PxVec3T@M@2@11@Z 00000001800bb450 f   GuIntersectionTriangleBox.obj
 0001:000baa20       ?intersectTriangleBoxBV4@@YAHAEBV?$PxVec3T@M@physx@@00AEBV?$PxMat33T@M@2@00@Z 00000001800bba20 f   GuIntersectionTriangleBox.obj
 0001:000bae60       ?intersectTriangleBox_ReferenceCode@Gu@physx@@YAHAEBV?$PxVec3T@M@2@0000@Z 00000001800bbe60 f   GuIntersectionTriangleBox.obj
 0001:000bb690       ?intersectTriangleBox_Unsafe@Gu@physx@@YAHAEBV?$PxVec3T@M@2@0000@Z 00000001800bc690 f   GuIntersectionTriangleBox.obj
 0001:000bbd40       ?trianglesIntersect@Gu@physx@@YA_NAEBV?$PxVec3T@M@2@00000PEAVSegment@12@@Z 00000001800bcd40 f   GuIntersectionTriangleTriangle.obj
 0001:000bc330       ??0BV4Tree@Gu@physx@@QEAA@W4PxEMPTY@2@@Z 00000001800bd330 f   GuBV4.obj
 0001:000bc340       ??0BV4Tree@Gu@physx@@QEAA@XZ 00000001800bd340 f   GuBV4.obj
 0001:000bc370       ??0SourceMesh@Gu@physx@@QEAA@XZ 00000001800bd370 f   GuBV4.obj
 0001:000bc3a0       ??0TetrahedronSourceMesh@Gu@physx@@QEAA@XZ 00000001800bd3a0 f   GuBV4.obj
 0001:000bc3d0       ??1BV4Tree@Gu@physx@@QEAA@XZ 00000001800bd3d0 f   GuBV4.obj
 0001:000bc430       ??1TetrahedronSourceMesh@Gu@physx@@UEAA@XZ 00000001800bd430 f   GuBV4.obj
 0001:000bc430       ??1SourceMesh@Gu@physx@@UEAA@XZ 00000001800bd430 f   GuBV4.obj
 0001:000bc480       ??4BV4Tree@Gu@physx@@QEAAXAEAV012@@Z 00000001800bd480 f   GuBV4.obj
 0001:000bc510       ??4SourceMesh@Gu@physx@@QEAAXAEAV012@@Z 00000001800bd510 f   GuBV4.obj
 0001:000bc560       ??_GTetrahedronSourceMesh@Gu@physx@@UEAAPEAXI@Z 00000001800bd560 f i GuBV4.obj
 0001:000bc560       ??_ETetrahedronSourceMesh@Gu@physx@@UEAAPEAXI@Z 00000001800bd560 f i GuBV4.obj
 0001:000bc560       ??_GSourceMesh@Gu@physx@@UEAAPEAXI@Z 00000001800bd560 f i GuBV4.obj
 0001:000bc560       ??_ESourceMesh@Gu@physx@@UEAAPEAXI@Z 00000001800bd560 f i GuBV4.obj
 0001:000bc600       ??_ESourceMeshBase@Gu@physx@@UEAAPEAXI@Z 00000001800bd600 f i GuBV4.obj
 0001:000bc600       ??_GSourceMeshBase@Gu@physx@@UEAAPEAXI@Z 00000001800bd600 f i GuBV4.obj
 0001:000bc6a0       ?exportExtraData@BV4Tree@Gu@physx@@QEAAXAEAVPxSerializationContext@3@@Z 00000001800bd6a0 f   GuBV4.obj
 0001:000bc700       ?getPrimitiveBox@SourceMesh@Gu@physx@@UEAAXIAEAT__m128@@0@Z 00000001800bd700 f   GuBV4.obj
 0001:000bc7a0       ?getPrimitiveBox@TetrahedronSourceMesh@Gu@physx@@UEAAXIAEAT__m128@@0@Z 00000001800bd7a0 f   GuBV4.obj
 0001:000bc860       ?importExtraData@BV4Tree@Gu@physx@@QEAAXAEAVPxDeserializationContext@3@@Z 00000001800bd860 f   GuBV4.obj
 0001:000bc8a0       ?init@BV4Tree@Gu@physx@@QEAA_NPEAVSourceMeshBase@23@AEBVPxBounds3@3@@Z 00000001800bd8a0 f   GuBV4.obj
 0001:000bc8a0       ?init@BV32Tree@Gu@physx@@QEAA_NPEAVSourceMeshBase@23@AEBVPxBounds3@3@@Z 00000001800bd8a0 f   GuBV32.obj
 0001:000bc940       ?load@BV4Tree@Gu@physx@@QEAA_NAEAVPxInputStream@3@_N@Z 00000001800bd940 f   GuBV4.obj
 0001:000bcb80       ?refit@BV4Tree@Gu@physx@@QEAA_NAEAVPxBounds3@3@M@Z 00000001800bdb80 f   GuBV4.obj
 0001:000bd2d0       ?refit@SourceMesh@Gu@physx@@UEAAXIAEAVPxBounds3@3@@Z 00000001800be2d0 f   GuBV4.obj
 0001:000bd470       ?refit@TetrahedronSourceMesh@Gu@physx@@UEAAXIAEAVPxBounds3@3@@Z 00000001800be470 f   GuBV4.obj
 0001:000bd690       ?remapTopology@SourceMesh@Gu@physx@@UEAAXPEBI@Z 00000001800be690 f   GuBV4.obj
 0001:000bd930       ?remapTopology@TetrahedronSourceMesh@Gu@physx@@UEAAXPEBI@Z 00000001800be930 f   GuBV4.obj
 0001:000bdbd0       ??0BV4_AABBTree@Gu@physx@@QEAA@XZ 00000001800bebd0 f   GuBV4Build.obj
 0001:000bdbe0       ??0BVData@@QEAA@XZ         00000001800bebe0 f   GuBV4Build.obj
 0001:000bdc10       ??0BuildStats@Gu@physx@@QEAA@XZ 00000001800bec10 f i GuBV4Build.obj
 0001:000bdc20       ??1BV4_AABBTree@Gu@physx@@QEAA@XZ 00000001800bec20 f   GuBV4Build.obj
 0001:000bdc30       ??4BuildStats@Gu@physx@@QEAAAEAU012@$$QEAU012@@Z 00000001800bec30 f i GuBV4Build.obj
 0001:000bdc40       ??4BuildStats@Gu@physx@@QEAAAEAU012@AEBU012@@Z 00000001800bec40 f i GuBV4Build.obj
 0001:000bdc50       ?BuildBV4Ex@Gu@physx@@YA_NAEAVBV4Tree@12@AEAVSourceMeshBase@12@MI_NW4BV4_BuildStrategy@12@@Z 00000001800bec50 f   GuBV4Build.obj
 0001:000beba0       ?allocateNode@BV4BuildParams@@QEAAPEAUBV4Node@@XZ 00000001800bfba0 f   GuBV4Build.obj
 0001:000bf020       ?buildFromMesh@BV4_AABBTree@Gu@physx@@QEAA_NAEAVSourceMeshBase@23@IW4BV4_BuildStrategy@23@@Z 00000001800c0020 f   GuBV4Build.obj
 0001:000c00d0       ?increaseCount@BuildStats@Gu@physx@@QEAAXI@Z 00000001800c10d0 f i GuBV4Build.obj
 0001:000c0b60       ?release@BV4_AABBTree@Gu@physx@@QEAAXXZ 00000001800c1b60 f   GuBV4Build.obj
 0001:000c0c00       ?releaseNodes@BV4BuildParams@@QEAAXXZ 00000001800c1c00 f   GuBV4Build.obj
 0001:000c0c70       ?reset@BuildStats@Gu@physx@@QEAAXXZ 00000001800c1c70 f i GuBV4Build.obj
 0001:000c0c80       ?setCount@BuildStats@Gu@physx@@QEAAXI@Z 00000001800c1c80 f i GuBV4Build.obj
 0001:000c1300       ?walk@BV4_AABBTree@Gu@physx@@QEBAIP6A_NPEBVAABBTreeNode@23@IPEAX@Z1@Z 00000001800c2300 f   GuBV4Build.obj
 0001:000c13c0       ?walkDistance@BV4_AABBTree@Gu@physx@@QEBAIP6A_NPEBVAABBTreeNode@23@IPEAX@ZP6A_N01@Z1@Z 00000001800c23c0 f   GuBV4Build.obj
 0001:000c5420       ?GenericSweep_AABB_CB@@YAXAEBVBox@Gu@physx@@AEBV?$PxVec3T@M@3@MAEBVBV4Tree@23@P6A_NPEAX111IAEAM@Z3I@Z 00000001800c6420 f   GuBV4_AABBSweep.obj
 0001:000c5580       ?Sweep_AABB_BV4@@YAHAEBVBox@Gu@physx@@AEBV?$PxVec3T@M@3@MAEBVBV4Tree@23@PEIAVSweepHit@23@I@Z 00000001800c6580 f   GuBV4_AABBSweep.obj
 0001:000ce100       ?BV4_OverlapBoxAll@@YAIAEBVBox@Gu@physx@@AEBVBV4Tree@23@PEIBV?$PxMat44T@M@3@PEAIIAEA_N@Z 00000001800cf100 f   GuBV4_BoxOverlap.obj
 0001:000ce920       ?BV4_OverlapBoxAny@@YAHAEBVBox@Gu@physx@@AEBVBV4Tree@23@PEIBV?$PxMat44T@M@3@@Z 00000001800cf920 f   GuBV4_BoxOverlap.obj
 0001:000cf0e0       ?BV4_OverlapBoxCB@@YAXAEBVBox@Gu@physx@@AEBVBV4Tree@23@P6A_NPEAXAEBV?$PxVec3T@M@3@333IPEBI@Z2@Z 00000001800d00e0 f   GuBV4_BoxOverlap.obj
 0001:000cf7a0       ?BV4_OverlapBoxCB@@YAXAEBVBox@Gu@physx@@AEBVBV4Tree@23@P6A_NPEAXAEBV?$PxVec3T@M@3@33IPEBI@Z2@Z 00000001800d07a0 f   GuBV4_BoxOverlap.obj
 0001:000cfc50       ?BV4_OverlapCapsuleAll@@YAIAEBVCapsule@Gu@physx@@AEBVBV4Tree@23@PEIBV?$PxMat44T@M@3@PEAIIAEA_N@Z 00000001800d0c50 f   GuBV4_BoxOverlap.obj
 0001:000d0370       ?BV4_OverlapCapsuleAny@@YAHAEBVCapsule@Gu@physx@@AEBVBV4Tree@23@PEIBV?$PxMat44T@M@3@@Z 00000001800d1370 f   GuBV4_BoxOverlap.obj
 0001:000d3150       ?BV4_CapsuleSweepSingle@@YAHAEBVCapsule@Gu@physx@@AEBV?$PxVec3T@M@3@MAEBVBV4Tree@23@PEIAVSweepHit@23@I@Z 00000001800d4150 f   GuBV4_CapsuleSweep.obj
 0001:000d7270       ?BV4_CapsuleSweepSingleAA@@YAHAEBVCapsule@Gu@physx@@AEBV?$PxVec3T@M@3@MAEBVBV4Tree@23@PEIAVSweepHit@23@I@Z 00000001800d8270 f   GuBV4_CapsuleSweepAA.obj
 0001:000e7370       ?BV4_OverlapMeshVsMesh@@YA_NAEAV?$PxReportCallback@UPxGeomIndexPair@physx@@@physx@@AEBVBV4Tree@Gu@2@1PEBV?$PxMat44T@M@2@2AEBV?$PxTransformT@M@2@3AEBVPxMeshScale@2@4V?$PxFlags@W4Enum@PxMeshMeshQueryFlag@physx@@I@2@@Z 00000001800e8370 f   GuBV4_MeshMeshOverlap.obj
 0001:000e7590       ?BV4_OverlapMeshVsMesh@@YA_NAEAV?$PxReportCallback@UPxGeomIndexPair@physx@@@physx@@AEBVBV4Tree@Gu@2@1PEBV?$PxMat44T@M@2@2V?$PxFlags@W4Enum@PxMeshMeshQueryFlag@physx@@I@2@@Z 00000001800e8590 f   GuBV4_MeshMeshOverlap.obj
 0001:000ee820       ??D?$PxMat33T@M@physx@@QEBA?BV?$PxVec3T@M@1@AEBV21@@Z 00000001800ef820 f i GuBV4_OBBSweep.obj
 0001:000ee8b0       ?BV4_BoxSweepSingle@@YAHAEBVBox@Gu@physx@@AEBV?$PxVec3T@M@3@MAEBVBV4Tree@23@PEIBV?$PxMat44T@M@3@PEIAVSweepHit@23@I@Z 00000001800ef8b0 f   GuBV4_OBBSweep.obj
 0001:000eefe0       ?BV4_GenericSweepCB@@YAXAEBVBox@Gu@physx@@AEBV?$PxVec3T@M@3@MAEBVBV4Tree@23@P6A_NPEAX111IAEAM@Z3_N@Z 00000001800effe0 f   GuBV4_OBBSweep.obj
 0001:000ef200       ?Sweep_OBB_BV4@@YAHAEBVBox@Gu@physx@@AEBV?$PxVec3T@M@3@MAEBVBV4Tree@23@PEIAVSweepHit@23@I@Z 00000001800f0200 f   GuBV4_OBBSweep.obj
 0001:000f1d70       ?BV4_RaycastCB@@YAXAEBV?$PxVec3T@M@physx@@0AEBVBV4Tree@Gu@2@PEIBV?$PxMat44T@M@2@MMIP6A?AW4HitCode@42@PEAX000IMMM@Z3@Z 00000001800f2d70 f   GuBV4_Raycast.obj
 0001:000f21b0       ?BV4_RaycastSingle@@YAHAEBV?$PxVec3T@M@physx@@0AEBVBV4Tree@Gu@2@PEIBV?$PxMat44T@M@2@PEIAUPxGeomRaycastHit@2@MMIV?$PxFlags@W4Enum@PxHitFlag@physx@@G@2@@Z 00000001800f31b0 f   GuBV4_Raycast.obj
 0001:000f46e0       ?BV4_OverlapSphereAll@@YAIAEBVSphere@Gu@physx@@AEBVBV4Tree@23@PEIBV?$PxMat44T@M@3@PEAIIAEA_N@Z 00000001800f56e0 f   GuBV4_SphereOverlap.obj
 0001:000f4a00       ?BV4_OverlapSphereAny@@YAHAEBVSphere@Gu@physx@@AEBVBV4Tree@23@PEIBV?$PxMat44T@M@3@@Z 00000001800f5a00 f   GuBV4_SphereOverlap.obj
 0001:000f4ce0       ?BV4_PointDistance@@YAXAEBV?$PxVec3T@M@physx@@AEBVBV4Tree@Gu@2@MAEAIAEAMAEAV12@@Z 00000001800f5ce0 f   GuBV4_SphereOverlap.obj
 0001:000fb690       ?BV4_GenericSweepCB_Old@@YAXAEBV?$PxVec3T@M@physx@@00MAEBVBV4Tree@Gu@2@PEIBV?$PxMat44T@M@2@P6A_NPEAX000IAEAM@Z3@Z 00000001800fc690 f   GuBV4_SphereSweep.obj
 0001:000fbaa0       ?BV4_SphereSweepSingle@@YAHAEBVSphere@Gu@physx@@AEBV?$PxVec3T@M@3@MAEBVBV4Tree@23@PEIBV?$PxMat44T@M@3@PEIAVSweepHit@23@I@Z 00000001800fcaa0 f   GuBV4_SphereSweep.obj
 0001:000fcdb0       ?computeSweepData@physx@@YAMAEBVPxTriangleMeshGeometry@1@AEAV?$PxVec3T@M@1@11M@Z 00000001800fddb0 f i GuMidphaseBV4.obj
 0001:000fe1f0       ?intersectBoxVsMesh_BV4@Gu@physx@@YA_NAEBVBox@12@AEBVTriangleMesh@12@AEBV?$PxTransformT@M@2@AEBVPxMeshScale@2@PEAULimitedResults@12@@Z 00000001800ff1f0 f   GuMidphaseBV4.obj
 0001:000fec90       ?intersectCapsuleVsMesh_BV4@Gu@physx@@YA_NAEBVCapsule@12@AEBVTriangleMesh@12@AEBV?$PxTransformT@M@2@AEBVPxMeshScale@2@PEAULimitedResults@12@@Z 00000001800ffc90 f   GuMidphaseBV4.obj
 0001:000ff4a0       ?intersectMeshVsMesh_BV4@Gu@physx@@YA_NAEAV?$PxReportCallback@UPxGeomIndexPair@physx@@@2@AEBVTriangleMesh@12@1AEBV?$PxTransformT@M@2@2AEBVPxMeshScale@2@3V?$PxFlags@W4Enum@PxMeshMeshQueryFlag@physx@@I@2@@Z 00000001801004a0 f   GuMidphaseBV4.obj
 0001:000ffdb0       ?intersectOBB_BV4@Gu@physx@@YAXPEBVTetrahedronMesh@12@AEBVBox@12@AEAU?$TetMeshHitCallback@UPxGeomRaycastHit@physx@@@12@@Z 0000000180100db0 f   GuMidphaseBV4.obj
 0001:000ffdd0       ?intersectOBB_BV4@Gu@physx@@YAXPEBVTriangleMesh@12@AEBVBox@12@AEAU?$MeshHitCallback@UPxGeomRaycastHit@physx@@@12@_N3@Z 0000000180100dd0 f   GuMidphaseBV4.obj
 0001:000ffdf0       ?intersectSphereVsMesh_BV4@Gu@physx@@YA_NAEBVSphere@12@AEBVTriangleMesh@12@AEBV?$PxTransformT@M@2@AEBVPxMeshScale@2@PEAULimitedResults@12@@Z 0000000180100df0 f   GuMidphaseBV4.obj
 0001:001004f0       ?pointMeshDistance_BV4@Gu@physx@@YAXPEBVTriangleMesh@12@AEBVPxTriangleMeshGeometry@2@AEBV?$PxTransformT@M@2@AEBV?$PxVec3T@M@2@MAEAIAEAMAEAV62@@Z 00000001801014f0 f   GuMidphaseBV4.obj
 0001:00100ba0       ?raycast_triangleMesh_BV4@Gu@physx@@YAIPEBVTriangleMesh@12@AEBVPxTriangleMeshGeometry@2@AEBV?$PxTransformT@M@2@AEBV?$PxVec3T@M@2@3MV?$PxFlags@W4Enum@PxHitFlag@physx@@G@2@IPEIAUPxGeomRaycastHit@2@I@Z 0000000180101ba0 f   GuMidphaseBV4.obj
 0001:001019b0       ?sweepBox_MeshGeom_BV4@Gu@physx@@YA_NPEBVTriangleMesh@12@AEBVPxTriangleMeshGeometry@2@AEBV?$PxTransformT@M@2@AEBVBox@12@AEBV?$PxVec3T@M@2@MAEAUPxGeomSweepHit@2@V?$PxFlags@W4Enum@PxHitFlag@physx@@G@2@M@Z 00000001801029b0 f   GuMidphaseBV4.obj
 0001:00103110       ?sweepCapsule_MeshGeom_BV4@Gu@physx@@YA_NPEBVTriangleMesh@12@AEBVPxTriangleMeshGeometry@2@AEBV?$PxTransformT@M@2@AEBVCapsule@12@AEBV?$PxVec3T@M@2@MAEAUPxGeomSweepHit@2@V?$PxFlags@W4Enum@PxHitFlag@physx@@G@2@M@Z 0000000180104110 f   GuMidphaseBV4.obj
 0001:00103c10       ?sweepConvex_MeshGeom_BV4@Gu@physx@@YAXPEBVTriangleMesh@12@AEBVBox@12@AEBV?$PxVec3T@M@2@MAEAUSweepConvexMeshHitCallback@12@_N@Z 0000000180104c10 f   GuMidphaseBV4.obj
 0001:00103c50       ?transform@PxMeshScale@physx@@QEBA?AV?$PxVec3T@M@2@AEBV32@@Z 0000000180104c50 f i GuMidphaseBV4.obj
 0001:00103e90       ?findOverlapHeightField@PxMeshQuery@physx@@SAIAEBVPxGeometry@2@AEBV?$PxTransformT@M@2@AEBVPxHeightFieldGeometry@2@1PEAIIIAEA_NV?$PxFlags@W4Enum@PxGeometryQueryFlag@physx@@I@2@@Z 0000000180104e90 f   GuMeshQuery.obj
 0001:001045e0       ?findOverlapTriangleMesh@PxMeshQuery@physx@@SAIAEBVPxGeometry@2@AEBV?$PxTransformT@M@2@AEBVPxTriangleMeshGeometry@2@1PEAIIIAEA_NV?$PxFlags@W4Enum@PxGeometryQueryFlag@physx@@I@2@@Z 00000001801055e0 f   GuMeshQuery.obj
 0001:00104930       ?findOverlapTriangleMesh@PxMeshQuery@physx@@SA_NAEAV?$PxReportCallback@UPxGeomIndexPair@physx@@@2@AEBVPxTriangleMeshGeometry@2@AEBV?$PxTransformT@M@2@12V?$PxFlags@W4Enum@PxGeometryQueryFlag@physx@@I@2@V?$PxFlags@W4Enum@PxMeshMeshQueryFlag@physx@@I@2@@Z 0000000180105930 f   GuMeshQuery.obj
 0001:00104a40       ?getTriangle@PxMeshQuery@physx@@SAXAEBVPxHeightFieldGeometry@2@AEBV?$PxTransformT@M@2@IAEAVPxTriangle@2@PEAI3@Z 0000000180105a40 f   GuMeshQuery.obj
 0001:00104ac0       ?getTriangle@PxMeshQuery@physx@@SAXAEBVPxTriangleMeshGeometry@2@AEBV?$PxTransformT@M@2@IAEAVPxTriangle@2@PEAI3@Z 0000000180105ac0 f   GuMeshQuery.obj
 0001:00105020       ?sweep@PxMeshQuery@physx@@SA_NAEBV?$PxVec3T@M@2@MAEBVPxGeometry@2@AEBV?$PxTransformT@M@2@IPEBVPxTriangle@2@AEAUPxGeomSweepHit@2@V?$PxFlags@W4Enum@PxHitFlag@physx@@G@2@PEBIM_NV?$PxFlags@W4Enum@PxGeometryQueryFlag@physx@@I@2@@Z 0000000180106020 f   GuMeshQuery.obj
 0001:00105480       ??$collide@$00$00@MeshRayCollider@@SAXAEBV?$PxVec3T@M@physx@@0M_NPEBVRTreeTriangleMesh@Gu@2@AEAU?$MeshHitCallback@UPxGeomRaycastHit@physx@@@42@PEBV12@@Z 0000000180106480 f i GuMidphaseRTree.obj
 0001:001057f0       ??$collide@$00$0A@@MeshRayCollider@@SAXAEBV?$PxVec3T@M@physx@@0M_NPEBVRTreeTriangleMesh@Gu@2@AEAU?$MeshHitCallback@UPxGeomRaycastHit@physx@@@42@PEBV12@@Z 00000001801067f0 f i GuMidphaseRTree.obj
 0001:00105a30       ??$collide@$0A@$00@MeshRayCollider@@SAXAEBV?$PxVec3T@M@physx@@0M_NPEBVRTreeTriangleMesh@Gu@2@AEAU?$MeshHitCallback@UPxGeomRaycastHit@physx@@@42@PEBV12@@Z 0000000180106a30 f i GuMidphaseRTree.obj
 0001:00107d80       ??0?$RayRTreeCallback@$00$0A@@@QEAA@MAEAU?$MeshHitCallback@UPxGeomRaycastHit@physx@@@Gu@physx@@HPEBXPEBV?$PxVec3T@M@3@AEBV43@3M_N2@Z 0000000180108d80 f i GuMidphaseRTree.obj
 0001:00107ea0       ??1?$RayRTreeCallback@$00$00@@UEAA@XZ 0000000180108ea0 f i GuMidphaseRTree.obj
 0001:00107f30       ??1?$RayRTreeCallback@$0A@$0A@@@UEAA@XZ 0000000180108f30 f i GuMidphaseRTree.obj
 0001:00107f30       ??1?$RayRTreeCallback@$00$0A@@@UEAA@XZ 0000000180108f30 f i GuMidphaseRTree.obj
 0001:00107fc0       ??1?$RayRTreeCallback@$0A@$00@@UEAA@XZ 0000000180108fc0 f i GuMidphaseRTree.obj
 0001:00108048       ??_E?$RayRTreeCallback@$00$00@@W7EAAPEAXI@Z 0000000180109048 f i GuMidphaseRTree.obj
 0001:00108054       ??_E?$RayRTreeCallback@$00$0A@@@W7EAAPEAXI@Z 0000000180109054 f i GuMidphaseRTree.obj
 0001:00108054       ??_E?$RayRTreeCallback@$0A@$0A@@@W7EAAPEAXI@Z 0000000180109054 f i GuMidphaseRTree.obj
 0001:00108060       ??_E?$RayRTreeCallback@$0A@$00@@W7EAAPEAXI@Z 0000000180109060 f i GuMidphaseRTree.obj
 0001:001080d0       ??_E?$RayRTreeCallback@$00$00@@UEAAPEAXI@Z 00000001801090d0 f i GuMidphaseRTree.obj
 0001:001080d0       ??_G?$RayRTreeCallback@$00$00@@UEAAPEAXI@Z 00000001801090d0 f i GuMidphaseRTree.obj
 0001:00108110       ??_G?$RayRTreeCallback@$0A@$0A@@@UEAAPEAXI@Z 0000000180109110 f i GuMidphaseRTree.obj
 0001:00108110       ??_E?$RayRTreeCallback@$00$0A@@@UEAAPEAXI@Z 0000000180109110 f i GuMidphaseRTree.obj
 0001:00108110       ??_E?$RayRTreeCallback@$0A@$0A@@@UEAAPEAXI@Z 0000000180109110 f i GuMidphaseRTree.obj
 0001:00108110       ??_G?$RayRTreeCallback@$00$0A@@@UEAAPEAXI@Z 0000000180109110 f i GuMidphaseRTree.obj
 0001:00108150       ??_G?$RayRTreeCallback@$0A@$00@@UEAAPEAXI@Z 0000000180109150 f i GuMidphaseRTree.obj
 0001:00108150       ??_E?$RayRTreeCallback@$0A@$00@@UEAAPEAXI@Z 0000000180109150 f i GuMidphaseRTree.obj
 0001:00108190       ??_GCallback@RTree@Gu@physx@@UEAAPEAXI@Z 0000000180109190 f i GuMidphaseRTree.obj
 0001:00108190       ??_ECallback@RTree@Gu@physx@@UEAAPEAXI@Z 0000000180109190 f i GuMidphaseRTree.obj
 0001:001081c0       ??_GRayMeshColliderCallback@@UEAAPEAXI@Z 00000001801091c0 f i GuMidphaseRTree.obj
 0001:001081c0       ??_ESweepCapsuleMeshHitCallback@Gu@physx@@UEAAPEAXI@Z 00000001801091c0 f i GuSweepsMesh.obj
 0001:001081c0       ??_ERayMeshColliderCallback@@UEAAPEAXI@Z 00000001801091c0 f i GuMidphaseRTree.obj
 0001:001081c0       ??_GSweepCapsuleMeshHitCallback@Gu@physx@@UEAAPEAXI@Z 00000001801091c0 f i GuSweepsMesh.obj
 0001:001081f0       ?collideOBB@MeshRayCollider@@SAXAEBVBox@Gu@physx@@_NPEBVRTreeTriangleMesh@34@AEAU?$MeshHitCallback@UPxGeomRaycastHit@physx@@@34@1@Z 00000001801091f0 f   GuMidphaseRTree.obj
 0001:001086c0       ?intersectBoxVsMesh_RTREE@Gu@physx@@YA_NAEBVBox@12@AEBVTriangleMesh@12@AEBV?$PxTransformT@M@2@AEBVPxMeshScale@2@PEAULimitedResults@12@@Z 00000001801096c0 f   GuMidphaseRTree.obj
 0001:00108730       ?intersectCapsuleVsMesh_RTREE@Gu@physx@@YA_NAEBVCapsule@12@AEBVTriangleMesh@12@AEBV?$PxTransformT@M@2@AEBVPxMeshScale@2@PEAULimitedResults@12@@Z 0000000180109730 f   GuMidphaseRTree.obj
 0001:001087b0       ?intersectOBB_RTREE@Gu@physx@@YAXPEBVTriangleMesh@12@AEBVBox@12@AEAU?$MeshHitCallback@UPxGeomRaycastHit@physx@@@12@_N3@Z 00000001801097b0 f   GuMidphaseRTree.obj
 0001:001087e0       ?intersectSphereVsMesh_RTREE@Gu@physx@@YA_NAEBVSphere@12@AEBVTriangleMesh@12@AEBV?$PxTransformT@M@2@AEBVPxMeshScale@2@PEAULimitedResults@12@@Z 00000001801097e0 f   GuMidphaseRTree.obj
 0001:00108810       ?pointMeshDistance_RTREE@Gu@physx@@YAXPEBVTriangleMesh@12@AEBVPxTriangleMeshGeometry@2@AEBV?$PxTransformT@M@2@AEBV?$PxVec3T@M@2@MAEAIAEAMAEAV62@@Z 0000000180109810 f   GuMidphaseRTree.obj
 0001:00109610       ?processHit@RayMeshColliderCallback@@UEAA_NAEBUPxGeomRaycastHit@physx@@AEBV?$PxVec3T@M@3@11AEAMPEBI@Z 000000018010a610 f i GuMidphaseRTree.obj
 0001:00109dc0       ?processResults@?$RayRTreeCallback@$00$00@@UEAA_NIPEAI@Z 000000018010adc0 f i GuMidphaseRTree.obj
 0001:0010a130       ?processResults@?$RayRTreeCallback@$00$00@@UEAA_NIPEAIAEAM@Z 000000018010b130 f i GuMidphaseRTree.obj
 0001:0010a4a0       ?processResults@?$RayRTreeCallback@$0A@$0A@@@UEAA_NIPEAI@Z 000000018010b4a0 f i GuMidphaseRTree.obj
 0001:0010a4a0       ?processResults@?$RayRTreeCallback@$00$0A@@@UEAA_NIPEAI@Z 000000018010b4a0 f i GuMidphaseRTree.obj
 0001:0010a710       ?processResults@?$RayRTreeCallback@$00$0A@@@UEAA_NIPEAIAEAM@Z 000000018010b710 f i GuMidphaseRTree.obj
 0001:0010a710       ?processResults@?$RayRTreeCallback@$0A@$0A@@@UEAA_NIPEAIAEAM@Z 000000018010b710 f i GuMidphaseRTree.obj
 0001:0010a980       ?processResults@?$RayRTreeCallback@$0A@$00@@UEAA_NIPEAI@Z 000000018010b980 f i GuMidphaseRTree.obj
 0001:0010afb0       ?processResults@?$RayRTreeCallback@$0A@$00@@UEAA_NIPEAIAEAM@Z 000000018010bfb0 f i GuMidphaseRTree.obj
 0001:0010b600       ?raycast_triangleMesh_RTREE@Gu@physx@@YAIPEBVTriangleMesh@12@AEBVPxTriangleMeshGeometry@2@AEBV?$PxTransformT@M@2@AEBV?$PxVec3T@M@2@3MV?$PxFlags@W4Enum@PxHitFlag@physx@@G@2@IPEIAUPxGeomRaycastHit@2@I@Z 000000018010c600 f   GuMidphaseRTree.obj
 0001:0010bd80       ?sweepBox_MeshGeom_RTREE@Gu@physx@@YA_NPEBVTriangleMesh@12@AEBVPxTriangleMeshGeometry@2@AEBV?$PxTransformT@M@2@AEBVBox@12@AEBV?$PxVec3T@M@2@MAEAUPxGeomSweepHit@2@V?$PxFlags@W4Enum@PxHitFlag@physx@@G@2@M@Z 000000018010cd80 f   GuMidphaseRTree.obj
 0001:0010d260       ?sweepCapsule_MeshGeom_RTREE@Gu@physx@@YA_NPEBVTriangleMesh@12@AEBVPxTriangleMeshGeometry@2@AEBV?$PxTransformT@M@2@AEBVCapsule@12@AEBV?$PxVec3T@M@2@MAEAUPxGeomSweepHit@2@V?$PxFlags@W4Enum@PxHitFlag@physx@@G@2@M@Z 000000018010e260 f   GuMidphaseRTree.obj
 0001:0010da10       ?sweepConvex_MeshGeom_RTREE@Gu@physx@@YAXPEBVTriangleMesh@12@AEBVBox@12@AEBV?$PxVec3T@M@2@MAEAUSweepConvexMeshHitCallback@12@_N@Z 000000018010ea10 f   GuMidphaseRTree.obj
 0001:0010e390       ??_E?$PxReportCallback@UPxGeomIndexPair@physx@@@physx@@UEAAPEAXI@Z 000000018010f390 f i GuOverlapTestsMesh.obj
 0001:0010e390       ??_G?$PxReportCallback@UPxGeomIndexPair@physx@@@physx@@UEAAPEAXI@Z 000000018010f390 f i GuOverlapTestsMesh.obj
 0001:0010e420       ?GeomOverlapCallback_BoxMesh@@YA_NAEBVPxGeometry@physx@@AEBV?$PxTransformT@M@2@01PEAUTriggerCache@Gu@2@PEAUPxQueryThreadContext@2@@Z 000000018010f420 f   GuOverlapTestsMesh.obj
 0001:0010e530       ?GeomOverlapCallback_CapsuleMesh@@YA_NAEBVPxGeometry@physx@@AEBV?$PxTransformT@M@2@01PEAUTriggerCache@Gu@2@PEAUPxQueryThreadContext@2@@Z 000000018010f530 f   GuOverlapTestsMesh.obj
 0001:0010e640       ?GeomOverlapCallback_ConvexMesh@@YA_NAEBVPxGeometry@physx@@AEBV?$PxTransformT@M@2@01PEAUTriggerCache@Gu@2@PEAUPxQueryThreadContext@2@@Z 000000018010f640 f   GuOverlapTestsMesh.obj
 0001:0010eb40       ?GeomOverlapCallback_MeshMesh@@YA_NAEBVPxGeometry@physx@@AEBV?$PxTransformT@M@2@01PEAUTriggerCache@Gu@2@PEAUPxQueryThreadContext@2@@Z 000000018010fb40 f   GuOverlapTestsMesh.obj
 0001:0010ec00       ?GeomOverlapCallback_SphereMesh@@YA_NAEBVPxGeometry@physx@@AEBV?$PxTransformT@M@2@01PEAUTriggerCache@Gu@2@PEAUPxQueryThreadContext@2@@Z 000000018010fc00 f   GuOverlapTestsMesh.obj
 0001:0010eff0       ??0RTree@Gu@physx@@QEAA@W4PxEMPTY@2@@Z 000000018010fff0 f   GuRTree.obj
 0001:0010f000       ?exportExtraData@RTree@Gu@physx@@QEAAXAEAVPxSerializationContext@3@@Z 0000000180110000 f   GuRTree.obj
 0001:0010f040       ?importExtraData@RTree@Gu@physx@@QEAAXAEAVPxDeserializationContext@3@@Z 0000000180110040 f   GuRTree.obj
 0001:0010f070       ?load@RTree@Gu@physx@@QEAA_NAEAVPxInputStream@3@I_N@Z 0000000180110070 f   GuRTree.obj
 0001:0010f380       ?refitAllStaticTree@RTree@Gu@physx@@QEAAXAEAUCallbackRefit@123@PEAVPxBounds3@3@@Z 0000000180110380 f   GuRTree.obj
 0001:0010f8e0       ?validate@RTree@Gu@physx@@QEAAXPEAUCallbackRefit@123@@Z 00000001801108e0 f   GuRTree.obj
 0001:0010fa40       ?validateRecursive@RTree@Gu@physx@@IEAAXIURTreeNodeQ@23@PEAURTreePage@23@PEAUCallbackRefit@123@@Z 0000000180110a40 f   GuRTree.obj
 0001:0010fb70       ??$traverseRay@$00@RTree@Gu@physx@@QEBAXAEBV?$PxVec3T@M@2@0IPEAIPEAUCallbackRaycast@012@PEBV32@M@Z 0000000180110b70 f i GuRTreeQueries.obj
 0001:0010ff10       ??$traverseRay@$0A@@RTree@Gu@physx@@QEBAXAEBV?$PxVec3T@M@2@0IPEAIPEAUCallbackRaycast@012@PEBV32@M@Z 0000000180110f10 f i GuRTreeQueries.obj
 0001:00110260       ?traverseAABB@RTree@Gu@physx@@QEBAXAEBV?$PxVec3T@M@3@0IPEAIPEAUCallback@123@@Z 0000000180111260 f   GuRTreeQueries.obj
 0001:00110420       ?traverseOBB@RTree@Gu@physx@@QEBAXAEBVBox@23@IPEAIPEAUCallback@123@@Z 0000000180111420 f   GuRTreeQueries.obj
 0001:00110d00       ??0SweepBoxMeshHitCallback@Gu@physx@@QEAA@W4Enum@CallbackMode@12@AEBVPxMat34Padded@2@M_NAEBVBox@12@AEBV?$PxVec3T@M@2@44AEBV?$PxFlags@W4Enum@PxHitFlag@physx@@G@2@M2M@Z 0000000180111d00 f   GuSweepsMesh.obj
 0001:00110e10       ??0SweepCapsuleMeshHitCallback@Gu@physx@@QEAA@AEAUPxGeomSweepHit@2@AEBV?$PxMat34T@M@2@M_NAEBVCapsule@12@AEBV?$PxVec3T@M@2@AEBV?$PxFlags@W4Enum@PxHitFlag@physx@@G@2@2M@Z 0000000180111e10 f   GuSweepsMesh.obj
 0001:00110ee0       ??0SweepConvexMeshHitCallback@Gu@physx@@QEAA@AEBUConvexHullData@12@AEBVPxMeshScale@2@AEBVFastVertex2ShapeScaling@Cm@2@AEBV?$PxTransformT@M@2@3AEBV?$PxVec3T@M@2@MV?$PxFlags@W4Enum@PxHitFlag@physx@@G@2@_NM6M@Z 0000000180111ee0 f   GuSweepsMesh.obj
 0001:00111830       ??_GSweepBoxMeshHitCallback@Gu@physx@@UEAAPEAXI@Z 0000000180112830 f i GuSweepsMesh.obj
 0001:00111830       ??_ESweepBoxMeshHitCallback@Gu@physx@@UEAAPEAXI@Z 0000000180112830 f i GuSweepsMesh.obj
 0001:00111860       ??_ESweepConvexMeshHitCallback@Gu@physx@@UEAAPEAXI@Z 0000000180112860 f i GuSweepsMesh.obj
 0001:00111860       ??_GSweepConvexMeshHitCallback@Gu@physx@@UEAAPEAXI@Z 0000000180112860 f i GuSweepsMesh.obj
 0001:00111890       ??_GSweepShapeMeshHitCallback@Gu@physx@@UEAAPEAXI@Z 0000000180112890 f i GuSweepsMesh.obj
 0001:00111890       ??_ESweepShapeMeshHitCallback@Gu@physx@@UEAAPEAXI@Z 0000000180112890 f i GuSweepsMesh.obj
 0001:001118c0       ?finalizeHit@SweepBoxMeshHitCallback@Gu@physx@@QEBA_NAEAUPxGeomSweepHit@3@AEBVPxTriangleMeshGeometry@3@AEBV?$PxTransformT@M@3@2AEBV?$PxVec3T@M@3@_N4@Z 00000001801128c0 f   GuSweepsMesh.obj
 0001:00111f80       ?finalizeHit@SweepCapsuleMeshHitCallback@Gu@physx@@QEBA_NAEAUPxGeomSweepHit@3@AEBVCapsule@23@AEBVPxTriangleMeshGeometry@3@AEBV?$PxTransformT@M@3@_N@Z 0000000180112f80 f   GuSweepsMesh.obj
 0001:00112130       ?finalizeHit@SweepConvexMeshHitCallback@Gu@physx@@QEAA_NAEAUPxGeomSweepHit@3@AEBVPxTriangleMeshGeometry@3@AEBV?$PxTransformT@M@3@AEBVPxConvexMeshGeometry@3@2AEBV?$PxVec3T@M@3@M_N555@Z 0000000180113130 f   GuSweepsMesh.obj
 0001:00112610       ?processHit@SweepBoxMeshHitCallback@Gu@physx@@UEAA_NAEBUPxGeomRaycastHit@3@AEBV?$PxVec3T@M@3@11AEAMPEBI@Z 0000000180113610 f   GuSweepsMesh.obj
 0001:00112e10       ?processHit@SweepCapsuleMeshHitCallback@Gu@physx@@UEAA_NAEBUPxGeomRaycastHit@3@AEBV?$PxVec3T@M@3@11AEAMPEBI@Z 0000000180113e10 f   GuSweepsMesh.obj
 0001:00113370       ?processHit@SweepConvexMeshHitCallback@Gu@physx@@UEAA_NAEBUPxGeomRaycastHit@3@AEBV?$PxVec3T@M@3@11AEAMPEBI@Z 0000000180114370 f   GuSweepsMesh.obj
 0001:00113ab0       ?sweepBox_MeshGeom@@YA_NAEBVPxGeometry@physx@@AEBV?$PxTransformT@M@2@AEBVPxBoxGeometry@2@1AEBVBox@Gu@2@AEBV?$PxVec3T@M@2@MAEAUPxGeomSweepHit@2@V?$PxFlags@W4Enum@PxHitFlag@physx@@G@2@MPEAUPxQueryThreadContext@2@@Z 0000000180114ab0 f   GuSweepsMesh.obj
 0001:00113b40       ?sweepCapsule_MeshGeom@@YA_NAEBVPxGeometry@physx@@AEBV?$PxTransformT@M@2@AEBVPxCapsuleGeometry@2@1AEBVCapsule@Gu@2@AEBV?$PxVec3T@M@2@MAEAUPxGeomSweepHit@2@V?$PxFlags@W4Enum@PxHitFlag@physx@@G@2@MPEAUPxQueryThreadContext@2@@Z 0000000180114b40 f   GuSweepsMesh.obj
 0001:00113bd0       ?sweepConvex_MeshGeom@@YA_NAEBVPxGeometry@physx@@AEBV?$PxTransformT@M@2@AEBVPxConvexMeshGeometry@2@1AEBV?$PxVec3T@M@2@MAEAUPxGeomSweepHit@2@V?$PxFlags@W4Enum@PxHitFlag@physx@@G@2@MPEAUPxQueryThreadContext@2@@Z 0000000180114bd0 f   GuSweepsMesh.obj
 0001:00114710       ??0TriangleMesh@Gu@physx@@QEAA@AEBUPxTriangleMeshInternalData@2@@Z 0000000180115710 f   GuTriangleMesh.obj
 0001:001147f0       ??0TriangleMesh@Gu@physx@@QEAA@PEAVMeshFactory@12@AEAVTriangleMeshData@12@@Z 00000001801157f0 f   GuTriangleMesh.obj
 0001:00114b70       ??1TriangleMesh@Gu@physx@@UEAA@XZ 0000000180115b70 f   GuTriangleMesh.obj
 0001:00114dc0       ??_ETriangleMesh@Gu@physx@@UEAAPEAXI@Z 0000000180115dc0 f i GuTriangleMesh.obj
 0001:00114dc0       ??_GTriangleMesh@Gu@physx@@UEAAPEAXI@Z 0000000180115dc0 f i GuTriangleMesh.obj
 0001:00114e30       ?exportExtraData@TriangleMesh@Gu@physx@@UEAAXAEAVPxSerializationContext@3@@Z 0000000180115e30 f   GuTriangleMesh.obj
 0001:00115000       ?getLocalBounds@TriangleMesh@Gu@physx@@UEBA?AVPxBounds3@3@XZ 0000000180116000 f i GuTriangleMesh.obj
 0001:00115090       ?getMassInformation@TriangleMesh@Gu@physx@@UEBAXAEAMAEAV?$PxMat33T@M@3@AEAV?$PxVec3T@M@3@@Z 0000000180116090 f i GuTriangleMesh.obj
 0001:00115110       ?getNbTriangles@TriangleMesh@Gu@physx@@UEBAIXZ 0000000180116110 f i GuTriangleMesh.obj
 0001:00115120       ?getPreferSDFProjection@TriangleMesh@Gu@physx@@UEBA_NXZ 0000000180116120 f i GuTriangleMesh.obj
 0001:00115130       ?getSDF@TriangleMesh@Gu@physx@@UEBAPEBMXZ 0000000180116130 f i GuTriangleMesh.obj
 0001:00115140       ?getSDFDimensions@TriangleMesh@Gu@physx@@UEBAXAEAI00@Z 0000000180116140 f i GuTriangleMesh.obj
 0001:00115170       ?getTriangleMaterialIndex@TriangleMesh@Gu@physx@@UEBAGI@Z 0000000180116170 f i GuTriangleMesh.obj
 0001:00115190       ?getTriangleMeshFlags@TriangleMesh@Gu@physx@@UEBA?AV?$PxFlags@W4Enum@PxTriangleMeshFlag@physx@@E@3@XZ 0000000180116190 f i GuTriangleMesh.obj
 0001:001151a0       ?getTrianglesRemap@TriangleMesh@Gu@physx@@UEBAPEBIXZ 00000001801161a0 f i GuTriangleMesh.obj
 0001:001151b0       ?getVerticesForModification@TriangleMesh@Gu@physx@@UEAAPEAV?$PxVec3T@M@3@XZ 00000001801161b0 f   GuTriangleMesh.obj
 0001:001151f0       ?importExtraData@TriangleMesh@Gu@physx@@QEAAXAEAVPxDeserializationContext@3@@Z 00000001801161f0 f   GuTriangleMesh.obj
 0001:00115390       ?isKindOf@PxTriangleMesh@physx@@MEBA_NPEBD@Z 0000000180116390 f i GuTriangleMesh.obj
 0001:00115400       ?onRefCountZero@TriangleMesh@Gu@physx@@UEAAXXZ 0000000180116400 f   GuTriangleMesh.obj
 0001:001154d0       ?refitBVH@TriangleMesh@Gu@physx@@UEAA?AVPxBounds3@3@XZ 00000001801164d0 f   GuTriangleMesh.obj
 0001:001155a0       ?requestEdgeList@TriangleMesh@Gu@physx@@QEBAPEBVEdgeList@23@XZ 00000001801165a0 f   GuTriangleMesh.obj
 0001:00115690       ?setAllEdgesActive@TriangleMesh@Gu@physx@@QEAAXXZ 0000000180116690 f   GuTriangleMesh.obj
 0001:00115780       ?setPreferSDFProjection@TriangleMesh@Gu@physx@@UEAAX_N@Z 0000000180116780 f i GuTriangleMesh.obj
 0001:001157b0       ??0BV4TriangleMesh@Gu@physx@@QEAA@AEBUPxTriangleMeshInternalData@2@@Z 00000001801167b0 f   GuTriangleMeshBV4.obj
 0001:00115920       ??0BV4TriangleMesh@Gu@physx@@QEAA@PEAVMeshFactory@12@AEAVTriangleMeshData@12@@Z 0000000180116920 f   GuTriangleMeshBV4.obj
 0001:001159b0       ??_GBV4TriangleMesh@Gu@physx@@UEAAPEAXI@Z 00000001801169b0 f i GuTriangleMeshBV4.obj
 0001:001159b0       ??_EBV4TriangleMesh@Gu@physx@@UEAAPEAXI@Z 00000001801169b0 f i GuTriangleMeshBV4.obj
 0001:00115a40       ?createObject@BV4TriangleMesh@Gu@physx@@SAPEAVTriangleMesh@23@AEAPEAEAEAVPxDeserializationContext@3@@Z 0000000180116a40 f   GuTriangleMeshBV4.obj
 0001:00115b30       ?exportExtraData@BV4TriangleMesh@Gu@physx@@UEAAXAEAVPxSerializationContext@3@@Z 0000000180116b30 f   GuTriangleMeshBV4.obj
 0001:00115b70       ?getConcreteTypeName@BV4TriangleMesh@Gu@physx@@UEBAPEBDXZ 0000000180116b70 f i GuTriangleMeshBV4.obj
 0001:00115b80       ?getInternalData@BV4TriangleMesh@Gu@physx@@UEBA_NAEAUPxTriangleMeshInternalData@3@_N@Z 0000000180116b80 f   GuTriangleMeshBV4.obj
 0001:00115c70       DllMain                    0000000180116c70 f i LIBCMT:dll_dllmain_stub.obj
 0001:00115c70       ?raw_length@charNode@@UEBAHXZ 0000000180116c70 f i libvcruntime:undname.obj
 0001:00115c70       ?getMidphaseID@BV4TriangleMesh@Gu@physx@@UEBA?AW4Enum@PxMeshMidPhase@3@XZ 0000000180116c70 f i GuTriangleMeshBV4.obj
 0001:00115c70       ?length@charNode@@UEBAHXZ  0000000180116c70 f i libvcruntime:undname.obj
 0001:00115c70       ?getMidphaseID@BV4TriangleMeshBuilder@physx@@UEBA?AW4Enum@PxMeshMidPhase@2@XZ 0000000180116c70 f i GuCookingTriangleMesh.obj
 0001:00115c70       _get_startup_argv_mode     0000000180116c70 f i LIBCMT:argv_mode.obj
 0001:00115c80       ?getVerticesForModification@BV4TriangleMesh@Gu@physx@@UEAAPEAV?$PxVec3T@M@3@XZ 0000000180116c80 f   GuTriangleMeshBV4.obj
 0001:00115c80       ?getVerticesForModification@RTreeTriangleMesh@Gu@physx@@UEAAPEAV?$PxVec3T@M@3@XZ 0000000180116c80 f   GuTriangleMeshRTree.obj
 0001:00115c90       ?refitBVH@BV4TriangleMesh@Gu@physx@@UEAA?AVPxBounds3@3@XZ 0000000180116c90 f   GuTriangleMeshBV4.obj
 0001:00115e00       PxGetTriangleMeshInternalData 0000000180116e00 f   GuTriangleMeshBV4.obj
 0001:00115e20       ??0RTreeTriangleMesh@Gu@physx@@QEAA@PEAVMeshFactory@12@AEAVTriangleMeshData@12@@Z 0000000180116e20 f   GuTriangleMeshRTree.obj
 0001:00115f90       ??_G?$RefitCallback@I@physx@@UEAAPEAXI@Z 0000000180116f90 f i GuTriangleMeshRTree.obj
 0001:00115f90       ??_E?$RefitCallback@G@physx@@UEAAPEAXI@Z 0000000180116f90 f i GuTriangleMeshRTree.obj
 0001:00115f90       ??_G?$RefitCallback@G@physx@@UEAAPEAXI@Z 0000000180116f90 f i GuTriangleMeshRTree.obj
 0001:00115f90       ??_E?$RefitCallback@I@physx@@UEAAPEAXI@Z 0000000180116f90 f i GuTriangleMeshRTree.obj
 0001:00115fc0       ??_GRTreeTriangleMesh@Gu@physx@@UEAAPEAXI@Z 0000000180116fc0 f i GuTriangleMeshRTree.obj
 0001:00115fc0       ??_ERTreeTriangleMesh@Gu@physx@@UEAAPEAXI@Z 0000000180116fc0 f i GuTriangleMeshRTree.obj
 0001:00116070       ?createObject@RTreeTriangleMesh@Gu@physx@@SAPEAVTriangleMesh@23@AEAPEAEAEAVPxDeserializationContext@3@@Z 0000000180117070 f   GuTriangleMeshRTree.obj
 0001:00116110       ?exportExtraData@RTreeTriangleMesh@Gu@physx@@UEAAXAEAVPxSerializationContext@3@@Z 0000000180117110 f   GuTriangleMeshRTree.obj
 0001:00116150       ?getConcreteTypeName@RTreeTriangleMesh@Gu@physx@@UEBAPEBDXZ 0000000180117150 f i GuTriangleMeshRTree.obj
 0001:00116160       ?recomputeBounds@?$RefitCallback@G@physx@@UEAAXIAEAT__m128@@0@Z 0000000180117160 f i GuTriangleMeshRTree.obj
 0001:00116490       ?recomputeBounds@?$RefitCallback@I@physx@@UEAAXIAEAT__m128@@0@Z 0000000180117490 f i GuTriangleMeshRTree.obj
 0001:001167b0       ?refitBVH@RTreeTriangleMesh@Gu@physx@@UEAA?AVPxBounds3@3@XZ 00000001801177b0 f   GuTriangleMeshRTree.obj
 0001:001168d0       ??0BV32Tree@Gu@physx@@QEAA@XZ 00000001801178d0 f   GuBV32.obj
 0001:00116900       ??1BV32Tree@Gu@physx@@QEAA@XZ 0000000180117900 f   GuBV32.obj
 0001:00116910       ?calculateLeafNode@BV32Tree@Gu@physx@@QEAAXAEAUBV32Data@23@@Z 0000000180117910 f   GuBV32.obj
 0001:00116b50       ?createSOAformatNode@BV32Tree@Gu@physx@@QEAAXAEAUBV32DataPacked@23@AEBUBV32Data@23@IAEAI2@Z 0000000180117b50 f   GuBV32.obj
 0001:00116fb0       ?load@BV32Tree@Gu@physx@@QEAA_NAEAVPxInputStream@3@_N@Z 0000000180117fb0 f   GuBV32.obj
 0001:00117300       ?release@BV32Tree@Gu@physx@@QEAAXXZ 0000000180118300 f   GuBV32.obj
 0001:001173c0       ??0BV32Node@@QEAA@XZ       00000001801183c0 f i GuBV32Build.obj
 0001:00117840       ?BuildBV32Ex@Gu@physx@@YA_NAEAVBV32Tree@12@AEAVSourceMeshBase@12@MI@Z 0000000180118840 f   GuBV32Build.obj
 0001:001187e0       ??0BVTetrahedronMesh@Gu@physx@@QEAA@AEAVTetrahedronMeshData@12@AEAVSoftBodyCollisionData@12@PEAVMeshFactory@12@@Z 00000001801197e0 f   GuTetrahedronMesh.obj
 0001:00118a40       ??0SoftBodyMesh@Gu@physx@@QEAA@PEAVMeshFactory@12@AEAVSoftBodyMeshData@12@@Z 0000000180119a40 f   GuTetrahedronMesh.obj
 0001:00118e10       ??0TetrahedronMesh@Gu@physx@@QEAA@PEAVMeshFactory@12@AEAVTetrahedronMeshData@12@@Z 0000000180119e10 f   GuTetrahedronMesh.obj
 0001:00118f00       ??1SoftBodyAuxData@Gu@physx@@UEAA@XZ 0000000180119f00 f   GuTetrahedronMesh.obj
 0001:00119160       ??1TetrahedronMesh@Gu@physx@@UEAA@XZ 000000018011a160 f   GuTetrahedronMesh.obj
 0001:00119200       ??_EBVTetrahedronMesh@Gu@physx@@UEAAPEAXI@Z 000000018011a200 f i GuTetrahedronMesh.obj
 0001:00119200       ??_GBVTetrahedronMesh@Gu@physx@@UEAAPEAXI@Z 000000018011a200 f i GuTetrahedronMesh.obj
 0001:00119380       ??_ESoftBodyAuxData@Gu@physx@@UEAAPEAXI@Z 000000018011a380 f i GuTetrahedronMesh.obj
 0001:00119380       ??_GSoftBodyAuxData@Gu@physx@@UEAAPEAXI@Z 000000018011a380 f i GuTetrahedronMesh.obj
 0001:001193f0       ??_ESoftBodyMesh@Gu@physx@@UEAAPEAXI@Z 000000018011a3f0 f i GuTetrahedronMesh.obj
 0001:001193f0       ??_GSoftBodyMesh@Gu@physx@@UEAAPEAXI@Z 000000018011a3f0 f i GuTetrahedronMesh.obj
 0001:001194c0       ??_GTetrahedronMesh@Gu@physx@@UEAAPEAXI@Z 000000018011a4c0 f i GuTetrahedronMesh.obj
 0001:001194c0       ??_ETetrahedronMesh@Gu@physx@@UEAAPEAXI@Z 000000018011a4c0 f i GuTetrahedronMesh.obj
 0001:00119530       ?exportExtraData@SoftBodyMesh@Gu@physx@@UEAAXAEAVPxSerializationContext@3@@Z 000000018011a530 f   GuTetrahedronMesh.obj
 0001:00119620       ?getConcreteTypeName@SoftBodyAuxData@Gu@physx@@UEBAPEBDXZ 000000018011a620 f i GuTetrahedronMesh.obj
 0001:00119630       ?getConcreteTypeName@SoftBodyMesh@Gu@physx@@UEBAPEBDXZ 000000018011a630 f i GuTetrahedronMesh.obj
 0001:00119640       ?getConcreteTypeName@TetrahedronMesh@Gu@physx@@UEBAPEBDXZ 000000018011a640 f i GuTetrahedronMesh.obj
 0001:00119650       ?getLocalBounds@TetrahedronMesh@Gu@physx@@UEBA?AVPxBounds3@3@XZ 000000018011a650 f i GuTetrahedronMesh.obj
 0001:001196e0       ?getNbTetrahedrons@TetrahedronMesh@Gu@physx@@UEBAIXZ 000000018011a6e0 f i GuTetrahedronMesh.obj
 0001:001196f0       ?getBounds@BVH@Gu@physx@@UEBAPEBVPxBounds3@3@XZ 000000018011a6f0 f i GuBVH.obj
 0001:001196f0       ?getTetrahedraRemap@BVTetrahedronMesh@Gu@physx@@UEBAPEBIXZ 000000018011a6f0 f i GuTetrahedronMesh.obj
 0001:00119700       ?getTetrahedronMeshFlags@TetrahedronMesh@Gu@physx@@UEBA?AV?$PxFlags@W4Enum@PxTetrahedronMeshFlag@physx@@E@3@XZ 000000018011a700 f i GuTetrahedronMesh.obj
 0001:00119710       ?getTetrahedrons@TetrahedronMesh@Gu@physx@@UEBAPEBXXZ 000000018011a710 f i GuTetrahedronMesh.obj
 0001:00119720       ?isKindOf@PxSoftBodyAuxData@physx@@MEBA_NPEBD@Z 000000018011a720 f i GuTetrahedronMesh.obj
 0001:00119790       ?isKindOf@PxSoftBodyMesh@physx@@MEBA_NPEBD@Z 000000018011a790 f i GuTetrahedronMesh.obj
 0001:00119800       ?isKindOf@PxTetrahedronMesh@physx@@MEBA_NPEBD@Z 000000018011a800 f i GuTetrahedronMesh.obj
 0001:00119870       ?release@SimulationTetrahedronMeshData@Gu@physx@@UEAAXXZ 000000018011a870 f i GuCookingTetrahedronMesh.obj
 0001:00119870       ?onRefCountZero@SoftBodyAuxData@Gu@physx@@UEAAXXZ 000000018011a870 f i GuTetrahedronMesh.obj
 0001:00119890       ?onRefCountZero@SoftBodyMesh@Gu@physx@@UEAAXXZ 000000018011a890 f   GuTetrahedronMesh.obj
 0001:00119930       ?onRefCountZero@TetrahedronMesh@Gu@physx@@UEAAXXZ 000000018011a930 f   GuTetrahedronMesh.obj
 0001:0011bf80       ?pcmContactBoxBox@Gu@physx@@YA_NAEBVPxGeometry@2@0AEBV?$PxTransformT@M@2@1AEBUNarrowPhaseParams@12@AEAUCache@12@AEAVPxContactBuffer@2@PEAVPxRenderOutput@2@@Z 000000018011cf80 f   GuPCMContactBoxBox.obj
 0001:0011ce30       ??$gjkPenetration@U?$RelativeConvex@VBoxV@Gu@physx@@@Gu@physx@@U?$LocalConvex@VConvexHullNoScaleV@Gu@physx@@@23@@Gu@physx@@YA?AW4GjkStatus@01@AEBU?$RelativeConvex@VBoxV@Gu@physx@@@01@AEBU?$LocalConvex@VConvexHullNoScaleV@Gu@physx@@@01@AEBT__m128@@2_NPEIAE4AEAEAEAUGjkOutput@01@@Z 000000018011de30 f i GuPCMContactBoxConvex.obj
 0001:0011cea0       ??$gjkPenetration@U?$RelativeConvex@VBoxV@Gu@physx@@@Gu@physx@@U?$LocalConvex@VConvexHullNoScaleV@Gu@physx@@@23@@Gu@physx@@YA?AW4GjkStatus@01@AEBU?$RelativeConvex@VBoxV@Gu@physx@@@01@AEBU?$LocalConvex@VConvexHullNoScaleV@Gu@physx@@@01@AEBT__m128@@2_NPEIAE4PEIAT5@5AEAEAEAUGjkOutput@01@@Z 000000018011dea0 f i GuPCMContactBoxConvex.obj
 0001:0011ea70       ?pcmContactBoxConvex@Gu@physx@@YA_NAEBVPxGeometry@2@0AEBV?$PxTransformT@M@2@1AEBUNarrowPhaseParams@12@AEAUCache@12@AEAVPxContactBuffer@2@PEAVPxRenderOutput@2@@Z 000000018011fa70 f   GuPCMContactBoxConvex.obj
 0001:0011f8d0       ?support@?$LocalConvex@VConvexHullNoScaleV@Gu@physx@@@Gu@physx@@UEBA?AT__m128@@AEBT4@@Z 00000001801208d0 f i GuPCMContactBoxConvex.obj
 0001:0011f920       ?support@?$LocalConvex@VConvexHullNoScaleV@Gu@physx@@@Gu@physx@@UEBA?AT__m128@@AEBT4@AEAH@Z 0000000180120920 f i GuPCMContactBoxConvex.obj
 0001:0011f980       ?supportPoint@?$LocalConvex@VConvexHullNoScaleV@Gu@physx@@@Gu@physx@@UEBA?AT__m128@@H@Z 0000000180120980 f i GuPCMContactBoxConvex.obj
 0001:0011f9b0       ?pcmContactCapsuleBox@Gu@physx@@YA_NAEBVPxGeometry@2@0AEBV?$PxTransformT@M@2@1AEBUNarrowPhaseParams@12@AEAUCache@12@AEAVPxContactBuffer@2@PEAVPxRenderOutput@2@@Z 00000001801209b0 f   GuPCMContactCapsuleBox.obj
 0001:00120910       ?pcmContactCapsuleCapsule@Gu@physx@@YA_NAEBVPxGeometry@2@0AEBV?$PxTransformT@M@2@1AEBUNarrowPhaseParams@12@AEAUCache@12@AEAVPxContactBuffer@2@PEAVPxRenderOutput@2@@Z 0000000180121910 f   GuPCMContactCapsuleCapsule.obj
 0001:001211a0       ??$gjkPenetration@U?$LocalConvex@VCapsuleV@Gu@physx@@@Gu@physx@@U?$LocalConvex@VConvexHullNoScaleV@Gu@physx@@@23@@Gu@physx@@YA?AW4GjkStatus@01@AEBU?$LocalConvex@VCapsuleV@Gu@physx@@@01@AEBU?$LocalConvex@VConvexHullNoScaleV@Gu@physx@@@01@AEBT__m128@@2_NPEIAE4AEAEAEAUGjkOutput@01@@Z 00000001801221a0 f i GuPCMContactCapsuleConvex.obj
 0001:00121210       ??$gjkPenetration@U?$LocalConvex@VCapsuleV@Gu@physx@@@Gu@physx@@U?$LocalConvex@VConvexHullNoScaleV@Gu@physx@@@23@@Gu@physx@@YA?AW4GjkStatus@01@AEBU?$LocalConvex@VCapsuleV@Gu@physx@@@01@AEBU?$LocalConvex@VConvexHullNoScaleV@Gu@physx@@@01@AEBT__m128@@2_NPEIAE4PEIAT5@5AEAEAEAUGjkOutput@01@@Z 0000000180122210 f i GuPCMContactCapsuleConvex.obj
 0001:001228e0       ?pcmContactCapsuleConvex@Gu@physx@@YA_NAEBVPxGeometry@2@0AEBV?$PxTransformT@M@2@1AEBUNarrowPhaseParams@12@AEAUCache@12@AEAVPxContactBuffer@2@PEAVPxRenderOutput@2@@Z 00000001801238e0 f   GuPCMContactCapsuleConvex.obj
 0001:00123ad0       ??_GPCMCapsuleVsHeightfieldContactGenerationCallback@@UEAAPEAXI@Z 0000000180124ad0 f i GuPCMContactCapsuleHeightField.obj
 0001:00123ad0       ??_GPCMConvexVsHeightfieldContactGenerationCallback@physx@@UEAAPEAXI@Z 0000000180124ad0 f i GuPCMContactConvexHeightField.obj
 0001:00123ad0       ??_EPCMConvexVsHeightfieldContactGenerationCallback@physx@@UEAAPEAXI@Z 0000000180124ad0 f i GuPCMContactConvexHeightField.obj
 0001:00123ad0       ??_EPCMCapsuleVsHeightfieldContactGenerationCallback@@UEAAPEAXI@Z 0000000180124ad0 f i GuPCMContactCapsuleHeightField.obj
 0001:00123b00       ?pcmContactCapsuleHeightField@Gu@physx@@YA_NAEBVPxGeometry@2@0AEBV?$PxTransformT@M@2@1AEBUNarrowPhaseParams@12@AEAUCache@12@AEAVPxContactBuffer@2@PEAVPxRenderOutput@2@@Z 0000000180124b00 f   GuPCMContactCapsuleHeightField.obj
 0001:001249f0       ?reportTouchedTris@?$PCMHeightfieldContactGenerationCallback@UPCMCapsuleVsHeightfieldContactGenerationCallback@@@Gu@physx@@UEAA_NIPEBI@Z 00000001801259f0 f i GuPCMContactCapsuleHeightField.obj
 0001:00125070       ?generateContacts@PCMCapsuleVsMeshContactGeneration@Gu@physx@@SAXAEBT__m128@@0000I000PEAVMeshPersistentContact@23@AEAI@Z 0000000180126070 f   GuPCMContactCapsuleMesh.obj
 0001:001254e0       ?generateEE@PCMCapsuleVsMeshContactGeneration@Gu@physx@@QEAAXAEBT__m128@@000I00PEAVMeshPersistentContact@23@AEAI@Z 00000001801264e0 f   GuPCMContactCapsuleMesh.obj
 0001:00125750       ?generateEEMTD@PCMCapsuleVsMeshContactGeneration@Gu@physx@@SAXAEBT__m128@@000I00PEAVMeshPersistentContact@23@AEAI@Z 0000000180126750 f   GuPCMContactCapsuleMesh.obj
 0001:00125980       ?pcmContactCapsuleMesh@Gu@physx@@YA_NAEBVPxGeometry@2@0AEBV?$PxTransformT@M@2@1AEBUNarrowPhaseParams@12@AEAUCache@12@AEAVPxContactBuffer@2@PEAVPxRenderOutput@2@@Z 0000000180126980 f   GuPCMContactCapsuleMesh.obj
 0001:001275e0       ?processTriangle@PCMCapsuleVsMeshContactGeneration@Gu@physx@@QEAA_NPEBV?$PxVec3T@M@3@IEPEBI@Z 00000001801285e0 f   GuPCMContactCapsuleMesh.obj
 0001:00128190       ?processTriangle@PCMCapsuleVsMeshContactGeneration@Gu@physx@@SA_NAEBVTriangleV@23@IAEBVCapsuleV@23@AEBT__m128@@EPEAVMeshPersistentContact@23@AEAI@Z 0000000180129190 f   GuPCMContactCapsuleMesh.obj
 0001:001284c0       ?addContactsToPatch@PCMConvexVsMeshContactGeneration@Gu@physx@@QEAAXAEBT__m128@@I@Z 00000001801294c0 f   GuPCMContactConvexCommon.obj
 0001:00128de0       ?doSupport@?$SupportLocalImpl@VTriangleV@Gu@physx@@@Gu@physx@@UEBA?AT__m128@@AEBT4@@Z 0000000180129de0 f i GuPCMContactConvexCommon.obj
 0001:00128e70       ?doSupport@?$SupportLocalImpl@VTriangleV@Gu@physx@@@Gu@physx@@UEBAXAEBT__m128@@AEAT4@1@Z 0000000180129e70 f i GuPCMContactConvexCommon.obj
 0001:00128ee0       ?generateLastContacts@PCMConvexVsMeshContactGeneration@Gu@physx@@QEAAXXZ 0000000180129ee0 f   GuPCMContactConvexCommon.obj
 0001:00129420       ?populateVerts@?$SupportLocalImpl@VTriangleV@Gu@physx@@@Gu@physx@@UEBAXPEBEIPEBV?$PxVec3T@M@3@PEAT__m128@@@Z 000000018012a420 f i GuPCMContactConvexCommon.obj
 0001:00129560       ?processTriangle@PCMConvexVsMeshContactGeneration@Gu@physx@@QEAA_NPEBV?$PxVec3T@M@3@IEPEBI@Z 000000018012a560 f   GuPCMContactConvexCommon.obj
 0001:00129ad0       ?processTriangle@PCMConvexVsMeshContactGeneration@Gu@physx@@SA_NAEBUPolygonalData@23@PEAVSupportLocal@23@PEBV?$PxVec3T@M@3@IEAEBT__m128@@_NAEBVPxTransformV@aos@3@AEBVPxMatTransformV@93@PEAVMeshPersistentContact@23@AEAI@Z 000000018012aad0 f   GuPCMContactConvexCommon.obj
 0001:00129d50       ??$gjkPenetration@U?$RelativeConvex@VConvexHullNoScaleV@Gu@physx@@@Gu@physx@@U?$LocalConvex@VConvexHullNoScaleV@Gu@physx@@@23@@Gu@physx@@YA?AW4GjkStatus@01@AEBU?$RelativeConvex@VConvexHullNoScaleV@Gu@physx@@@01@AEBU?$LocalConvex@VConvexHullNoScaleV@Gu@physx@@@01@AEBT__m128@@2_NPEIAE4AEAEAEAUGjkOutput@01@@Z 000000018012ad50 f i GuPCMContactConvexConvex.obj
 0001:00129dc0       ??$gjkPenetration@U?$RelativeConvex@VConvexHullNoScaleV@Gu@physx@@@Gu@physx@@U?$LocalConvex@VConvexHullNoScaleV@Gu@physx@@@23@@Gu@physx@@YA?AW4GjkStatus@01@AEBU?$RelativeConvex@VConvexHullNoScaleV@Gu@physx@@@01@AEBU?$LocalConvex@VConvexHullNoScaleV@Gu@physx@@@01@AEBT__m128@@2_NPEIAE4PEIAT5@5AEAEAEAUGjkOutput@01@@Z 000000018012adc0 f i GuPCMContactConvexConvex.obj
 0001:0012b2c0       ??$gjkPenetration@U?$RelativeConvex@VConvexHullNoScaleV@Gu@physx@@@Gu@physx@@U?$LocalConvex@VConvexHullV@Gu@physx@@@23@@Gu@physx@@YA?AW4GjkStatus@01@AEBU?$RelativeConvex@VConvexHullNoScaleV@Gu@physx@@@01@AEBU?$LocalConvex@VConvexHullV@Gu@physx@@@01@AEBT__m128@@2_NPEIAE4AEAEAEAUGjkOutput@01@@Z 000000018012c2c0 f i GuPCMContactConvexConvex.obj
 0001:0012b330       ??$gjkPenetration@U?$RelativeConvex@VConvexHullNoScaleV@Gu@physx@@@Gu@physx@@U?$LocalConvex@VConvexHullV@Gu@physx@@@23@@Gu@physx@@YA?AW4GjkStatus@01@AEBU?$RelativeConvex@VConvexHullNoScaleV@Gu@physx@@@01@AEBU?$LocalConvex@VConvexHullV@Gu@physx@@@01@AEBT__m128@@2_NPEIAE4PEIAT5@5AEAEAEAUGjkOutput@01@@Z 000000018012c330 f i GuPCMContactConvexConvex.obj
 0001:0012c8c0       ??$gjkPenetration@U?$RelativeConvex@VConvexHullV@Gu@physx@@@Gu@physx@@U?$LocalConvex@VConvexHullNoScaleV@Gu@physx@@@23@@Gu@physx@@YA?AW4GjkStatus@01@AEBU?$RelativeConvex@VConvexHullV@Gu@physx@@@01@AEBU?$LocalConvex@VConvexHullNoScaleV@Gu@physx@@@01@AEBT__m128@@2_NPEIAE4AEAEAEAUGjkOutput@01@@Z 000000018012d8c0 f i GuPCMContactConvexConvex.obj
 0001:0012c930       ??$gjkPenetration@U?$RelativeConvex@VConvexHullV@Gu@physx@@@Gu@physx@@U?$LocalConvex@VConvexHullNoScaleV@Gu@physx@@@23@@Gu@physx@@YA?AW4GjkStatus@01@AEBU?$RelativeConvex@VConvexHullV@Gu@physx@@@01@AEBU?$LocalConvex@VConvexHullNoScaleV@Gu@physx@@@01@AEBT__m128@@2_NPEIAE4PEIAT5@5AEAEAEAUGjkOutput@01@@Z 000000018012d930 f i GuPCMContactConvexConvex.obj
 0001:0012e920       ?pcmContactConvexConvex@Gu@physx@@YA_NAEBVPxGeometry@2@0AEBV?$PxTransformT@M@2@1AEBUNarrowPhaseParams@12@AEAUCache@12@AEAVPxContactBuffer@2@PEAVPxRenderOutput@2@@Z 000000018012f920 f   GuPCMContactConvexConvex.obj
 0001:0012fa30       ?support@?$RelativeConvex@VConvexHullNoScaleV@Gu@physx@@@Gu@physx@@UEBA?AT__m128@@AEBT4@@Z 0000000180130a30 f i GuPCMContactConvexConvex.obj
 0001:0012fae0       ?support@?$RelativeConvex@VConvexHullNoScaleV@Gu@physx@@@Gu@physx@@UEBA?AT__m128@@AEBT4@AEAH@Z 0000000180130ae0 f i GuPCMContactConvexConvex.obj
 0001:0012fba0       ?supportPoint@?$RelativeConvex@VConvexHullNoScaleV@Gu@physx@@@Gu@physx@@UEBA?AT__m128@@H@Z 0000000180130ba0 f i GuPCMContactConvexConvex.obj
 0001:0012fc00       ?PCMContactConvexHeightfield@Gu@physx@@YA_NAEBUPolygonalData@12@PEAVSupportLocal@12@AEBT__m128@@AEBVPxBounds3@2@AEBVPxHeightFieldGeometry@2@AEBV?$PxTransformT@M@2@5MAEAVPxContactBuffer@2@AEBVFastVertex2ShapeScaling@Cm@2@_NAEAVMultiplePersistentContactManifold@12@PEAVPxRenderOutput@2@@Z 0000000180130c00 f   GuPCMContactConvexHeightField.obj
 0001:00130a70       ?pcmContactBoxHeightField@Gu@physx@@YA_NAEBVPxGeometry@2@0AEBV?$PxTransformT@M@2@1AEBUNarrowPhaseParams@12@AEAUCache@12@AEAVPxContactBuffer@2@PEAVPxRenderOutput@2@@Z 0000000180131a70 f   GuPCMContactConvexHeightField.obj
 0001:00130d10       ?pcmContactConvexHeightField@Gu@physx@@YA_NAEBVPxGeometry@2@0AEBV?$PxTransformT@M@2@1AEBUNarrowPhaseParams@12@AEAUCache@12@AEAVPxContactBuffer@2@PEAVPxRenderOutput@2@@Z 0000000180131d10 f   GuPCMContactConvexHeightField.obj
 0001:001313d0       ?reportTouchedTris@?$PCMHeightfieldContactGenerationCallback@UPCMConvexVsHeightfieldContactGenerationCallback@physx@@@Gu@physx@@UEAA_NIPEBI@Z 00000001801323d0 f i GuPCMContactConvexHeightField.obj
 0001:00131990       ??$processTriangleCache@$0BA@@PCMConvexVsMeshContactGenerationCallback@physx@@QEAAXAEAU?$TriangleCache@$0BA@@Gu@1@@Z 0000000180132990 f i GuPCMContactConvexMesh.obj
 0001:00131a20       ??_GPCMConvexVsMeshContactGenerationCallback@physx@@UEAAPEAXI@Z 0000000180132a20 f i GuPCMContactConvexMesh.obj
 0001:00131a20       ??_EPCMConvexVsMeshContactGenerationCallback@physx@@UEAAPEAXI@Z 0000000180132a20 f i GuPCMContactConvexMesh.obj
 0001:00131a50       ?PCMContactConvexMesh@Gu@physx@@YA_NAEBUPolygonalData@12@PEAVSupportLocal@12@AEBT__m128@@AEBVPxBounds3@2@AEBVPxTriangleMeshGeometry@2@AEBV?$PxTransformT@M@2@5MAEAVPxContactBuffer@2@AEBVFastVertex2ShapeScaling@Cm@2@7_N8AEAVMultiplePersistentContactManifold@12@PEAVPxRenderOutput@2@@Z 0000000180132a50 f   GuPCMContactConvexMesh.obj
 0001:00132520       ?pcmContactBoxMesh@Gu@physx@@YA_NAEBVPxGeometry@2@0AEBV?$PxTransformT@M@2@1AEBUNarrowPhaseParams@12@AEAUCache@12@AEAVPxContactBuffer@2@PEAVPxRenderOutput@2@@Z 0000000180133520 f   GuPCMContactConvexMesh.obj
 0001:00132870       ?pcmContactConvexMesh@Gu@physx@@YA_NAEBVPxGeometry@2@0AEBV?$PxTransformT@M@2@1AEBUNarrowPhaseParams@12@AEAUCache@12@AEAVPxContactBuffer@2@PEAVPxRenderOutput@2@@Z 0000000180133870 f   GuPCMContactConvexMesh.obj
 0001:00133040       ?processHit@?$PCMMeshContactGenerationCallback@UPCMConvexVsMeshContactGenerationCallback@physx@@@Gu@physx@@UEAA_NAEBUPxGeomRaycastHit@3@AEBV?$PxVec3T@M@3@11AEAMPEBI@Z 0000000180134040 f i GuPCMContactConvexMesh.obj
 0001:00133510       ?addGJKEPAContacts@Gu@physx@@YA_NPEBUGjkConvex@12@0AEBVPxMatTransformV@aos@2@W4GjkStatus@12@PEAVPersistentContact@12@T__m128@@4AEAUGjkOutput@12@AEAVPersistentContactManifold@12@@Z 0000000180134510 f   GuPCMContactGenBoxConvex.obj
 0001:00133710       ?buildPartialHull@Gu@physx@@YAXAEBUPolygonalData@12@PEAVSupportLocal@12@AEAVSeparatingAxes@12@AEBT__m128@@3@Z 0000000180134710 f   GuPCMContactGenBoxConvex.obj
 0001:001339c0       ?computeMTD@Gu@physx@@YA_NAEAUPolygonalData@12@0PEAVSupportLocal@12@1AEAT__m128@@2@Z 00000001801349c0 f   GuPCMContactGenBoxConvex.obj
 0001:00133fe0       ?generateFullContactManifold@Gu@physx@@YA_NAEAUPolygonalData@12@0PEAVSupportLocal@12@1PEAVPersistentContact@12@AEAIAEBT__m128@@444MM_NPEAVPxRenderOutput@2@M@Z 0000000180134fe0 f   GuPCMContactGenBoxConvex.obj
 0001:00134ae0       ?generatedContacts@Gu@physx@@YAXAEAUPolygonalData@12@0AEBUHullPolygonData@12@1PEAVSupportLocal@12@2AEBVPxMatTransformV@aos@2@PEAVPersistentContact@12@AEAIAEBT__m128@@PEAVPxRenderOutput@2@@Z 0000000180135ae0 f   GuPCMContactGenBoxConvex.obj
 0001:00135f20       ?computeMTD@Gu@physx@@YA_NAEBVCapsuleV@12@AEAUPolygonalData@12@PEAVSupportLocal@12@AEAT__m128@@3@Z 0000000180136f20 f   GuPCMContactGenSphereCapsule.obj
 0001:00136010       ?generateCapsuleBoxFullContactManifold@Gu@physx@@YA_NAEBVCapsuleV@12@AEAUPolygonalData@12@PEAVSupportLocal@12@AEBVPxMatTransformV@aos@2@PEAVPersistentContact@12@AEAIAEBT__m128@@AEAT9@6M_NMPEAVPxRenderOutput@2@@Z 0000000180137010 f   GuPCMContactGenSphereCapsule.obj
 0001:001361b0       ?generateFullContactManifold@Gu@physx@@YA_NAEBVCapsuleV@12@AEAUPolygonalData@12@PEAVSupportLocal@12@AEBVPxMatTransformV@aos@2@PEAVPersistentContact@12@AEAIAEBT__m128@@AEAT9@6M_NM@Z 00000001801371b0 f   GuPCMContactGenSphereCapsule.obj
 0001:001363a0       ?generateSphereFullContactManifold@Gu@physx@@YA_NAEBVCapsuleV@12@AEAUPolygonalData@12@PEAVSupportLocal@12@PEAVPersistentContact@12@AEAIAEBT__m128@@AEAT7@_N@Z 00000001801373a0 f   GuPCMContactGenSphereCapsule.obj
 0001:00137850       ?pcmContactPlaneBox@Gu@physx@@YA_NAEBVPxGeometry@2@0AEBV?$PxTransformT@M@2@1AEBUNarrowPhaseParams@12@AEAUCache@12@AEAVPxContactBuffer@2@PEAVPxRenderOutput@2@@Z 0000000180138850 f   GuPCMContactPlaneBox.obj
 0001:001383f0       ?pcmContactPlaneCapsule@Gu@physx@@YA_NAEBVPxGeometry@2@0AEBV?$PxTransformT@M@2@1AEBUNarrowPhaseParams@12@AEAUCache@12@AEAVPxContactBuffer@2@PEAVPxRenderOutput@2@@Z 00000001801393f0 f   GuPCMContactPlaneCapsule.obj
 0001:00138b70       ?pcmContactPlaneConvex@Gu@physx@@YA_NAEBVPxGeometry@2@0AEBV?$PxTransformT@M@2@1AEBUNarrowPhaseParams@12@AEAUCache@12@AEAVPxContactBuffer@2@PEAVPxRenderOutput@2@@Z 0000000180139b70 f   GuPCMContactPlaneConvex.obj
 0001:001397b0       ?pcmContactSphereBox@Gu@physx@@YA_NAEBVPxGeometry@2@0AEBV?$PxTransformT@M@2@1AEBUNarrowPhaseParams@12@AEAUCache@12@AEAVPxContactBuffer@2@PEAVPxRenderOutput@2@@Z 000000018013a7b0 f   GuPCMContactSphereBox.obj
 0001:00139c10       ?pcmContactSphereCapsule@Gu@physx@@YA_NAEBVPxGeometry@2@0AEBV?$PxTransformT@M@2@1AEBUNarrowPhaseParams@12@AEAUCache@12@AEAVPxContactBuffer@2@PEAVPxRenderOutput@2@@Z 000000018013ac10 f   GuPCMContactSphereCapsule.obj
 0001:0013a090       ?pcmContactSphereConvex@Gu@physx@@YA_NAEBVPxGeometry@2@0AEBV?$PxTransformT@M@2@1AEBUNarrowPhaseParams@12@AEAUCache@12@AEAVPxContactBuffer@2@PEAVPxRenderOutput@2@@Z 000000018013b090 f   GuPCMContactSphereConvex.obj
 0001:0013ad60       ??1?$PxArray@USortedTriangle@Gu@physx@@V?$PxInlineAllocator@$0IAA@V?$PxReflectionAllocator@USortedTriangle@Gu@physx@@@physx@@@3@@physx@@QEAA@XZ 000000018013bd60 f i GuPCMContactSphereHeightField.obj
 0001:0013add0       ??_EPCMSphereVsHeightfieldContactGenerationCallback@physx@@UEAAPEAXI@Z 000000018013bdd0 f i GuPCMContactSphereHeightField.obj
 0001:0013add0       ??_GPCMSphereVsHeightfieldContactGenerationCallback@physx@@UEAAPEAXI@Z 000000018013bdd0 f i GuPCMContactSphereHeightField.obj
 0001:0013ae20       ?pcmContactSphereHeightField@Gu@physx@@YA_NAEBVPxGeometry@2@0AEBV?$PxTransformT@M@2@1AEBUNarrowPhaseParams@12@AEAUCache@12@AEAVPxContactBuffer@2@PEAVPxRenderOutput@2@@Z 000000018013be20 f   GuPCMContactSphereHeightField.obj
 0001:0013b8e0       ?reportTouchedTris@?$PCMHeightfieldContactGenerationCallback@UPCMSphereVsHeightfieldContactGenerationCallback@physx@@@Gu@physx@@UEAA_NIPEBI@Z 000000018013c8e0 f i GuPCMContactSphereHeightField.obj
 0001:0013bea0       ??$PxSort@USortedTriangle@Gu@physx@@U?$PxLess@USortedTriangle@Gu@physx@@@3@V?$PxReflectionAllocator@USortedTriangle@Gu@physx@@@3@@physx@@YAXPEAUSortedTriangle@Gu@0@IAEBU?$PxLess@USortedTriangle@Gu@physx@@@0@AEBV?$PxReflectionAllocator@USortedTriangle@Gu@physx@@@0@I@Z 000000018013cea0 f i GuPCMContactSphereMesh.obj
 0001:0013c3d0       ??$processTriangleCache@$0BA@VPCMSphereVsMeshContactGeneration@Gu@physx@@@PCMMeshContactGeneration@Gu@physx@@QEAA_NAEAU?$TriangleCache@$0BA@@12@@Z 000000018013d3d0 f i GuPCMContactSphereMesh.obj
 0001:0013c9f0       ?addToPatch@PCMSphereVsMeshContactGeneration@Gu@physx@@QEAAXAEBT__m128@@0T4@I@Z 000000018013d9f0 f   GuPCMContactSphereMesh.obj
 0001:0013d090       ?allocate@?$PxArray@IV?$PxInlineAllocator@$0PAA@V?$PxReflectionAllocator@I@physx@@@physx@@@physx@@IEAAPEAII@Z 000000018013e090 f i GuPCMContactSphereMesh.obj
 0001:0013d160       ?allocate@?$PxArray@USortedTriangle@Gu@physx@@V?$PxInlineAllocator@$0IAA@V?$PxReflectionAllocator@USortedTriangle@Gu@physx@@@physx@@@3@@physx@@IEAAPEAUSortedTriangle@Gu@2@I@Z 000000018013e160 f i GuPCMContactSphereMesh.obj
 0001:0013d220       ?generateLastContacts@PCMSphereVsMeshContactGeneration@Gu@physx@@QEAAXXZ 000000018013e220 f   GuPCMContactSphereMesh.obj
 0001:0013d860       ?growAndPushBack@?$PxArray@USortedTriangle@Gu@physx@@V?$PxInlineAllocator@$0IAA@V?$PxReflectionAllocator@USortedTriangle@Gu@physx@@@physx@@@3@@physx@@IEAAAEAUSortedTriangle@Gu@2@AEBU342@@Z 000000018013e860 f i GuPCMContactSphereMesh.obj
 0001:0013d970       ?pcmContactSphereMesh@Gu@physx@@YA_NAEBVPxGeometry@2@0AEBV?$PxTransformT@M@2@1AEBUNarrowPhaseParams@12@AEAUCache@12@AEAVPxContactBuffer@2@PEAVPxRenderOutput@2@@Z 000000018013e970 f   GuPCMContactSphereMesh.obj
 0001:0013f440       ?processTriangle@PCMSphereVsMeshContactGeneration@Gu@physx@@QEAA_NPEBV?$PxVec3T@M@3@IEPEBI@Z 0000000180140440 f   GuPCMContactSphereMesh.obj
 0001:0013f840       ?recreate@?$PxArray@IV?$PxInlineAllocator@$0PAA@V?$PxReflectionAllocator@I@physx@@@physx@@@physx@@IEAAXI@Z 0000000180140840 f i GuPCMContactSphereMesh.obj
 0001:0013f8f0       ?pcmContactSpherePlane@Gu@physx@@YA_NAEBVPxGeometry@2@0AEBV?$PxTransformT@M@2@1AEBUNarrowPhaseParams@12@AEAUCache@12@AEAVPxContactBuffer@2@PEAVPxRenderOutput@2@@Z 00000001801408f0 f   GuPCMContactSpherePlane.obj
 0001:0013fa70       ?pcmContactSphereSphere@Gu@physx@@YA_NAEBVPxGeometry@2@0AEBV?$PxTransformT@M@2@1AEBUNarrowPhaseParams@12@AEAUCache@12@AEAVPxContactBuffer@2@PEAVPxRenderOutput@2@@Z 0000000180140a70 f   GuPCMContactSphereSphere.obj
 0001:00140330       ?pcmContactGeometryCustomGeometry@Gu@physx@@YA_NAEBVPxGeometry@2@0AEBV?$PxTransformT@M@2@1AEBUNarrowPhaseParams@12@AEAUCache@12@AEAVPxContactBuffer@2@PEAVPxRenderOutput@2@@Z 0000000180141330 f   GuPCMContactCustomGeometry.obj
 0001:001403e0       ?getPCMConvexData@Gu@physx@@YAXAEBVConvexHullV@12@_NAEAUPolygonalData@12@@Z 00000001801413e0 f   GuPCMShapeConvex.obj
 0001:00140420       ?getPCMConvexData@Gu@physx@@YA_NAEBVPxConvexMeshGeometry@2@AEAVFastVertex2ShapeScaling@Cm@2@AEAVPxBounds3@2@AEAUPolygonalData@12@@Z 0000000180141420 f   GuPCMShapeConvex.obj
 0001:00140970       ?getPolygonalData@PCMPolygonalBox@Gu@physx@@QEBAXPEIAUPolygonalData@23@@Z 0000000180141970 f   GuPCMShapeConvex.obj
 0001:001409f0       ?generatePolyDataContactManifold@PCMConvexVsMeshContactGeneration@Gu@physx@@QEAA_NAEAVTriangleV@23@IIEPEAVMeshPersistentContact@23@AEAIAEBT__m128@@AEAT6@@Z 00000001801419f0 f   GuPCMTriangleContactGen.obj
 0001:00140b10       ?generateTriangleFullContactManifold@PCMConvexVsMeshContactGeneration@Gu@physx@@QEAA_NAEAVTriangleV@23@IPEBIEAEBUPolygonalData@23@PEAV?$SupportLocalImpl@VTriangleV@Gu@physx@@@23@PEAVSupportLocal@23@PEAVMeshPersistentContact@23@AEAIAEBT__m128@@AEAT9@@Z 0000000180141b10 f   GuPCMTriangleContactGen.obj
 0001:00141050       ?generateTriangleFullContactManifold@PCMConvexVsMeshContactGeneration@Gu@physx@@SA_NAEAVTriangleV@23@IEAEBUPolygonalData@23@PEAV?$SupportLocalImpl@VTriangleV@Gu@physx@@@23@PEAVSupportLocal@23@PEAVMeshPersistentContact@23@AEAIAEBT__m128@@AEAT9@PEAVPxRenderOutput@3@@Z 0000000180142050 f   GuPCMTriangleContactGen.obj
 0001:001430d0       ?addBatchManifoldContacts2@PersistentContactManifold@Gu@physx@@QEAAXPEBVPersistentContact@23@I@Z 00000001801440d0 f   GuPersistentContactManifold.obj
 0001:00143140       ?addBatchManifoldContacts@PersistentContactManifold@Gu@physx@@QEAAXPEBVPersistentContact@23@IM@Z 0000000180144140 f   GuPersistentContactManifold.obj
 0001:001431c0       ?addBatchManifoldContactsCluster@PersistentContactManifold@Gu@physx@@QEAAXPEBVPersistentContact@23@I@Z 00000001801441c0 f   GuPersistentContactManifold.obj
 0001:00143440       ?addManifoldContactPoints@MultiplePersistentContactManifold@Gu@physx@@QEAAXPEAVMeshPersistentContact@23@IPEAPEAUPCMContactPatch@23@IAEBT__m128@@2E@Z 0000000180144440 f   GuPersistentContactManifold.obj
 0001:00143850       ?addManifoldContactsToContactBuffer@MultiplePersistentContactManifold@Gu@physx@@QEAA_NAEAVPxContactBuffer@3@AEBVPxTransformV@aos@3@1AEBT__m128@@@Z 0000000180144850 f   GuPersistentContactManifold.obj
 0001:00143b00       ?addManifoldContactsToContactBuffer@MultiplePersistentContactManifold@Gu@physx@@QEAA_NAEAVPxContactBuffer@3@AEBVPxTransformV@aos@3@@Z 0000000180144b00 f   GuPersistentContactManifold.obj
 0001:00143d90       ?addManifoldContactsToContactBuffer@PersistentContactManifold@Gu@physx@@QEAAXAEAVPxContactBuffer@3@AEBT__m128@@1AEBVPxTransformV@aos@3@11@Z 0000000180144d90 f   GuPersistentContactManifold.obj
 0001:00143f20       ?addManifoldContactsToContactBuffer@PersistentContactManifold@Gu@physx@@QEAAXAEAVPxContactBuffer@3@AEBT__m128@@AEBVPxMatTransformV@aos@3@@Z 0000000180144f20 f   GuPersistentContactManifold.obj
 0001:00143fd0       ?addManifoldContactsToContactBuffer@PersistentContactManifold@Gu@physx@@QEAAXAEAVPxContactBuffer@3@AEBT__m128@@AEBVPxTransformV@aos@3@1@Z 0000000180144fd0 f   GuPersistentContactManifold.obj
 0001:00144120       ?addManifoldPoint2@PersistentContactManifold@Gu@physx@@QEAAIAEBT__m128@@000@Z 0000000180145120 f   GuPersistentContactManifold.obj
 0001:00144250       ?addManifoldPoint@Gu@physx@@YAXPEAVPersistentContact@12@AEAVPersistentContactManifold@12@AEAUGjkOutput@12@AEBVPxMatTransformV@aos@2@T__m128@@@Z 0000000180145250 f   GuPersistentContactManifold.obj
 0001:00144400       ?addManifoldPoint@PersistentContactManifold@Gu@physx@@QEAAIAEBT__m128@@000@Z 0000000180145400 f   GuPersistentContactManifold.obj
 0001:00144840       ?drawLine@MultiplePersistentContactManifold@Gu@physx@@SAXAEAVPxRenderOutput@3@AEBT__m128@@1I@Z 0000000180145840 f   GuPersistentContactManifold.obj
 0001:001448f0       ?drawLine@MultiplePersistentContactManifold@Gu@physx@@SAXAEAVPxRenderOutput@3@V?$PxVec3T@M@3@1I@Z 00000001801458f0 f   GuPersistentContactManifold.obj
 0001:00144960       ?drawManifold@MultiplePersistentContactManifold@Gu@physx@@QEAAXAEAVPxRenderOutput@3@AEBVPxTransformV@aos@3@1@Z 0000000180145960 f   GuPersistentContactManifold.obj
 0001:00144ff0       ?drawPoint@MultiplePersistentContactManifold@Gu@physx@@SAXAEAVPxRenderOutput@3@AEBT__m128@@MI@Z 0000000180145ff0 f   GuPersistentContactManifold.obj
 0001:00145200       ?drawPolygon@MultiplePersistentContactManifold@Gu@physx@@SAXAEAVPxRenderOutput@3@AEBVPxTransformV@aos@3@PEAT__m128@@II@Z 0000000180146200 f   GuPersistentContactManifold.obj
 0001:00145440       ?findRotationMatrixFromZAxis@Gu@physx@@YA?AUMat33V@aos@2@AEBT__m128@@@Z 0000000180146440 f   GuPersistentContactManifold.obj
 0001:001456c0       ?fromBuffer@MultiplePersistentContactManifold@Gu@physx@@QEAAXPEIAE@Z 00000001801466c0 f   GuPersistentContactManifold.obj
 0001:00145810       ?reduceBatchContacts2@PersistentContactManifold@Gu@physx@@QEAAXPEBVPersistentContact@23@I@Z 0000000180146810 f   GuPersistentContactManifold.obj
 0001:00145a10       ?reduceBatchContacts@PersistentContactManifold@Gu@physx@@QEAAXPEBVPersistentContact@23@IM@Z 0000000180146a10 f   GuPersistentContactManifold.obj
 0001:00145ec0       ?reduceBatchContactsCapsule@SinglePersistentContactManifold@Gu@physx@@QEAA?AT__m128@@PEBVMeshPersistentContact@23@IAEAUPCMContactPatch@23@@Z 0000000180146ec0 f   GuPersistentContactManifold.obj
 0001:00146150       ?reduceBatchContactsCluster@PersistentContactManifold@Gu@physx@@QEAAXPEBVPersistentContact@23@I@Z 0000000180147150 f   GuPersistentContactManifold.obj
 0001:001465e0       ?reduceBatchContactsConvex@SinglePersistentContactManifold@Gu@physx@@QEAA?AT__m128@@PEBVMeshPersistentContact@23@IAEAUPCMContactPatch@23@@Z 00000001801475e0 f   GuPersistentContactManifold.obj
 0001:00146bd0       ?reduceContacts@SinglePersistentContactManifold@Gu@physx@@SAIPEAVMeshPersistentContact@23@I@Z 0000000180147bd0 f   GuPersistentContactManifold.obj
 0001:00147160       ?reduceContactsForPCM@PersistentContactManifold@Gu@physx@@QEAAIAEBT__m128@@00@Z 0000000180148160 f   GuPersistentContactManifold.obj
 0001:00147700       ?refreshContactPoints@SinglePersistentContactManifold@Gu@physx@@QEAA?AT__m128@@AEBVPxMatTransformV@aos@3@AEBT4@1@Z 0000000180148700 f   GuPersistentContactManifold.obj
 0001:00147850       ?replaceManifoldPoint@PersistentContactManifold@Gu@physx@@QEAA_NAEBT__m128@@000@Z 0000000180148850 f   GuPersistentContactManifold.obj
 0001:00147920       ?contains@Gu@physx@@YA_NPEAT__m128@@IAEBT3@11@Z 0000000180148920 f   GuPCMContactGenUtil.obj
 0001:00147ae0       ?getPolygonIndex@Gu@physx@@YAHAEBUPolygonalData@12@PEAVSupportLocal@12@AEBT__m128@@AEAH@Z 0000000180148ae0 f   GuPCMContactGenUtil.obj
 0001:00147d20       ?getWitnessPolygonIndex@Gu@physx@@YAIAEBUPolygonalData@12@PEAVSupportLocal@12@AEBT__m128@@2M@Z 0000000180148d20 f   GuPCMContactGenUtil.obj
 0001:00148260       ?sweepBoxBox@Gu@physx@@YA_NAEBVBox@12@0AEBV?$PxVec3T@M@2@MV?$PxFlags@W4Enum@PxHitFlag@physx@@G@2@AEAUPxGeomSweepHit@2@@Z 0000000180149260 f   GuSweepBoxBox.obj
 0001:00149860       ?sweepBoxSphere@Gu@physx@@YA_NAEBVBox@12@MAEBV?$PxVec3T@M@2@1MAEAMAEAV42@V?$PxFlags@W4Enum@PxHitFlag@physx@@G@2@@Z 000000018014a860 f   GuSweepBoxSphere.obj
 0001:0014a4a0       ?sweepBoxTriangle@Gu@physx@@YA_NAEBVPxTriangle@2@AEBVPxBounds3@2@AEBV?$PxVec3T@M@2@2AEAV52@3AEAM_N@Z 000000018014b4a0 f   GuSweepBoxTriangle_FeatureBased.obj
 0001:0014bb40       ?triBoxSweepTestBoxSpace@Gu@physx@@YAHAEBVPxTriangle@2@AEBV?$PxVec3T@M@2@11MAEAM_N@Z 000000018014cb40 f   GuSweepBoxTriangle_SAT.obj
 0001:0014d450       ?sweepCapsuleBox@Gu@physx@@YA_NAEBVCapsule@12@AEBV?$PxTransformT@M@2@AEBV?$PxVec3T@M@2@2MAEAV52@AEAM3V?$PxFlags@W4Enum@PxHitFlag@physx@@G@2@@Z 000000018014e450 f   GuSweepCapsuleBox.obj
 0001:0014d7a0       ?distancePointSegmentSquared@Gu@physx@@YAMAEBVSegment@12@AEBV?$PxVec3T@M@2@PEAM@Z 000000018014e7a0 f i GuSweepCapsuleCapsule.obj
 0001:0014db20       ?sweepCapsuleCapsule@Gu@physx@@YA_NAEBVCapsule@12@0AEBV?$PxVec3T@M@2@MAEAMAEAV42@3IAEAG@Z 000000018014eb20 f   GuSweepCapsuleCapsule.obj
 0001:0014e8f0       ?sweepCapsuleTriangles_Precise@Gu@physx@@YA_NIPEIBVPxTriangle@2@AEBVCapsule@12@AEBV?$PxVec3T@M@2@MPEIBIAEAUPxGeomSweepHit@2@AEAV52@V?$PxFlags@W4Enum@PxHitFlag@physx@@G@2@_NPEBVBoxPadded@12@@Z 000000018014f8f0 f   GuSweepCapsuleTriangle.obj
 0001:00150a10       ?sweepSphereCapsule@Gu@physx@@YA_NAEBVSphere@12@AEBVCapsule@12@AEBV?$PxVec3T@M@2@MAEAMAEAV52@4V?$PxFlags@W4Enum@PxHitFlag@physx@@G@2@@Z 0000000180151a10 f   GuSweepSphereCapsule.obj
 0001:001510b0       ?sweepSphereSphere@Gu@physx@@YA_NAEBV?$PxVec3T@M@2@M0M0AEAMAEAV32@@Z 00000001801520b0 f   GuSweepSphereSphere.obj
 0001:00151340       ?sweepSphereTriangles@Gu@physx@@YA_NIPEIBVPxTriangle@2@AEBV?$PxVec3T@M@2@M1MPEIBIAEAUPxGeomSweepHit@2@AEAV42@_N555@Z 0000000180152340 f   GuSweepSphereTriangle.obj
 0001:00151c30       ?sweepSphereVSQuad@Gu@physx@@YA_NPEIBV?$PxVec3T@M@2@AEBV32@1M1AEAM@Z 0000000180152c30 f   GuSweepSphereTriangle.obj
 0001:00152c60       ?sweepSphereVSTri@Gu@physx@@YA_NPEIBV?$PxVec3T@M@2@AEBV32@1M1AEAMAEA_N_N@Z 0000000180153c60 f   GuSweepSphereTriangle.obj
 0001:00153910       ??$gjk@U?$LocalConvex@VTriangleV@Gu@physx@@@Gu@physx@@U?$LocalConvex@VBoxV@Gu@physx@@@23@@Gu@physx@@YA?AW4GjkStatus@01@AEBU?$LocalConvex@VTriangleV@Gu@physx@@@01@AEBU?$LocalConvex@VBoxV@Gu@physx@@@01@AEBT__m128@@2AEAT5@333@Z 0000000180154910 f i GuSweepTriangleUtils.obj
 0001:001545f0       ?computeBoxTriImpactData@Gu@physx@@YAXAEAV?$PxVec3T@M@2@0AEBV32@1AEBVPxTriangle@2@M@Z 00000001801555f0 f   GuSweepTriangleUtils.obj
 0001:00154880       ?computeEdgeEdgeNormal@Gu@physx@@YAXAEAV?$PxVec3T@M@2@AEBV32@1111M@Z 0000000180155880 f   GuSweepTriangleUtils.obj
 0001:00154b40       ?computeSphereTriImpactData@Gu@physx@@YAXAEAV?$PxVec3T@M@2@0AEBV32@1MAEBVPxTriangle@2@@Z 0000000180155b40 f   GuSweepTriangleUtils.obj
 0001:00155020       ??0ShapeData@Gu@physx@@QEAA@AEBVPxGeometry@2@AEBV?$PxTransformT@M@2@M@Z 0000000180156020 f   GuBounds.obj
 0001:00155580       ?computeBounds@Gu@physx@@YAXAEAVPxBounds3@2@AEBVPxGeometry@2@AEBV?$PxTransformT@M@2@MM@Z 0000000180156580 f   GuBounds.obj
 0001:001562f0       ?computeBoundsAroundVertices@Gu@physx@@YAXAEAVPxBounds3@2@IPEIBV?$PxVec3T@M@2@@Z 00000001801572f0 f   GuBounds.obj
 0001:001563a0       ?computeGlobalBox@Gu@physx@@YAXAEAVPxBounds3@2@IPEIBV32@PEIBI@Z 00000001801573a0 f   GuBounds.obj
 0001:00156430       ?computeLocalBoundsAndGeomEpsilon@Gu@physx@@YAXPEBV?$PxVec3T@M@2@IAEAVPxBounds3@2@AEAM@Z 0000000180157430 f   GuBounds.obj
 0001:00157510       ??$?_UV?$PxReflectionAllocator@UBVHNode@Gu@physx@@@physx@@@PxUserAllocated@physx@@SAPEAX_KV?$PxReflectionAllocator@UBVHNode@Gu@physx@@@1@PEBDH@Z 0000000180158510 f i GuAABBTree.obj
 0001:001575b0       ??$?_UV?$PxReflectionAllocator@VAABBTreeBuildNode@Gu@physx@@@physx@@@PxUserAllocated@physx@@SAPEAX_KV?$PxReflectionAllocator@VAABBTreeBuildNode@Gu@physx@@@1@PEBDH@Z 00000001801585b0 f i GuAABBTree.obj
 0001:001577e0       ??0AABBTree@Gu@physx@@QEAA@XZ 00000001801587e0 f   GuAABBTree.obj
 0001:00157810       ??0BVHPartialRefitData@Gu@physx@@QEAA@XZ 0000000180158810 f   GuAABBTree.obj
 0001:00157840       ??0NodeAllocator@Gu@physx@@QEAA@XZ 0000000180158840 f   GuAABBTree.obj
 0001:00157860       ??1AABBTree@Gu@physx@@QEAA@XZ 0000000180158860 f   GuAABBTree.obj
 0001:00157880       ??1BVHPartialRefitData@Gu@physx@@QEAA@XZ 0000000180158880 f   GuAABBTree.obj
 0001:00157920       ??1NodeAllocator@Gu@physx@@QEAA@XZ 0000000180158920 f   GuAABBTree.obj
 0001:00157970       ?_buildHierarchy@AABBTreeBuildNode@Gu@physx@@QEAAXAEBVAABBTreeBuildParams@23@AEAUBuildStats@23@AEAVNodeAllocator@23@QEAI@Z 0000000180158970 f   GuAABBTree.obj
 0001:00157a00       ?_buildHierarchySAH@AABBTreeBuildNode@Gu@physx@@QEAAXAEBVAABBTreeBuildParams@23@AEAUSAH_Buffers@23@AEAUBuildStats@23@AEAVNodeAllocator@23@QEAI@Z 0000000180158a00 f   GuAABBTree.obj
 0001:00157ab0       ?addRuntimeChilds@AABBTree@Gu@physx@@AEAAXAEAIAEBVAABBTreeMergeData@23@@Z 0000000180158ab0 f   GuAABBTree.obj
 0001:00157bb0       ?build@AABBTree@Gu@physx@@QEAA_NAEBVAABBTreeBuildParams@23@AEAVNodeAllocator@23@@Z 0000000180158bb0 f   GuAABBTree.obj
 0001:00157dd0       ?buildAABBTree@Gu@physx@@YAPEAIAEBVAABBTreeBuildParams@12@AEAVNodeAllocator@12@AEAUBuildStats@12@@Z 0000000180158dd0 f   GuAABBTree.obj
 0001:00157e70       ?buildAABBTree@Gu@physx@@YAXIAEBVAABBTreeBounds@12@AEAV?$PxArray@UBVHNode@Gu@physx@@V?$PxReflectionAllocator@UBVHNode@Gu@physx@@@3@@2@@Z 0000000180158e70 f   GuAABBTree.obj
 0001:00158240       ?buildEnd@AABBTree@Gu@physx@@AEAAXAEBVAABBTreeBuildParams@23@AEAVNodeAllocator@23@AEBUBuildStats@23@@Z 0000000180159240 f   GuAABBTree.obj
 0001:00158420       ?createUpdateMap@BVHPartialRefitData@Gu@physx@@QEAAXI@Z 0000000180159420 f   GuAABBTree.obj
 0001:00158540       ?flattenTree@Gu@physx@@YAXAEBVNodeAllocator@12@PEAUBVHNode@12@PEBI@Z 0000000180159540 f   GuAABBTree.obj
 0001:001586f0       ?fullRefit@BVHCoreData@Gu@physx@@QEAAXPEBVPxBounds3@3@@Z 00000001801596f0 f   GuAABBTree.obj
 0001:001588b0       ?getBiNode@NodeAllocator@Gu@physx@@QEAAPEAVAABBTreeBuildNode@23@XZ 00000001801598b0 f   GuAABBTree.obj
 0001:001589e0       ?getParentIndices@BVHPartialRefitData@Gu@physx@@IEAAPEAIXZ 00000001801599e0 f   GuAABBTree.obj
 0001:00158a70       ?growAndPushBack@?$PxArray@PEAVAABBTreeBuildNode@Gu@physx@@V?$PxReflectionAllocator@PEAVAABBTreeBuildNode@Gu@physx@@@3@@physx@@IEAAAEAPEAVAABBTreeBuildNode@Gu@2@AEBQEAV342@@Z 0000000180159a70 f i GuAABBTree.obj
 0001:00158bb0       ?growAndPushBack@?$PxArray@USlab@NodeAllocator@Gu@physx@@V?$PxReflectionAllocator@USlab@NodeAllocator@Gu@physx@@@4@@physx@@IEAAAEAUSlab@NodeAllocator@Gu@2@AEBU3452@@Z 0000000180159bb0 f i GuAABBTree.obj
 0001:00158c70       ?init@AABBTreeBounds@Gu@physx@@QEAAXIPEBVPxBounds3@3@@Z 0000000180159c70 f   GuAABBTree.obj
 0001:00158d30       ?init@NodeAllocator@Gu@physx@@QEAAXII@Z 0000000180159d30 f   GuAABBTree.obj
 0001:00159020       ?initTree@AABBTree@Gu@physx@@QEAAXAEBVAABBTreeMergeData@23@@Z 000000018015a020 f   GuAABBTree.obj
 0001:00159110       ?markNodeForRefit@BVHPartialRefitData@Gu@physx@@QEAAXI@Z 000000018015a110 f   GuAABBTree.obj
 0001:00159220       ?mergeRuntimeLeaf@AABBTree@Gu@physx@@AEAAXAEAUBVHNode@23@AEBVAABBTreeMergeData@23@I@Z 000000018015a220 f   GuAABBTree.obj
 0001:00159440       ?mergeRuntimeNode@AABBTree@Gu@physx@@AEAAXAEAUBVHNode@23@AEBVAABBTreeMergeData@23@I@Z 000000018015a440 f   GuAABBTree.obj
 0001:00159720       ?mergeTree@AABBTree@Gu@physx@@QEAAXAEBVAABBTreeMergeData@23@@Z 000000018015a720 f   GuAABBTree.obj
 0001:001599b0       ?progressiveBuild@AABBTree@Gu@physx@@QEAAIAEBVAABBTreeBuildParams@23@AEAVNodeAllocator@23@AEAUBuildStats@23@II@Z 000000018015a9b0 f   GuAABBTree.obj
 0001:00159c60       ?recreate@?$PxArray@UBVHNode@Gu@physx@@V?$PxReflectionAllocator@UBVHNode@Gu@physx@@@3@@physx@@IEAAXI@Z 000000018015ac60 f i GuAABBTree.obj
 0001:00159ed0       ?refitMarkedNodes@BVHPartialRefitData@Gu@physx@@QEAAXPEBVPxBounds3@3@@Z 000000018015aed0 f   GuAABBTree.obj
 0001:0015a040       ?release@AABBTree@Gu@physx@@QEAAX_N@Z 000000018015b040 f   GuAABBTree.obj
 0001:0015a120       ?release@AABBTreeBounds@Gu@physx@@QEAAXXZ 000000018015b120 f   GuAABBTree.obj
 0001:0015a170       ?release@NodeAllocator@Gu@physx@@QEAAXXZ 000000018015b170 f   GuAABBTree.obj
 0001:0015a220       ?releasePartialRefitData@BVHPartialRefitData@Gu@physx@@QEAAX_N@Z 000000018015b220 f   GuAABBTree.obj
 0001:0015a2b0       ?reshuffle@Gu@physx@@YAIIQEIAIPEIBV?$PxVec3T@M@2@MI@Z 000000018015b2b0 f   GuAABBTree.obj
 0001:0015a3f0       ?resize@?$PxArray@UBVHNode@Gu@physx@@V?$PxReflectionAllocator@UBVHNode@Gu@physx@@@3@@physx@@QEAAXIAEBUBVHNode@Gu@2@@Z 000000018015b3f0 f i GuAABBTree.obj
 0001:0015a570       ?resize@?$PxArray@USlab@NodeAllocator@Gu@physx@@V?$PxReflectionAllocator@USlab@NodeAllocator@Gu@physx@@@4@@physx@@QEAAXIAEBUSlab@NodeAllocator@Gu@2@@Z 000000018015b570 f i GuAABBTree.obj
 0001:0015a5f0       ?resize@AABBTreeBounds@Gu@physx@@QEAAXII@Z 000000018015b5f0 f   GuAABBTree.obj
 0001:0015a6a0       ?shiftIndices@AABBTree@Gu@physx@@QEAAXI@Z 000000018015b6a0 f   GuAABBTree.obj
 0001:0015a6c0       ?shiftOrigin@AABBTree@Gu@physx@@QEAAXAEBV?$PxVec3T@M@3@@Z 000000018015b6c0 f   GuAABBTree.obj
 0001:0015a940       ?subdivide@AABBTreeBuildNode@Gu@physx@@QEAAXAEBVAABBTreeBuildParams@23@AEAUBuildStats@23@AEAVNodeAllocator@23@QEAI@Z 000000018015b940 f   GuAABBTree.obj
 0001:0015ab20       ?subdivideSAH@AABBTreeBuildNode@Gu@physx@@QEAAXAEBVAABBTreeBuildParams@23@AEAUSAH_Buffers@23@AEAUBuildStats@23@AEAVNodeAllocator@23@QEAI@Z 000000018015bb20 f   GuAABBTree.obj
 0001:0015ac10       ?traverseRuntimeNode@AABBTree@Gu@physx@@AEAAXAEAUBVHNode@23@AEBVAABBTreeMergeData@23@I@Z 000000018015bc10 f   GuAABBTree.obj
 0001:0015ad00       ?initMap@AABBTreeUpdateMap@Gu@physx@@QEAAXIAEBVAABBTree@23@@Z 000000018015bd00 f   GuAABBTreeUpdateMap.obj
 0001:0015ae40       ?invalidate@AABBTreeUpdateMap@Gu@physx@@QEAAXIIAEAVAABBTree@23@@Z 000000018015be40 f   GuAABBTreeUpdateMap.obj
 0001:0015b0e0       ?visualizeTree@@YAXAEAVPxRenderOutput@physx@@IPEBVAABBTree@Gu@2@@Z 000000018015c0e0 f   GuSqInternal.obj
 0001:0015b150       ?visualizeTree@@YAXAEAVPxRenderOutput@physx@@IPEBVBVH@Gu@2@@Z 000000018015c150 f   GuSqInternal.obj
 0001:0015b1c0       ?visualizeTree@@YAXAEAVPxRenderOutput@physx@@IPEBVIncrementalAABBTree@Gu@2@PEAVDebugVizCallback@2@@Z 000000018015c1c0 f   GuSqInternal.obj
 0001:0015b240       ??$PxSort@PEAXU?$PxLess@PEAX@physx@@V?$PxReflectionAllocator@UAABBTreeIndices@Gu@physx@@@2@@physx@@YAXPEAPEAXIAEBU?$PxLess@PEAX@0@AEBV?$PxReflectionAllocator@UAABBTreeIndices@Gu@physx@@@0@I@Z 000000018015c240 f i GuIncrementalAABBTree.obj
 0001:0015b6a0       ??$PxSort@PEAXU?$PxLess@PEAX@physx@@V?$PxReflectionAllocator@UIncrementalAABBTreeNodePair@Gu@physx@@@2@@physx@@YAXPEAPEAXIAEBU?$PxLess@PEAX@0@AEBV?$PxReflectionAllocator@UIncrementalAABBTreeNodePair@Gu@physx@@@0@I@Z 000000018015c6a0 f i GuIncrementalAABBTree.obj
 0001:0015bb00       ??0IncrementalAABBTree@Gu@physx@@QEAA@XZ 000000018015cb00 f   GuIncrementalAABBTree.obj
 0001:0015bb80       ??1?$PxPoolBase@UAABBTreeIndices@Gu@physx@@V?$PxReflectionAllocator@UAABBTreeIndices@Gu@physx@@@3@@physx@@QEAA@XZ 000000018015cb80 f i GuIncrementalAABBTree.obj
 0001:0015bce0       ??1?$PxPoolBase@UIncrementalAABBTreeNodePair@Gu@physx@@V?$PxReflectionAllocator@UIncrementalAABBTreeNodePair@Gu@physx@@@3@@physx@@QEAA@XZ 000000018015cce0 f i GuIncrementalAABBTree.obj
 0001:0015be40       ??1IncrementalAABBTree@Gu@physx@@QEAA@XZ 000000018015ce40 f   GuIncrementalAABBTree.obj
 0001:0015be80       ?allocate@?$PxArray@PEAXV?$PxReflectionAllocator@UAABBTreeIndices@Gu@physx@@@physx@@@physx@@IEAAPEAPEAXI@Z 000000018015ce80 f i GuIncrementalAABBTree.obj
 0001:0015bf30       ?allocate@?$PxArray@PEAXV?$PxReflectionAllocator@UIncrementalAABBTreeNodePair@Gu@physx@@@physx@@@physx@@IEAAPEAPEAXI@Z 000000018015cf30 f i GuIncrementalAABBTree.obj
 0001:0015bfe0       ?allocate@?$PxPoolBase@UAABBTreeIndices@Gu@physx@@V?$PxReflectionAllocator@UAABBTreeIndices@Gu@physx@@@3@@physx@@QEAAPEAUAABBTreeIndices@Gu@2@XZ 000000018015cfe0 f i GuIncrementalAABBTree.obj
 0001:0015c0f0       ?allocate@?$PxPoolBase@UIncrementalAABBTreeNodePair@Gu@physx@@V?$PxReflectionAllocator@UIncrementalAABBTreeNodePair@Gu@physx@@@3@@physx@@QEAAPEAUIncrementalAABBTreeNodePair@Gu@2@XZ 000000018015d0f0 f i GuIncrementalAABBTree.obj
 0001:0015c220       ?build@IncrementalAABBTree@Gu@physx@@QEAA_NAEBVAABBTreeBuildParams@23@AEAV?$PxArray@PEAVIncrementalAABBTreeNode@Gu@physx@@V?$PxReflectionAllocator@PEAVIncrementalAABBTreeNode@Gu@physx@@@3@@3@@Z 000000018015d220 f   GuIncrementalAABBTree.obj
 0001:0015c400       ?clone@IncrementalAABBTree@Gu@physx@@AEAAXAEAV?$PxArray@PEAVIncrementalAABBTreeNode@Gu@physx@@V?$PxReflectionAllocator@PEAVIncrementalAABBTreeNode@Gu@physx@@@3@@3@PEBIPEAPEAVIncrementalAABBTreeNode@23@@Z 000000018015d400 f   GuIncrementalAABBTree.obj
 0001:0015c920       ?copy@IncrementalAABBTree@Gu@physx@@QEAAXAEBVBVH@23@AEAV?$PxArray@PEAVIncrementalAABBTreeNode@Gu@physx@@V?$PxReflectionAllocator@PEAVIncrementalAABBTreeNode@Gu@physx@@@3@@3@@Z 000000018015d920 f   GuIncrementalAABBTree.obj
 0001:0015c9d0       ?copyNode@IncrementalAABBTree@Gu@physx@@AEAAXAEAVIncrementalAABBTreeNode@23@AEBUBVHNode@23@PEBU523@PEAV423@PEBIAEAV?$PxArray@PEAVIncrementalAABBTreeNode@Gu@physx@@V?$PxReflectionAllocator@PEAVIncrementalAABBTreeNode@Gu@physx@@@3@@3@@Z 000000018015d9d0 f   GuIncrementalAABBTree.obj
 0001:0015cb90       ?fixupTreeIndices@IncrementalAABBTree@Gu@physx@@QEAAXPEAVIncrementalAABBTreeNode@23@II@Z 000000018015db90 f   GuIncrementalAABBTree.obj
 0001:0015cbc0       ?getTreeLeafDepth@IncrementalAABBTree@Gu@physx@@QEAAIPEAVIncrementalAABBTreeNode@23@@Z 000000018015dbc0 f   GuIncrementalAABBTree.obj
 0001:0015cbe0       ?growAndPushBack@?$PxArray@PEAVIncrementalAABBTreeNode@Gu@physx@@V?$PxReflectionAllocator@PEAVIncrementalAABBTreeNode@Gu@physx@@@3@@physx@@IEAAAEAPEAVIncrementalAABBTreeNode@Gu@2@AEBQEAV342@@Z 000000018015dbe0 f i GuIncrementalAABBTree.obj
 0001:0015cd20       ?growAndPushBack@?$PxArray@PEAXV?$PxReflectionAllocator@UAABBTreeIndices@Gu@physx@@@physx@@@physx@@IEAAAEAPEAXAEBQEAX@Z 000000018015dd20 f i GuIncrementalAABBTree.obj
 0001:0015cde0       ?growAndPushBack@?$PxArray@PEAXV?$PxReflectionAllocator@UIncrementalAABBTreeNodePair@Gu@physx@@@physx@@@physx@@IEAAAEAPEAXAEBQEAX@Z 000000018015dde0 f i GuIncrementalAABBTree.obj
 0001:0015cea0       ?hierarchyCheck@IncrementalAABBTree@Gu@physx@@QEAAXIPEBVPxBounds3@3@@Z 000000018015dea0 f   GuIncrementalAABBTree.obj
 0001:0015d000       ?hierarchyCheck@IncrementalAABBTree@Gu@physx@@QEAAXPEBVPxBounds3@3@@Z 000000018015e000 f   GuIncrementalAABBTree.obj
 0001:0015d160       ?insert@IncrementalAABBTree@Gu@physx@@QEAAPEAVIncrementalAABBTreeNode@23@IPEBVPxBounds3@3@AEAV?$PxArray@PEAVIncrementalAABBTreeNode@Gu@physx@@V?$PxReflectionAllocator@PEAVIncrementalAABBTreeNode@Gu@physx@@@3@@3@@Z 000000018015e160 f   GuIncrementalAABBTree.obj
 0001:0015d850       ?recreate@?$PxArray@PEAXV?$PxReflectionAllocator@UAABBTreeIndices@Gu@physx@@@physx@@@physx@@IEAAXI@Z 000000018015e850 f i GuIncrementalAABBTree.obj
 0001:0015d8f0       ?recreate@?$PxArray@PEAXV?$PxReflectionAllocator@UIncrementalAABBTreeNodePair@Gu@physx@@@physx@@@physx@@IEAAXI@Z 000000018015e8f0 f i GuIncrementalAABBTree.obj
 0001:0015d990       ?release@IncrementalAABBTree@Gu@physx@@QEAAXXZ 000000018015e990 f   GuIncrementalAABBTree.obj
 0001:0015d9c0       ?releaseNode@IncrementalAABBTree@Gu@physx@@AEAAXPEAVIncrementalAABBTreeNode@23@@Z 000000018015e9c0 f   GuIncrementalAABBTree.obj
 0001:0015da50       ?remove@IncrementalAABBTree@Gu@physx@@QEAAPEAVIncrementalAABBTreeNode@23@PEAV423@IPEBVPxBounds3@3@@Z 000000018015ea50 f   GuIncrementalAABBTree.obj
 0001:0015dd50       ?rotateTree@IncrementalAABBTree@Gu@physx@@AEAAXPEAVIncrementalAABBTreeNode@23@AEAV?$PxArray@PEAVIncrementalAABBTreeNode@Gu@physx@@V?$PxReflectionAllocator@PEAVIncrementalAABBTreeNode@Gu@physx@@@3@@3@IPEBVPxBounds3@3@_N@Z 000000018015ed50 f   GuIncrementalAABBTree.obj
 0001:0015e600       ?shiftOrigin@IncrementalAABBTree@Gu@physx@@QEAAXAEBV?$PxVec3T@M@3@@Z 000000018015f600 f   GuIncrementalAABBTree.obj
 0001:0015e660       ?splitLeafNode@IncrementalAABBTree@Gu@physx@@AEAAPEAVIncrementalAABBTreeNode@23@PEAV423@IAEBT__m128@@1PEBVPxBounds3@3@@Z 000000018015f660 f   GuIncrementalAABBTree.obj
 0001:0015e960       ?update@IncrementalAABBTree@Gu@physx@@QEAAPEAVIncrementalAABBTreeNode@23@PEAV423@IPEBVPxBounds3@3@AEAV?$PxArray@PEAVIncrementalAABBTreeNode@Gu@physx@@V?$PxReflectionAllocator@PEAVIncrementalAABBTreeNode@Gu@physx@@@3@@3@@Z 000000018015f960 f   GuIncrementalAABBTree.obj
 0001:0015ea20       ?updateFast@IncrementalAABBTree@Gu@physx@@QEAAPEAVIncrementalAABBTreeNode@23@PEAV423@IPEBVPxBounds3@3@AEAV?$PxArray@PEAVIncrementalAABBTreeNode@Gu@physx@@V?$PxReflectionAllocator@PEAVIncrementalAABBTreeNode@Gu@physx@@@3@@3@@Z 000000018015fa20 f   GuIncrementalAABBTree.obj
 0001:0015ec20       ??0SAH_Buffers@Gu@physx@@QEAA@I@Z 000000018015fc20 f   GuSAH.obj
 0001:0015ed30       ??1SAH_Buffers@Gu@physx@@QEAA@XZ 000000018015fd30 f   GuSAH.obj
 0001:0015edf0       ?split@SAH_Buffers@Gu@physx@@QEAA_NAEAIIPEIBIPEIBVPxBounds3@3@PEIBV?$PxVec3T@M@3@@Z 000000018015fdf0 f   GuSAH.obj
 0001:0015f4f0       ??0BVH@Gu@physx@@QEAA@AEBUPxBVHInternalData@2@@Z 00000001801604f0 f   GuBVH.obj
 0001:0015f5b0       ??0BVH@Gu@physx@@QEAA@PEAVMeshFactory@12@@Z 00000001801605b0 f   GuBVH.obj
 0001:0015f620       ??0BVH@Gu@physx@@QEAA@PEAVMeshFactory@12@AEAVBVHData@12@@Z 0000000180160620 f   GuBVH.obj
 0001:0015f6d0       ??1BVHData@Gu@physx@@QEAA@XZ 00000001801606d0 f i GuBVH.obj
 0001:00164d20       ??_EBVH@Gu@physx@@WBA@EAAPEAXI@Z 0000000180165d20 f i GuBVH.obj
 0001:00164d30       ??_GBVH@Gu@physx@@UEAAPEAXI@Z 0000000180165d30 f i GuBVH.obj
 0001:00164d30       ??_EBVH@Gu@physx@@UEAAPEAXI@Z 0000000180165d30 f i GuBVH.obj
 0001:00164dc0       ??_ERefCountable@Cm@physx@@UEAAPEAXI@Z 0000000180165dc0 f i GuBVH.obj
 0001:00164dc0       ??_GRefCountable@Cm@physx@@UEAAPEAXI@Z 0000000180165dc0 f i GuBVH.obj
 0001:00164ff0       ?allocate@?$PxArray@PEBUBVHNode@Gu@physx@@V?$PxInlineAllocator@$0IAA@V?$PxReflectionAllocator@PEBUBVHNode@Gu@physx@@@physx@@@3@@physx@@IEAAPEAPEBUBVHNode@Gu@2@I@Z 0000000180165ff0 f i GuBVH.obj
 0001:001650c0       ?build@BVHData@Gu@physx@@QEAA_NIPEBXIMIW4BVHBuildStrategy@23@@Z 00000001801660c0 f   GuBVH.obj
 0001:001654b0       ?cull@BVH@Gu@physx@@UEBA_NIPEBVPxPlane@3@AEAUOverlapCallback@PxBVH@3@V?$PxFlags@W4Enum@PxGeometryQueryFlag@physx@@I@3@@Z 00000001801664b0 f   GuBVH.obj
 0001:00165de0       ?getConcreteTypeName@PxBVH@physx@@UEBAPEBDXZ 0000000180166de0 f i GuBVH.obj
 0001:00165df0       ?init@BVH@Gu@physx@@QEAA_NIPEAVAABBTreeBounds@23@PEBXIW4BVHBuildStrategy@23@IM@Z 0000000180166df0 f   GuBVH.obj
 0001:001661f0       ?isKindOf@PxBVH@physx@@MEBA_NPEBD@Z 00000001801671f0 f i GuBVH.obj
 0001:00166240       ?load@BVH@Gu@physx@@QEAA_NAEAVPxInputStream@3@@Z 0000000180167240 f   GuBVH.obj
 0001:001663d0       ?onRefCountZero@BVH@Gu@physx@@UEAAXXZ 00000001801673d0 f   GuBVH.obj
 0001:001664b0       ?onRefCountZero@RefCountable@Cm@physx@@UEAAXXZ 00000001801674b0 f i GuBVH.obj
 0001:001664d0       ?overlap@BVH@Gu@physx@@QEBA_NAEBVShapeData@23@AEAUOverlapCallback@PxBVH@3@V?$PxFlags@W4Enum@PxGeometryQueryFlag@physx@@I@3@@Z 00000001801674d0 f   GuBVH.obj
 0001:00166d10       ?overlap@BVH@Gu@physx@@UEBAIAEBVPxBounds3@3@IPEIAI@Z 0000000180167d10 f   GuBVH.obj
 0001:00166e30       ?overlap@BVH@Gu@physx@@UEBA_NAEBVPxGeometry@3@AEBV?$PxTransformT@M@3@AEAUOverlapCallback@PxBVH@3@V?$PxFlags@W4Enum@PxGeometryQueryFlag@physx@@I@3@@Z 0000000180167e30 f   GuBVH.obj
 0001:00166e90       ?partialRefit@BVH@Gu@physx@@UEAAXXZ 0000000180167e90 f   GuBVH.obj
 0001:00166ea0       ?raycast@BVH@Gu@physx@@UEBAIAEBV?$PxVec3T@M@3@0MIPEIAI@Z 0000000180167ea0 f   GuBVH.obj
 0001:00166f40       ?raycast@BVH@Gu@physx@@UEBA_NAEBV?$PxVec3T@M@3@0MAEAURaycastCallback@PxBVH@3@V?$PxFlags@W4Enum@PxGeometryQueryFlag@physx@@I@3@@Z 0000000180167f40 f   GuBVH.obj
 0001:00167070       ?recreate@?$PxArray@PEBUBVHNode@Gu@physx@@V?$PxInlineAllocator@$0IAA@V?$PxReflectionAllocator@PEBUBVHNode@Gu@physx@@@physx@@@3@@physx@@IEAAXI@Z 0000000180168070 f i GuBVH.obj
 0001:00167120       ?refit@BVH@Gu@physx@@UEAAXXZ 0000000180168120 f   GuBVH.obj
 0001:00167130       ?release@BVH@Gu@physx@@UEAAXXZ 0000000180168130 f   GuBVH.obj
 0001:00167160       ?resizeUninitialized@?$PxArray@PEBUBVHNode@Gu@physx@@V?$PxInlineAllocator@$0IAA@V?$PxReflectionAllocator@PEBUBVHNode@Gu@physx@@@physx@@@3@@physx@@QEAAXI@Z 0000000180168160 f i GuBVH.obj
 0001:001671b0       ?save@BVHData@Gu@physx@@QEBA_NAEAVPxOutputStream@3@_N@Z 00000001801681b0 f   GuBVH.obj
 0001:00167320       ?sweep@BVH@Gu@physx@@QEBA_NAEBVShapeData@23@AEBV?$PxVec3T@M@3@MAEAURaycastCallback@PxBVH@3@V?$PxFlags@W4Enum@PxGeometryQueryFlag@physx@@I@3@@Z 0000000180168320 f   GuBVH.obj
 0001:001674e0       ?sweep@BVH@Gu@physx@@UEBAIAEBVPxBounds3@3@AEBV?$PxVec3T@M@3@MIPEIAI@Z 00000001801684e0 f   GuBVH.obj
 0001:00167650       ?sweep@BVH@Gu@physx@@UEBA_NAEBVPxGeometry@3@AEBV?$PxTransformT@M@3@AEBV?$PxVec3T@M@3@MAEAURaycastCallback@PxBVH@3@V?$PxFlags@W4Enum@PxGeometryQueryFlag@physx@@I@3@@Z 0000000180168650 f   GuBVH.obj
 0001:001676d0       ?traverse@BVH@Gu@physx@@UEBA_NAEAUTraversalCallback@PxBVH@3@@Z 00000001801686d0 f   GuBVH.obj
 0001:00167860       ?updateBounds@BVH@Gu@physx@@UEAA_NIAEBVPxBounds3@3@@Z 0000000180168860 f   GuBVH.obj
 0001:00167910       ?updateBoundsInternal@BVH@Gu@physx@@QEAA_NIAEBVPxBounds3@3@@Z 0000000180168910 f   GuBVH.obj
 0001:001679c0       PxFindOverlap              00000001801689c0 f   GuBVH.obj
 0001:00167ab0       PxGetBVHInternalData       0000000180168ab0 f   GuBVH.obj
 0001:00167af0       ??0IncrementalAABBPrunerCore@Gu@physx@@QEAA@PEBVPruningPool@12@@Z 0000000180168af0 f   GuIncrementalAABBPrunerCore.obj
 0001:00167c00       ??1IncrementalAABBPrunerCore@Gu@physx@@QEAA@XZ 0000000180168c00 f   GuIncrementalAABBPrunerCore.obj
 0001:00167d70       ??R?$AABBTreeOverlap@$00U?$OBBAABBTests@$00@Gu@physx@@VIncrementalAABBTree@23@VIncrementalAABBTreeNode@23@UOverlapCallbackAdapter@23@@Gu@physx@@QEAA_NAEBVAABBTreeBounds@12@AEBVIncrementalAABBTree@12@AEBU?$OBBAABBTests@$00@12@AEAUOverlapCallbackAdapter@12@@Z 0000000180168d70 f i GuIncrementalAABBPrunerCore.obj
 0001:00168320       ??R?$AABBTreeOverlap@$00UAABBAABBTest@Gu@physx@@VIncrementalAABBTree@23@VIncrementalAABBTreeNode@23@UOverlapCallbackAdapter@23@@Gu@physx@@QEAA_NAEBVAABBTreeBounds@12@AEBVIncrementalAABBTree@12@AEBUAABBAABBTest@12@AEAUOverlapCallbackAdapter@12@@Z 0000000180169320 f i GuIncrementalAABBPrunerCore.obj
 0001:001685a0       ??R?$AABBTreeOverlap@$00UCapsuleAABBTest@Gu@physx@@VIncrementalAABBTree@23@VIncrementalAABBTreeNode@23@UOverlapCallbackAdapter@23@@Gu@physx@@QEAA_NAEBVAABBTreeBounds@12@AEBVIncrementalAABBTree@12@AEBUCapsuleAABBTest@12@AEAUOverlapCallbackAdapter@12@@Z 00000001801695a0 f i GuIncrementalAABBPrunerCore.obj
 0001:00168900       ??R?$AABBTreeRaycast@$00$00VIncrementalAABBTree@Gu@physx@@VIncrementalAABBTreeNode@23@URaycastCallbackAdapter@23@@Gu@physx@@QEAA_NAEBVAABBTreeBounds@12@AEBVIncrementalAABBTree@12@AEBV?$PxVec3T@M@2@2AEAM2AEAURaycastCallbackAdapter@12@@Z 0000000180169900 f i GuIncrementalAABBPrunerCore.obj
 0001:00168fa0       ??R?$AABBTreeRaycast@$0A@$00VIncrementalAABBTree@Gu@physx@@VIncrementalAABBTreeNode@23@URaycastCallbackAdapter@23@@Gu@physx@@QEAA_NAEBVAABBTreeBounds@12@AEBVIncrementalAABBTree@12@AEBV?$PxVec3T@M@2@2AEAM2AEAURaycastCallbackAdapter@12@@Z 0000000180169fa0 f i GuIncrementalAABBPrunerCore.obj
 0001:001695f0       ?addObject@IncrementalAABBPrunerCore@Gu@physx@@QEAA_NII@Z 000000018016a5f0 f   GuIncrementalAABBPrunerCore.obj
 0001:00169700       ?allocate@?$PxArray@PEBVIncrementalAABBTreeNode@Gu@physx@@V?$PxInlineAllocator@$0IAA@V?$PxReflectionAllocator@PEBVIncrementalAABBTreeNode@Gu@physx@@@physx@@@3@@physx@@IEAAPEAPEBVIncrementalAABBTreeNode@Gu@2@I@Z 000000018016a700 f i GuIncrementalAABBPrunerCore.obj
 0001:001697d0       ?clear@?$PxHashMapBase@UPrunerPayload@Gu@physx@@UExtendedBucketPrunerData@23@UExtendedBucketPrunerHash@23@VPxAllocator@3@@physx@@QEAAXXZ 000000018016a7d0 f i GuExtendedBucketPruner.obj
 0001:001697d0       ?clear@?$PxHashMapBase@IPEAVIncrementalAABBTreeNode@Gu@physx@@U?$PxHash@I@3@VPxAllocator@3@@physx@@QEAAXXZ 000000018016a7d0 f i GuIncrementalAABBPrunerCore.obj
 0001:00169860       ?create@?$PxHashBase@V?$PxPair@$$CBIPEAVIncrementalAABBTreeNode@Gu@physx@@@physx@@IU?$PxHash@I@2@UGetKey@?$PxHashMapBase@IPEAVIncrementalAABBTreeNode@Gu@physx@@U?$PxHash@I@3@VPxAllocator@3@@2@VPxAllocator@2@$00@physx@@QEAAPEAV?$PxPair@$$CBIPEAVIncrementalAABBTreeNode@Gu@physx@@@2@AEBIAEA_N@Z 000000018016a860 f i GuIncrementalAABBPrunerCore.obj
 0001:001699b0       ?erase@?$PxHashBase@V?$PxPair@$$CBIPEAVIncrementalAABBTreeNode@Gu@physx@@@physx@@IU?$PxHash@I@2@UGetKey@?$PxHashMapBase@IPEAVIncrementalAABBTreeNode@Gu@physx@@U?$PxHash@I@3@VPxAllocator@3@@2@VPxAllocator@2@$00@physx@@QEAA_NAEBIAEAV?$PxPair@$$CBIPEAVIncrementalAABBTreeNode@Gu@physx@@@2@@Z 000000018016a9b0 f i GuIncrementalAABBPrunerCore.obj
 0001:00169b10       ?getMesh@CollisionTetrahedronMeshData@Gu@physx@@UEBAPEBVPxTetrahedronMeshData@3@XZ 000000018016ab10 f i GuCookingTetrahedronMesh.obj
 0001:00169b10       ?getMesh@SimulationTetrahedronMeshData@Gu@physx@@UEAAPEAVPxTetrahedronMeshData@3@XZ 000000018016ab10 f i GuCookingTetrahedronMesh.obj
 0001:00169b10       ?getCurrentWorldBoxes@PruningPool@Gu@physx@@QEAAPEAVPxBounds3@3@XZ 000000018016ab10 f i GuIncrementalAABBPrunerCore.obj
 0001:00169b10       ?getCurrentWorldBoxes@PruningPool@Gu@physx@@QEBAPEBVPxBounds3@3@XZ 000000018016ab10 f i GuIncrementalAABBPrunerCore.obj
 0001:00169b10       ?getMesh@CollisionTetrahedronMeshData@Gu@physx@@UEAAPEAVPxTetrahedronMeshData@3@XZ 000000018016ab10 f i GuCookingTetrahedronMesh.obj
 0001:00169b20       ?getGlobalBounds@IncrementalAABBPrunerCore@Gu@physx@@QEBAXAEAVPxBounds3@3@@Z 000000018016ab20 f   GuIncrementalAABBPrunerCore.obj
 0001:00169c40       ?getIndex@PruningPool@Gu@physx@@QEBAII@Z 000000018016ac40 f i GuIncrementalAABBPrunerCore.obj
 0001:00169c50       ?getPayloadData@PruningPool@Gu@physx@@QEBAAEBUPrunerPayload@23@IPEAUPrunerPayloadData@23@@Z 000000018016ac50 f i GuIncrementalAABBPrunerCore.obj
 0001:00169ca0       ?overlap@IncrementalAABBPrunerCore@Gu@physx@@QEBA_NAEBVShapeData@23@AEAUPrunerOverlapCallback@23@@Z 000000018016aca0 f   GuIncrementalAABBPrunerCore.obj
 0001:0016a6b0       ?raycast@IncrementalAABBPrunerCore@Gu@physx@@QEBA_NAEBV?$PxVec3T@M@3@0AEAMAEAUPrunerRaycastCallback@23@@Z 000000018016b6b0 f   GuIncrementalAABBPrunerCore.obj
 0001:0016a790       ?recreate@?$PxArray@PEAVIncrementalAABBTreeNode@Gu@physx@@V?$PxReflectionAllocator@PEAVIncrementalAABBTreeNode@Gu@physx@@@3@@physx@@IEAAXI@Z 000000018016b790 f i GuIncrementalAABBPrunerCore.obj
 0001:0016a8c0       ?recreate@?$PxArray@PEBVIncrementalAABBTreeNode@Gu@physx@@V?$PxInlineAllocator@$0IAA@V?$PxReflectionAllocator@PEBVIncrementalAABBTreeNode@Gu@physx@@@physx@@@3@@physx@@IEAAXI@Z 000000018016b8c0 f i GuIncrementalAABBPrunerCore.obj
 0001:0016a970       ?release@IncrementalAABBPrunerCore@Gu@physx@@QEAAXXZ 000000018016b970 f   GuIncrementalAABBPrunerCore.obj
 0001:0016aa70       ?removeMarkedObjects@IncrementalAABBPrunerCore@Gu@physx@@QEAAII@Z 000000018016ba70 f   GuIncrementalAABBPrunerCore.obj
 0001:0016aad0       ?removeObject@IncrementalAABBPrunerCore@Gu@physx@@QEAA_NIIAEAI@Z 000000018016bad0 f   GuIncrementalAABBPrunerCore.obj
 0001:0016acd0       ?reserveInternal@?$PxHashBase@V?$PxPair@$$CBIPEAVIncrementalAABBTreeNode@Gu@physx@@@physx@@IU?$PxHash@I@2@UGetKey@?$PxHashMapBase@IPEAVIncrementalAABBTreeNode@Gu@physx@@U?$PxHash@I@3@VPxAllocator@3@@2@VPxAllocator@2@$00@physx@@AEAAXI@Z 000000018016bcd0 f i GuIncrementalAABBPrunerCore.obj
 0001:0016ae90       ?resizeUninitialized@?$PxArray@PEBVIncrementalAABBTreeNode@Gu@physx@@V?$PxInlineAllocator@$0IAA@V?$PxReflectionAllocator@PEBVIncrementalAABBTreeNode@Gu@physx@@@physx@@@3@@physx@@QEAAXI@Z 000000018016be90 f i GuIncrementalAABBPrunerCore.obj
 0001:0016aee0       ?setTransform@PruningPool@Gu@physx@@QEAA_NIAEBV?$PxTransformT@M@3@@Z 000000018016bee0 f i GuIncrementalAABBPrunerCore.obj
 0001:0016af40       ?shiftOrigin@IncrementalAABBPrunerCore@Gu@physx@@QEAAXAEBV?$PxVec3T@M@3@@Z 000000018016bf40 f   GuIncrementalAABBPrunerCore.obj
 0001:0016af90       ?swapIndex@IncrementalAABBPrunerCore@Gu@physx@@QEAAXII@Z 000000018016bf90 f   GuIncrementalAABBPrunerCore.obj
 0001:0016b060       ?sweep@IncrementalAABBPrunerCore@Gu@physx@@QEBA_NAEBVShapeData@23@AEBV?$PxVec3T@M@3@AEAMAEAUPrunerRaycastCallback@23@@Z 000000018016c060 f   GuIncrementalAABBPrunerCore.obj
 0001:0016b1f0       ?updateMapping@IncrementalAABBPrunerCore@Gu@physx@@AEAAXAEAV?$PxHashMap@IPEAVIncrementalAABBTreeNode@Gu@physx@@U?$PxHash@I@3@VPxAllocator@3@@3@IPEAVIncrementalAABBTreeNode@23@@Z 000000018016c1f0 f   GuIncrementalAABBPrunerCore.obj
 0001:0016b320       ?updateObject@IncrementalAABBPrunerCore@Gu@physx@@QEAA_NI@Z 000000018016c320 f   GuIncrementalAABBPrunerCore.obj
 0001:0016b4c0       ?visualize@IncrementalAABBPrunerCore@Gu@physx@@QEBAXAEAVPxRenderOutput@3@I@Z 000000018016c4c0 f   GuIncrementalAABBPrunerCore.obj
 0001:0016b520       ??0IncrementalAABBPruner@Gu@physx@@QEAA@I_K@Z 000000018016c520 f   GuIncrementalAABBPruner.obj
 0001:0016b5d0       ??R?$AABBTreeOverlap@$00USphereAABBTest@Gu@physx@@VIncrementalAABBTree@23@VIncrementalAABBTreeNode@23@UOverlapCallbackAdapter@23@@Gu@physx@@QEAA_NAEBVAABBTreeBounds@12@AEBVIncrementalAABBTree@12@AEBUSphereAABBTest@12@AEAUOverlapCallbackAdapter@12@@Z 000000018016c5d0 f i GuIncrementalAABBPruner.obj
 0001:0016b8c0       ??_GBasePruner@Gu@physx@@UEAAPEAXI@Z 000000018016c8c0 f i GuIncrementalAABBPruner.obj
 0001:0016b8c0       ??_EBasePruner@Gu@physx@@UEAAPEAXI@Z 000000018016c8c0 f i GuIncrementalAABBPruner.obj
 0001:0016b910       ??_GIncrementalAABBPruner@Gu@physx@@UEAAPEAXI@Z 000000018016c910 f i GuIncrementalAABBPruner.obj
 0001:0016b910       ??_EIncrementalAABBPruner@Gu@physx@@UEAAPEAXI@Z 000000018016c910 f i GuIncrementalAABBPruner.obj
 0001:0016ba20       ?addObjects@IncrementalAABBPruner@Gu@physx@@UEAA_NPEAIPEBVPxBounds3@3@PEBUPrunerPayload@23@PEBV?$PxTransformT@M@3@I_N@Z 000000018016ca20 f   GuIncrementalAABBPruner.obj
 0001:0016bba0       ?commit@IncrementalAABBPruner@Gu@physx@@UEAAXXZ 000000018016cba0 f   GuIncrementalAABBPruner.obj
 0001:0016bd70       ?getGlobalBounds@IncrementalAABBPruner@Gu@physx@@UEBAXAEAVPxBounds3@3@@Z 000000018016cd70 f   GuIncrementalAABBPruner.obj
 0001:0016bde0       ?getPayloadData@IncrementalAABBPruner@Gu@physx@@UEBAAEBUPrunerPayload@23@IPEAUPrunerPayloadData@23@@Z 000000018016cde0 f i GuIncrementalAABBPruner.obj
 0001:0016be30       ?overlap@IncrementalAABBPruner@Gu@physx@@UEBA_NAEBVShapeData@23@AEAUPrunerOverlapCallback@23@@Z 000000018016ce30 f   GuIncrementalAABBPruner.obj
 0001:0016c3d0       ?preallocate@IncrementalAABBPruner@Gu@physx@@UEAAXI@Z 000000018016d3d0 f i GuIncrementalAABBPruner.obj
 0001:0016c3e0       ?purge@IncrementalAABBPruner@Gu@physx@@UEAAXXZ 000000018016d3e0 f   GuIncrementalAABBPruner.obj
 0001:0016c430       ?raycast@IncrementalAABBPruner@Gu@physx@@UEBA_NAEBV?$PxVec3T@M@3@0AEAMAEAUPrunerRaycastCallback@23@@Z 000000018016d430 f   GuIncrementalAABBPruner.obj
 0001:0016c4b0       ?removeObjects@IncrementalAABBPruner@Gu@physx@@UEAAXPEBIIPEAUPrunerPayloadRemovalCallback@23@@Z 000000018016d4b0 f   GuIncrementalAABBPruner.obj
 0001:0016c6c0       ?resize@?$PxArray@PEAVIncrementalAABBTreeNode@Gu@physx@@V?$PxReflectionAllocator@PEAVIncrementalAABBTreeNode@Gu@physx@@@3@@physx@@QEAAXIAEBQEAVIncrementalAABBTreeNode@Gu@2@@Z 000000018016d6c0 f i GuIncrementalAABBPruner.obj
 0001:0016c780       ?resizeUninitialized@?$PxArray@PEAVIncrementalAABBTreeNode@Gu@physx@@V?$PxReflectionAllocator@PEAVIncrementalAABBTreeNode@Gu@physx@@@3@@physx@@QEAAXI@Z 000000018016d780 f i GuIncrementalAABBPruner.obj
 0001:0016c7c0       ?setTransform@IncrementalAABBPruner@Gu@physx@@UEAA_NIAEBV?$PxTransformT@M@3@@Z 000000018016d7c0 f i GuIncrementalAABBPruner.obj
 0001:0016c820       ?shiftOrigin@IncrementalAABBPruner@Gu@physx@@UEAAXAEBV?$PxVec3T@M@3@@Z 000000018016d820 f   GuIncrementalAABBPruner.obj
 0001:0016c860       ?sweep@IncrementalAABBPruner@Gu@physx@@UEBA_NAEBVShapeData@23@AEBV?$PxVec3T@M@3@AEAMAEAUPrunerRaycastCallback@23@@Z 000000018016d860 f   GuIncrementalAABBPruner.obj
 0001:0016c980       ?updateMapping@IncrementalAABBPruner@Gu@physx@@AEAAXIPEAVIncrementalAABBTreeNode@23@@Z 000000018016d980 f   GuIncrementalAABBPruner.obj
 0001:0016ca70       ?updateObjects@IncrementalAABBPruner@Gu@physx@@UEAAXPEBIIM0PEBVPxBounds3@3@PEBUPxTransformPadded@3@@Z 000000018016da70 f   GuIncrementalAABBPruner.obj
 0001:0016cc30       ?visualize@IncrementalAABBPruner@Gu@physx@@UEBAXAEAVPxRenderOutput@3@II@Z 000000018016dc30 f   GuIncrementalAABBPruner.obj
 0001:0016ce20       ??0PruningPool@Gu@physx@@QEAA@_KW4TransformCacheMode@12@@Z 000000018016de20 f   GuPruningPool.obj
 0001:0016ce50       ??1PruningPool@Gu@physx@@QEAA@XZ 000000018016de50 f   GuPruningPool.obj
 0001:0016cf10       ?addObjects@PruningPool@Gu@physx@@QEAAIPEAIPEBVPxBounds3@3@PEBUPrunerPayload@23@PEBV?$PxTransformT@M@3@I@Z 000000018016df10 f   GuPruningPool.obj
 0001:0016d190       ?preallocate@PruningPool@Gu@physx@@QEAAXI@Z 000000018016e190 f   GuPruningPool.obj
 0001:0016d1a0       ?removeObject@PruningPool@Gu@physx@@QEAAIIPEAUPrunerPayloadRemovalCallback@23@@Z 000000018016e1a0 f   GuPruningPool.obj
 0001:0016d370       ?resize@PruningPool@Gu@physx@@QEAA_NI@Z 000000018016e370 f   GuPruningPool.obj
 0001:0016d6d0       ?shiftOrigin@PruningPool@Gu@physx@@QEAAXAEBV?$PxVec3T@M@3@@Z 000000018016e6d0 f   GuPruningPool.obj
 0001:0016db20       ?updateAndInflateBounds@PruningPool@Gu@physx@@QEAAXPEBI0PEBVPxBounds3@3@PEBUPxTransformPadded@3@IM@Z 000000018016eb20 f   GuPruningPool.obj
 0001:0016f610       ??0BucketPruner@Gu@physx@@QEAA@_K@Z 0000000180170610 f   GuBucketPruner.obj
 0001:0016f660       ??0BucketPrunerCore@Gu@physx@@QEAA@_N@Z 0000000180170660 f   GuBucketPruner.obj
 0001:0016f9e0       ??1BucketPrunerCore@Gu@physx@@QEAA@XZ 00000001801709e0 f   GuBucketPruner.obj
 0001:0016fb20       ??R?$BucketPrunerOverlapTraversal@UBucketPrunerAABBAABBTest@@$00@@QEBA_NAEBVBucketPrunerCore@Gu@physx@@AEBUBucketPrunerAABBAABBTest@@AEAUPrunerOverlapCallback@23@AEBVPxBounds3@3@@Z 0000000180170b20 f i GuBucketPruner.obj
 0001:00170100       ??R?$BucketPrunerOverlapTraversal@UOBBAABBTest_SIMD@@$0A@@@QEBA_NAEBVBucketPrunerCore@Gu@physx@@AEBUOBBAABBTest_SIMD@@AEAUPrunerOverlapCallback@23@AEBVPxBounds3@3@@Z 0000000180171100 f i GuBucketPruner.obj
 0001:00170960       ??R?$BucketPrunerOverlapTraversal@USphereAABBTest_SIMD@@$00@@QEBA_NAEBVBucketPrunerCore@Gu@physx@@AEBUSphereAABBTest_SIMD@@AEAUPrunerOverlapCallback@23@AEBVPxBounds3@3@@Z 0000000180171960 f i GuBucketPruner.obj
 0001:00170f40       ??_FBucketPrunerCore@Gu@physx@@QEAAXXZ 0000000180171f40 f i GuBucketPruner.obj
 0001:00170f50       ??_EBucketPruner@Gu@physx@@UEAAPEAXI@Z 0000000180171f50 f i GuBucketPruner.obj
 0001:00170f50       ??_GBucketPruner@Gu@physx@@UEAAPEAXI@Z 0000000180171f50 f i GuBucketPruner.obj
 0001:00170fd0       ?addObject@BucketPrunerCore@Gu@physx@@QEAA_NAEBUPrunerPayload@23@AEBVPxBounds3@3@AEBV?$PxTransformT@M@3@I@Z 0000000180171fd0 f   GuBucketPruner.obj
 0001:001712f0       ?addObjects@BucketPruner@Gu@physx@@UEAA_NPEAIPEBVPxBounds3@3@PEBUPrunerPayload@23@PEBV?$PxTransformT@M@3@I_N@Z 00000001801722f0 f   GuBucketPruner.obj
 0001:00171380       ?addPair@BucketPrunerMap@Gu@physx@@QEAAPEAUBucketPrunerPair@23@AEBUPrunerPayload@23@II@Z 0000000180172380 f   GuBucketPruner.obj
 0001:00171570       ?allocateSortedMemory@BucketPrunerCore@Gu@physx@@AEAAXI@Z 0000000180172570 f   GuBucketPruner.obj
 0001:00171720       ?classifyBoxes@BucketPrunerCore@Gu@physx@@AEAAXXZ 0000000180172720 f   GuBucketPruner.obj
 0001:00171f00       ?classifyBoxes@BucketPrunerNode@Gu@physx@@QEAAXMMIPEIAUBucketBox@23@PEIBUPrunerPayload@23@PEIBV?$PxTransformT@M@3@0PEIAU523@PEIAV63@_NI@Z 0000000180172f00 f   GuBucketPruner.obj
 0001:001727f0       ?build@CompanionPrunerBucket@@UEAAXXZ 00000001801737f0 f   GuSecondaryPruner.obj
 0001:001727f0       ?commit@BucketPruner@Gu@physx@@UEAAXXZ 00000001801737f0 f   GuBucketPruner.obj
 0001:00172800       ?findPair@BucketPrunerMap@Gu@physx@@QEBAPEBUBucketPrunerPair@23@AEBUPrunerPayload@23@@Z 0000000180173800 f   GuBucketPruner.obj
 0001:00172c00       ?getGlobalBounds@BucketPruner@Gu@physx@@UEBAXAEAVPxBounds3@3@@Z 0000000180173c00 f   GuBucketPruner.obj
 0001:00172c80       ?getGlobalBounds@BucketPrunerCore@Gu@physx@@QEBAXAEAVPxBounds3@3@@Z 0000000180173c80 f   GuBucketPruner.obj
 0001:00172d00       ?getPayloadData@BucketPruner@Gu@physx@@UEBAAEBUPrunerPayload@23@IPEAUPrunerPayloadData@23@@Z 0000000180173d00 f i GuBucketPruner.obj
 0001:00172d60       ?overlap@BucketPruner@Gu@physx@@UEBA_NAEBVShapeData@23@AEAUPrunerOverlapCallback@23@@Z 0000000180173d60 f   GuBucketPruner.obj
 0001:00172d80       ?overlap@BucketPrunerCore@Gu@physx@@QEBA_NAEBVShapeData@23@AEAUPrunerOverlapCallback@23@@Z 0000000180173d80 f   GuBucketPruner.obj
 0001:00173060       ?preallocate@BucketPruner@Gu@physx@@UEAAXI@Z 0000000180174060 f i GuBucketPruner.obj
 0001:00173240       ?purge@BucketPrunerMap@Gu@physx@@QEAAXXZ 0000000180174240 f   GuBucketPruner.obj
 0001:001732d0       ?raycast@BucketPruner@Gu@physx@@UEBA_NAEBV?$PxVec3T@M@3@0AEAMAEAUPrunerRaycastCallback@23@@Z 00000001801742d0 f   GuBucketPruner.obj
 0001:00173320       ?raycast@BucketPrunerCore@Gu@physx@@QEBA_NAEBV?$PxVec3T@M@3@0AEAMAEAUPrunerRaycastCallback@23@@Z 0000000180174320 f   GuBucketPruner.obj
 0001:00173360       ?reallocPairs@BucketPrunerMap@Gu@physx@@QEAAXXZ 0000000180174360 f   GuBucketPruner.obj
 0001:00173590       ?release@BucketPrunerCore@Gu@physx@@QEAAXXZ 0000000180174590 f   GuBucketPruner.obj
 0001:001736c0       ?removeMarkedObjects@BucketPrunerCore@Gu@physx@@QEAAII@Z 00000001801746c0 f   GuBucketPruner.obj
 0001:00173a70       ?removeObject@BucketPrunerCore@Gu@physx@@QEAA_NAEBUPrunerPayload@23@AEAI@Z 0000000180174a70 f   GuBucketPruner.obj
 0001:00173d30       ?removeObjects@BucketPruner@Gu@physx@@UEAAXPEBIIPEAUPrunerPayloadRemovalCallback@23@@Z 0000000180174d30 f   GuBucketPruner.obj
 0001:00173de0       ?removePair@BucketPrunerMap@Gu@physx@@QEAA_NAEBUPrunerPayload@23@AEAI1@Z 0000000180174de0 f   GuBucketPruner.obj
 0001:00173f60       ?removePairInternal@BucketPrunerMap@Gu@physx@@QEAAXAEBUPrunerPayload@23@II@Z 0000000180174f60 f   GuBucketPruner.obj
 0001:001740d0       ?resizeCore@BucketPrunerCore@Gu@physx@@AEAAXXZ 00000001801750d0 f   GuBucketPruner.obj
 0001:00174310       ?setTransform@BucketPruner@Gu@physx@@UEAA_NIAEBV?$PxTransformT@M@3@@Z 0000000180175310 f i GuBucketPruner.obj
 0001:00174370       ?shiftOrigin@BucketPruner@Gu@physx@@UEAAXAEBV?$PxVec3T@M@3@@Z 0000000180175370 f   GuBucketPruner.obj
 0001:00174370       ?shiftOrigin@CompanionPrunerBucket@@UEAAXAEBV?$PxVec3T@M@physx@@@Z 0000000180175370 f   GuSecondaryPruner.obj
 0001:00174380       ?shiftOrigin@BucketPrunerCore@Gu@physx@@QEAAXAEBV?$PxVec3T@M@3@@Z 0000000180175380 f   GuBucketPruner.obj
 0001:001752c0       ?sweep@BucketPruner@Gu@physx@@UEBA_NAEBVShapeData@23@AEBV?$PxVec3T@M@3@AEAMAEAUPrunerRaycastCallback@23@@Z 00000001801762c0 f   GuBucketPruner.obj
 0001:001752e0       ?sweep@BucketPrunerCore@Gu@physx@@QEBA_NAEBVShapeData@23@AEBV?$PxVec3T@M@3@AEAMAEAUPrunerRaycastCallback@23@@Z 00000001801762e0 f   GuBucketPruner.obj
 0001:001753b0       ?updateObject@BucketPrunerCore@Gu@physx@@QEAA_NAEBVPxBounds3@3@AEBUPrunerPayload@23@AEBV?$PxTransformT@M@3@@Z 00000001801763b0 f   GuBucketPruner.obj
 0001:00175410       ?updateObjects@BucketPruner@Gu@physx@@UEAAXPEBIIM0PEBVPxBounds3@3@PEBUPxTransformPadded@3@@Z 0000000180176410 f   GuBucketPruner.obj
 0001:00175520       ?visualize@CompanionPrunerBucket@@UEBAXAEAVPxRenderOutput@physx@@I@Z 0000000180176520 f   GuSecondaryPruner.obj
 0001:00175520       ?visualize@BucketPruner@Gu@physx@@UEBAXAEAVPxRenderOutput@3@II@Z 0000000180176520 f   GuBucketPruner.obj
 0001:00175530       ?visualize@BucketPrunerCore@Gu@physx@@QEBAXAEAVPxRenderOutput@3@I@Z 0000000180176530 f   GuBucketPruner.obj
 0001:00175820       ?addObject@MaverickNode@Gu@physx@@QEAA_NAEBUPrunerPayload@23@IAEBVPxBounds3@3@AEBV?$PxTransformT@M@3@I@Z 0000000180176820 f   GuMaverickNode.obj
 0001:00175900       ?removeMarkedObjects@MaverickNode@Gu@physx@@QEAAII@Z 0000000180176900 f   GuMaverickNode.obj
 0001:00175a80       ?removeObject@MaverickNode@Gu@physx@@QEAA_NIAEAI@Z 0000000180176a80 f   GuMaverickNode.obj
 0001:00175bf0       ?shiftOrigin@MaverickNode@Gu@physx@@QEAAXAEBV?$PxVec3T@M@3@@Z 0000000180176bf0 f   GuMaverickNode.obj
 0001:00175ce0       ?updateObject@MaverickNode@Gu@physx@@QEAA_NIAEBVPxBounds3@3@AEBV?$PxTransformT@M@3@@Z 0000000180176ce0 f   GuMaverickNode.obj
 0001:00175dc0       ??0ExtendedBucketPruner@Gu@physx@@QEAA@_KW4CompanionPrunerType@12@PEBVPruningPool@12@@Z 0000000180176dc0 f   GuExtendedBucketPruner.obj
 0001:00176010       ??1ExtendedBucketPruner@Gu@physx@@QEAA@XZ 0000000180177010 f   GuExtendedBucketPruner.obj
 0001:00176170       ??R?$AABBTreeOverlap@$00U?$OBBAABBTests@$00@Gu@physx@@VAABBTree@23@UBVHNode@23@U?$MainTreeOverlapPrunerCallback@U?$OBBAABBTests@$00@Gu@physx@@@@@Gu@physx@@QEAA_NAEBVAABBTreeBounds@12@AEBVAABBTree@12@AEBU?$OBBAABBTests@$00@12@AEAU?$MainTreeOverlapPrunerCallback@U?$OBBAABBTests@$00@Gu@physx@@@@@Z 0000000180177170 f i GuExtendedBucketPruner.obj
 0001:00176770       ??R?$AABBTreeOverlap@$00U?$OBBAABBTests@$00@Gu@physx@@VAABBTree@23@UBVHNode@23@UOverlapCallbackAdapter@23@@Gu@physx@@QEAA_NAEBVAABBTreeBounds@12@AEBVAABBTree@12@AEBU?$OBBAABBTests@$00@12@AEAUOverlapCallbackAdapter@12@@Z 0000000180177770 f i GuExtendedBucketPruner.obj
 0001:00176d50       ??R?$AABBTreeOverlap@$00UAABBAABBTest@Gu@physx@@VAABBTree@23@UBVHNode@23@U?$MainTreeOverlapPrunerCallback@UAABBAABBTest@Gu@physx@@@@@Gu@physx@@QEAA_NAEBVAABBTreeBounds@12@AEBVAABBTree@12@AEBUAABBAABBTest@12@AEAU?$MainTreeOverlapPrunerCallback@UAABBAABBTest@Gu@physx@@@@@Z 0000000180177d50 f i GuExtendedBucketPruner.obj
 0001:00177010       ??R?$AABBTreeOverlap@$00UAABBAABBTest@Gu@physx@@VAABBTree@23@UBVHNode@23@UOverlapCallbackAdapter@23@@Gu@physx@@QEAA_NAEBVAABBTreeBounds@12@AEBVAABBTree@12@AEBUAABBAABBTest@12@AEAUOverlapCallbackAdapter@12@@Z 0000000180178010 f i GuExtendedBucketPruner.obj
 0001:001772b0       ??R?$AABBTreeOverlap@$00UCapsuleAABBTest@Gu@physx@@VAABBTree@23@UBVHNode@23@U?$MainTreeOverlapPrunerCallback@UCapsuleAABBTest@Gu@physx@@@@@Gu@physx@@QEAA_NAEBVAABBTreeBounds@12@AEBVAABBTree@12@AEBUCapsuleAABBTest@12@AEAU?$MainTreeOverlapPrunerCallback@UCapsuleAABBTest@Gu@physx@@@@@Z 00000001801782b0 f i GuExtendedBucketPruner.obj
 0001:00177670       ??R?$AABBTreeOverlap@$00UCapsuleAABBTest@Gu@physx@@VAABBTree@23@UBVHNode@23@UOverlapCallbackAdapter@23@@Gu@physx@@QEAA_NAEBVAABBTreeBounds@12@AEBVAABBTree@12@AEBUCapsuleAABBTest@12@AEAUOverlapCallbackAdapter@12@@Z 0000000180178670 f i GuExtendedBucketPruner.obj
 0001:00177a10       ??R?$AABBTreeOverlap@$00USphereAABBTest@Gu@physx@@VAABBTree@23@UBVHNode@23@U?$MainTreeOverlapPrunerCallback@USphereAABBTest@Gu@physx@@@@@Gu@physx@@QEAA_NAEBVAABBTreeBounds@12@AEBVAABBTree@12@AEBUSphereAABBTest@12@AEAU?$MainTreeOverlapPrunerCallback@USphereAABBTest@Gu@physx@@@@@Z 0000000180178a10 f i GuExtendedBucketPruner.obj
 0001:00177d30       ??R?$AABBTreeOverlap@$00USphereAABBTest@Gu@physx@@VAABBTree@23@UBVHNode@23@UOverlapCallbackAdapter@23@@Gu@physx@@QEAA_NAEBVAABBTreeBounds@12@AEBVAABBTree@12@AEBUSphereAABBTest@12@AEAUOverlapCallbackAdapter@12@@Z 0000000180178d30 f i GuExtendedBucketPruner.obj
 0001:00178030       ??R?$AABBTreeRaycast@$00$00VAABBTree@Gu@physx@@UBVHNode@23@U?$MainTreeRaycastPrunerCallback@$00@@@Gu@physx@@QEAA_NAEBVAABBTreeBounds@12@AEBVAABBTree@12@AEBV?$PxVec3T@M@2@2AEAM2AEAU?$MainTreeRaycastPrunerCallback@$00@@@Z 0000000180179030 f i GuExtendedBucketPruner.obj
 0001:00178730       ??R?$AABBTreeRaycast@$00$00VAABBTree@Gu@physx@@UBVHNode@23@URaycastCallbackAdapter@23@@Gu@physx@@QEAA_NAEBVAABBTreeBounds@12@AEBVAABBTree@12@AEBV?$PxVec3T@M@2@2AEAM2AEAURaycastCallbackAdapter@12@@Z 0000000180179730 f i GuExtendedBucketPruner.obj
 0001:00178df0       ??R?$AABBTreeRaycast@$0A@$00VAABBTree@Gu@physx@@UBVHNode@23@U?$MainTreeRaycastPrunerCallback@$0A@@@@Gu@physx@@QEAA_NAEBVAABBTreeBounds@12@AEBVAABBTree@12@AEBV?$PxVec3T@M@2@2AEAM2AEAU?$MainTreeRaycastPrunerCallback@$0A@@@@Z 0000000180179df0 f i GuExtendedBucketPruner.obj
 0001:001794a0       ??R?$AABBTreeRaycast@$0A@$00VAABBTree@Gu@physx@@UBVHNode@23@URaycastCallbackAdapter@23@@Gu@physx@@QEAA_NAEBVAABBTreeBounds@12@AEBVAABBTree@12@AEBV?$PxVec3T@M@2@2AEAM2AEAURaycastCallbackAdapter@12@@Z 000000018017a4a0 f i GuExtendedBucketPruner.obj
 0001:00179b10       ?addTree@ExtendedBucketPruner@Gu@physx@@QEAAXAEBVAABBTreeMergeData@23@I@Z 000000018017ab10 f   GuExtendedBucketPruner.obj
 0001:00179dd0       ?buildMainAABBTree@ExtendedBucketPruner@Gu@physx@@AEAAXXZ 000000018017add0 f   GuExtendedBucketPruner.obj
 0001:00179e70       ?create@?$PxHashBase@V?$PxPair@$$CBUPrunerPayload@Gu@physx@@UExtendedBucketPrunerData@23@@physx@@UPrunerPayload@Gu@2@UExtendedBucketPrunerHash@42@UGetKey@?$PxHashMapBase@UPrunerPayload@Gu@physx@@UExtendedBucketPrunerData@23@UExtendedBucketPrunerHash@23@VPxAllocator@3@@2@VPxAllocator@2@$00@physx@@QEAAPEAV?$PxPair@$$CBUPrunerPayload@Gu@physx@@UExtendedBucketPrunerData@23@@2@AEBUPrunerPayload@Gu@2@AEA_N@Z 000000018017ae70 f i GuExtendedBucketPruner.obj
 0001:0017a030       ?eraseCurrentGetNext@PxEraseIterator@?$PxHashBase@V?$PxPair@$$CBUPrunerPayload@Gu@physx@@UExtendedBucketPrunerData@23@@physx@@UPrunerPayload@Gu@2@UExtendedBucketPrunerHash@42@UGetKey@?$PxHashMapBase@UPrunerPayload@Gu@physx@@UExtendedBucketPrunerData@23@UExtendedBucketPrunerHash@23@VPxAllocator@3@@2@VPxAllocator@2@$00@physx@@QEAAPEAV?$PxPair@$$CBUPrunerPayload@Gu@physx@@UExtendedBucketPrunerData@23@@3@_N@Z 000000018017b030 f i GuExtendedBucketPruner.obj
 0001:0017a120       ?eraseInternal@?$PxHashBase@V?$PxPair@$$CBUPrunerPayload@Gu@physx@@UExtendedBucketPrunerData@23@@physx@@UPrunerPayload@Gu@2@UExtendedBucketPrunerHash@42@UGetKey@?$PxHashMapBase@UPrunerPayload@Gu@physx@@UExtendedBucketPrunerData@23@UExtendedBucketPrunerHash@23@VPxAllocator@3@@2@VPxAllocator@2@$00@physx@@AEAA_NPEAI@Z 000000018017b120 f i GuExtendedBucketPruner.obj
 0001:0017a240       ?find@?$PxHashMapBase@UPrunerPayload@Gu@physx@@UExtendedBucketPrunerData@23@UExtendedBucketPrunerHash@23@VPxAllocator@3@@physx@@QEBAPEBV?$PxPair@$$CBUPrunerPayload@Gu@physx@@UExtendedBucketPrunerData@23@@2@AEBUPrunerPayload@Gu@2@@Z 000000018017b240 f i GuExtendedBucketPruner.obj
 0001:0017a330       ?getGlobalBounds@ExtendedBucketPruner@Gu@physx@@QEBAXAEAVPxBounds3@3@@Z 000000018017b330 f   GuExtendedBucketPruner.obj
 0001:0017a400       ?overlap@ExtendedBucketPruner@Gu@physx@@QEBA_NAEBVShapeData@23@AEAUPrunerOverlapCallback@23@@Z 000000018017b400 f   GuExtendedBucketPruner.obj
 0001:0017abf0       ?raycast@ExtendedBucketPruner@Gu@physx@@QEBA_NAEBV?$PxVec3T@M@3@0AEAMAEAUPrunerRaycastCallback@23@@Z 000000018017bbf0 f   GuExtendedBucketPruner.obj
 0001:0017acd0       ?refitMarkedNodes@ExtendedBucketPruner@Gu@physx@@QEAAXPEBVPxBounds3@3@@Z 000000018017bcd0 f   GuExtendedBucketPruner.obj
 0001:0017b1d0       ?release@ExtendedBucketPruner@Gu@physx@@QEAAXXZ 000000018017c1d0 f   GuExtendedBucketPruner.obj
 0001:0017b2a0       ?removeMarkedObjects@ExtendedBucketPruner@Gu@physx@@QEAAII@Z 000000018017c2a0 f   GuExtendedBucketPruner.obj
 0001:0017b5c0       ?removeObject@ExtendedBucketPruner@Gu@physx@@QEAA_NAEBUPrunerPayload@23@II0I@Z 000000018017c5c0 f   GuExtendedBucketPruner.obj
 0001:0017b890       ?reserveInternal@?$PxHashBase@V?$PxPair@$$CBUPrunerPayload@Gu@physx@@UExtendedBucketPrunerData@23@@physx@@UPrunerPayload@Gu@2@UExtendedBucketPrunerHash@42@UGetKey@?$PxHashMapBase@UPrunerPayload@Gu@physx@@UExtendedBucketPrunerData@23@UExtendedBucketPrunerHash@23@VPxAllocator@3@@2@VPxAllocator@2@$00@physx@@AEAAXI@Z 000000018017c890 f i GuExtendedBucketPruner.obj
 0001:0017ba90       ?shiftOrigin@ExtendedBucketPruner@Gu@physx@@QEAAXAEBV?$PxVec3T@M@3@@Z 000000018017ca90 f   GuExtendedBucketPruner.obj
 0001:0017bb10       ?swapIndex@ExtendedBucketPruner@Gu@physx@@QEAAXIAEBUPrunerPayload@23@I_N@Z 000000018017cb10 f   GuExtendedBucketPruner.obj
 0001:0017bbe0       ?sweep@ExtendedBucketPruner@Gu@physx@@QEBA_NAEBVShapeData@23@AEBV?$PxVec3T@M@3@AEAMAEAUPrunerRaycastCallback@23@@Z 000000018017cbe0 f   GuExtendedBucketPruner.obj
 0001:0017bd70       ?traverseHashEntries@PxEraseIterator@?$PxHashBase@V?$PxPair@$$CBUPrunerPayload@Gu@physx@@UExtendedBucketPrunerData@23@@physx@@UPrunerPayload@Gu@2@UExtendedBucketPrunerHash@42@UGetKey@?$PxHashMapBase@UPrunerPayload@Gu@physx@@UExtendedBucketPrunerData@23@UExtendedBucketPrunerHash@23@VPxAllocator@3@@2@VPxAllocator@2@$00@physx@@AEAAPEAV?$PxPair@$$CBUPrunerPayload@Gu@physx@@UExtendedBucketPrunerData@23@@3@XZ 000000018017cd70 f i GuExtendedBucketPruner.obj
 0001:0017bdc0       ?updateObject@ExtendedBucketPruner@Gu@physx@@QEAA_NAEBVPxBounds3@3@AEBV?$PxTransformT@M@3@AEBUPrunerPayload@23@II@Z 000000018017cdc0 f   GuExtendedBucketPruner.obj
 0001:0017be90       ?visualize@ExtendedBucketPruner@Gu@physx@@QEBAXAEAVPxRenderOutput@3@I@Z 000000018017ce90 f   GuExtendedBucketPruner.obj
 0001:0017bf20       ??0?$OBBAABBTests@$00@Gu@physx@@QEAA@AEBV?$PxVec3T@M@2@AEBV?$PxMat33T@M@2@0@Z 000000018017cf20 f i GuSecondaryPruner.obj
 0001:0017dec0       ??_ECompanionPruner@Gu@physx@@UEAAPEAXI@Z 000000018017eec0 f i GuSecondaryPruner.obj
 0001:0017dec0       ??_GCompanionPruner@Gu@physx@@UEAAPEAXI@Z 000000018017eec0 f i GuSecondaryPruner.obj
 0001:0017df10       ??_GCompanionPrunerAABBTree@@UEAAPEAXI@Z 000000018017ef10 f i GuSecondaryPruner.obj
 0001:0017df10       ??_ECompanionPrunerAABBTree@@UEAAPEAXI@Z 000000018017ef10 f i GuSecondaryPruner.obj
 0001:0017dfc0       ??_ECompanionPrunerBucket@@UEAAPEAXI@Z 000000018017efc0 f i GuSecondaryPruner.obj
 0001:0017dfc0       ??_GCompanionPrunerBucket@@UEAAPEAXI@Z 000000018017efc0 f i GuSecondaryPruner.obj
 0001:0017e040       ??_GCompanionPrunerIncremental@@UEAAPEAXI@Z 000000018017f040 f i GuSecondaryPruner.obj
 0001:0017e040       ??_ECompanionPrunerIncremental@@UEAAPEAXI@Z 000000018017f040 f i GuSecondaryPruner.obj
 0001:0017e0c0       ?addObject@CompanionPrunerAABBTree@@UEAA_NAEBUPrunerPayload@Gu@physx@@IAEBVPxBounds3@4@AEBV?$PxTransformT@M@4@II@Z 000000018017f0c0 f   GuSecondaryPruner.obj
 0001:0017e300       ?addObject@CompanionPrunerBucket@@UEAA_NAEBUPrunerPayload@Gu@physx@@IAEBVPxBounds3@4@AEBV?$PxTransformT@M@4@II@Z 000000018017f300 f i GuSecondaryPruner.obj
 0001:0017e320       ?addObject@CompanionPrunerIncremental@@UEAA_NAEBUPrunerPayload@Gu@physx@@IAEBVPxBounds3@4@AEBV?$PxTransformT@M@4@II@Z 000000018017f320 f i GuSecondaryPruner.obj
 0001:0017e340       ?addObjectInternal@CompanionPrunerAABBTree@@QEAA_NII@Z 000000018017f340 f   GuSecondaryPruner.obj
 0001:0017e4e0       ?build@CompanionPrunerAABBTree@@UEAAXXZ 000000018017f4e0 f   GuSecondaryPruner.obj
 0001:0017e9b0       ?createCompanionPruner@Gu@physx@@YAPEAVCompanionPruner@12@_KW4CompanionPrunerType@12@PEBVPruningPool@12@@Z 000000018017f9b0 f   GuSecondaryPruner.obj
 0001:0017ebc0       ?getGlobalBounds@CompanionPrunerAABBTree@@UEBAXAEAVPxBounds3@physx@@@Z 000000018017fbc0 f   GuSecondaryPruner.obj
 0001:0017ecd0       ?getGlobalBounds@CompanionPrunerBucket@@UEBAXAEAVPxBounds3@physx@@@Z 000000018017fcd0 f i GuSecondaryPruner.obj
 0001:0017ece0       ?getGlobalBounds@CompanionPrunerIncremental@@UEBAXAEAVPxBounds3@physx@@@Z 000000018017fce0 f i GuSecondaryPruner.obj
 0001:0017ecf0       ?getNbObjects@CompanionPrunerAABBTree@@UEBAIXZ 000000018017fcf0 f   GuSecondaryPruner.obj
 0001:0017ed00       ?getNbObjects@CompanionPrunerBucket@@UEBAIXZ 000000018017fd00 f i GuSecondaryPruner.obj
 0001:0017ed10       ?getNbObjects@CompanionPrunerIncremental@@UEBAIXZ 000000018017fd10 f i GuSecondaryPruner.obj
 0001:0017ed20       ?growAndPushBack@?$PxArray@ULocalData@CompanionPrunerAABBTree@@V?$PxReflectionAllocator@ULocalData@CompanionPrunerAABBTree@@@physx@@@physx@@IEAAAEAULocalData@CompanionPrunerAABBTree@@AEBU34@@Z 000000018017fd20 f i GuSecondaryPruner.obj
 0001:0017ee60       ?overlap@CompanionPrunerAABBTree@@UEBA_NAEBVShapeData@Gu@physx@@AEAUPrunerOverlapCallback@34@@Z 000000018017fe60 f   GuSecondaryPruner.obj
 0001:0017ffc0       ?overlap@CompanionPrunerBucket@@UEBA_NAEBVShapeData@Gu@physx@@AEAUPrunerOverlapCallback@34@@Z 0000000180180fc0 f i GuSecondaryPruner.obj
 0001:0017ffe0       ?overlap@CompanionPrunerIncremental@@UEBA_NAEBVShapeData@Gu@physx@@AEAUPrunerOverlapCallback@34@@Z 0000000180180fe0 f i GuSecondaryPruner.obj
 0001:00180000       ?raycast@CompanionPrunerAABBTree@@UEBA_NAEBV?$PxVec3T@M@physx@@0AEAMAEAUPrunerRaycastCallback@Gu@3@@Z 0000000180181000 f   GuSecondaryPruner.obj
 0001:001803e0       ?raycast@CompanionPrunerBucket@@UEBA_NAEBV?$PxVec3T@M@physx@@0AEAMAEAUPrunerRaycastCallback@Gu@3@@Z 00000001801813e0 f i GuSecondaryPruner.obj
 0001:00180400       ?raycast@CompanionPrunerIncremental@@UEBA_NAEBV?$PxVec3T@M@physx@@0AEAMAEAUPrunerRaycastCallback@Gu@3@@Z 0000000180181400 f i GuSecondaryPruner.obj
 0001:00180420       ?release@CompanionPrunerAABBTree@@UEAAXXZ 0000000180181420 f   GuSecondaryPruner.obj
 0001:00180430       ?release@CompanionPrunerBucket@@UEAAXXZ 0000000180181430 f i GuSecondaryPruner.obj
 0001:00180440       ?release@CompanionPrunerIncremental@@UEAAXXZ 0000000180181440 f i GuSecondaryPruner.obj
 0001:00180450       ?releaseInternal@CompanionPrunerAABBTree@@QEAAXXZ 0000000180181450 f   GuSecondaryPruner.obj
 0001:001804d0       ?removeMarkedObjects@CompanionPrunerAABBTree@@UEAAII@Z 00000001801814d0 f   GuSecondaryPruner.obj
 0001:001804f0       ?removeMarkedObjects@CompanionPrunerBucket@@UEAAII@Z 00000001801814f0 f i GuSecondaryPruner.obj
 0001:00180500       ?removeMarkedObjects@CompanionPrunerIncremental@@UEAAII@Z 0000000180181500 f i GuSecondaryPruner.obj
 0001:00180510       ?removeObject@CompanionPrunerAABBTree@@UEAA_NAEBUPrunerPayload@Gu@physx@@III@Z 0000000180181510 f   GuSecondaryPruner.obj
 0001:001805b0       ?removeObject@CompanionPrunerBucket@@UEAA_NAEBUPrunerPayload@Gu@physx@@III@Z 00000001801815b0 f i GuSecondaryPruner.obj
 0001:001805d0       ?removeObject@CompanionPrunerIncremental@@UEAA_NAEBUPrunerPayload@Gu@physx@@III@Z 00000001801815d0 f i GuSecondaryPruner.obj
 0001:001805f0       ?shiftOrigin@CompanionPrunerAABBTree@@UEAAXAEBV?$PxVec3T@M@physx@@@Z 00000001801815f0 f   GuSecondaryPruner.obj
 0001:00180720       ?shiftOrigin@CompanionPrunerIncremental@@UEAAXAEBV?$PxVec3T@M@physx@@@Z 0000000180181720 f i GuSecondaryPruner.obj
 0001:00180730       ?swapIndex@CompanionPrunerIncremental@@UEAAXII@Z 0000000180181730 f i GuSecondaryPruner.obj
 0001:00180740       ?sweep@CompanionPrunerAABBTree@@UEBA_NAEBVShapeData@Gu@physx@@AEBV?$PxVec3T@M@4@AEAMAEAUPrunerRaycastCallback@34@@Z 0000000180181740 f   GuSecondaryPruner.obj
 0001:00180c70       ?sweep@CompanionPrunerBucket@@UEBA_NAEBVShapeData@Gu@physx@@AEBV?$PxVec3T@M@4@AEAMAEAUPrunerRaycastCallback@34@@Z 0000000180181c70 f i GuSecondaryPruner.obj
 0001:00180c90       ?sweep@CompanionPrunerIncremental@@UEBA_NAEBVShapeData@Gu@physx@@AEBV?$PxVec3T@M@4@AEAMAEAUPrunerRaycastCallback@34@@Z 0000000180181c90 f i GuSecondaryPruner.obj
 0001:00180cb0       ?timeStampChange@CompanionPrunerIncremental@@UEAAXXZ 0000000180181cb0 f i GuSecondaryPruner.obj
 0001:00180cd0       ?updateObject@CompanionPrunerAABBTree@@UEAA_NAEBUPrunerPayload@Gu@physx@@IAEBVPxBounds3@4@AEBV?$PxTransformT@M@4@I@Z 0000000180181cd0 f   GuSecondaryPruner.obj
 0001:00180d50       ?updateObject@CompanionPrunerBucket@@UEAA_NAEBUPrunerPayload@Gu@physx@@IAEBVPxBounds3@4@AEBV?$PxTransformT@M@4@I@Z 0000000180181d50 f i GuSecondaryPruner.obj
 0001:00180d70       ?updateObject@CompanionPrunerIncremental@@UEAA_NAEBUPrunerPayload@Gu@physx@@IAEBVPxBounds3@4@AEBV?$PxTransformT@M@4@I@Z 0000000180181d70 f i GuSecondaryPruner.obj
 0001:00180d80       ?visualize@CompanionPrunerAABBTree@@UEBAXAEAVPxRenderOutput@physx@@I@Z 0000000180181d80 f   GuSecondaryPruner.obj
 0001:00180da0       ?visualize@CompanionPrunerIncremental@@UEBAXAEAVPxRenderOutput@physx@@I@Z 0000000180181da0 f i GuSecondaryPruner.obj
 0001:00180db0       ??0AABBPruner@Gu@physx@@QEAA@_N_KW4CompanionPrunerType@12@W4BVHBuildStrategy@12@I@Z 0000000180181db0 f   GuAABBPruner.obj
 0001:00180ee0       ??1AABBPruner@Gu@physx@@UEAA@XZ 0000000180181ee0 f   GuAABBPruner.obj
 0001:00181030       ??_EAABBPruner@Gu@physx@@UEAAPEAXI@Z 0000000180182030 f i GuAABBPruner.obj
 0001:00181030       ??_GAABBPruner@Gu@physx@@UEAAPEAXI@Z 0000000180182030 f i GuAABBPruner.obj
 0001:001810a0       ?addObjects@AABBPruner@Gu@physx@@UEAA_NPEAIPEBVPxBounds3@3@PEBUPrunerPayload@23@PEBV?$PxTransformT@M@3@I_N@Z 00000001801820a0 f   GuAABBPruner.obj
 0001:00181350       ?buildStep@AABBPruner@Gu@physx@@UEAA_N_N@Z 0000000180182350 f   GuAABBPruner.obj
 0001:00181750       ?commit@AABBPruner@Gu@physx@@UEAAXXZ 0000000180182750 f   GuAABBPruner.obj
 0001:00181e60       ?fullRebuildAABBTree@AABBPruner@Gu@physx@@QEAA_NXZ 0000000180182e60 f   GuAABBPruner.obj
 0001:00182060       ?getGlobalBounds@AABBPruner@Gu@physx@@UEBAXAEAVPxBounds3@3@@Z 0000000180183060 f   GuAABBPruner.obj
 0001:00182190       ?getPayloadData@AABBPruner@Gu@physx@@UEBAAEBUPrunerPayload@23@IPEAUPrunerPayloadData@23@@Z 0000000180183190 f i GuAABBPruner.obj
 0001:001821f0       ?growAndPushBack@?$PxArray@UNewTreeFixup@AABBPruner@Gu@physx@@V?$PxReflectionAllocator@UNewTreeFixup@AABBPruner@Gu@physx@@@4@@physx@@IEAAAEAUNewTreeFixup@AABBPruner@Gu@2@AEBU3452@@Z 00000001801831f0 f i GuAABBPruner.obj
 0001:00182330       ?isDynamic@AABBPruner@Gu@physx@@UEBA_NXZ 0000000180183330 f i GuAABBPruner.obj
 0001:00182340       ?merge@AABBPruner@Gu@physx@@UEAAXPEBX@Z 0000000180183340 f   GuAABBPruner.obj
 0001:001823c0       ?overlap@AABBPruner@Gu@physx@@UEBA_NAEBVShapeData@23@AEAUPrunerOverlapCallback@23@@Z 00000001801833c0 f   GuAABBPruner.obj
 0001:001829a0       ?preallocate@AABBPruner@Gu@physx@@UEAAXI@Z 00000001801839a0 f i GuAABBPruner.obj
 0001:001829b0       ?prepareBuild@AABBPruner@Gu@physx@@UEAA_NXZ 00000001801839b0 f   GuAABBPruner.obj
 0001:00182bb0       ?purge@AABBPruner@Gu@physx@@UEAAXXZ 0000000180183bb0 f   GuAABBPruner.obj
 0001:00182bd0       ?raycast@AABBPruner@Gu@physx@@UEBA_NAEBV?$PxVec3T@M@3@0AEAMAEAUPrunerRaycastCallback@23@@Z 0000000180183bd0 f   GuAABBPruner.obj
 0001:00182cc0       ?refitUpdatedAndRemoved@AABBPruner@Gu@physx@@QEAAXXZ 0000000180183cc0 f   GuAABBPruner.obj
 0001:00182d90       ?release@AABBPruner@Gu@physx@@QEAAXXZ 0000000180183d90 f   GuAABBPruner.obj
 0001:00182ec0       ?removeObjects@AABBPruner@Gu@physx@@UEAAXPEBIIPEAUPrunerPayloadRemovalCallback@23@@Z 0000000180183ec0 f   GuAABBPruner.obj
 0001:00183180       ?setRebuildRateHint@AABBPruner@Gu@physx@@UEAAXI@Z 0000000180184180 f   GuAABBPruner.obj
 0001:001831a0       ?setTransform@AABBPruner@Gu@physx@@UEAA_NIAEBV?$PxTransformT@M@3@@Z 00000001801841a0 f i GuAABBPruner.obj
 0001:00183200       ?shiftOrigin@AABBPruner@Gu@physx@@UEAAXAEBV?$PxVec3T@M@3@@Z 0000000180184200 f   GuAABBPruner.obj
 0001:00183270       ?sweep@AABBPruner@Gu@physx@@UEBA_NAEBVShapeData@23@AEBV?$PxVec3T@M@3@AEAMAEAUPrunerRaycastCallback@23@@Z 0000000180184270 f   GuAABBPruner.obj
 0001:00183400       ?updateObjects@AABBPruner@Gu@physx@@UEAAXPEBIIM0PEBVPxBounds3@3@PEBUPxTransformPadded@3@@Z 0000000180184400 f   GuAABBPruner.obj
 0001:001836a0       ?visualize@AABBPruner@Gu@physx@@UEBAXAEAVPxRenderOutput@3@II@Z 00000001801846a0 f   GuAABBPruner.obj
 0001:00183750       ??0ActorShapeMap@Gu@physx@@QEAA@XZ 0000000180184750 f   GuActorShapeMap.obj
 0001:001837b0       ??1ActorShapeMap@Gu@physx@@QEAA@XZ 00000001801847b0 f   GuActorShapeMap.obj
 0001:00183810       ?add@ActorShapeMap@Gu@physx@@QEAA_NIPEBX0_K@Z 0000000180184810 f   GuActorShapeMap.obj
 0001:001839a0       ?create@?$PxHashBase@V?$PxPair@$$CBUActorShape@ActorShapeMap@Gu@physx@@_K@physx@@UActorShape@ActorShapeMap@Gu@2@U?$PxHash@UActorShape@ActorShapeMap@Gu@physx@@@2@UGetKey@?$PxHashMapBase@UActorShape@ActorShapeMap@Gu@physx@@_KU?$PxHash@UActorShape@ActorShapeMap@Gu@physx@@@4@VPxAllocator@4@@2@VPxAllocator@2@$00@physx@@QEAAPEAV?$PxPair@$$CBUActorShape@ActorShapeMap@Gu@physx@@_K@2@AEBUActorShape@ActorShapeMap@Gu@2@AEA_N@Z 00000001801849a0 f i GuActorShapeMap.obj
 0001:00183b90       ?erase@?$PxHashBase@V?$PxPair@$$CBUActorShape@ActorShapeMap@Gu@physx@@_K@physx@@UActorShape@ActorShapeMap@Gu@2@U?$PxHash@UActorShape@ActorShapeMap@Gu@physx@@@2@UGetKey@?$PxHashMapBase@UActorShape@ActorShapeMap@Gu@physx@@_KU?$PxHash@UActorShape@ActorShapeMap@Gu@physx@@@4@VPxAllocator@4@@2@VPxAllocator@2@$00@physx@@QEAA_NAEBUActorShape@ActorShapeMap@Gu@2@AEAV?$PxPair@$$CBUActorShape@ActorShapeMap@Gu@physx@@_K@2@@Z 0000000180184b90 f i GuActorShapeMap.obj
 0001:00183da0       ?find@ActorShapeMap@Gu@physx@@QEBA_KIPEBX0@Z 0000000180184da0 f   GuActorShapeMap.obj
 0001:00183e90       ?remove@ActorShapeMap@Gu@physx@@QEAA_NIPEBX0PEA_K@Z 0000000180184e90 f   GuActorShapeMap.obj
 0001:00183f20       ?reserveInternal@?$PxHashBase@V?$PxPair@$$CBUActorShape@ActorShapeMap@Gu@physx@@_K@physx@@UActorShape@ActorShapeMap@Gu@2@U?$PxHash@UActorShape@ActorShapeMap@Gu@physx@@@2@UGetKey@?$PxHashMapBase@UActorShape@ActorShapeMap@Gu@physx@@_KU?$PxHash@UActorShape@ActorShapeMap@Gu@physx@@@4@VPxAllocator@4@@2@VPxAllocator@2@$00@physx@@AEAAXI@Z 0000000180184f20 f i GuActorShapeMap.obj
 0001:00184140       ??0QuerySystem@Gu@physx@@QEAA@_KMAEBVAdapter@12@_N@Z 0000000180185140 f   GuQuerySystem.obj
 0001:00184220       ??1QuerySystem@Gu@physx@@QEAA@XZ 0000000180185220 f   GuQuerySystem.obj
 0001:00184460       ??_GPrunerExt@QuerySystem@Gu@physx@@QEAAPEAXI@Z 0000000180185460 f i GuQuerySystem.obj
 0001:00184560       ?addPruner@QuerySystem@Gu@physx@@QEAAIPEAVPruner@23@I@Z 0000000180185560 f   GuQuerySystem.obj
 0001:00184690       ?addPrunerShape@QuerySystem@Gu@physx@@QEAA_KAEBUPrunerPayload@23@I_NAEBV?$PxTransformT@M@3@PEBVPxBounds3@3@@Z 0000000180185690 f   GuQuerySystem.obj
 0001:001847d0       ?addToDirtyList@PrunerExt@QuerySystem@Gu@physx@@QEAAXIIAEBV?$PxTransformT@M@4@PEBVPxBounds3@4@@Z 00000001801857d0 f   GuQuerySystem.obj
 0001:00184a10       ?commitUpdates@QuerySystem@Gu@physx@@QEAAXXZ 0000000180185a10 f   GuQuerySystem.obj
 0001:00184b30       ?createTreeOfPruners@QuerySystem@Gu@physx@@QEAAXXZ 0000000180185b30 f   GuQuerySystem.obj
 0001:00184d10       ?flushMemory@QuerySystem@Gu@physx@@QEAAXXZ 0000000180185d10 f   GuQuerySystem.obj
 0001:00184da0       ?getPayloadData@QuerySystem@Gu@physx@@QEBAAEBUPrunerPayload@23@_KPEAUPrunerPayloadData@23@@Z 0000000180185da0 f   GuQuerySystem.obj
 0001:00184dc0       ?growAndPushBack@?$PxArray@PEAUPrunerExt@QuerySystem@Gu@physx@@V?$PxReflectionAllocator@PEAUPrunerExt@QuerySystem@Gu@physx@@@4@@physx@@IEAAAEAPEAUPrunerExt@QuerySystem@Gu@2@AEBQEAU3452@@Z 0000000180185dc0 f i GuQuerySystem.obj
 0001:00184f00       ?overlap@QuerySystem@Gu@physx@@QEBAXAEBVShapeData@23@AEAUPrunerOverlapCallback@23@PEBVPrunerFilter@23@@Z 0000000180185f00 f   GuQuerySystem.obj
 0001:00185000       ?processDirtyList@PrunerExt@QuerySystem@Gu@physx@@QEAA_NAEBVAdapter@34@M@Z 0000000180186000 f   GuQuerySystem.obj
 0001:00185220       ?processDirtyLists@QuerySystem@Gu@physx@@AEAAXXZ 0000000180186220 f   GuQuerySystem.obj
 0001:00185380       ?raycast@QuerySystem@Gu@physx@@QEBAXAEBV?$PxVec3T@M@3@0AEAMAEAUPrunerRaycastCallback@23@PEBVPrunerFilter@23@@Z 0000000180186380 f   GuQuerySystem.obj
 0001:001854c0       ?recreate@?$PxArray@UData@PrunerExt@QuerySystem@Gu@physx@@V?$PxReflectionAllocator@UData@PrunerExt@QuerySystem@Gu@physx@@@5@@physx@@IEAAXI@Z 00000001801864c0 f i GuQuerySystem.obj
 0001:001857e0       ?removePruner@QuerySystem@Gu@physx@@QEAAXI@Z 00000001801867e0 f   GuQuerySystem.obj
 0001:001858c0       ?removePrunerShape@QuerySystem@Gu@physx@@QEAAX_KPEAUPrunerPayloadRemovalCallback@23@@Z 00000001801868c0 f   GuQuerySystem.obj
 0001:00185ae0       ?sweep@QuerySystem@Gu@physx@@QEBAXAEBVShapeData@23@AEBV?$PxVec3T@M@3@AEAMAEAUPrunerRaycastCallback@23@PEBVPrunerFilter@23@@Z 0000000180186ae0 f   GuQuerySystem.obj
 0001:00185c10       ?sync@QuerySystem@Gu@physx@@QEAAXIPEBI0PEBVPxBounds3@3@PEBUPxTransformPadded@3@I@Z 0000000180186c10 f   GuQuerySystem.obj
 0001:00185cc0       ?update@QuerySystem@Gu@physx@@QEAAX_N0@Z 0000000180186cc0 f   GuQuerySystem.obj
 0001:00185e30       ?updatePrunerShape@QuerySystem@Gu@physx@@QEAAX_K_NAEBV?$PxTransformT@M@3@PEBVPxBounds3@3@@Z 0000000180186e30 f   GuQuerySystem.obj
 0001:00186020       createAABBPruner           0000000180187020 f   GuFactory.obj
 0001:001860e0       createBucketPruner         00000001801870e0 f   GuFactory.obj
 0001:00186170       createIncrementalPruner    0000000180187170 f   GuFactory.obj
 0001:00186200       ??$PxSmallSort@I$$CBUSortBoundsPredicate@physx@@@physx@@YAXPEAIHHAEBUSortBoundsPredicate@0@@Z 0000000180187200 f i GuRTreeCooking.obj
 0001:001864d0       ??$PxSort@IU?$PxLess@I@physx@@V?$PxReflectionAllocator@I@2@@physx@@YAXPEAIIAEBU?$PxLess@I@0@AEBV?$PxReflectionAllocator@I@0@I@Z 00000001801874d0 f i GuRTreeCooking.obj
 0001:00186930       ??$PxSort@IUSortBoundsPredicate@physx@@V?$PxReflectionAllocator@I@2@@physx@@YAXPEAIIAEBUSortBoundsPredicate@0@AEBV?$PxReflectionAllocator@I@0@I@Z 0000000180187930 f i GuRTreeCooking.obj
 0001:00186e30       ??$quickSelectFirstK@UBoundsLTE@physx@@@quickSelect@physx@@YAXPEIAIIIIAEBUBoundsLTE@1@@Z 0000000180187e30 f i GuRTreeCooking.obj
 0001:00187010       ?allocate@?$PxArray@UInterval@physx@@V?$PxInlineAllocator@$0CAAA@V?$PxReflectionAllocator@UInterval@physx@@@physx@@@2@@physx@@IEAAPEAUInterval@2@I@Z 0000000180188010 f i GuRTreeCooking.obj
 0001:001870e0       ?allocate@?$PxArray@UPxBounds3V@physx@@V?$PxReflectionAllocator@UPxBounds3V@physx@@@2@@physx@@IEAAPEAUPxBounds3V@2@I@Z 00000001801880e0 f i GuRTreeCooking.obj
 0001:00187190       ?allocate@?$PxArray@URTreeNodeNQ@physx@@V?$PxReflectionAllocator@URTreeNodeNQ@physx@@@2@@physx@@IEAAPEAURTreeNodeNQ@2@I@Z 0000000180188190 f i GuRTreeCooking.obj
 0001:00187240       ?allocate@?$PxArray@URTreeNodeQ@Gu@physx@@V?$PxReflectionAllocator@URTreeNodeQ@Gu@physx@@@3@@physx@@IEAAPEAURTreeNodeQ@Gu@2@I@Z 0000000180188240 f i GuRTreeCooking.obj
 0001:00187f40       ?buildFromTriangles@RTreeCooker@physx@@SAXAEAURTree@Gu@2@PEBV?$PxVec3T@M@2@IPEBGPEBIIAEAV?$PxArray@IV?$PxReflectionAllocator@I@physx@@@2@PEAURemapCallback@12@MW4Enum@PxMeshCookingHint@2@@Z 0000000180188f40 f   GuRTreeCooking.obj
 0001:001881e0       ?copy@?$PxArray@URTreeNodeNQ@physx@@V?$PxReflectionAllocator@URTreeNodeNQ@physx@@@2@@physx@@KAXPEAURTreeNodeNQ@2@0PEBU32@@Z 00000001801891e0 f i GuRTreeCooking.obj
 0001:001883a0       ?growAndPushBack@?$PxArray@UInterval@physx@@V?$PxInlineAllocator@$0CAAA@V?$PxReflectionAllocator@UInterval@physx@@@physx@@@2@@physx@@IEAAAEAUInterval@2@AEBU32@@Z 00000001801893a0 f i GuRTreeCooking.obj
 0001:00188480       ?growAndPushBack@?$PxArray@UPxBounds3V@physx@@V?$PxReflectionAllocator@UPxBounds3V@physx@@@2@@physx@@IEAAAEAUPxBounds3V@2@AEBU32@@Z 0000000180189480 f i GuRTreeCooking.obj
 0001:00188550       ?growAndPushBack@?$PxArray@URTreeNodeNQ@physx@@V?$PxReflectionAllocator@URTreeNodeNQ@physx@@@2@@physx@@IEAAAEAURTreeNodeNQ@2@AEBU32@@Z 0000000180189550 f i GuRTreeCooking.obj
 0001:00188630       ?growAndPushBack@?$PxArray@URTreeNodeQ@Gu@physx@@V?$PxReflectionAllocator@URTreeNodeQ@Gu@physx@@@3@@physx@@IEAAAEAURTreeNodeQ@Gu@2@AEBU342@@Z 0000000180189630 f i GuRTreeCooking.obj
 0001:00188710       ?recreate@?$PxArray@UPxBounds3V@physx@@V?$PxReflectionAllocator@UPxBounds3V@physx@@@2@@physx@@IEAAXI@Z 0000000180189710 f i GuRTreeCooking.obj
 0001:001887c0       ?recreate@?$PxArray@URTreeNodeNQ@physx@@V?$PxReflectionAllocator@URTreeNodeNQ@physx@@@2@@physx@@IEAAXI@Z 00000001801897c0 f i GuRTreeCooking.obj
 0001:00188850       ?recreate@?$PxArray@URTreeNodeQ@Gu@physx@@V?$PxReflectionAllocator@URTreeNodeQ@Gu@physx@@@3@@physx@@IEAAXI@Z 0000000180189850 f i GuRTreeCooking.obj
 0001:00188910       ?resizeUninitialized@?$PxArray@URTreeNodeNQ@physx@@V?$PxReflectionAllocator@URTreeNodeNQ@physx@@@2@@physx@@QEAAXI@Z 0000000180189910 f i GuRTreeCooking.obj
 0001:00188950       ?sort4@SubSortQuick@physx@@QEAAXPEIAIIAEAV?$PxArray@URTreeNodeNQ@physx@@V?$PxReflectionAllocator@URTreeNodeNQ@physx@@@2@@2@AEAIAEAUPxBounds3V@2@I@Z 0000000180189950 f i GuRTreeCooking.obj
 0001:00188ce0       ?sort4@SubSortSAH@physx@@QEAAXPEAIIAEAV?$PxArray@URTreeNodeNQ@physx@@V?$PxReflectionAllocator@URTreeNodeNQ@physx@@@2@@2@AEAIIPEAURTreeNodeNQ@2@@Z 0000000180189ce0 f i GuRTreeCooking.obj
 0001:00189570       ?split@SubSortSAH@physx@@QEAAIPEAII@Z 000000018018a570 f i GuRTreeCooking.obj
 0001:00189f70       cookBVH                    000000018018af70 f   GuCookingBVH.obj
 0001:0018a0f0       createBVH                  000000018018b0f0 f   GuCookingBVH.obj
 0001:0018a270       cookHeightField            000000018018b270 f   GuCookingHF.obj
 0001:0018a360       createHeightField          000000018018b360 f   GuCookingHF.obj
 0001:0018a9a0       computeHullPolygons        000000018018b9a0 f   GuCookingConvexMesh.obj
 0001:0018ab80       cookConvexMesh             000000018018bb80 f   GuCookingConvexMesh.obj
 0001:0018acf0       createConvexMesh           000000018018bcf0 f   GuCookingConvexMesh.obj
 0001:0018ae90       validateConvexMesh         000000018018be90 f   GuCookingConvexMesh.obj
 0001:0018afb0       ??1BV4TriangleMeshBuilder@physx@@UEAA@XZ 000000018018bfb0 f   GuCookingTriangleMesh.obj
 0001:0018b040       ??1RTreeTriangleMeshBuilder@physx@@UEAA@XZ 000000018018c040 f   GuCookingTriangleMesh.obj
 0001:0018b0b0       ??_EBV4TriangleMeshBuilder@physx@@UEAAPEAXI@Z 000000018018c0b0 f i GuCookingTriangleMesh.obj
 0001:0018b0b0       ??_GBV4TriangleMeshBuilder@physx@@UEAAPEAXI@Z 000000018018c0b0 f i GuCookingTriangleMesh.obj
 0001:0018b0f0       ??_GRTreeTriangleMeshBuilder@physx@@UEAAPEAXI@Z 000000018018c0f0 f i GuCookingTriangleMesh.obj
 0001:0018b0f0       ??_ERTreeTriangleMeshBuilder@physx@@UEAAPEAXI@Z 000000018018c0f0 f i GuCookingTriangleMesh.obj
 0001:0018b130       ??_ETriangleMeshBuilder@physx@@UEAAPEAXI@Z 000000018018c130 f i GuCookingTriangleMesh.obj
 0001:0018b130       ??_GTriangleMeshBuilder@physx@@UEAAPEAXI@Z 000000018018c130 f i GuCookingTriangleMesh.obj
 0001:0018bad0       ?buildInertiaTensor@TriangleMeshBuilder@physx@@IEAAXXZ 000000018018cad0 f   GuCookingTriangleMesh.obj
 0001:0018bc20       ?buildInertiaTensorFromSDF@TriangleMeshBuilder@physx@@IEAAXXZ 000000018018cc20 f   GuCookingTriangleMesh.obj
 0001:0018be40       ?cleanMesh@TriangleMeshBuilder@physx@@QEAA_N_NPEAW4Enum@PxTriangleMeshCookingResult@2@@Z 000000018018ce40 f   GuCookingTriangleMesh.obj
 0001:0018c2d0       ?createGRBMidPhaseAndData@TriangleMeshBuilder@physx@@QEAAXI@Z 000000018018d2d0 f   GuCookingTriangleMesh.obj
 0001:0018c480       ?createMidPhaseStructure@BV32TriangleMeshBuilder@physx@@SAXAEBUPxCookingParams@2@AEAVTriangleMeshData@Gu@2@AEAVBV32Tree@52@@Z 000000018018d480 f   GuCookingTriangleMesh.obj
 0001:0018c6b0       ?createMidPhaseStructure@BV4TriangleMeshBuilder@physx@@UEAAXXZ 000000018018d6b0 f   GuCookingTriangleMesh.obj
 0001:0018c970       ?createMidPhaseStructure@RTreeTriangleMeshBuilder@physx@@UEAAXXZ 000000018018d970 f   GuCookingTriangleMesh.obj
 0001:0018ca60       ?createSharedEdgeData@TriangleMeshBuilder@physx@@QEAAX_N0@Z 000000018018da60 f   GuCookingTriangleMesh.obj
 0001:0018d100       ?createVertMapping@TriangleMeshBuilder@physx@@QEAAXXZ 000000018018e100 f   GuCookingTriangleMesh.obj
 0001:0018d480       ?importMesh@TriangleMeshBuilder@physx@@IEAA_NAEBVPxTriangleMeshDesc@2@AEBUPxCookingParams@2@PEAW4Enum@PxTriangleMeshCookingResult@2@_N@Z 000000018018e480 f   GuCookingTriangleMesh.obj
 0001:0018daa0       ?isValid@PxTriangleMeshDesc@physx@@QEBA_NXZ 000000018018eaa0 f i GuCookingTriangleMesh.obj
 0001:0018db80       ?loadFromDescInternal@TriangleMeshBuilder@physx@@IEAA_NAEAVPxTriangleMeshDesc@2@PEAW4Enum@PxTriangleMeshCookingResult@2@_N@Z 000000018018eb80 f   GuCookingTriangleMesh.obj
 0001:0018dda0       ?onMeshIndexFormatChange@BV4TriangleMeshBuilder@physx@@UEAAXXZ 000000018018eda0 f   GuCookingTriangleMesh.obj
 0001:0018dde0       ?remap@RTreeCookerRemap@@UEAAXPEAIII@Z 000000018018ede0 f i GuCookingTriangleMesh.obj
 0001:0018de00       ?remapTopology@TriangleMeshBuilder@physx@@QEAAXPEBI@Z 000000018018ee00 f   GuCookingTriangleMesh.obj
 0001:0018e0a0       ?save@TriangleMeshBuilder@physx@@QEBA_NAEAVPxOutputStream@2@_NAEBUPxCookingParams@2@@Z 000000018018f0a0 f   GuCookingTriangleMesh.obj
 0001:0018e860       ?saveMidPhaseStructure@BV32TriangleMeshBuilder@physx@@SAXPEAVBV32Tree@Gu@2@AEAVPxOutputStream@2@_N@Z 000000018018f860 f   GuCookingTriangleMesh.obj
 0001:0018ea60       ?saveMidPhaseStructure@BV4TriangleMeshBuilder@physx@@UEBAXAEAVPxOutputStream@2@_N@Z 000000018018fa60 f   GuCookingTriangleMesh.obj
 0001:0018ec10       ?saveMidPhaseStructure@RTreeTriangleMeshBuilder@physx@@UEBAXAEAVPxOutputStream@2@_N@Z 000000018018fc10 f   GuCookingTriangleMesh.obj
 0001:0018ee50       cookTriangleMesh           000000018018fe50 f   GuCookingTriangleMesh.obj
 0001:0018f160       createTriangleMesh         0000000180190160 f   GuCookingTriangleMesh.obj
 0001:0018f370       validateTriangleMesh       0000000180190370 f   GuCookingTriangleMesh.obj
 0001:0018f620       ??0SoftBodyCollisionData@Gu@physx@@QEAA@XZ 0000000180190620 f i GuCookingTetrahedronMesh.obj
 0001:0018f680       ??_ECollisionTetrahedronMeshData@Gu@physx@@UEAAPEAXI@Z 0000000180190680 f i GuCookingTetrahedronMesh.obj
 0001:0018f680       ??_GCollisionTetrahedronMeshData@Gu@physx@@UEAAPEAXI@Z 0000000180190680 f i GuCookingTetrahedronMesh.obj
 0001:0018f750       ??_GPxCollisionTetrahedronMeshData@physx@@UEAAPEAXI@Z 0000000180190750 f i GuCookingTetrahedronMesh.obj
 0001:0018f750       ??_EPxCollisionTetrahedronMeshData@physx@@UEAAPEAXI@Z 0000000180190750 f i GuCookingTetrahedronMesh.obj
 0001:0018f7a0       ??_GPxSimulationTetrahedronMeshData@physx@@UEAAPEAXI@Z 00000001801907a0 f i GuCookingTetrahedronMesh.obj
 0001:0018f7a0       ??_EPxSimulationTetrahedronMeshData@physx@@UEAAPEAXI@Z 00000001801907a0 f i GuCookingTetrahedronMesh.obj
 0001:0018f7f0       ??_ESimulationTetrahedronMeshData@Gu@physx@@UEAAPEAXI@Z 00000001801907f0 f i GuCookingTetrahedronMesh.obj
 0001:0018f7f0       ??_GSimulationTetrahedronMeshData@Gu@physx@@UEAAPEAXI@Z 00000001801907f0 f i GuCookingTetrahedronMesh.obj
 0001:0018f8c0       ?closestPtPointTetrahedron@Gu@physx@@YA?AV?$PxVec3T@M@2@AEBV32@0000@Z 00000001801908c0 f i GuCookingTetrahedronMesh.obj
 0001:001909f0       ?combineGridModelPartitions@@YAXAEBVTetrahedronMeshData@Gu@physx@@AEAVSoftBodySimulationData@23@PEAPEAI@Z 00000001801919f0 f   GuCookingTetrahedronMesh.obj
 0001:00191200       ?combineGridModelPartitionsHexMesh@@YAXAEBVTetrahedronMeshData@Gu@physx@@AEAVSoftBodySimulationData@23@PEAPEAI@Z 0000000180192200 f   GuCookingTetrahedronMesh.obj
 0001:00191b70       ?computeBarycentric@physx@@YAXAEBV?$PxVec3T@M@1@0000AEAV?$PxVec4T@M@1@@Z 0000000180192b70 f i GuCookingTetrahedronMesh.obj
 0001:00191e20       ?computeCollisionData@TetrahedronMeshBuilder@physx@@SA_NAEBVPxTetrahedronMeshDesc@2@AEAVTetrahedronMeshData@Gu@2@AEAVSoftBodyCollisionData@52@AEBUPxCookingParams@2@_N@Z 0000000180192e20 f   GuCookingTetrahedronMesh.obj
 0001:00192060       ?computeGridModelTetrahedronPartitions@@YAPEAIAEBVTetrahedronMeshData@Gu@physx@@AEAVSoftBodySimulationData@23@@Z 0000000180193060 f   GuCookingTetrahedronMesh.obj
 0001:001924f0       ?computeModelsMapping@TetrahedronMeshBuilder@physx@@SAXAEAVTetrahedronMeshData@Gu@2@AEBV342@AEBVSoftBodyCollisionData@42@AEAVCollisionMeshMappingData@42@_NPEBUPxBoundedData@2@@Z 00000001801934f0 f   GuCookingTetrahedronMesh.obj
 0001:001930d0       ?computeRestPoseAndPointMass@@YAXPEAU?$TetrahedronT@I@Gu@physx@@IPEBV?$PxVec3T@M@3@PEAMPEAV?$PxMat33T@M@3@@Z 00000001801940d0 f   GuCookingTetrahedronMesh.obj
 0001:00193500       ?computeSimData@TetrahedronMeshBuilder@physx@@SAXAEBVPxTetrahedronMeshDesc@2@AEAVTetrahedronMeshData@Gu@2@AEAVSoftBodySimulationData@52@AEBUPxCookingParams@2@@Z 0000000180194500 f   GuCookingTetrahedronMesh.obj
 0001:00193bd0       ?computeTetData@TetrahedronMeshBuilder@physx@@SAXAEBVPxTetrahedronMeshDesc@2@AEAVTetrahedronMeshData@Gu@2@@Z 0000000180194bd0 f   GuCookingTetrahedronMesh.obj
 0001:00193cb0       ?computeTetrahedronPartition@@YAIPEBU?$TetrahedronT@I@Gu@physx@@IPEAII@Z 0000000180194cb0 f   GuCookingTetrahedronMesh.obj
 0001:00193db0       ?createCollisionModelMapping@TetrahedronMeshBuilder@physx@@SAXAEBVTetrahedronMeshData@Gu@2@AEBVSoftBodyCollisionData@42@AEAVCollisionMeshMappingData@42@@Z 0000000180194db0 f   GuCookingTetrahedronMesh.obj
 0001:001943b0       ?createGRBMidPhaseAndData@TetrahedronMeshBuilder@physx@@SAXIAEAVTetrahedronMeshData@Gu@2@AEAVSoftBodyCollisionData@42@AEBUPxCookingParams@2@@Z 00000001801953b0 f   GuCookingTetrahedronMesh.obj
 0001:00195120       ?createMidPhaseStructure@BV32TetrahedronMeshBuilder@physx@@SAXAEBUPxCookingParams@2@AEAVTetrahedronMeshData@Gu@2@AEAVBV32Tree@52@AEAVSoftBodyCollisionData@52@@Z 0000000180196120 f   GuCookingTetrahedronMesh.obj
 0001:001953f0       ?createMidPhaseStructure@TetrahedronMeshBuilder@physx@@SAXAEAVTetrahedronMeshData@Gu@2@AEAVSoftBodyCollisionData@42@AEBUPxCookingParams@2@@Z 00000001801963f0 f   GuCookingTetrahedronMesh.obj
 0001:001960c0       ?getData@CollisionTetrahedronMeshData@Gu@physx@@UEAAPEAVPxSoftBodyCollisionData@3@XZ 00000001801970c0 f i GuCookingTetrahedronMesh.obj
 0001:001960c0       ?getData@CollisionTetrahedronMeshData@Gu@physx@@UEBAPEBVPxSoftBodyCollisionData@3@XZ 00000001801970c0 f i GuCookingTetrahedronMesh.obj
 0001:001960c0       ?getData@SimulationTetrahedronMeshData@Gu@physx@@UEAAPEAVPxSoftBodySimulationData@3@XZ 00000001801970c0 f i GuCookingTetrahedronMesh.obj
 0001:001960e0       ?importMesh@TetrahedronMeshBuilder@physx@@SA_NAEBVPxTetrahedronMeshDesc@2@AEBUPxCookingParams@2@AEAVTetrahedronMeshData@Gu@2@AEAVSoftBodyCollisionData@62@_N@Z 00000001801970e0 f   GuCookingTetrahedronMesh.obj
 0001:001964a0       ?isValid@PxTetrahedronMeshDesc@physx@@QEBA_NXZ 00000001801974a0 f i GuCookingTetrahedronMesh.obj
 0001:00196510       ?loadFromDesc@TetrahedronMeshBuilder@physx@@SA_NAEBVPxTetrahedronMeshDesc@2@0VPxSoftBodySimulationDataDesc@2@AEAVTetrahedronMeshData@Gu@2@AEAVSoftBodySimulationData@62@2AEAVSoftBodyCollisionData@62@AEAVCollisionMeshMappingData@62@AEBUPxCookingParams@2@_N@Z 0000000180197510 f   GuCookingTetrahedronMesh.obj
 0001:00196680       ?release@CollisionTetrahedronMeshData@Gu@physx@@UEAAXXZ 0000000180197680 f i GuCookingTetrahedronMesh.obj
 0001:001966a0       ?reserveInternal@?$PxHashBase@V?$PxPair@$$CBVSortedTriangleInds@@I@physx@@VSortedTriangleInds@@USortedTriangleIndsHash@@UGetKey@?$PxHashMapBase@VSortedTriangleInds@@IUSortedTriangleIndsHash@@VPxAllocator@physx@@@2@VPxAllocator@2@$00@physx@@AEAAXI@Z 00000001801976a0 f i GuCookingTetrahedronMesh.obj
 0001:001968f0       ?saveSoftBodyMeshData@TetrahedronMeshBuilder@physx@@SA_NAEAVPxOutputStream@2@_NAEBUPxCookingParams@2@AEBVTetrahedronMeshData@Gu@2@AEBVSoftBodySimulationData@62@3AEBVSoftBodyCollisionData@62@AEBVCollisionMeshMappingData@62@@Z 00000001801978f0 f   GuCookingTetrahedronMesh.obj
 0001:00197000       ?saveTetrahedronMeshData@TetrahedronMeshBuilder@physx@@SA_NAEAVPxOutputStream@2@_NAEBUPxCookingParams@2@AEBVTetrahedronMeshData@Gu@2@@Z 0000000180198000 f   GuCookingTetrahedronMesh.obj
 0001:001971b0       ?smoothMassRatiosWhilePreservingTotalMass@@YAXPEAMIPEBIHMM@Z 00000001801981b0 f   GuCookingTetrahedronMesh.obj
 0001:00197640       ?support@?$LocalConvex@VTetrahedronV@Gu@physx@@@Gu@physx@@UEBA?AT__m128@@AEBT4@@Z 0000000180198640 f i GuCookingTetrahedronMesh.obj
 0001:00197700       ?support@?$LocalConvex@VTetrahedronV@Gu@physx@@@Gu@physx@@UEBA?AT__m128@@AEBT4@AEAH@Z 0000000180198700 f i GuCookingTetrahedronMesh.obj
 0001:001978b0       assembleSoftBodyMesh       00000001801988b0 f   GuCookingTetrahedronMesh.obj
 0001:00197910       assembleSoftBodyMesh_Sim   0000000180198910 f   GuCookingTetrahedronMesh.obj
 0001:001979c0       computeCollisionData       00000001801989c0 f   GuCookingTetrahedronMesh.obj
 0001:00197bd0       computeModelsMapping       0000000180198bd0 f   GuCookingTetrahedronMesh.obj
 0001:00197ce0       computeSimulationData      0000000180198ce0 f   GuCookingTetrahedronMesh.obj
 0001:00197ee0       cookSoftBodyMesh           0000000180198ee0 f   GuCookingTetrahedronMesh.obj
 0001:001984c0       cookTetrahedronMesh        00000001801994c0 f   GuCookingTetrahedronMesh.obj
 0001:001985b0       createSoftBodyMesh         00000001801995b0 f   GuCookingTetrahedronMesh.obj
 0001:00198c10       createTetrahedronMesh      0000000180199c10 f   GuCookingTetrahedronMesh.obj
 0001:0019a9f0       ?computeVolumeIntegrals@physx@@YA_NAEBVPxSimpleTriangleMesh@1@MAEAUPxIntegrals@1@@Z 000000018019b9f0 f   GuCookingVolumeIntegration.obj
 0001:0019aa30       ?computeVolumeIntegralsEberly@physx@@YA_NAEBVPxConvexMeshDesc@1@MAEAUPxIntegrals@1@AEBV?$PxVec3T@M@1@_N@Z 000000018019ba30 f   GuCookingVolumeIntegration.obj
 0001:0019b080       ??0QuickHull@local@@QEAA@AEBUPxCookingParams@physx@@AEBVPxConvexMeshDesc@3@@Z 000000018019c080 f   GuCookingQuickHullConvexHullLib.obj
 0001:0019b130       ??0QuickHullConvexHullLib@physx@@QEAA@AEBVPxConvexMeshDesc@1@AEBUPxCookingParams@1@@Z 000000018019c130 f   GuCookingQuickHullConvexHullLib.obj
 0001:0019b220       ??1?$MemBlock@UQuickHullFace@local@@$00@local@@QEAA@XZ 000000018019c220 f i GuCookingQuickHullConvexHullLib.obj
 0001:0019b220       ??1?$MemBlock@UQuickHullHalfEdge@local@@$0A@@local@@QEAA@XZ 000000018019c220 f i GuCookingQuickHullConvexHullLib.obj
 0001:0019b2e0       ??1QuickHull@local@@QEAA@XZ 000000018019c2e0 f   GuCookingQuickHullConvexHullLib.obj
 0001:0019b430       ??_GConvexHull@physx@@QEAAPEAXI@Z 000000018019c430 f i GuCookingQuickHullConvexHullLib.obj
 0001:0019b510       ??_EConvexHullLib@physx@@UEAAPEAXI@Z 000000018019c510 f i GuCookingQuickHullConvexHullLib.obj
 0001:0019b510       ??_GConvexHullLib@physx@@UEAAPEAXI@Z 000000018019c510 f i GuCookingQuickHullConvexHullLib.obj
 0001:0019b550       ??_EQuickHullConvexHullLib@physx@@UEAAPEAXI@Z 000000018019c550 f i GuCookingQuickHullConvexHullLib.obj
 0001:0019b550       ??_GQuickHullConvexHullLib@physx@@UEAAPEAXI@Z 000000018019c550 f i GuCookingQuickHullConvexHullLib.obj
 0001:0019b660       ?addPointToHull@QuickHull@local@@IEAA_NPEBUQuickHullVertex@2@AEAUQuickHullFace@2@AEA_N@Z 000000018019c660 f   GuCookingQuickHullConvexHullLib.obj
 0001:0019b930       ?addSimplex@QuickHull@local@@IEAAXPEAUQuickHullVertex@2@_N@Z 000000018019c930 f   GuCookingQuickHullConvexHullLib.obj
 0001:0019be00       ?allocate@?$PxArray@PEAUQuickHullFace@local@@V?$PxReflectionAllocator@PEAUQuickHullFace@local@@@physx@@@physx@@IEAAPEAPEAUQuickHullFace@local@@I@Z 000000018019ce00 f i GuCookingQuickHullConvexHullLib.obj
 0001:0019beb0       ?allocate@?$PxArray@PEAUQuickHullHalfEdge@local@@V?$PxReflectionAllocator@PEAUQuickHullHalfEdge@local@@@physx@@@physx@@IEAAPEAPEAUQuickHullHalfEdge@local@@I@Z 000000018019ceb0 f i GuCookingQuickHullConvexHullLib.obj
 0001:0019bf60       ?allocate@?$PxArray@PEAUQuickHullVertex@local@@V?$PxReflectionAllocator@PEAUQuickHullVertex@local@@@physx@@@physx@@IEAAPEAPEAUQuickHullVertex@local@@I@Z 000000018019cf60 f i GuCookingQuickHullConvexHullLib.obj
 0001:0019c010       ?allocate@?$PxArray@UExpandPoint@local@@V?$PxReflectionAllocator@UExpandPoint@local@@@physx@@@physx@@IEAAPEAUExpandPoint@local@@I@Z 000000018019d010 f i GuCookingQuickHullConvexHullLib.obj
 0001:0019c0c0       ?allocate@?$PxArray@VPxPlane@physx@@V?$PxReflectionAllocator@VPxPlane@physx@@@2@@physx@@IEAAPEAVPxPlane@2@I@Z 000000018019d0c0 f i GuCookingQuickHullConvexHullLib.obj
 0001:0019c170       ?buildHull@QuickHull@local@@QEAA?AW4Enum@QuickHullResult@2@XZ 000000018019d170 f   GuCookingQuickHullConvexHullLib.obj
 0001:0019c3c0       ?calculateHorizon@QuickHull@local@@IEAAXAEBV?$PxVec3T@M@physx@@PEAUQuickHullHalfEdge@2@AEAUQuickHullFace@2@AEAV?$PxArray@PEAUQuickHullHalfEdge@local@@V?$PxReflectionAllocator@PEAUQuickHullHalfEdge@local@@@physx@@@4@AEAV?$PxArray@PEAUQuickHullFace@local@@V?$PxReflectionAllocator@PEAUQuickHullFace@local@@@physx@@@4@@Z 000000018019d3c0 f   GuCookingQuickHullConvexHullLib.obj
 0001:0019c570       ?canMergeFaces@QuickHull@local@@IEAA_NAEBUQuickHullHalfEdge@2@@Z 000000018019d570 f   GuCookingQuickHullConvexHullLib.obj
 0001:0019cda0       ?cleanupForSimplex@QuickHullConvexHullLib@physx@@IEAA_NPEAV?$PxVec3T@M@2@IPEAUQuickHullVertex@local@@1AEAM2@Z 000000018019dda0 f   GuCookingQuickHullConvexHullLib.obj
 0001:0019d990       ?computeMinMaxVerts@QuickHull@local@@IEAAXXZ 000000018019e990 f   GuCookingQuickHullConvexHullLib.obj
 0001:0019dd60       ?connectHalfEdges@QuickHullFace@local@@AEAAPEAU12@PEAUQuickHullHalfEdge@2@0@Z 000000018019ed60 f   GuCookingQuickHullConvexHullLib.obj
 0001:0019e0c0       ?copy@?$PxArray@UExpandPoint@local@@V?$PxReflectionAllocator@UExpandPoint@local@@@physx@@@physx@@KAXPEAUExpandPoint@local@@0PEBU34@@Z 000000018019f0c0 f i GuCookingQuickHullConvexHullLib.obj
 0001:0019e170       ?copy@?$PxArray@VPxPlane@physx@@V?$PxReflectionAllocator@VPxPlane@physx@@@2@@physx@@KAXPEAVPxPlane@2@0PEBV32@@Z 000000018019f170 f i GuCookingQuickHullConvexHullLib.obj
 0001:0019e270       ?createConvexHull@QuickHullConvexHullLib@physx@@UEAA?AW4Enum@PxConvexMeshCookingResult@2@XZ 000000018019f270 f   GuCookingQuickHullConvexHullLib.obj
 0001:0019e660       ?createEdgeList@QuickHullConvexHullLib@physx@@UEAA_NIPEBEPEAPEAEPEAPEAG2@Z 000000018019f660 f   GuCookingQuickHullConvexHullLib.obj
 0001:0019e870       ?createTriangle@QuickHull@local@@IEAAPEAUQuickHullFace@2@AEBUQuickHullVertex@2@00@Z 000000018019f870 f   GuCookingQuickHullConvexHullLib.obj
 0001:0019ec00       ?doAdjacentMerge@QuickHull@local@@IEAA_NAEAUQuickHullFace@2@_NAEA_N@Z 000000018019fc00 f   GuCookingQuickHullConvexHullLib.obj
 0001:0019ef40       ?expandHull@QuickHullConvexHullLib@physx@@IEAA?AW4Enum@PxConvexMeshCookingResult@2@XZ 000000018019ff40 f   GuCookingQuickHullConvexHullLib.obj
 0001:0019fc70       ?expandHullOBB@QuickHullConvexHullLib@physx@@IEAA?AW4Enum@PxConvexMeshCookingResult@2@XZ 00000001801a0c70 f   GuCookingQuickHullConvexHullLib.obj
 0001:001a00c0       ?fillConvexMeshDesc@QuickHullConvexHullLib@physx@@UEAAXAEAVPxConvexMeshDesc@2@@Z 00000001801a10c0 f   GuCookingQuickHullConvexHullLib.obj
 0001:001a0110       ?fillConvexMeshDescFromCroppedHull@QuickHullConvexHullLib@physx@@IEAAXAEAVPxConvexMeshDesc@2@@Z 00000001801a1110 f   GuCookingQuickHullConvexHullLib.obj
 0001:001a0310       ?fillConvexMeshDescFromQuickHull@QuickHullConvexHullLib@physx@@IEAAXAEAVPxConvexMeshDesc@2@@Z 00000001801a1310 f   GuCookingQuickHullConvexHullLib.obj
 0001:001a06a0       ?findSimplex@QuickHull@local@@IEAA_NXZ 00000001801a16a0 f   GuCookingQuickHullConvexHullLib.obj
 0001:001a1350       ?getFreeItem@?$MemBlock@UQuickHullFace@local@@$00@local@@QEAAPEAUQuickHullFace@2@XZ 00000001801a2350 f i GuCookingQuickHullConvexHullLib.obj
 0001:001a1480       ?getFreeItem@?$MemBlock@UQuickHullHalfEdge@local@@$0A@@local@@QEAAPEAUQuickHullHalfEdge@2@XZ 00000001801a2480 f i GuCookingQuickHullConvexHullLib.obj
 0001:001a1550       ?growAndPushBack@?$PxArray@PEAUQuickHullFace@local@@V?$PxReflectionAllocator@PEAUQuickHullFace@local@@@physx@@@physx@@IEAAAEAPEAUQuickHullFace@local@@AEBQEAU34@@Z 00000001801a2550 f i GuCookingQuickHullConvexHullLib.obj
 0001:001a1610       ?growAndPushBack@?$PxArray@PEAUQuickHullHalfEdge@local@@V?$PxReflectionAllocator@PEAUQuickHullHalfEdge@local@@@physx@@@physx@@IEAAAEAPEAUQuickHullHalfEdge@local@@AEBQEAU34@@Z 00000001801a2610 f i GuCookingQuickHullConvexHullLib.obj
 0001:001a16d0       ?growAndPushBack@?$PxArray@PEAUQuickHullVertex@local@@V?$PxReflectionAllocator@PEAUQuickHullVertex@local@@@physx@@@physx@@IEAAAEAPEAUQuickHullVertex@local@@AEBQEAU34@@Z 00000001801a26d0 f i GuCookingQuickHullConvexHullLib.obj
 0001:001a1790       ?growAndPushBack@?$PxArray@UExpandPoint@local@@V?$PxReflectionAllocator@UExpandPoint@local@@@physx@@@physx@@IEAAAEAUExpandPoint@local@@AEBU34@@Z 00000001801a2790 f i GuCookingQuickHullConvexHullLib.obj
 0001:001a1890       ?growAndPushBack@?$PxArray@VPxPlane@physx@@V?$PxReflectionAllocator@VPxPlane@physx@@@2@@physx@@IEAAAEAVPxPlane@2@AEBV32@@Z 00000001801a2890 f i GuCookingQuickHullConvexHullLib.obj
 0001:001a1950       ?init@?$MemBlock@UQuickHullFace@local@@$00@local@@QEAAXI@Z 00000001801a2950 f i GuCookingQuickHullConvexHullLib.obj
 0001:001a1a50       ?init@?$MemBlock@UQuickHullHalfEdge@local@@$0A@@local@@QEAAXI@Z 00000001801a2a50 f i GuCookingQuickHullConvexHullLib.obj
 0001:001a1ae0       ?mergeAdjacentFace@QuickHullFace@local@@QEAA_NPEAUQuickHullHalfEdge@2@AEAV?$PxArray@PEAUQuickHullFace@local@@V?$PxReflectionAllocator@PEAUQuickHullFace@local@@@physx@@@physx@@@Z 00000001801a2ae0 f   GuCookingQuickHullConvexHullLib.obj
 0001:001a1f30       ?nextPointToAdd@QuickHull@local@@IEAAPEAUQuickHullVertex@2@AEAPEAUQuickHullFace@2@@Z 00000001801a2f30 f   GuCookingQuickHullConvexHullLib.obj
 0001:001a20b0       ?parseInputVertices@QuickHull@local@@QEAAXPEBV?$PxVec3T@M@physx@@I@Z 00000001801a30b0 f   GuCookingQuickHullConvexHullLib.obj
 0001:001a2240       ?postMergeHull@QuickHull@local@@IEAAXXZ 00000001801a3240 f   GuCookingQuickHullConvexHullLib.obj
 0001:001a2490       ?preallocate@QuickHull@local@@QEAAXI@Z 00000001801a3490 f   GuCookingQuickHullConvexHullLib.obj
 0001:001a25d0       ?recreate@?$PxArray@PEAUQuickHullFace@local@@V?$PxReflectionAllocator@PEAUQuickHullFace@local@@@physx@@@physx@@IEAAXI@Z 00000001801a35d0 f i GuCookingQuickHullConvexHullLib.obj
 0001:001a2670       ?recreate@?$PxArray@PEAUQuickHullHalfEdge@local@@V?$PxReflectionAllocator@PEAUQuickHullHalfEdge@local@@@physx@@@physx@@IEAAXI@Z 00000001801a3670 f i GuCookingQuickHullConvexHullLib.obj
 0001:001a2710       ?recreate@?$PxArray@PEAUQuickHullVertex@local@@V?$PxReflectionAllocator@PEAUQuickHullVertex@local@@@physx@@@physx@@IEAAXI@Z 00000001801a3710 f i GuCookingQuickHullConvexHullLib.obj
 0001:001a27b0       ?recreate@?$PxArray@UExpandPoint@local@@V?$PxReflectionAllocator@UExpandPoint@local@@@physx@@@physx@@IEAAXI@Z 00000001801a37b0 f i GuCookingQuickHullConvexHullLib.obj
 0001:001a2840       ?recreate@?$PxArray@VPxPlane@physx@@V?$PxReflectionAllocator@VPxPlane@physx@@@2@@physx@@IEAAXI@Z 00000001801a3840 f i GuCookingQuickHullConvexHullLib.obj
 0001:001a28d0       ?resolveUnclaimedPoints@QuickHull@local@@IEAAXAEBV?$PxArray@PEAUQuickHullFace@local@@V?$PxReflectionAllocator@PEAUQuickHullFace@local@@@physx@@@physx@@@Z 00000001801a38d0 f   GuCookingQuickHullConvexHullLib.obj
 0001:001a2b50       ??$copy@V?$PxReflectionAllocator@VPair@@@physx@@@?$PxArray@VPair@@V?$PxReflectionAllocator@VPair@@@physx@@@physx@@IEAAXAEBV01@@Z 00000001801a3b50 f i GuCookingConvexPolygonsBuilder.obj
 0001:001a2bd0       ??0ConvexPolygonsBuilder@physx@@QEAA@PEAUConvexHullData@Gu@1@_N@Z 00000001801a3bd0 f   GuCookingConvexPolygonsBuilder.obj
 0001:001a2bf0       ??1ConvexPolygonsBuilder@physx@@QEAA@XZ 00000001801a3bf0 f   GuCookingConvexPolygonsBuilder.obj
 0001:001a3440       ?allocate@?$PxArray@VPair@@V?$PxReflectionAllocator@VPair@@@physx@@@physx@@IEAAPEAVPair@@I@Z 00000001801a4440 f i GuCookingConvexPolygonsBuilder.obj
 0001:001a3f20       ?computeHullPolygons@ConvexPolygonsBuilder@physx@@QEAA_NAEBIPEBV?$PxVec3T@M@2@0PEBI@Z 00000001801a4f20 f   GuCookingConvexPolygonsBuilder.obj
 0001:001a4f80       ?createPolygonData@ConvexPolygonsBuilder@physx@@AEAA_NXZ 00000001801a5f80 f   GuCookingConvexPolygonsBuilder.obj
 0001:001a5b60       ?createTrianglesFromPolygons@ConvexPolygonsBuilder@physx@@AEAA_NXZ 00000001801a6b60 f   GuCookingConvexPolygonsBuilder.obj
 0001:001a71f0       ?growAndPushBack@?$PxArray@VPair@@V?$PxReflectionAllocator@VPair@@@physx@@@physx@@IEAAAEAVPair@@AEBV3@@Z 00000001801a81f0 f i GuCookingConvexPolygonsBuilder.obj
 0001:001a7370       ??0ConvexMeshBuilder@physx@@QEAA@_N@Z 00000001801a8370 f   GuCookingConvexMeshBuilder.obj
 0001:001a73e0       ??1ConvexMeshBuilder@physx@@QEAA@XZ 00000001801a83e0 f   GuCookingConvexMeshBuilder.obj
 0001:001a7870       ?build@ConvexMeshBuilder@physx@@QEAA_NAEBVPxConvexMeshDesc@2@I_NPEAVConvexHullLib@2@@Z 00000001801a8870 f   GuCookingConvexMeshBuilder.obj
 0001:001a7c10       ?computeHullPolygons@ConvexMeshBuilder@physx@@QEAA_NAEBIPEBV?$PxVec3T@M@2@0PEBIAEAVPxAllocatorCallback@2@AEAIAEAPEAV32@4AEAPEAI4AEAPEAUPxHullPolygon@2@@Z 00000001801a8c10 f   GuCookingConvexMeshBuilder.obj
 0001:001a7e10       ?computeMassInfo@ConvexMeshBuilder@physx@@QEAAX_N@Z 00000001801a8e10 f   GuCookingConvexMeshBuilder.obj
 0001:001a81a0       ?computeSDF@ConvexMeshBuilder@physx@@QEAAXAEBVPxConvexMeshDesc@2@@Z 00000001801a91a0 f   GuCookingConvexMeshBuilder.obj
 0001:001a85c0       ?copy@ConvexMeshBuilder@physx@@QEAA_NAEAUConvexHullInitData@Gu@2@@Z 00000001801a95c0 f   GuCookingConvexMeshBuilder.obj
 0001:001a8720       ?loadConvexHull@ConvexMeshBuilder@physx@@QEAA_NAEBVPxConvexMeshDesc@2@PEAVConvexHullLib@2@@Z 00000001801a9720 f   GuCookingConvexMeshBuilder.obj
 0001:001a8990       ?save@ConvexMeshBuilder@physx@@QEBA_NAEAVPxOutputStream@2@_N@Z 00000001801a9990 f   GuCookingConvexMeshBuilder.obj
 0001:001a8db0       ??0ConvexHull@physx@@QEAA@AEBV?$PxVec3T@M@1@AEBV?$PxTransformT@M@1@AEBV?$PxArray@VPxPlane@physx@@V?$PxReflectionAllocator@VPxPlane@physx@@@2@@1@@Z 00000001801a9db0 f   GuCookingConvexHullUtils.obj
 0001:001a9ed0       ?allocate@?$PxArray@VHalfEdge@ConvexHull@physx@@V?$PxReflectionAllocator@VHalfEdge@ConvexHull@physx@@@3@@physx@@IEAAPEAVHalfEdge@ConvexHull@2@I@Z 00000001801aaed0 f i GuCookingConvexHullUtils.obj
 0001:001a9f80       ?assertIntact@ConvexHull@physx@@QEBA_NM@Z 00000001801aaf80 f   GuCookingConvexHullUtils.obj
 0001:001aa290       ?computeOBBFromConvex@physx@@YA_NAEBVPxConvexMeshDesc@1@AEAV?$PxVec3T@M@1@AEAV?$PxTransformT@M@1@@Z 00000001801ab290 f   GuCookingConvexHullUtils.obj
 0001:001aa900       ?computeOBBSIMD@local@@YAXIPEBT__m128@@AEAT2@AEBT2@1@Z 00000001801ab900 f   GuCookingConvexHullUtils.obj
 0001:001aace0       ?convexHullCrop@physx@@YAPEAVConvexHull@1@AEBV21@AEBVPxPlane@1@M@Z 00000001801abce0 f   GuCookingConvexHullUtils.obj
 0001:001abac0       ?findCandidatePlane@ConvexHull@physx@@QEBAHMM@Z 00000001801acac0 f   GuCookingConvexHullUtils.obj
 0001:001abf30       ?growAndPushBack@?$PxArray@VHalfEdge@ConvexHull@physx@@V?$PxReflectionAllocator@VHalfEdge@ConvexHull@physx@@@3@@physx@@IEAAAEAVHalfEdge@ConvexHull@2@AEBV342@@Z 00000001801acf30 f i GuCookingConvexHullUtils.obj
 0001:001abff0       ?maxNumVertsPerFace@ConvexHull@physx@@QEBAIXZ 00000001801acff0 f   GuCookingConvexHullUtils.obj
 0001:001ac060       ?recreate@?$PxArray@VHalfEdge@ConvexHull@physx@@V?$PxReflectionAllocator@VHalfEdge@ConvexHull@physx@@@3@@physx@@IEAAXI@Z 00000001801ad060 f i GuCookingConvexHullUtils.obj
 0001:001ac100       ?resize@?$PxArray@VHalfEdge@ConvexHull@physx@@V?$PxReflectionAllocator@VHalfEdge@ConvexHull@physx@@@3@@physx@@QEAAXIAEBVHalfEdge@ConvexHull@2@@Z 00000001801ad100 f i GuCookingConvexHullUtils.obj
 0001:001ac1c0       ?resize@?$PxArray@VPxPlane@physx@@V?$PxReflectionAllocator@VPxPlane@physx@@@2@@physx@@QEAAXIAEBVPxPlane@2@@Z 00000001801ad1c0 f i GuCookingConvexHullUtils.obj
 0001:001ac2e0       ??1ConvexHullLib@physx@@UEAA@XZ 00000001801ad2e0 f   GuCookingConvexHullLib.obj
 0001:001ac900       ?cleanupVertices@ConvexHullLib@physx@@IEAA_NIPEBV?$PxVec3T@M@2@IAEAIPEAV32@@Z 00000001801ad900 f   GuCookingConvexHullLib.obj
 0001:001aca40       ?shiftAndcleanupVertices@ConvexHullLib@physx@@IEAA_NIPEBV?$PxVec3T@M@2@IAEAIPEAV32@@Z 00000001801ada40 f   GuCookingConvexHullLib.obj
 0001:001ad020       ?shiftConvexMeshDesc@ConvexHullLib@physx@@IEAAXAEAVPxConvexMeshDesc@2@@Z 00000001801ae020 f   GuCookingConvexHullLib.obj
 0001:001ad0e0       ?swapLargestFace@ConvexHullLib@physx@@IEAAXAEAVPxConvexMeshDesc@2@@Z 00000001801ae0e0 f   GuCookingConvexHullLib.obj
 0001:001ad310       ??0ConvexHullBuilder@physx@@QEAA@PEAUConvexHullData@Gu@1@_N@Z 00000001801ae310 f   GuCookingConvexHullBuilder.obj
 0001:001ad340       ??1ConvexHullBuilder@physx@@QEAA@XZ 00000001801ae340 f   GuCookingConvexHullBuilder.obj
 0001:001ad450       ?calculateVertexMapTable@ConvexHullBuilder@physx@@QEAA_NI_N@Z 00000001801ae450 f   GuCookingConvexHullBuilder.obj
 0001:001ad610       ?checkHullPolygons@ConvexHullBuilder@physx@@QEBA_NXZ 00000001801ae610 f   GuCookingConvexHullBuilder.obj
 0001:001adba0       ?copy@ConvexHullBuilder@physx@@QEAA_NAEAUConvexHullData@Gu@2@AEAI@Z 00000001801aeba0 f   GuCookingConvexHullBuilder.obj
 0001:001ade20       ?createEdgeList@ConvexHullBuilder@physx@@QEAA_N_NI@Z 00000001801aee20 f   GuCookingConvexHullBuilder.obj
 0001:001ae570       ?init@ConvexHullBuilder@physx@@QEAA_NIPEBV?$PxVec3T@M@2@PEBIIIPEBUPxHullPolygon@2@_NPEAVConvexHullLib@2@@Z 00000001801af570 f   GuCookingConvexHullBuilder.obj
 0001:001aee90       ?save@ConvexHullBuilder@physx@@QEBA_NAEAVPxOutputStream@2@_N@Z 00000001801afe90 f   GuCookingConvexHullBuilder.obj
 0001:001af1b0       ??0BigConvexDataBuilder@physx@@QEAA@PEBUConvexHullData@Gu@1@PEAVBigConvexData@1@PEBV?$PxVec3T@M@1@@Z 00000001801b01b0 f   GuCookingBigConvexDataBuilder.obj
 0001:001af1c0       ?computeValencies@BigConvexDataBuilder@physx@@QEAA_NAEBVConvexHullBuilder@2@@Z 00000001801b01c0 f   GuCookingBigConvexDataBuilder.obj
 0001:001af5b0       ?precompute@BigConvexDataBuilder@physx@@QEAA_NI@Z 00000001801b05b0 f   GuCookingBigConvexDataBuilder.obj
 0001:001b01b0       ?save@BigConvexDataBuilder@physx@@QEBA_NAEAVPxOutputStream@2@_N@Z 00000001801b11b0 f   GuCookingBigConvexDataBuilder.obj
 0001:001b039f       __imp_load_PxGetFoundation 00000001801b139f f   PhysXFoundation_64:PhysXFoundation_64.dll
 0001:001b03ab       __tailMerge_physxfoundation_64_dll 00000001801b13ab     PhysXFoundation_64:PhysXFoundation_64.dll
 0001:001b0424       __imp_load_PxGetBroadcastAllocator 00000001801b1424 f   PhysXFoundation_64:PhysXFoundation_64.dll
 0001:001b0430       __imp_load_?PxAtomicIncrement@physx@@YAHPECH@Z 00000001801b1430 f   PhysXFoundation_64:PhysXFoundation_64.dll
 0001:001b043c       __imp_load_??0PxMutexImpl@physx@@QEAA@XZ 00000001801b143c f   PhysXFoundation_64:PhysXFoundation_64.dll
 0001:001b0448       __imp_load_??1PxMutexImpl@physx@@QEAA@XZ 00000001801b1448 f   PhysXFoundation_64:PhysXFoundation_64.dll
 0001:001b0454       __imp_load_?lock@PxMutexImpl@physx@@QEAAXXZ 00000001801b1454 f   PhysXFoundation_64:PhysXFoundation_64.dll
 0001:001b0460       __imp_load_?unlock@PxMutexImpl@physx@@QEAAXXZ 00000001801b1460 f   PhysXFoundation_64:PhysXFoundation_64.dll
 0001:001b046c       __imp_load_?getSize@PxMutexImpl@physx@@SAIXZ 00000001801b146c f   PhysXFoundation_64:PhysXFoundation_64.dll
 0001:001b0478       __imp_load_?PxAtomicDecrement@physx@@YAHPECH@Z 00000001801b1478 f   PhysXFoundation_64:PhysXFoundation_64.dll
 0001:001b0484       __imp_load_?PxTransformFromSegment@physx@@YA?AV?$PxTransformT@M@1@AEBV?$PxVec3T@M@1@0PEAM@Z 00000001801b1484 f   PhysXFoundation_64:PhysXFoundation_64.dll
 0001:001b0490       __imp_load_?PxAtomicAdd@physx@@YAHPECHH@Z 00000001801b1490 f   PhysXFoundation_64:PhysXFoundation_64.dll
 0001:001b049c       __imp_load_?getDefaultStackSize@PxThreadImpl@physx@@SAIXZ 00000001801b149c f   PhysXFoundation_64:PhysXFoundation_64.dll
 0001:001b04a8       __imp_load_??0PxThreadImpl@physx@@QEAA@P6APEAXPEAX@Z0PEBD@Z 00000001801b14a8 f   PhysXFoundation_64:PhysXFoundation_64.dll
 0001:001b04b4       __imp_load_??1PxThreadImpl@physx@@QEAA@XZ 00000001801b14b4 f   PhysXFoundation_64:PhysXFoundation_64.dll
 0001:001b04c0       __imp_load_?start@PxThreadImpl@physx@@QEAAXIPEAVPxRunnable@2@@Z 00000001801b14c0 f   PhysXFoundation_64:PhysXFoundation_64.dll
 0001:001b04cc       __imp_load_?waitForQuit@PxThreadImpl@physx@@QEAA_NXZ 00000001801b14cc f   PhysXFoundation_64:PhysXFoundation_64.dll
 0001:001b04d8       __imp_load_?getSize@PxThreadImpl@physx@@SAIXZ 00000001801b14d8 f   PhysXFoundation_64:PhysXFoundation_64.dll
 0001:001b04e4       __imp_load_?PxOptimizeBoundingBox@physx@@YA?AV?$PxVec3T@M@1@AEAV?$PxMat33T@M@1@@Z 00000001801b14e4 f   PhysXFoundation_64:PhysXFoundation_64.dll
 0001:001b04f0       __imp_load_?allocate@PxTempAllocator@physx@@QEAAPEAX_KPEBDH@Z 00000001801b14f0 f   PhysXFoundation_64:PhysXFoundation_64.dll
 0001:001b04fc       __imp_load_?deallocate@PxTempAllocator@physx@@QEAAXPEAX@Z 00000001801b14fc f   PhysXFoundation_64:PhysXFoundation_64.dll
 0001:001b0508       __imp_load_PxGetProfilerCallback 00000001801b1508 f   PhysXFoundation_64:PhysXFoundation_64.dll
 0001:001b0514       __imp_load_??0PxFPUGuard@physx@@QEAA@XZ 00000001801b1514 f   PhysXFoundation_64:PhysXFoundation_64.dll
 0001:001b0520       __imp_load_??1PxFPUGuard@physx@@QEAA@XZ 00000001801b1520 f   PhysXFoundation_64:PhysXFoundation_64.dll
 0001:001b052c       __imp_load_?PxDiagonalize@physx@@YA?AV?$PxVec3T@M@1@AEBV?$PxMat33T@M@1@AEAV?$PxQuatT@M@1@@Z 00000001801b152c f   PhysXFoundation_64:PhysXFoundation_64.dll
 0001:001b0538       ?DloadAcquireSectionWriteAccess@@YAXXZ 00000001801b1538 f i Delayimp:delayhlp.obj
 0001:001b05e4       ?DloadGetSRWLockFunctionPointers@@YAEXZ 00000001801b15e4 f i Delayimp:delayhlp.obj
 0001:001b0680       ?DloadMakePermanentImageCommit@@YAXPEAX_K@Z 00000001801b1680 f i Delayimp:delayhlp.obj
 0001:001b0718       ?DloadObtainSection@@YAPEAXPEAK0@Z 00000001801b1718 f i Delayimp:delayhlp.obj
 0001:001b07b4       ?DloadProtectSection@@YAXKPEAK@Z 00000001801b17b4 f i Delayimp:delayhlp.obj
 0001:001b0844       ?DloadReleaseSectionWriteAccess@@YAXXZ 00000001801b1844 f i Delayimp:delayhlp.obj
 0001:001b08d8       __delayLoadHelper2         00000001801b18d8 f   Delayimp:delayhlp.obj
 0001:001b0bac       ??3@YAXPEAX_K@Z            00000001801b1bac f   LIBCMT:delete_scalar_size.obj
 0001:001b0bac       ??_V@YAXPEAX@Z             00000001801b1bac f   LIBCMT:delete_array.obj
 0001:001b0bb4       ??_Gtype_info@@UEAAPEAXI@Z 00000001801b1bb4 f i LIBCMT:std_type_info_static.obj
 0001:001b0bb4       ??_Etype_info@@UEAAPEAXI@Z 00000001801b1bb4 f i LIBCMT:std_type_info_static.obj
 0001:001b0be0       ?__scrt_initialize_type_info@@YAXXZ 00000001801b1be0 f   LIBCMT:tncleanup.obj
 0001:001b0bf0       ?__scrt_uninitialize_type_info@@YAXXZ 00000001801b1bf0 f   LIBCMT:tncleanup.obj
 0001:001b0c10       __chkstk                   00000001801b1c10 f   LIBCMT:chkstk.obj
 0001:001b0c10       _alloca_probe              00000001801b1c10 f   LIBCMT:chkstk.obj
 0001:001b0c60       __vdecl_sinf4              00000001801b1c60 f   LIBCMT:svml_ssinf4_dispatch.obj
 0001:001b0c80       __libm_sse2_sincosf_       00000001801b1c80 f   LIBCMT:svml_ssinf4_dispatch.obj
 0001:001b0cc3       __libm_sse2_sincosf4_      00000001801b1cc3 f   LIBCMT:svml_ssinf4_dispatch.obj
 0001:001b0cd0       ??3@YAXPEAX@Z              00000001801b1cd0 f   LIBCMT:delete_scalar.obj
 0001:001b0cd8       __scrt_acquire_startup_lock 00000001801b1cd8 f   LIBCMT:utility.obj
 0001:001b0d14       __scrt_dllmain_after_initialize_c 00000001801b1d14 f   LIBCMT:utility.obj
 0001:001b0d48       __scrt_dllmain_before_initialize_c 00000001801b1d48 f   LIBCMT:utility.obj
 0001:001b0d60       __scrt_dllmain_crt_thread_attach 00000001801b1d60 f   LIBCMT:utility.obj
 0001:001b0d88       __scrt_dllmain_crt_thread_detach 00000001801b1d88 f   LIBCMT:utility.obj
 0001:001b0da0       __scrt_dllmain_exception_filter 00000001801b1da0 f   LIBCMT:utility.obj
 0001:001b0e00       __scrt_dllmain_uninitialize_c 00000001801b1e00 f   LIBCMT:utility.obj
 0001:001b0e30       __scrt_dllmain_uninitialize_critical 00000001801b1e30 f   LIBCMT:utility.obj
 0001:001b0e44       __scrt_initialize_crt      00000001801b1e44 f   LIBCMT:utility.obj
 0001:001b0e90       __scrt_initialize_onexit_tables 00000001801b1e90 f   LIBCMT:utility.obj
 0001:001b0f1c       __scrt_is_nonwritable_in_current_image 00000001801b1f1c f   LIBCMT:utility.obj
 0001:001b0fb4       __scrt_release_startup_lock 00000001801b1fb4 f   LIBCMT:utility.obj
 0001:001b0fd8       __scrt_uninitialize_crt    00000001801b1fd8 f   LIBCMT:utility.obj
 0001:001b1004       _onexit                    00000001801b2004 f   LIBCMT:utility.obj
 0001:001b1040       atexit                     00000001801b2040 f   LIBCMT:utility.obj
 0001:001b1378       _DllMainCRTStartup         00000001801b2378 f   LIBCMT:dll_dllmain.obj
 0001:001b13b8       __isa_available_init       00000001801b23b8 f   LIBCMT:cpu_disp.obj
 0001:001b1560       __sse2_sinf4@@16           00000001801b2560 f   LIBCMT:svml_ssinf4_sse2.obj
 0001:001b1ea0       __sse4_sinf4@@16           00000001801b2ea0 f   LIBCMT:svml_ssinf4_sse4.obj
 0001:001b2614       __scrt_is_ucrt_dll_in_use  00000001801b3614 f   LIBCMT:ucrt_detection.obj
 0001:001b2620       __crt_debugger_hook        00000001801b3620 f   LIBCMT:utility_desktop.obj
 0001:001b2628       __scrt_fastfail            00000001801b3628 f   LIBCMT:utility_desktop.obj
 0001:001b2774       __security_init_cookie     00000001801b3774 f   LIBCMT:gs_support.obj
 0001:001b2820       __local_stdio_scanf_options 00000001801b3820 f i LIBCMT:default_local_stdio_options.obj
 0001:001b2828       __scrt_initialize_default_local_stdio_options 00000001801b3828 f   LIBCMT:default_local_stdio_options.obj
 0001:001b2844       __scrt_get_dyn_tls_init_callback 00000001801b3844 f   LIBCMT:dyn_tls_init.obj
 0001:001b284c       _RTC_Initialize            00000001801b384c f   LIBCMT:initsect.obj
 0001:001b2888       _RTC_Terminate             00000001801b3888 f   LIBCMT:initsect.obj
 0001:001b28d0       __common_ssin_cout_rare    00000001801b38d0 f   LIBCMT:svml_s_sin_cout.obj
 0001:001b2950       memcpy_repmovs             00000001801b3950 f   libvcruntime:memcpy.obj
 0001:001b2970       memmove                    00000001801b3970 f   libvcruntime:memcpy.obj
 0001:001b2970       memcpy                     00000001801b3970 f   libvcruntime:memcpy.obj
 0001:001b2fe8       _get_purecall_handler      00000001801b3fe8 f   libvcruntime:purevirt.obj
 0001:001b2ff4       _purecall                  00000001801b3ff4 f   libvcruntime:purevirt.obj
 0001:001b3018       __std_type_info_compare    00000001801b4018 f   libvcruntime:std_type_info.obj
 0001:001b3040       __std_type_info_destroy_list 00000001801b4040 f   libvcruntime:std_type_info.obj
 0001:001b306c       __std_type_info_name       00000001801b406c f   libvcruntime:std_type_info.obj
 0001:001b31a0       memset_repmovs             00000001801b41a0 f   libvcruntime:memset.obj
 0001:001b31c0       memset                     00000001801b41c0 f   libvcruntime:memset.obj
 0001:001b3350       strstr                     00000001801b4350 f   libvcruntime:strstr.obj
 0001:001b354c       __vcrt_initialize          00000001801b454c f   libvcruntime:initialization.obj
 0001:001b3574       __vcrt_thread_attach       00000001801b4574 f   libvcruntime:initialization.obj
 0001:001b3588       __vcrt_thread_detach       00000001801b4588 f   libvcruntime:initialization.obj
 0001:001b359c       __vcrt_uninitialize        00000001801b459c f   libvcruntime:initialization.obj
 0001:001b35b8       __vcrt_uninitialize_critical 00000001801b45b8 f   libvcruntime:initialization.obj
 0001:001b35c8       __C_specific_handler       00000001801b45c8 f   libvcruntime:riscchandler.obj
 0001:001b37d4       __DestructExceptionObject  00000001801b47d4 f   libvcruntime:ehhelpers.obj
 0001:001b3844       ?_CallMemberFunction0@@YAXQEAX0@Z 00000001801b4844 f i libvcruntime:ehhelpers.obj
 0001:001b3848       _IsExceptionObjectToBeDestroyed 00000001801b4848 f   libvcruntime:ehhelpers.obj
 0001:001b3878       __AdjustPointer            00000001801b4878 f   libvcruntime:ehhelpers.obj
 0001:001b389c       __FrameUnwindFilter        00000001801b489c f   libvcruntime:ehhelpers.obj
 0001:001b3904       ??$?0$00@DName@@QEAA@PEBDU?$StringLifeSelector@$00@@@Z 00000001801b4904 f i libvcruntime:undname.obj
 0001:001b3944       ??$?0$0A@@DName@@QEAA@PEBDU?$StringLifeSelector@$0A@@@@Z 00000001801b4944 f i libvcruntime:undname.obj
 0001:001b3944       ??$?0$01@DName@@QEAA@PEBDU?$StringLifeSelector@$01@@@Z 00000001801b4944 f i libvcruntime:undname.obj
 0001:001b3984       ??$?0$01@pcharNode@@QEAA@PEBDHU?$StringLifeSelector@$01@@@Z 00000001801b4984 f i libvcruntime:undname.obj
 0001:001b3984       ??$?0$0A@@pcharNode@@QEAA@PEBDHU?$StringLifeSelector@$0A@@@@Z 00000001801b4984 f i libvcruntime:undname.obj
 0001:001b39f8       ??$append@VpcharNode@@@DName@@AEAAXPEBVpcharNode@@@Z 00000001801b49f8 f i libvcruntime:undname.obj
 0001:001b39f8       ??$append@VDNameStatusNode@@@DName@@AEAAXPEBVDNameStatusNode@@@Z 00000001801b49f8 f i libvcruntime:undname.obj
 0001:001b39f8       ??$append@VDNameNode@@@DName@@AEAAXPEBVDNameNode@@@Z 00000001801b49f8 f i libvcruntime:undname.obj
 0001:001b39f8       ??$append@VcharNode@@@DName@@AEAAXPEBVcharNode@@@Z 00000001801b49f8 f i libvcruntime:undname.obj
 0001:001b3a5c       ??$doPchar@$00@DName@@AEAAXPEBDH@Z 00000001801b4a5c f i libvcruntime:undname.obj
 0001:001b3b00       ??$doPchar@$01@DName@@AEAAXPEBDH@Z 00000001801b4b00 f i libvcruntime:undname.obj
 0001:001b3b00       ??$doPchar@$0A@@DName@@AEAAXPEBDH@Z 00000001801b4b00 f i libvcruntime:undname.obj
 0001:001b3b98       ??0DName@@QEAA@AEAPEBDD@Z  00000001801b4b98 f   libvcruntime:undname.obj
 0001:001b3c48       ??0DName@@QEAA@AEBUStringLiteral@@@Z 00000001801b4c48 f   libvcruntime:undname.obj
 0001:001b3c74       ??0DName@@QEAA@PEAV0@@Z    00000001801b4c74 f   libvcruntime:undname.obj
 0001:001b3cf8       ??0DName@@QEAA@_J@Z        00000001801b4cf8 f   libvcruntime:undname.obj
 0001:001b3da0       ??0DName@@QEAA@_K@Z        00000001801b4da0 f   libvcruntime:undname.obj
 0001:001b3e30       ??2@YAPEAX_KAEAV_HeapManager@@H@Z 00000001801b4e30 f   libvcruntime:undname.obj
 0001:001b3e5c       ??AReplicator@@QEBA?AVDName@@H@Z 00000001801b4e5c f   libvcruntime:undname.obj
 0001:001b3e9c       ??HDName@@QEBA?AV0@AEBUStringLiteral@@@Z 00000001801b4e9c f   libvcruntime:undname.obj
 0001:001b3ec8       ??HDName@@QEBA?AV0@AEBV0@@Z 00000001801b4ec8 f   libvcruntime:undname.obj
 0001:001b3ef4       ??HDName@@QEBA?AV0@D@Z     00000001801b4ef4 f   libvcruntime:undname.obj
 0001:001b3f20       ??HDName@@QEBA?AV0@W4DNameStatus@@@Z 00000001801b4f20 f   libvcruntime:undname.obj
 0001:001b3f4c       ??YDName@@QEAAAEAV0@AEBUStringLiteral@@@Z 00000001801b4f4c f   libvcruntime:undname.obj
 0001:001b3fcc       ??YDName@@QEAAAEAV0@AEBV0@@Z 00000001801b4fcc f   libvcruntime:undname.obj
 0001:001b4080       ??YDName@@QEAAAEAV0@D@Z    00000001801b5080 f   libvcruntime:undname.obj
 0001:001b40ec       ??YDName@@QEAAAEAV0@W4DNameStatus@@@Z 00000001801b50ec f   libvcruntime:undname.obj
 0001:001b4158       ??YReplicator@@QEAAAEAV0@AEBVDName@@@Z 00000001801b5158 f   libvcruntime:undname.obj
 0001:001b41b0       ?UScore@UnDecorator@@SA?AUStringLiteral@@W4Tokens@@@Z 00000001801b51b0 f   libvcruntime:undname.obj
 0001:001b41fc       ?composeDeclaration@UnDecorator@@CA?AVDName@@AEBV2@@Z 00000001801b51fc f i libvcruntime:undname.obj
 0001:001b50a4       ?doPchar@DName@@AEAAXD@Z   00000001801b60a4 f   libvcruntime:undname.obj
 0001:001b50f4       ?getAddressOf@UnDecorator@@CA?AVDName@@XZ 00000001801b60f4 f   libvcruntime:undname.obj
 0001:001b5184       ?getArgumentList@UnDecorator@@CA?AVDName@@XZ 00000001801b6184 f   libvcruntime:undname.obj
 0001:001b5318       ?getArgumentTypes@UnDecorator@@CA?AVDName@@XZ 00000001801b6318 f   libvcruntime:undname.obj
 0001:001b5474       ?getArrayAccess@UnDecorator@@CA?AVDName@@XZ 00000001801b6474 f   libvcruntime:undname.obj
 0001:001b5510       ?getArrayObject@UnDecorator@@CA?AVDName@@XZ 00000001801b6510 f   libvcruntime:undname.obj
 0001:001b55d8       ?getArrayType@UnDecorator@@CA?AVDName@@AEBV2@@Z 00000001801b65d8 f i libvcruntime:undname.obj
 0001:001b5820       ?getBasedType@UnDecorator@@CA?AVDName@@XZ 00000001801b6820 f   libvcruntime:undname.obj
 0001:001b5918       ?getBasicDataType@UnDecorator@@CA?AVDName@@AEBV2@@Z 00000001801b6918 f   libvcruntime:undname.obj
 0001:001b5ec8       ?getCallingConvention@UnDecorator@@CA?AVDName@@XZ 00000001801b6ec8 f   libvcruntime:undname.obj
 0001:001b6008       ?getDataIndirectType@UnDecorator@@CA?AVDName@@AEBV2@W4IndirectionKind@@0H@Z 00000001801b7008 f   libvcruntime:undname.obj
 0001:001b68a0       ?getDataType@UnDecorator@@CA?AVDName@@PEAV2@@Z 00000001801b78a0 f   libvcruntime:undname.obj
 0001:001b69b4       ?getDecoratedName@UnDecorator@@CA?AVDName@@XZ 00000001801b79b4 f   libvcruntime:undname.obj
 0001:001b6c98       ?getDimension@UnDecorator@@CA?AVDName@@_N@Z 00000001801b7c98 f   libvcruntime:undname.obj
 0001:001b6de4       ?getDispatchTarget@UnDecorator@@CA?AVDName@@XZ 00000001801b7de4 f   libvcruntime:undname.obj
 0001:001b6e30       ?getECSUDataType@UnDecorator@@CA?AVDName@@XZ 00000001801b7e30 f   libvcruntime:undname.obj
 0001:001b7010       ?getEnumType@UnDecorator@@CA?AVDName@@XZ 00000001801b8010 f i libvcruntime:undname.obj
 0001:001b7140       ?getExtendedDataIndirectType@UnDecorator@@CA?AVDName@@AEAW4IndirectionKind@@AEA_NH@Z 00000001801b8140 f   libvcruntime:undname.obj
 0001:001b7348       ?getExternalDataType@UnDecorator@@CA?AVDName@@AEBV2@@Z 00000001801b8348 f i libvcruntime:undname.obj
 0001:001b7408       ?getFloatingPoint@UnDecorator@@CA?AVDName@@H@Z 00000001801b8408 f   libvcruntime:undname.obj
 0001:001b7530       ?getFunctionIndirectType@UnDecorator@@CA?AVDName@@AEBV2@@Z 00000001801b8530 f   libvcruntime:undname.obj
 0001:001b7a68       ?getLastChar@DNameStatusNode@@UEBADXZ 00000001801b8a68 f i libvcruntime:undname.obj
 0001:001b7a74       ?getLastChar@charNode@@UEBADXZ 00000001801b8a74 f i libvcruntime:undname.obj
 0001:001b7a78       ?getLastChar@pDNameNode@@UEBADXZ 00000001801b8a78 f i libvcruntime:undname.obj
 0001:001b7aa4       ?getLastChar@pairNode@@UEBADXZ 00000001801b8aa4 f i libvcruntime:undname.obj
 0001:001b7adc       ?getLastChar@pcharNode@@UEBADXZ 00000001801b8adc f i libvcruntime:undname.obj
 0001:001b7af0       ?getLexicalFrame@UnDecorator@@CA?AVDName@@XZ 00000001801b8af0 f i libvcruntime:undname.obj
 0001:001b7b54       ?getMemberAccess@UnDecorator@@CA?AVDName@@XZ 00000001801b8b54 f   libvcruntime:undname.obj
 0001:001b7be8       ?getMemoryWithBuffer@_HeapManager@@QEAAPEAX_K@Z 00000001801b8be8 f   libvcruntime:undname.obj
 0001:001b7c78       ?getNoexcept@UnDecorator@@CA?AVDName@@XZ 00000001801b8c78 f   libvcruntime:undname.obj
 0001:001b7cdc       ?getNumberOfDimensions@UnDecorator@@CAHXZ 00000001801b8cdc f   libvcruntime:undname.obj
 0001:001b7d50       ?getOperatorName@UnDecorator@@CA?AVDName@@_NPEA_N@Z 00000001801b8d50 f i libvcruntime:undname.obj
 0001:001b8744       ?getPointerToMember@UnDecorator@@CA?AVDName@@XZ 00000001801b9744 f   libvcruntime:undname.obj
 0001:001b883c       ?getPrimaryDataType@UnDecorator@@CA?AVDName@@AEBV2@@Z 00000001801b983c f   libvcruntime:undname.obj
 0001:001b8af0       ?getPtrRefDataType@UnDecorator@@CA?AVDName@@AEBV2@H@Z 00000001801b9af0 f   libvcruntime:undname.obj
 0001:001b8cbc       ?getPtrRefType@UnDecorator@@CA?AVDName@@AEBV2@0W4IndirectionKind@@@Z 00000001801b9cbc f   libvcruntime:undname.obj
 0001:001b8e94       ?getRestrictionSpec@UnDecorator@@CA?AVDName@@XZ 00000001801b9e94 f   libvcruntime:undname.obj
 0001:001b9060       ?getReturnType@UnDecorator@@CA?AVDName@@PEAV2@@Z 00000001801ba060 f   libvcruntime:undname.obj
 0001:001b9094       ?getScope@UnDecorator@@CA?AVDName@@XZ 00000001801ba094 f   libvcruntime:undname.obj
 0001:001b9548       ?getScopedName@UnDecorator@@CA?AVDName@@XZ 00000001801ba548 f   libvcruntime:undname.obj
 0001:001b9684       ?getSignedDimension@UnDecorator@@CA?AVDName@@XZ 00000001801ba684 f   libvcruntime:undname.obj
 0001:001b970c       ?getString@DNameStatusNode@@UEBAPEADPEAD0@Z 00000001801ba70c f i libvcruntime:undname.obj
 0001:001b9754       ?getString@charNode@@UEBAPEADPEAD0@Z 00000001801ba754 f i libvcruntime:undname.obj
 0001:001b9768       ?getString@pDNameNode@@UEBAPEADPEAD0@Z 00000001801ba768 f i libvcruntime:undname.obj
 0001:001b9798       ?getString@pairNode@@UEBAPEADPEAD0@Z 00000001801ba798 f i libvcruntime:undname.obj
 0001:001b97e4       ?getString@pcharNode@@UEBAPEADPEAD0@Z 00000001801ba7e4 f i libvcruntime:undname.obj
 0001:001b981c       ?getStringEncoding@UnDecorator@@CA?AVDName@@W4PrefixKind@@H@Z 00000001801ba81c f   libvcruntime:undname.obj
 0001:001b9900       ?getStringObject@UnDecorator@@CA?AVDName@@XZ 00000001801ba900 f   libvcruntime:undname.obj
 0001:001b9968       ?getSymbolName@UnDecorator@@CA?AVDName@@XZ 00000001801ba968 f i libvcruntime:undname.obj
 0001:001b99b4       ?getTemplateArgumentList@UnDecorator@@CA?AVDName@@XZ 00000001801ba9b4 f   libvcruntime:undname.obj
 0001:001b9c28       ?getTemplateName@UnDecorator@@CA?AVDName@@_N@Z 00000001801bac28 f   libvcruntime:undname.obj
 0001:001b9ebc       ?getTemplateNonTypeArgument@UnDecorator@@CA?AVDName@@XZ 00000001801baebc f   libvcruntime:undname.obj
 0001:001ba3f0       ?getTemplateTypeArgument@UnDecorator@@CA?AVDName@@XZ 00000001801bb3f0 f   libvcruntime:undname.obj
 0001:001ba558       ?getThrowTypes@UnDecorator@@CA?AVDName@@XZ 00000001801bb558 f   libvcruntime:undname.obj
 0001:001ba57c       ?getTypeEncoding@UnDecorator@@CAHXZ 00000001801bb57c f i libvcruntime:undname.obj
 0001:001ba90c       ?getUndecoratedName@UnDecorator@@QEAAPEADPEADH@Z 00000001801bb90c f i libvcruntime:undname.obj
 0001:001baa60       ?getUnionObject@UnDecorator@@CA?AVDName@@XZ 00000001801bba60 f   libvcruntime:undname.obj
 0001:001bab38       ?getVCallThunkType@UnDecorator@@CA?AVDName@@XZ 00000001801bbb38 f i libvcruntime:undname.obj
 0001:001babb0       ?getValue@UnDecorator@@CA?AV?$optional@_K@std@@XZ 00000001801bbbb0 f   libvcruntime:undname.obj
 0001:001bac24       ?getValueObject@UnDecorator@@CA?AVDName@@XZ 00000001801bbc24 f   libvcruntime:undname.obj
 0001:001bad7c       ?getVdispMapType@UnDecorator@@CA?AVDName@@AEBV2@@Z 00000001801bbd7c f i libvcruntime:undname.obj
 0001:001badf8       ?getVfTableType@UnDecorator@@CA?AVDName@@AEBV2@@Z 00000001801bbdf8 f i libvcruntime:undname.obj
 0001:001bb000       ?getZName@UnDecorator@@CA?AVDName@@_N0@Z 00000001801bc000 f   libvcruntime:undname.obj
 0001:001bb2e8       ?length@pDNameNode@@UEBAHXZ 00000001801bc2e8 f i libvcruntime:undname.obj
 0001:001bb310       ?length@pairNode@@UEBAHXZ  00000001801bc310 f i libvcruntime:undname.obj
 0001:001bb358       ?parseDecoratedName@UnDecorator@@CA?AVDName@@XZ 00000001801bc358 f   libvcruntime:undname.obj
 0001:001bb46c       ?raw_length@pDNameNode@@UEBAHXZ 00000001801bc46c f i libvcruntime:undname.obj
 0001:001bb470       ?raw_length@pairNode@@UEBAHXZ 00000001801bc470 f i libvcruntime:undname.obj
 0001:001bb474       __unDName                  00000001801bc474 f   libvcruntime:undname.obj
 0001:001bb49c       __unDNameEx                00000001801bc49c f   libvcruntime:undname.obj
 0001:001bb5d0       sprintf_s                  00000001801bc5d0 f i libvcruntime:undname.obj
 0001:001bb624       __vcrt_freefls             00000001801bc624 f   libvcruntime:per_thread_data.obj
 0001:001bb644       __vcrt_freeptd             00000001801bc644 f   libvcruntime:per_thread_data.obj
 0001:001bb694       __vcrt_getptd              00000001801bc694 f   libvcruntime:per_thread_data.obj
 0001:001bb6b0       __vcrt_getptd_noexit       00000001801bc6b0 f   libvcruntime:per_thread_data.obj
 0001:001bb770       __vcrt_initialize_ptd      00000001801bc770 f   libvcruntime:per_thread_data.obj
 0001:001bb7b8       __vcrt_uninitialize_ptd    00000001801bc7b8 f   libvcruntime:per_thread_data.obj
 0001:001bb7dc       __vcrt_initialize_locks    00000001801bc7dc f   libvcruntime:locks.obj
 0001:001bb810       __vcrt_lock                00000001801bc810 f   libvcruntime:locks.obj
 0001:001bb82c       __vcrt_uninitialize_locks  00000001801bc82c f   libvcruntime:locks.obj
 0001:001bb864       __vcrt_unlock              00000001801bc864 f   libvcruntime:locks.obj
 0001:001bb890       _NLG_Notify                00000001801bc890 f   libvcruntime:notify.obj
 0001:001bb8b0       __NLG_Dispatch2            00000001801bc8b0 f   libvcruntime:notify.obj
 0001:001bb8c0       __NLG_Return2              00000001801bc8c0 f   libvcruntime:notify.obj
 0001:001bb8c4       __except_validate_context_record 00000001801bc8c4 f   libvcruntime:jbcxrval.obj
 0001:001bb8fc       ??$_CallSETranslator@V__FrameHandler4@@@@YAHPEAUEHExceptionRecord@@PEA_KPEAU_CONTEXT@@PEAU_xDISPATCHER_CONTEXT@@PEAUFuncInfo4@FH4@@K1H@Z 00000001801bc8fc f i libvcruntime:risctrnsctrl.obj
 0001:001bb950       ?DecompFuncInfo@FH4@@YA_JPEAEAEAUFuncInfo4@1@_KH_N@Z 00000001801bc950 f i libvcruntime:risctrnsctrl.obj
 0001:001bba74       ?ExecutionInCatch@__FrameHandler4@@SA_NPEAU_xDISPATCHER_CONTEXT@@PEAUFuncInfo4@FH4@@@Z 00000001801bca74 f   libvcruntime:risctrnsctrl.obj
 0001:001bba7c       ?FrameUnwindToEmptyState@__FrameHandler4@@SAXPEA_KPEAU_xDISPATCHER_CONTEXT@@PEAUFuncInfo4@FH4@@@Z 00000001801bca7c f   libvcruntime:risctrnsctrl.obj
 0001:001bbab0       ?GetEstablisherFrame@__FrameHandler4@@SAPEA_KPEA_KPEAU_xDISPATCHER_CONTEXT@@PEAUFuncInfo4@FH4@@0@Z 00000001801bcab0 f   libvcruntime:risctrnsctrl.obj
 0001:001bbad4       ?GetRangeOfTrysToCheck@__FrameHandler4@@SA?AU?$pair@Viterator@TryBlockMap4@FH4@@V123@@std@@AEAVTryBlockMap4@FH4@@HPEAU_xDISPATCHER_CONTEXT@@PEAUFuncInfo4@5@H@Z 00000001801bcad4 f   libvcruntime:risctrnsctrl.obj
 0001:001bbc3c       ?UnwindNestedFrames@__FrameHandler4@@SAXPEA_KPEAUEHExceptionRecord@@PEAU_CONTEXT@@0PEAXPEAUFuncInfo4@FH4@@HHPEAUHandlerType4@5@PEAU_xDISPATCHER_CONTEXT@@E@Z 00000001801bcc3c f   libvcruntime:risctrnsctrl.obj
 0001:001bbd5c       ?setBuffer@TryBlockMap4@FH4@@QEAAXViterator@12@@Z 00000001801bcd5c f i libvcruntime:risctrnsctrl.obj
 0001:001bbf1c       _CreateFrameInfo           00000001801bcf1c f   libvcruntime:risctrnsctrl.obj
 0001:001bbf58       _FindAndUnlinkFrame        00000001801bcf58 f   libvcruntime:risctrnsctrl.obj
 0001:001bbfac       _GetImageBase              00000001801bcfac f   libvcruntime:risctrnsctrl.obj
 0001:001bbfc0       _GetThrowImageBase         00000001801bcfc0 f   libvcruntime:risctrnsctrl.obj
 0001:001bbfd4       _SetImageBase              00000001801bcfd4 f   libvcruntime:risctrnsctrl.obj
 0001:001bbfec       _SetThrowImageBase         00000001801bcfec f   libvcruntime:risctrnsctrl.obj
 0001:001bc004       __CxxFrameHandler4         00000001801bd004 f   libvcruntime:risctrnsctrl.obj
 0001:001bc214       __vcrt_FlsAlloc            00000001801bd214 f   libvcruntime:winapi_downlevel.obj
 0001:001bc25c       __vcrt_FlsFree             00000001801bd25c f   libvcruntime:winapi_downlevel.obj
 0001:001bc2a4       __vcrt_FlsGetValue         00000001801bd2a4 f   libvcruntime:winapi_downlevel.obj
 0001:001bc2ec       __vcrt_FlsSetValue         00000001801bd2ec f   libvcruntime:winapi_downlevel.obj
 0001:001bc340       __vcrt_InitializeCriticalSectionEx 00000001801bd340 f   libvcruntime:winapi_downlevel.obj
 0001:001bc3a4       ?StateFromControlPc@__FrameHandler4@@SAHPEAUFuncInfo4@FH4@@PEAU_xDISPATCHER_CONTEXT@@@Z 00000001801bd3a4 f   libvcruntime:ehstate.obj
 0001:001bc3ac       ?StateFromIp@__FrameHandler4@@SAHPEAUFuncInfo4@FH4@@PEAU_xDISPATCHER_CONTEXT@@_K@Z 00000001801bd3ac f   libvcruntime:ehstate.obj
 0001:001bd01c       ??$TypeMatchHelper@V__FrameHandler3@@@@YAHPEBU_s_HandlerType@@PEBU_s_CatchableType@@PEBU_s_ThrowInfo@@@Z 00000001801be01c f i libvcruntime:frame.obj
 0001:001bd15c       ??$TypeMatchHelper@V__FrameHandler4@@@@YAHPEAUHandlerType4@FH4@@PEBU_s_CatchableType@@PEBU_s_ThrowInfo@@@Z 00000001801be15c f i libvcruntime:frame.obj
 0001:001bd2a0       ??$__InternalCxxFrameHandler@V__FrameHandler4@@@@YA?AW4_EXCEPTION_DISPOSITION@@PEAUEHExceptionRecord@@PEA_KPEAU_CONTEXT@@PEAU_xDISPATCHER_CONTEXT@@PEAUFuncInfo4@FH4@@H1E@Z 00000001801be2a0 f i libvcruntime:frame.obj
 0001:001bd534       ??0HandlerMap4@FH4@@QEAA@PEBUTryBlockMapEntry4@1@_KH@Z 00000001801be534 f i libvcruntime:frame.obj
 0001:001bd5b0       ??0TryBlockMap4@FH4@@QEAA@PEBUFuncInfo4@1@_K@Z 00000001801be5b0 f i libvcruntime:frame.obj
 0001:001bd688       ??0bad_exception@std@@QEAA@AEBV01@@Z 00000001801be688 f i libvcruntime:frame.obj
 0001:001bd6c4       ??0bad_exception@std@@QEAA@XZ 00000001801be6c4 f i libvcruntime:frame.obj
 0001:001bd6e4       ??0exception@std@@QEAA@AEBV01@@Z 00000001801be6e4 f i libvcruntime:frame.obj
 0001:001bd718       ??1bad_exception@std@@UEAA@XZ 00000001801be718 f i libvcruntime:frame.obj
 0001:001bd72c       ??_Gexception@std@@UEAAPEAXI@Z 00000001801be72c f i libvcruntime:frame.obj
 0001:001bd72c       ??_Ebad_exception@std@@UEAAPEAXI@Z 00000001801be72c f i libvcruntime:frame.obj
 0001:001bd72c       ??_Gbad_exception@std@@UEAAPEAXI@Z 00000001801be72c f i libvcruntime:frame.obj
 0001:001bd72c       ??_Eexception@std@@UEAAPEAXI@Z 00000001801be72c f i libvcruntime:frame.obj
 0001:001bd770       ?CxxCallCatchBlock@__FrameHandler4@@SAPEAXPEAU_EXCEPTION_RECORD@@@Z 00000001801be770 f   libvcruntime:frame.obj
 0001:001bd9c0       ?DecompHandler@HandlerMap4@FH4@@AEAAXXZ 00000001801be9c0 f i libvcruntime:frame.obj
 0001:001bdc00       ?FrameUnwindToState@__FrameHandler4@@SAXPEA_KPEAU_xDISPATCHER_CONTEXT@@PEAUFuncInfo4@FH4@@H@Z 00000001801bec00 f   libvcruntime:frame.obj
 0001:001be060       ?ReadEntry@UWMap4@FH4@@AEAAXPEAPEAE@Z 00000001801bf060 f i libvcruntime:frame.obj
 0001:001be100       ?_CallMemberFunction1@@YAXQEAX00@Z 00000001801bf100 f i libvcruntime:frame.obj
 0001:001be10c       ?_CallMemberFunction2@@YAXQEAX00H@Z 00000001801bf10c f i libvcruntime:frame.obj
 0001:001be11c       ?getStartStop@UWMap4@FH4@@QEAAXHHAEAViterator@12@0@Z 00000001801bf11c f i libvcruntime:frame.obj
 0001:001be1ec       ?getStateFromIterators@UWMap4@FH4@@SAHAEBViterator@12@H0H0@Z 00000001801bf1ec f i libvcruntime:frame.obj
 0001:001be2b4       ?what@exception@std@@UEBAPEBDXZ 00000001801bf2b4 f i libvcruntime:frame.obj
 0001:001be2e0       _CallSettingFrame          00000001801bf2e0 f   libvcruntime:handlers.obj
 0001:001be330       _CallSettingFrame_LookupContinuationIndex 00000001801bf330 f   libvcruntime:handlers.obj
 0001:001be360       _CallSettingFrame_NotifyContinuationAddr 00000001801bf360 f   libvcruntime:handlers.obj
 0001:001be390       _CallSettingFrameEncoded   00000001801bf390 f   libvcruntime:handlers.obj
 0001:001be3d8       __std_exception_copy       00000001801bf3d8 f   libvcruntime:std_exception.obj
 0001:001be468       __std_exception_destroy    00000001801bf468 f   libvcruntime:std_exception.obj
 0001:001be490       _CxxThrowException         00000001801bf490 f   libvcruntime:throw.obj
 0001:001be530       cosf                       00000001801bf530 f   libucrt:cosf.obj
 0001:001bea30       sinf                       00000001801bfa30 f   libucrt:sinf.obj
 0001:001bf130       tanf                       00000001801c0130 f   libucrt:tanf.obj
 0001:001bf7a4       __acrt_initialize_stdio    00000001801c07a4 f   libucrt:_file.obj
 0001:001bf8c4       __acrt_iob_func            00000001801c08c4 f   libucrt:_file.obj
 0001:001bf8d8       __acrt_uninitialize_stdio  00000001801c08d8 f   libucrt:_file.obj
 0001:001bf934       _lock_file                 00000001801c0934 f   libucrt:_file.obj
 0001:001bf940       _unlock_file               00000001801c0940 f   libucrt:_file.obj
 0001:001bfb58       ??$ensure_buffer_is_big_enough@D@formatting_buffer@__crt_stdio_output@@QEAA_N_K@Z 00000001801c0b58 f i libucrt:output.obj
 0001:001bfc00       ??$type_case_integer_parse_into_buffer@I@?$output_processor@DV?$stream_output_adapter@D@__crt_stdio_output@@V?$standard_base@DV?$stream_output_adapter@D@__crt_stdio_output@@@2@@__crt_stdio_output@@AEAAXII_N@Z 00000001801c0c00 f i libucrt:output.obj
 0001:001bfc00       ??$type_case_integer_parse_into_buffer@I@?$output_processor@DV?$string_output_adapter@D@__crt_stdio_output@@V?$format_validation_base@DV?$string_output_adapter@D@__crt_stdio_output@@@2@@__crt_stdio_output@@AEAAXII_N@Z 00000001801c0c00 f i libucrt:output.obj
 0001:001bfc88       ??$type_case_integer_parse_into_buffer@_K@?$output_processor@DV?$string_output_adapter@D@__crt_stdio_output@@V?$format_validation_base@DV?$string_output_adapter@D@__crt_stdio_output@@@2@@__crt_stdio_output@@AEAAX_KI_N@Z 00000001801c0c88 f i libucrt:output.obj
 0001:001bfc88       ??$type_case_integer_parse_into_buffer@_K@?$output_processor@DV?$stream_output_adapter@D@__crt_stdio_output@@V?$standard_base@DV?$stream_output_adapter@D@__crt_stdio_output@@@2@@__crt_stdio_output@@AEAAX_KI_N@Z 00000001801c0c88 f i libucrt:output.obj
 0001:001bfd18       ??$write_multiple_characters@V?$stream_output_adapter@D@__crt_stdio_output@@D@__crt_stdio_output@@YAXAEBV?$stream_output_adapter@D@0@DHQEAH@Z 00000001801c0d18 f i libucrt:output.obj
 0001:001bfda4       ??$write_multiple_characters@V?$string_output_adapter@D@__crt_stdio_output@@D@__crt_stdio_output@@YAXAEBV?$string_output_adapter@D@0@DHQEAH@Z 00000001801c0da4 f i libucrt:output.obj
 0001:001bfe1c       ??0_LocaleUpdate@@QEAA@QEAU__crt_locale_pointers@@@Z 00000001801c0e1c f i libucrt:output.obj
 0001:001bfff0       ?crop_zeroes@__crt_stdio_output@@YAXPEADQEAU__crt_locale_pointers@@@Z 00000001801c0ff0 f i libucrt:output.obj
 0001:001c0090       ?force_decimal_point@__crt_stdio_output@@YAXPEADQEAU__crt_locale_pointers@@@Z 00000001801c1090 f i libucrt:output.obj
 0001:001c0108       ?parse_int_from_format_string@?$output_processor@DV?$string_output_adapter@D@__crt_stdio_output@@V?$format_validation_base@DV?$string_output_adapter@D@__crt_stdio_output@@@2@@__crt_stdio_output@@AEAA_NQEAH@Z 00000001801c1108 f i libucrt:output.obj
 0001:001c0108       ?parse_int_from_format_string@?$output_processor@DV?$stream_output_adapter@D@__crt_stdio_output@@V?$standard_base@DV?$stream_output_adapter@D@__crt_stdio_output@@@2@@__crt_stdio_output@@AEAA_NQEAH@Z 00000001801c1108 f i libucrt:output.obj
 0001:001c01ac       ?process@?$output_processor@DV?$stream_output_adapter@D@__crt_stdio_output@@V?$standard_base@DV?$stream_output_adapter@D@__crt_stdio_output@@@2@@__crt_stdio_output@@QEAAHXZ 00000001801c11ac f i libucrt:output.obj
 0001:001c03c0       ?process@?$output_processor@DV?$string_output_adapter@D@__crt_stdio_output@@V?$format_validation_base@DV?$string_output_adapter@D@__crt_stdio_output@@@2@@__crt_stdio_output@@QEAAHXZ 00000001801c13c0 f i libucrt:output.obj
 0001:001c05d4       ?state_case_normal@?$output_processor@DV?$stream_output_adapter@D@__crt_stdio_output@@V?$standard_base@DV?$stream_output_adapter@D@__crt_stdio_output@@@2@@__crt_stdio_output@@AEAA_NXZ 00000001801c15d4 f i libucrt:output.obj
 0001:001c0644       ?state_case_normal@?$output_processor@DV?$string_output_adapter@D@__crt_stdio_output@@V?$format_validation_base@DV?$string_output_adapter@D@__crt_stdio_output@@@2@@__crt_stdio_output@@AEAA_NXZ 00000001801c1644 f i libucrt:output.obj
 0001:001c06b8       ?state_case_normal_tchar@?$output_processor@DV?$stream_output_adapter@D@__crt_stdio_output@@V?$standard_base@DV?$stream_output_adapter@D@__crt_stdio_output@@@2@@__crt_stdio_output@@AEAA_ND@Z 00000001801c16b8 f i libucrt:output.obj
 0001:001c075c       ?state_case_normal_tchar@?$output_processor@DV?$string_output_adapter@D@__crt_stdio_output@@V?$format_validation_base@DV?$string_output_adapter@D@__crt_stdio_output@@@2@@__crt_stdio_output@@AEAA_ND@Z 00000001801c175c f i libucrt:output.obj
 0001:001c0804       ?state_case_size@?$output_processor@DV?$stream_output_adapter@D@__crt_stdio_output@@V?$standard_base@DV?$stream_output_adapter@D@__crt_stdio_output@@@2@@__crt_stdio_output@@AEAA_NXZ 00000001801c1804 f i libucrt:output.obj
 0001:001c0974       ?state_case_size@?$output_processor@DV?$string_output_adapter@D@__crt_stdio_output@@V?$format_validation_base@DV?$string_output_adapter@D@__crt_stdio_output@@@2@@__crt_stdio_output@@AEAA_NXZ 00000001801c1974 f i libucrt:output.obj
 0001:001c0ae4       ?state_case_type@?$output_processor@DV?$stream_output_adapter@D@__crt_stdio_output@@V?$standard_base@DV?$stream_output_adapter@D@__crt_stdio_output@@@2@@__crt_stdio_output@@AEAA_NXZ 00000001801c1ae4 f i libucrt:output.obj
 0001:001c0d68       ?state_case_type@?$output_processor@DV?$string_output_adapter@D@__crt_stdio_output@@V?$format_validation_base@DV?$string_output_adapter@D@__crt_stdio_output@@@2@@__crt_stdio_output@@AEAA_NXZ 00000001801c1d68 f i libucrt:output.obj
 0001:001c0fd0       ?to_integer_size@__crt_stdio_output@@YA_KW4length_modifier@1@@Z 00000001801c1fd0 f i libucrt:output.obj
 0001:001c1038       ?type_case_Z@?$output_processor@DV?$stream_output_adapter@D@__crt_stdio_output@@V?$standard_base@DV?$stream_output_adapter@D@__crt_stdio_output@@@2@@__crt_stdio_output@@AEAA_NXZ 00000001801c2038 f i libucrt:output.obj
 0001:001c1038       ?type_case_Z@?$output_processor@DV?$string_output_adapter@D@__crt_stdio_output@@V?$format_validation_base@DV?$string_output_adapter@D@__crt_stdio_output@@@2@@__crt_stdio_output@@AEAA_NXZ 00000001801c2038 f i libucrt:output.obj
 0001:001c10ac       ?type_case_a@?$output_processor@DV?$string_output_adapter@D@__crt_stdio_output@@V?$format_validation_base@DV?$string_output_adapter@D@__crt_stdio_output@@@2@@__crt_stdio_output@@AEAA_NXZ 00000001801c20ac f i libucrt:output.obj
 0001:001c10ac       ?type_case_a@?$output_processor@DV?$stream_output_adapter@D@__crt_stdio_output@@V?$standard_base@DV?$stream_output_adapter@D@__crt_stdio_output@@@2@@__crt_stdio_output@@AEAA_NXZ 00000001801c20ac f i libucrt:output.obj
 0001:001c1268       ?type_case_c_tchar@?$output_processor@DV?$stream_output_adapter@D@__crt_stdio_output@@V?$standard_base@DV?$stream_output_adapter@D@__crt_stdio_output@@@2@@__crt_stdio_output@@AEAA_ND@Z 00000001801c2268 f i libucrt:output.obj
 0001:001c1268       ?type_case_c_tchar@?$output_processor@DV?$string_output_adapter@D@__crt_stdio_output@@V?$format_validation_base@DV?$string_output_adapter@D@__crt_stdio_output@@@2@@__crt_stdio_output@@AEAA_ND@Z 00000001801c2268 f i libucrt:output.obj
 0001:001c1330       ?type_case_integer@?$output_processor@DV?$string_output_adapter@D@__crt_stdio_output@@V?$format_validation_base@DV?$string_output_adapter@D@__crt_stdio_output@@@2@@__crt_stdio_output@@AEAA_NI_N@Z 00000001801c2330 f i libucrt:output.obj
 0001:001c1330       ?type_case_integer@?$output_processor@DV?$stream_output_adapter@D@__crt_stdio_output@@V?$standard_base@DV?$stream_output_adapter@D@__crt_stdio_output@@@2@@__crt_stdio_output@@AEAA_NI_N@Z 00000001801c2330 f i libucrt:output.obj
 0001:001c14b0       ?type_case_n@?$output_processor@DV?$string_output_adapter@D@__crt_stdio_output@@V?$format_validation_base@DV?$string_output_adapter@D@__crt_stdio_output@@@2@@__crt_stdio_output@@AEAA_NXZ 00000001801c24b0 f i libucrt:output.obj
 0001:001c14b0       ?type_case_n@?$output_processor@DV?$stream_output_adapter@D@__crt_stdio_output@@V?$standard_base@DV?$stream_output_adapter@D@__crt_stdio_output@@@2@@__crt_stdio_output@@AEAA_NXZ 00000001801c24b0 f i libucrt:output.obj
 0001:001c1538       ?type_case_s@?$output_processor@DV?$stream_output_adapter@D@__crt_stdio_output@@V?$standard_base@DV?$stream_output_adapter@D@__crt_stdio_output@@@2@@__crt_stdio_output@@AEAA_NXZ 00000001801c2538 f i libucrt:output.obj
 0001:001c1538       ?type_case_s@?$output_processor@DV?$string_output_adapter@D@__crt_stdio_output@@V?$format_validation_base@DV?$string_output_adapter@D@__crt_stdio_output@@@2@@__crt_stdio_output@@AEAA_NXZ 00000001801c2538 f i libucrt:output.obj
 0001:001c15d0       ?validate_stream_is_ansi_if_required@?$__acrt_stdio_char_traits@D@@SA_NQEAU_iobuf@@@Z 00000001801c25d0 f i libucrt:output.obj
 0001:001c166c       ?write_stored_string_tchar@?$output_processor@DV?$stream_output_adapter@D@__crt_stdio_output@@V?$standard_base@DV?$stream_output_adapter@D@__crt_stdio_output@@@2@@__crt_stdio_output@@AEAA_ND@Z 00000001801c266c f i libucrt:output.obj
 0001:001c1790       ?write_stored_string_tchar@?$output_processor@DV?$string_output_adapter@D@__crt_stdio_output@@V?$format_validation_base@DV?$string_output_adapter@D@__crt_stdio_output@@@2@@__crt_stdio_output@@AEAA_ND@Z 00000001801c2790 f i libucrt:output.obj
 0001:001c186c       ?write_string@?$string_output_adapter@D@__crt_stdio_output@@QEBAXQEBDHQEAHAEAV__crt_deferred_errno_cache@@@Z 00000001801c286c f i libucrt:output.obj
 0001:001c1910       ?write_string_impl@?$output_adapter_common@DV?$stream_output_adapter@D@__crt_stdio_output@@@__crt_stdio_output@@IEBAXQEBDHQEAHAEAV__crt_deferred_errno_cache@@@Z 00000001801c2910 f i libucrt:output.obj
 0001:001c1a08       __stdio_common_vfprintf    00000001801c2a08 f   libucrt:output.obj
 0001:001c1a94       __stdio_common_vsprintf_s  00000001801c2a94 f   libucrt:output.obj
 0001:001c1af8       _fpclass                   00000001801c2af8 f   libucrt:ieeemisc.obj
 0001:001c1b80       powf                       00000001801c2b80 f   libucrt:powf.obj
 0001:001c2a48       atan2f                     00000001801c3a48 f   libucrt:atan2f.obj
 0001:001c2e50       strcmp                     00000001801c3e50 f   libucrt:strcmp.obj
 0001:001c2eb8       acosf                      00000001801c3eb8 f   libucrt:acosf.obj
 0001:001c30e4       free                       00000001801c40e4 f   libucrt:free.obj
 0001:001c30f8       _seh_filter_dll            00000001801c40f8 f   libucrt:exception_filter.obj
 0001:001c310c       _seh_filter_exe            00000001801c410c f   libucrt:exception_filter.obj
 0001:001c34fc       __acrt_initialize_thread_local_exit_callback 00000001801c44fc f   libucrt:exit.obj
 0001:001c3504       _cexit                     00000001801c4504 f   libucrt:exit.obj
 0001:001c3514       _exit                      00000001801c4514 f   libucrt:exit.obj
 0001:001c3520       _is_c_termination_complete 00000001801c4520 f   libucrt:exit.obj
 0001:001c36e8       __acrt_allocate_buffer_for_argv 00000001801c46e8 f   libucrt:argv_parsing.obj
 0001:001c3748       _configure_narrow_argv     00000001801c4748 f   libucrt:argv_parsing.obj
 0001:001c3ac0       __dcrt_uninitialize_environments_nolock 00000001801c4ac0 f   libucrt:environment_initialization.obj
 0001:001c3af8       _initialize_narrow_environment 00000001801c4af8 f   libucrt:environment_initialization.obj
 0001:001c3e40       _crt_atexit                00000001801c4e40 f   libucrt:onexit.obj
 0001:001c3e50       _execute_onexit_table      00000001801c4e50 f   libucrt:onexit.obj
 0001:001c3e8c       _initialize_onexit_table   00000001801c4e8c f   libucrt:onexit.obj
 0001:001c3eb4       _register_onexit_function  00000001801c4eb4 f   libucrt:onexit.obj
 0001:001c3f34       __acrt_uninitialize_command_line 00000001801c4f34 f   libucrt:argv_data.obj
 0001:001c402c       __acrt_initialize          00000001801c502c f   libucrt:initialization.obj
 0001:001c4040       __acrt_thread_attach       00000001801c5040 f   libucrt:initialization.obj
 0001:001c4054       __acrt_thread_detach       00000001801c5054 f   libucrt:initialization.obj
 0001:001c4064       __acrt_uninitialize        00000001801c5064 f   libucrt:initialization.obj
 0001:001c409c       __acrt_uninitialize_critical 00000001801c509c f   libucrt:initialization.obj
 0001:001c40ac       _initterm                  00000001801c50ac f   libucrt:initterm.obj
 0001:001c4110       _initterm_e                00000001801c5110 f   libucrt:initterm.obj
 0001:001c4150       terminate                  00000001801c5150 f   libucrt:terminate.obj
 0001:001c4170       abort                      00000001801c5170 f   libucrt:abort.obj
 0001:001c41c8       malloc                     00000001801c51c8 f   libucrt:malloc.obj
 0001:001c41d0       strcpy_s                   00000001801c51d0 f   libucrt:strcpy_s.obj
 0001:001c4230       ??$parse_integer@KV?$c_string_character_source@D@__crt_strtox@@@__crt_strtox@@YAKQEAU__crt_locale_pointers@@V?$c_string_character_source@D@0@H_N@Z 00000001801c5230 f i libucrt:atox.obj
 0001:001c4534       _ischartype_l              00000001801c5534 f i libucrt:atox.obj
 0001:001c45ac       atol                       00000001801c55ac f   libucrt:atox.obj
 0001:001c45f0       strncmp                    00000001801c55f0 f   libucrt:strncmp.obj
 0001:001c4670       calloc                     00000001801c5670 f   libucrt:calloc.obj
 0001:001c4678       wcsncmp                    00000001801c5678 f   libucrt:wcsncmp.obj
 0001:001c46b0       __remainder_piby2d2f_forAsm 00000001801c56b0 f   libucrt:remainder_piby2f_forasm.obj
 0001:001c4800       __remainder_piby2_fma3     00000001801c5800 f   libucrt:remainder_piby2_forfma3.obj
 0001:001c49f0       __remainder_piby2_fma3_bdl 00000001801c59f0 f   libucrt:remainder_piby2_forfma3.obj
 0001:001c4a68       _cosf_special              00000001801c5a68 f   libucrt:sincos_special.obj
 0001:001c4b08       _sinf_special              00000001801c5b08 f   libucrt:sincos_special.obj
 0001:001c4b1c       _tanf_special              00000001801c5b1c f   libucrt:sincos_special.obj
 0001:001c4b30       _clrfp                     00000001801c5b30 f   libucrt:fpctrl.obj
 0001:001c4b50       _ctrlfp                    00000001801c5b50 f   libucrt:fpctrl.obj
 0001:001c4bcc       _set_statfp                00000001801c5bcc f   libucrt:fpctrl.obj
 0001:001c4bec       _statfp                    00000001801c5bec f   libucrt:fpctrl.obj
 0001:001c4c00       __acrt_initialize_fma3     00000001801c5c00 f   libucrt:fma3_available.obj
 0001:001c4c70       __remainder_piby2d2f_forC  00000001801c5c70 f   libucrt:remainder_piby2f_forc.obj
 0001:001c4dfc       __acrt_call_reportfault    00000001801c5dfc f   libucrt:invalid_parameter.obj
 0001:001c4f58       __acrt_initialize_invalid_parameter_handler 00000001801c5f58 f   libucrt:invalid_parameter.obj
 0001:001c4f60       _invalid_parameter         00000001801c5f60 f   libucrt:invalid_parameter.obj
 0001:001c5010       _invalid_parameter_noinfo  00000001801c6010 f   libucrt:invalid_parameter.obj
 0001:001c5030       _invoke_watson             00000001801c6030 f   libucrt:invalid_parameter.obj
 0001:001c5078       __acrt_errno_from_os_error 00000001801c6078 f   libucrt:errno.obj
 0001:001c50c0       __acrt_errno_map_os_error  00000001801c60c0 f   libucrt:errno.obj
 0001:001c5110       __doserrno                 00000001801c6110 f   libucrt:errno.obj
 0001:001c5130       _errno                     00000001801c6130 f   libucrt:errno.obj
 0001:001c5150       _calloc_base               00000001801c6150 f   libucrt:calloc_base.obj
 0001:001c51c8       _free_base                 00000001801c61c8 f   libucrt:free_base.obj
 0001:001c53e0       __acrt_AppPolicyGetProcessTerminationMethodInternal 00000001801c63e0 f   libucrt:winapi_thunks.obj
 0001:001c5430       __acrt_AreFileApisANSI     00000001801c6430 f   libucrt:winapi_thunks.obj
 0001:001c546c       __acrt_FlsAlloc            00000001801c646c f   libucrt:winapi_thunks.obj
 0001:001c54b4       __acrt_FlsFree             00000001801c64b4 f   libucrt:winapi_thunks.obj
 0001:001c54fc       __acrt_FlsGetValue         00000001801c64fc f   libucrt:winapi_thunks.obj
 0001:001c5544       __acrt_FlsSetValue         00000001801c6544 f   libucrt:winapi_thunks.obj
 0001:001c5598       __acrt_InitializeCriticalSectionEx 00000001801c6598 f   libucrt:winapi_thunks.obj
 0001:001c55fc       __acrt_LCMapStringEx       00000001801c65fc f   libucrt:winapi_thunks.obj
 0001:001c56d8       __acrt_LocaleNameToLCID    00000001801c66d8 f   libucrt:winapi_thunks.obj
 0001:001c5728       __acrt_initialize_winapi_thunks 00000001801c6728 f   libucrt:winapi_thunks.obj
 0001:001c575c       __acrt_uninitialize_winapi_thunks 00000001801c675c f   libucrt:winapi_thunks.obj
 0001:001c57a0       _fcloseall                 00000001801c67a0 f   libucrt:closeall.obj
 0001:001c5a30       __acrt_stdio_flush_nolock  00000001801c6a30 f   libucrt:fflush.obj
 0001:001c5aac       _fflush_nolock             00000001801c6aac f   libucrt:fflush.obj
 0001:001c5af8       _flushall                  00000001801c6af8 f   libucrt:fflush.obj
 0001:001c5b00       __acrt_stdio_free_buffer_nolock 00000001801c6b00 f   libucrt:_freebuf.obj
 0001:001c5d3c       __acrt_initialize_lowio    00000001801c6d3c f   libucrt:ioinit.obj
 0001:001c5d78       __acrt_uninitialize_lowio  00000001801c6d78 f   libucrt:ioinit.obj
 0001:001c5db8       _malloc_base               00000001801c6db8 f   libucrt:malloc_base.obj
 0001:001c5e18       strtol                     00000001801c6e18 f   libucrt:strtox.obj
 0001:001c5e44       _mbtowc_l                  00000001801c6e44 f   libucrt:mbtowc.obj
 0001:001c5fc4       mbtowc                     00000001801c6fc4 f   libucrt:mbtowc.obj
 0001:001c5fcc       _wctomb_s_l                00000001801c6fcc f   libucrt:wctomb.obj
 0001:001c6168       strnlen                    00000001801c7168 f   libucrt:strnlen.obj
 0001:001c62b8       wcsnlen                    00000001801c72b8 f   libucrt:strnlen.obj
 0001:001c6808       __acrt_freeptd             00000001801c7808 f   libucrt:per_thread_data.obj
 0001:001c684c       __acrt_getptd              00000001801c784c f   libucrt:per_thread_data.obj
 0001:001c6920       __acrt_getptd_head         00000001801c7920 f   libucrt:per_thread_data.obj
 0001:001c69c8       __acrt_getptd_noexit       00000001801c79c8 f   libucrt:per_thread_data.obj
 0001:001c6a94       __acrt_initialize_ptd      00000001801c7a94 f   libucrt:per_thread_data.obj
 0001:001c6ad0       __acrt_uninitialize_ptd    00000001801c7ad0 f   libucrt:per_thread_data.obj
 0001:001c6af4       __acrt_update_locale_info  00000001801c7af4 f   libucrt:locale_update.obj
 0001:001c6b28       __acrt_update_multibyte_info 00000001801c7b28 f   libucrt:locale_update.obj
 0001:001c7568       __acrt_fp_format           00000001801c8568 f   libucrt:cvt.obj
 0001:001c78a0       _fileno                    00000001801c88a0 f   libucrt:fileno.obj
 0001:001c78c8       _fputc_nolock              00000001801c88c8 f   libucrt:fputc.obj
 0001:001c78e0       _get_printf_count_output   00000001801c88e0 f   libucrt:printf_count_output.obj
 0001:001c78f8       __acrt_should_use_temporary_buffer 00000001801c88f8 f   libucrt:_sftbuf.obj
 0001:001c7940       __acrt_stdio_begin_temporary_buffering_nolock 00000001801c8940 f   libucrt:_sftbuf.obj
 0001:001c7a08       __acrt_stdio_end_temporary_buffering_nolock 00000001801c8a08 f   libucrt:_sftbuf.obj
 0001:001c7ab4       __acrt_set_locale_changed  00000001801c8ab4 f   libucrt:wsetlocale.obj
 0001:001c7ac0       __acrt_uninitialize_locale 00000001801c8ac0 f   libucrt:wsetlocale.obj
 0001:001c7c14       _handle_error              00000001801c8c14 f   libucrt:libm_error.obj
 0001:001c7d3c       _handle_errorf             00000001801c8d3c f   libucrt:libm_error.obj
 0001:001c7e70       _handle_nan                00000001801c8e70 f   libucrt:libm_error.obj
 0001:001c7e8c       _handle_nanf               00000001801c8e8c f   libucrt:libm_error.obj
 0001:001c7ea0       _powf_special              00000001801c8ea0 f   libucrt:pow_special.obj
 0001:001c802c       __acrt_initialize_locks    00000001801c902c f   libucrt:locks.obj
 0001:001c8074       __acrt_lock                00000001801c9074 f   libucrt:locks.obj
 0001:001c8090       __acrt_uninitialize_locks  00000001801c9090 f   libucrt:locks.obj
 0001:001c80c8       __acrt_unlock              00000001801c90c8 f   libucrt:locks.obj
 0001:001c80e4       __acrt_get_process_end_policy 00000001801c90e4 f   libucrt:win_policies.obj
 0001:001c8134       ??$__acrt_mbs_to_wcs_cp@U__crt_win32_buffer_internal_dynamic_resizing@@@@YAHQEBDAEAV?$__crt_win32_buffer@_WU__crt_win32_buffer_internal_dynamic_resizing@@@@I@Z 00000001801c9134 f i libucrt:argv_wildcards.obj
 0001:001c82ac       ??$__acrt_wcs_to_mbs_cp@U__crt_win32_buffer_internal_dynamic_resizing@@@@YAHQEB_WAEAV?$__crt_win32_buffer@DU__crt_win32_buffer_internal_dynamic_resizing@@@@I@Z 00000001801c92ac f i libucrt:argv_wildcards.obj
 0001:001c8adc       __acrt_expand_narrow_argv_wildcards 00000001801c9adc f   libucrt:argv_wildcards.obj
 0001:001c8ae4       ??$__acrt_wcs_to_mbs_cp@U__crt_win32_buffer_no_resizing@@@@YAHQEB_WAEAV?$__crt_win32_buffer@DU__crt_win32_buffer_no_resizing@@@@I@Z 00000001801c9ae4 f i libucrt:getmodulefilenamea.obj
 0001:001c8bf8       __acrt_GetModuleFileNameA  00000001801c9bf8 f   libucrt:getmodulefilenamea.obj
 0001:001c9440       __acrt_initialize_multibyte 00000001801ca440 f   libucrt:mbctype.obj
 0001:001c94a0       __acrt_update_thread_multibyte_data 00000001801ca4a0 f   libucrt:mbctype.obj
 0001:001c94bc       _setmbcp_nolock            00000001801ca4bc f   libucrt:mbctype.obj
 0001:001c97f0       _ismbblead                 00000001801ca7f0 f   libucrt:ismbbyte.obj
 0001:001c9804       __acrt_initialize_command_line 00000001801ca804 f   libucrt:argv_data.obj
 0001:001c982c       __acrt_MultiByteToWideChar 00000001801ca82c f   libucrt:multibytetowidechar.obj
 0001:001c9888       __acrt_WideCharToMultiByte 00000001801ca888 f   libucrt:widechartomultibyte.obj
 0001:001c9938       __dcrt_get_narrow_environment_from_os 00000001801ca938 f   libucrt:get_environment_from_os.obj
 0001:001c9a3c       _recalloc_base             00000001801caa3c f   libucrt:recalloc.obj
 0001:001c9ad4       __acrt_initialize_heap     00000001801caad4 f   libucrt:heap_handle.obj
 0001:001c9af0       __acrt_uninitialize_heap   00000001801caaf0 f   libucrt:heap_handle.obj
 0001:001c9afc       __acrt_execute_initializers 00000001801caafc f   libucrt:shared_initialization.obj
 0001:001c9b7c       __acrt_execute_uninitializers 00000001801cab7c f   libucrt:shared_initialization.obj
 0001:001c9bb8       __acrt_initialize_new_handler 00000001801cabb8 f   libucrt:new_handler.obj
 0001:001c9bc0       _callnewh                  00000001801cabc0 f   libucrt:new_handler.obj
 0001:001c9bf0       _query_new_handler         00000001801cabf0 f   libucrt:new_handler.obj
 0001:001c9c6c       __acrt_get_sigabrt_handler 00000001801cac6c f   libucrt:signal.obj
 0001:001c9c9c       __acrt_initialize_signal_handlers 00000001801cac9c f   libucrt:signal.obj
 0001:001c9cbc       raise                      00000001801cacbc f   libucrt:signal.obj
 0001:001c9f28       __acrt_has_user_matherr    00000001801caf28 f   libucrt:matherr.obj
 0001:001c9f48       __acrt_initialize_user_matherr 00000001801caf48 f   libucrt:matherr.obj
 0001:001c9f50       __acrt_invoke_user_matherr 00000001801caf50 f   libucrt:matherr.obj
 0001:001c9f80       __pctype_func              00000001801caf80 f   libucrt:ctype.obj
 0001:001c9fb0       _isctype_l                 00000001801cafb0 f   libucrt:isctype.obj
 0001:001ca0d0       _get_fpsr                  00000001801cb0d0 f   libucrt:fpsr.obj
 0001:001ca0e0       _set_fpsr                  00000001801cb0e0 f   libucrt:fpsr.obj
 0001:001ca0ea       _fclrf                     00000001801cb0ea f   libucrt:fpsr.obj
 0001:001ca0fe       _frnd                      00000001801cb0fe f   libucrt:fpsr.obj
 0001:001ca120       _query_new_mode            00000001801cb120 f   libucrt:new_mode.obj
 0001:001ca128       __acrt_DownlevelLocaleNameToLCID 00000001801cb128 f   libucrt:lcidtoname_downlevel.obj
 0001:001ca1d8       _fclose_nolock             00000001801cb1d8 f   libucrt:fclose.obj
 0001:001ca25c       fclose                     00000001801cb25c f   libucrt:fclose.obj
 0001:001ca34c       _commit                    00000001801cb34c f   libucrt:commit.obj
 0001:001cac5c       _write                     00000001801cbc5c f   libucrt:write.obj
 0001:001cad48       _write_nolock              00000001801cbd48 f   libucrt:write.obj
 0001:001cb02c       __acrt_lowio_create_handle_array 00000001801cc02c f   libucrt:osfinfo.obj
 0001:001cb0d4       __acrt_lowio_destroy_handle_array 00000001801cc0d4 f   libucrt:osfinfo.obj
 0001:001cb124       __acrt_lowio_ensure_fh_exists 00000001801cc124 f   libucrt:osfinfo.obj
 0001:001cb1cc       __acrt_lowio_lock_fh       00000001801cc1cc f   libucrt:osfinfo.obj
 0001:001cb1f4       __acrt_lowio_unlock_fh     00000001801cc1f4 f   libucrt:osfinfo.obj
 0001:001cb21c       _free_osfhnd               00000001801cc21c f   libucrt:osfinfo.obj
 0001:001cb2d8       _get_osfhandle             00000001801cc2d8 f   libucrt:osfinfo.obj
 0001:001cb350       _isleadbyte_l              00000001801cc350 f i libucrt:_wctype.obj
 0001:001cb39c       ?__mbrtowc_utf8@__crt_mbstring@@YA_KPEA_WPEBD_KPEAU_Mbstatet@@@Z 00000001801cc39c f   libucrt:mbrtowc.obj
 0001:001cb3d8       ?__mbsrtowcs_utf8@__crt_mbstring@@YA_KPEA_WPEAPEBD_KPEAU_Mbstatet@@@Z 00000001801cc3d8 f   libucrt:mbrtowc.obj
 0001:001cb550       ?__c32rtomb_utf8@__crt_mbstring@@YA_KPEAD_UPEAU_Mbstatet@@@Z 00000001801cc550 f   libucrt:c32rtomb.obj
 0001:001cb604       __acrt_add_locale_ref      00000001801cc604 f   libucrt:locale_refcounting.obj
 0001:001cb690       __acrt_free_locale         00000001801cc690 f   libucrt:locale_refcounting.obj
 0001:001cb808       __acrt_locale_add_lc_time_reference 00000001801cc808 f   libucrt:locale_refcounting.obj
 0001:001cb830       __acrt_locale_free_lc_time_if_unreferenced 00000001801cc830 f   libucrt:locale_refcounting.obj
 0001:001cb868       __acrt_locale_release_lc_time_reference 00000001801cc868 f   libucrt:locale_refcounting.obj
 0001:001cb890       __acrt_release_locale_ref  00000001801cc890 f   libucrt:locale_refcounting.obj
 0001:001cb938       __acrt_update_thread_locale_data 00000001801cc938 f   libucrt:locale_refcounting.obj
 0001:001cb9a8       _updatetlocinfoEx_nolock   00000001801cc9a8 f   libucrt:locale_refcounting.obj
 0001:001cba10       __acrt_fp_strflt_to_string 00000001801cca10 f   libucrt:_fptostr.obj
 0001:001cbb70       ?divide@__crt_strtox@@YA_KAEAUbig_integer@1@AEBU21@@Z 00000001801ccb70 f i libucrt:cfout.obj
 0001:001cbf9c       __acrt_fltout              00000001801ccf9c f   libucrt:cfout.obj
 0001:001cd268       fegetround                 00000001801ce268 f   libucrt:fegetround.obj
 0001:001cd3dc       __acrt_stdio_flush_and_write_narrow_nolock 00000001801ce3dc f   libucrt:_flsbuf.obj
 0001:001cd494       _isatty                    00000001801ce494 f   libucrt:isatty.obj
 0001:001cd4f4       __acrt_locale_free_monetary 00000001801ce4f4 f   libucrt:initmon.obj
 0001:001cd600       __acrt_locale_free_numeric 00000001801ce600 f   libucrt:initnum.obj
 0001:001cd6c4       __acrt_locale_free_time    00000001801ce6c4 f   libucrt:inittime.obj
 0001:001cd7cc       __acrt_GetStringTypeA      00000001801ce7cc f   libucrt:getstringtypea.obj
 0001:001cd95c       _raise_exc                 00000001801ce95c f   libucrt:fpexcept.obj
 0001:001cd984       _raise_exc_ex              00000001801ce984 f   libucrt:fpexcept.obj
 0001:001cdc94       _raise_excf                00000001801cec94 f   libucrt:fpexcept.obj
 0001:001cdcc0       _set_errno_from_matherr    00000001801cecc0 f   libucrt:fpexcept.obj
 0001:001cdcf0       qsort                      00000001801cecf0 f   libucrt:qsort.obj
 0001:001ce090       strncpy_s                  00000001801cf090 f   libucrt:strncpy_s.obj
 0001:001ce210       strpbrk                    00000001801cf210 f   libucrt:strpbrk.obj
 0001:001ce5d8       _mbsdec                    00000001801cf5d8 f   libucrt:mbsdec.obj
 0001:001ce5e0       _mbsdec_l                  00000001801cf5e0 f   libucrt:mbsdec.obj
 0001:001ce98c       __acrt_LCMapStringA        00000001801cf98c f   libucrt:lcmapstringa.obj
 0001:001cea3c       _msize_base                00000001801cfa3c f   libucrt:msize.obj
 0001:001cea78       _realloc_base              00000001801cfa78 f   libucrt:realloc_base.obj
 0001:001ceaf4       __ascii_wcsnicmp           00000001801cfaf4 f   libucrt:wcsnicmp.obj
 0001:001cebb4       _close                     00000001801cfbb4 f   libucrt:close.obj
 0001:001cec58       _close_nolock              00000001801cfc58 f   libucrt:close.obj
 0001:001ced18       ?__acrt_stdio_free_stream@@YAXV__crt_stdio_stream@@@Z 00000001801cfd18 f   libucrt:stream.obj
 0001:001ceec0       _lseeki64                  00000001801cfec0 f   libucrt:lseek.obj
 0001:001ceec8       _lseeki64_nolock           00000001801cfec8 f   libucrt:lseek.obj
 0001:001ceed0       _putwch_nolock             00000001801cfed0 f   libucrt:putwch.obj
 0001:001cef0c       _query_app_type            00000001801cff0c f   libucrt:report_runtime_error.obj
 0001:001cef14       ?__mbrtoc32_utf8@__crt_mbstring@@YA_KPEA_UPEBD_KPEAU_Mbstatet@@@Z 00000001801cff14 f   libucrt:mbrtoc32.obj
 0001:001cf0ec       _controlfp_s               00000001801d00ec f   libucrt:contrlfp.obj
 0001:001cf150       fegetenv                   00000001801d0150 f   libucrt:fegetenv.obj
 0001:001cf170       fesetenv                   00000001801d0170 f   libucrt:fesetenv.obj
 0001:001cf1bc       feholdexcept               00000001801d01bc f   libucrt:feholdexcept.obj
 0001:001cf20c       ceil                       00000001801d020c f   libucrt:ceil.obj
 0001:001cf2d0       log10                      00000001801d02d0 f   libucrt:log10.obj
 0001:001cf87c       __acrt_fenv_get_common_round_control 00000001801d087c f   libucrt:_fenvutils.obj
 0001:001cf888       __acrt_fenv_get_control    00000001801d0888 f   libucrt:_fenvutils.obj
 0001:001cf97c       __acrt_fenv_get_status     00000001801d097c f   libucrt:_fenvutils.obj
 0001:001cf9d0       __acrt_fenv_set_control    00000001801d09d0 f   libucrt:_fenvutils.obj
 0001:001cfb18       __acrt_fenv_set_status     00000001801d0b18 f   libucrt:_fenvutils.obj
 0001:001cfb9c       __acrt_stdio_allocate_buffer_nolock 00000001801d0b9c f   libucrt:_getbuf.obj
 0001:001cfc08       __strncnt                  00000001801d0c08 f   libucrt:strncnt.obj
 0001:001cfc20       __dcrt_lowio_ensure_console_output_initialized 00000001801d0c20 f   libucrt:initcon.obj
 0001:001cfc74       __dcrt_terminate_console_output 00000001801d0c74 f   libucrt:initcon.obj
 0001:001cfc90       __dcrt_write_console       00000001801d0c90 f   libucrt:initcon.obj
 0001:001cfd50       _clearfp                   00000001801d0d50 f   libucrt:ieee.obj
 0001:001cfdc0       _control87                 00000001801d0dc0 f   libucrt:ieee.obj
 0001:001d0090       _log10_special             00000001801d1090 f   libucrt:log_special.obj
 0001:001d0150       _FindPESection             00000001801d1150 f   LIBCMT:pesect.obj
 0001:001d01a0       _IsNonwritableInCurrentImage 00000001801d11a0 f   LIBCMT:pesect.obj
 0001:001d01f0       _ValidateImageBase         00000001801d11f0 f   LIBCMT:pesect.obj
 0001:001d0220       __GSHandlerCheck           00000001801d1220 f   LIBCMT:gshandler.obj
 0001:001d0240       __GSHandlerCheckCommon     00000001801d1240 f   LIBCMT:gshandler.obj
 0001:001d02b0       __security_check_cookie    00000001801d12b0 f   LIBCMT:amdsecgs.obj
 0001:001d02d0       __GSHandlerCheck_SEH       00000001801d12d0 f   LIBCMT:gshandlerseh.obj
 0001:001d0358       __raise_securityfailure    00000001801d1358 f   LIBCMT:gs_report.obj
 0001:001d038c       __report_gsfailure         00000001801d138c f   LIBCMT:gs_report.obj
 0001:001d0460       __report_rangecheckfailure 00000001801d1460 f   LIBCMT:gs_report.obj
 0001:001d0474       __report_securityfailure   00000001801d1474 f   LIBCMT:gs_report.obj
 0001:001d05f4       strrchr                    00000001801d15f4 f   libvcruntime:strrchr.obj
 0001:001d0730       memcmp                     00000001801d1730 f   libvcruntime:memcmp.obj
 0001:001d0810       _guard_dispatch_icall_nop  00000001801d1810 f   LIBCMT:guard_dispatch.obj
 0001:001d0830       _guard_xfg_dispatch_icall_nop 00000001801d1830 f   LIBCMT:guard_xfg_dispatch.obj
 0002:00000000       __imp_GetLastError         00000001801d2000     kernel32:KERNEL32.dll
 0002:00000008       __imp_FreeLibrary          00000001801d2008     kernel32:KERNEL32.dll
 0002:00000010       __imp_GetProcAddress       00000001801d2010     kernel32:KERNEL32.dll
 0002:00000018       __imp_LoadLibraryA         00000001801d2018     kernel32:KERNEL32.dll
 0002:00000020       __imp_RaiseException       00000001801d2020     kernel32:KERNEL32.dll
 0002:00000028       __imp_GetSystemInfo        00000001801d2028     kernel32:KERNEL32.dll
 0002:00000030       __imp_VirtualProtect       00000001801d2030     kernel32:KERNEL32.dll
 0002:00000038       __imp_VirtualQuery         00000001801d2038     kernel32:KERNEL32.dll
 0002:00000040       __imp_GetModuleHandleW     00000001801d2040     kernel32:KERNEL32.dll
 0002:00000048       __imp_LoadLibraryExA       00000001801d2048     kernel32:KERNEL32.dll
 0002:00000050       __imp_InitializeSListHead  00000001801d2050     kernel32:KERNEL32.dll
 0002:00000058       __imp_RtlCaptureContext    00000001801d2058     kernel32:KERNEL32.dll
 0002:00000060       __imp_RtlLookupFunctionEntry 00000001801d2060     kernel32:KERNEL32.dll
 0002:00000068       __imp_RtlVirtualUnwind     00000001801d2068     kernel32:KERNEL32.dll
 0002:00000070       __imp_IsDebuggerPresent    00000001801d2070     kernel32:KERNEL32.dll
 0002:00000078       __imp_UnhandledExceptionFilter 00000001801d2078     kernel32:KERNEL32.dll
 0002:00000080       __imp_SetUnhandledExceptionFilter 00000001801d2080     kernel32:KERNEL32.dll
 0002:00000088       __imp_GetStartupInfoW      00000001801d2088     kernel32:KERNEL32.dll
 0002:00000090       __imp_IsProcessorFeaturePresent 00000001801d2090     kernel32:KERNEL32.dll
 0002:00000098       __imp_QueryPerformanceCounter 00000001801d2098     kernel32:KERNEL32.dll
 0002:000000a0       __imp_GetCurrentProcessId  00000001801d20a0     kernel32:KERNEL32.dll
 0002:000000a8       __imp_GetCurrentThreadId   00000001801d20a8     kernel32:KERNEL32.dll
 0002:000000b0       __imp_GetSystemTimeAsFileTime 00000001801d20b0     kernel32:KERNEL32.dll
 0002:000000b8       __imp_InterlockedPushEntrySList 00000001801d20b8     kernel32:KERNEL32.dll
 0002:000000c0       __imp_InterlockedFlushSList 00000001801d20c0     kernel32:KERNEL32.dll
 0002:000000c8       __imp_RtlUnwindEx          00000001801d20c8     kernel32:KERNEL32.dll
 0002:000000d0       __imp_SetLastError         00000001801d20d0     kernel32:KERNEL32.dll
 0002:000000d8       __imp_EnterCriticalSection 00000001801d20d8     kernel32:KERNEL32.dll
 0002:000000e0       __imp_LeaveCriticalSection 00000001801d20e0     kernel32:KERNEL32.dll
 0002:000000e8       __imp_DeleteCriticalSection 00000001801d20e8     kernel32:KERNEL32.dll
 0002:000000f0       __imp_InitializeCriticalSectionAndSpinCount 00000001801d20f0     kernel32:KERNEL32.dll
 0002:000000f8       __imp_TlsAlloc             00000001801d20f8     kernel32:KERNEL32.dll
 0002:00000100       __imp_TlsGetValue          00000001801d2100     kernel32:KERNEL32.dll
 0002:00000108       __imp_TlsSetValue          00000001801d2108     kernel32:KERNEL32.dll
 0002:00000110       __imp_TlsFree              00000001801d2110     kernel32:KERNEL32.dll
 0002:00000118       __imp_LoadLibraryExW       00000001801d2118     kernel32:KERNEL32.dll
 0002:00000120       __imp_EncodePointer        00000001801d2120     kernel32:KERNEL32.dll
 0002:00000128       __imp_RtlPcToFileHeader    00000001801d2128     kernel32:KERNEL32.dll
 0002:00000130       __imp_GetCurrentProcess    00000001801d2130     kernel32:KERNEL32.dll
 0002:00000138       __imp_ExitProcess          00000001801d2138     kernel32:KERNEL32.dll
 0002:00000140       __imp_TerminateProcess     00000001801d2140     kernel32:KERNEL32.dll
 0002:00000148       __imp_GetModuleHandleExW   00000001801d2148     kernel32:KERNEL32.dll
 0002:00000150       __imp_GetModuleFileNameW   00000001801d2150     kernel32:KERNEL32.dll
 0002:00000158       __imp_HeapAlloc            00000001801d2158     kernel32:KERNEL32.dll
 0002:00000160       __imp_HeapFree             00000001801d2160     kernel32:KERNEL32.dll
 0002:00000168       __imp_LCMapStringW         00000001801d2168     kernel32:KERNEL32.dll
 0002:00000170       __imp_GetStdHandle         00000001801d2170     kernel32:KERNEL32.dll
 0002:00000178       __imp_GetFileType          00000001801d2178     kernel32:KERNEL32.dll
 0002:00000180       __imp_FindClose            00000001801d2180     kernel32:KERNEL32.dll
 0002:00000188       __imp_FindFirstFileExW     00000001801d2188     kernel32:KERNEL32.dll
 0002:00000190       __imp_FindNextFileW        00000001801d2190     kernel32:KERNEL32.dll
 0002:00000198       __imp_IsValidCodePage      00000001801d2198     kernel32:KERNEL32.dll
 0002:000001a0       __imp_GetACP               00000001801d21a0     kernel32:KERNEL32.dll
 0002:000001a8       __imp_GetOEMCP             00000001801d21a8     kernel32:KERNEL32.dll
 0002:000001b0       __imp_GetCPInfo            00000001801d21b0     kernel32:KERNEL32.dll
 0002:000001b8       __imp_GetCommandLineA      00000001801d21b8     kernel32:KERNEL32.dll
 0002:000001c0       __imp_GetCommandLineW      00000001801d21c0     kernel32:KERNEL32.dll
 0002:000001c8       __imp_MultiByteToWideChar  00000001801d21c8     kernel32:KERNEL32.dll
 0002:000001d0       __imp_WideCharToMultiByte  00000001801d21d0     kernel32:KERNEL32.dll
 0002:000001d8       __imp_GetEnvironmentStringsW 00000001801d21d8     kernel32:KERNEL32.dll
 0002:000001e0       __imp_FreeEnvironmentStringsW 00000001801d21e0     kernel32:KERNEL32.dll
 0002:000001e8       __imp_GetProcessHeap       00000001801d21e8     kernel32:KERNEL32.dll
 0002:000001f0       __imp_FlushFileBuffers     00000001801d21f0     kernel32:KERNEL32.dll
 0002:000001f8       __imp_WriteFile            00000001801d21f8     kernel32:KERNEL32.dll
 0002:00000200       __imp_GetConsoleOutputCP   00000001801d2200     kernel32:KERNEL32.dll
 0002:00000208       __imp_GetConsoleMode       00000001801d2208     kernel32:KERNEL32.dll
 0002:00000210       __imp_SetStdHandle         00000001801d2210     kernel32:KERNEL32.dll
 0002:00000218       __imp_GetFileSizeEx        00000001801d2218     kernel32:KERNEL32.dll
 0002:00000220       __imp_SetFilePointerEx     00000001801d2220     kernel32:KERNEL32.dll
 0002:00000228       __imp_GetStringTypeW       00000001801d2228     kernel32:KERNEL32.dll
 0002:00000230       __imp_HeapSize             00000001801d2230     kernel32:KERNEL32.dll
 0002:00000238       __imp_HeapReAlloc          00000001801d2238     kernel32:KERNEL32.dll
 0002:00000240       __imp_CloseHandle          00000001801d2240     kernel32:KERNEL32.dll
 0002:00000248       __imp_CreateFileW          00000001801d2248     kernel32:KERNEL32.dll
 0002:00000250       __imp_WriteConsoleW        00000001801d2250     kernel32:KERNEL32.dll
 0002:00000258       \177KERNEL32_NULL_THUNK_DATA 00000001801d2258     kernel32:KERNEL32.dll
 0002:00000260       __guard_check_icall_fptr   00000001801d2260     LIBCMT:guard_support.obj
 0002:00000268       __guard_xfg_check_icall_fptr 00000001801d2268     LIBCMT:guard_support.obj
 0002:00000270       __guard_dispatch_icall_fptr 00000001801d2270     LIBCMT:guard_support.obj
 0002:00000278       __guard_xfg_dispatch_icall_fptr 00000001801d2278     LIBCMT:guard_support.obj
 0002:00000280       __guard_xfg_table_dispatch_icall_fptr 00000001801d2280     LIBCMT:guard_support.obj
 0002:00000288       __xc_a                     00000001801d2288     LIBCMT:initializers.obj
 0002:00001b40       __xc_z                     00000001801d3b40     LIBCMT:initializers.obj
 0002:00001b48       __xi_a                     00000001801d3b48     LIBCMT:initializers.obj
 0002:00001b50       __acrt_stdio_initializer   00000001801d3b50     libucrt:stdio_initializer.obj
 0002:00001b58       __acrt_tran_fma3_initializer 00000001801d3b58     libucrt:fma3_initializer.obj
 0002:00001b60       __acrt_multibyte_initializer 00000001801d3b60     libucrt:multibyte_initializer.obj
 0002:00001b68       __xi_z                     00000001801d3b68     LIBCMT:initializers.obj
 0002:00001b70       __xp_a                     00000001801d3b70     LIBCMT:initializers.obj
 0002:00001b78       __acrt_locale_terminator   00000001801d3b78     libucrt:locale_initializer.obj
 0002:00001b80       __dcrt_console_output_terminator 00000001801d3b80     libucrt:console_output_initializer.obj
 0002:00001b88       __acrt_stdio_terminator    00000001801d3b88     libucrt:stdio_initializer.obj
 0002:00001b90       __xp_z                     00000001801d3b90     LIBCMT:initializers.obj
 0002:00001b98       __xt_a                     00000001801d3b98     LIBCMT:initializers.obj
 0002:00001ba0       __xt_z                     00000001801d3ba0     LIBCMT:initializers.obj
 0002:00001bb0       ??_C@_08MDGMHCHN@PtrTable@ 00000001801d3bb0     CmPtrTable.obj
 0002:00001bbc       ??_C@_04GKJNKENE@void@     00000001801d3bbc     CmPtrTable.obj
 0002:00001bc8       ??_C@_07DFEBJDHE@mSingle@  00000001801d3bc8     CmPtrTable.obj
 0002:00001bd0       ??_C@_05NLHHBMOH@PxU16@    00000001801d3bd0     CmPtrTable.obj
 0002:00001bd8       ??_C@_06EPKHJPIM@mCount@   00000001801d3bd8     CmPtrTable.obj
 0002:00001be0       ??_C@_04DDKJGDCM@bool@     00000001801d3be0     CmPtrTable.obj
 0002:00001be8       ??_C@_0M@DAGELID@mOwnsMemory@ 00000001801d3be8     CmPtrTable.obj
 0002:00001bf8       ??_C@_0M@MMPOMMLP@mBufferUsed@ 00000001801d3bf8     CmPtrTable.obj
 0002:00001c04       ??_C@_05LMJPANIN@PxU32@    00000001801d3c04     CmPtrTable.obj
 0002:00001c10       ??_C@_09PMLNMEMN@mFreeSlot@ 00000001801d3c10     CmPtrTable.obj
 0002:00001c20       ??_7PxCollection@physx@@6B@ 00000001801d3c20     CmCollection.obj
 0002:00001ca0       ??_C@_00CNPNBAHC@@         00000001801d3ca0     CmCollection.obj
 0002:00001ca8       ??_7Collection@Cm@physx@@6B@ 00000001801d3ca8     CmCollection.obj
 0002:00001d30       ??_C@_0GE@GBACBMOC@PxCollection?3?3add?5called?5for?5an@ 00000001801d3d30     CmCollection.obj
 0002:00001da0       ??_C@_0FE@DHIALGFE@F?3?2Downloads?2repos?2PhysX?9104?42?9@ 00000001801d3da0     CmCollection.obj
 0002:00001e00       ??_C@_0EM@OMMGDOMK@PxCollection?3?3add?5called?5with?5a@ 00000001801d3e00     CmCollection.obj
 0002:00001e50       ??_C@_0EL@CBFFIHFG@PxCollection?3?3remove?5called?5for@ 00000001801d3e50     CmCollection.obj
 0002:00001ea0       ??_C@_0EP@DBNENNLL@PxCollection?3?3addId?5called?5for?5@ 00000001801d3ea0     CmCollection.obj
 0002:00001ef0       ??_C@_0FL@DACPFKDD@PxCollection?3?3addId?5called?5with@ 00000001801d3ef0     CmCollection.obj
 0002:00001f50       ??_C@_0EP@GMPAMDKI@PxCollection?3?3addId?5called?5with@ 00000001801d3f50     CmCollection.obj
 0002:00001fa0       ??_C@_0FO@DIHIGAFD@PxCollection?3?3removeId?5called?5w@ 00000001801d3fa0     CmCollection.obj
 0002:00002000       ??_C@_0FF@MENHIPMD@PxCollection?3?3removeId?5called?5w@ 00000001801d4000     CmCollection.obj
 0002:00002060       ??_C@_0FK@BAFICJEM@PxCollection?3?3find?5called?5with?5@ 00000001801d4060     CmCollection.obj
 0002:000020c0       ??_C@_0DF@CLGAFPLL@PxCollection?3?3add?$CIPxCollection?$CG@ 00000001801d40c0     CmCollection.obj
 0002:000020f8       ??_C@_0DN@DMJACFO@PxCollection?3?3add?$CIPxCollection?$CG@ 00000001801d40f8     CmCollection.obj
 0002:00002138       ??_C@_0DI@DICAIAPC@PxCollection?3?3remove?$CIPxCollecti@ 00000001801d4138     CmCollection.obj
 0002:00002170       ??_C@_0DG@LOILDLGN@PxCollection?3?3getObjects?5called@ 00000001801d4170     CmCollection.obj
 0002:000021a8       ??_C@_0DD@GMICJLDJ@PxCollection?3?3getObjects?5called@ 00000001801d41a8     CmCollection.obj
 0002:000021e0       ??_C@_0DC@GILGGBAI@PxCollection?3?3getIds?5called?5wit@ 00000001801d41e0     CmCollection.obj
 0002:00002218       ??_C@_0CP@LFEKADKN@PxCollection?3?3getIds?5called?5wit@ 00000001801d4218     CmCollection.obj
 0002:00002250       ??_C@_0FG@GCBFMCCP@F?3?2Downloads?2repos?2PhysX?9104?42?9@ 00000001801d4250     CmCollection.obj
 0002:000022a8       ??_C@_0BM@OIFKLHDN@?$DMallocation?5names?5disabled?$DO@ 00000001801d42a8     CmCollection.obj
 0002:000022c8       ??_7RadixSort@Cm@physx@@6B@ 00000001801d42c8     CmRadixSort.obj
 0002:000022d0       ??_7RadixSortBuffered@Cm@physx@@6B@ 00000001801d42d0     CmRadixSort.obj
 0002:000022e0       ??_C@_0FD@IABNMGNK@F?3?2Downloads?2repos?2PhysX?9104?42?9@ 00000001801d42e0     CmRadixSort.obj
 0002:00002340       __xmm@00000001000000010000000100000001 00000001801d4340     CmRadixSort.obj
 0002:00002350       __xmm@00000003000000020000000100000000 00000001801d4350     CmRadixSort.obj
 0002:00002360       __real@343bbd2e            00000001801d4360     CmVisualization.obj
 0002:00002364       __real@3d00adfd            00000001801d4364     CmVisualization.obj
 0002:00002368       __real@3d4ccccd            00000001801d4368     CmVisualization.obj
 0002:0000236c       __real@3d80adfd            00000001801d436c     CmVisualization.obj
 0002:00002370       __real@3e19999a            00000001801d4370     CmVisualization.obj
 0002:00002374       __real@3e490fdb            00000001801d4374     CmVisualization.obj
 0002:00002378       __real@3e800000            00000001801d4378     CmVisualization.obj
 0002:0000237c       __real@3e99999a            00000001801d437c     CmVisualization.obj
 0002:00002380       __real@3ea0d97c            00000001801d4380     CmVisualization.obj
 0002:00002384       __real@3eddb3d7            00000001801d4384     CmVisualization.obj
 0002:00002388       __real@3f000000            00000001801d4388     CmVisualization.obj
 0002:0000238c       __real@3f3504f3            00000001801d438c     CmVisualization.obj
 0002:00002390       __real@3f800000            00000001801d4390     CmVisualization.obj
 0002:00002394       __real@3fc00000            00000001801d4394     CmVisualization.obj
 0002:00002398       __real@3fddb3d7            00000001801d4398     CmVisualization.obj
 0002:0000239c       __real@40100000            00000001801d439c     CmVisualization.obj
 0002:000023a0       __real@40490fdb            00000001801d43a0     CmVisualization.obj
 0002:000023a4       __real@40c90fdb            00000001801d43a4     CmVisualization.obj
 0002:000023a8       __real@b3bbbd2e            00000001801d43a8     CmVisualization.obj
 0002:000023ac       __real@beddb3d7            00000001801d43ac     CmVisualization.obj
 0002:000023b0       __real@c0000000            00000001801d43b0     CmVisualization.obj
 0002:000023c0       __xmm@3f800000000000000000000000000000 00000001801d43c0     CmVisualization.obj
 0002:000023d0       __xmm@7fffffff7fffffff7fffffff7fffffff 00000001801d43d0     CmVisualization.obj
 0002:000023e0       __xmm@80000000800000008000000080000000 00000001801d43e0     CmVisualization.obj
 0002:000023f0       ??_C@_0BB@CPDDPFKD@GetUpdatedModule@ 00000001801d43f0     CmWindowsModuleUpdateLoader.obj
 0002:00002410       ??_C@_0GL@DBEHOFIA@F?3?2Downloads?2repos?2PhysX?9104?42?9@ 00000001801d4410     CmWindowsModuleUpdateLoader.obj
 0002:00002480       ??_C@_0CP@PGOIOJOO@?$CFs?3?$CFi?3?5loadLibrary?5error?5when?5l@ 00000001801d4480     CmWindowsModuleUpdateLoader.obj
 0002:000024b0       ??_C@_0BA@EGLNOO@PhysXFoundation@ 00000001801d44b0     CmWindowsDelayLoadHook.obj
 0002:000024c0       ??_C@_0M@ILKNCJKN@PhysXCommon@ 00000001801d44c0     CmWindowsDelayLoadHook.obj
 0002:000024f0       __real@3f7ff972            00000001801d44f0     GuBox.obj
 0002:00002500       __xmm@000000003a83126f3a83126f3a83126f 00000001801d4500     GuBox.obj
 0002:00002510       __xmm@00000000ba83126fba83126fba83126f 00000001801d4510     GuBox.obj
 0002:00002520       __xmm@3a83126f3a83126f3a83126f3a83126f 00000001801d4520     GuBox.obj
 0002:00002530       __xmm@ba83126fba83126fba83126fba83126f 00000001801d4530     GuBox.obj
 0002:00002560       ??_7RaycastCallback@PxBVH@physx@@6B@ 00000001801d4560     GuQuerySystem.obj
 0002:00002560       ??_7EntityReport@Gu@physx@@6B@ 00000001801d4560     GuSweepsHF.obj
 0002:00002560       ??_7OverlapReport@Gu@physx@@6B@ 00000001801d4560     GuCCTSweepTests.obj
 0002:00002560       ??_7RemapCallback@RTreeCooker@physx@@6B@ 00000001801d4560     GuCookingTriangleMesh.obj
 0002:00002560       ??_7OverlapCallback@PxBVH@physx@@6B@ 00000001801d4560     GuQuerySystem.obj
 0002:00002580       __real@3b03126f            00000001801d4580     GuCCTSweepTests.obj
 0002:00002584       __real@40000000            00000001801d4584     GuCCTSweepTests.obj
 0002:000025c0       ??_C@_0CD@CGJJEFHC@Gu?3?3overlap?$CI?$CJ?3?5pose0?5is?5not?5val@ 00000001801d45c0     GuGeometryQuery.obj
 0002:000025f0       ??_C@_0FL@GCOFAPOO@F?3?2Downloads?2repos?2PhysX?9104?42?9@ 00000001801d45f0     GuGeometryQuery.obj
 0002:00002650       ??_C@_0CD@IIPBNEOD@Gu?3?3overlap?$CI?$CJ?3?5pose1?5is?5not?5val@ 00000001801d4650     GuGeometryQuery.obj
 0002:00002678       ??_7SupportLocal@Gu@physx@@6B@ 00000001801d4678     GuGeometryQuery.obj
 0002:00002698       ??_C@_0CO@DGHGHPPJ@PxGeometryQuery?3?3sweep?$CI?$CJ?3?5pose0@ 00000001801d4698     GuGeometryQuery.obj
 0002:000026d0       ??_C@_0FK@EGEGKMII@F?3?2Downloads?2repos?2PhysX?9104?42?9@ 00000001801d46d0     GuGeometryQuery.obj
 0002:00002730       ??_C@_0CO@JIBOOOGI@PxGeometryQuery?3?3sweep?$CI?$CJ?3?5pose1@ 00000001801d4730     GuGeometryQuery.obj
 0002:00002760       ??_C@_0DA@JEEBDBEM@PxGeometryQuery?3?3sweep?$CI?$CJ?3?5unitD@ 00000001801d4760     GuGeometryQuery.obj
 0002:00002790       ??_C@_0DB@KCEKJBPE@PxGeometryQuery?3?3sweep?$CI?$CJ?3?5dista@ 00000001801d4790     GuGeometryQuery.obj
 0002:000027d0       ??_C@_0FM@HAJNNJNC@PxGeometryQuery?3?3sweep?$CI?$CJ?3?5sweep@ 00000001801d47d0     GuGeometryQuery.obj
 0002:00002830       ??_C@_0CB@JDDBKCNL@Provided?5geometry?50?5is?5not?5vali@ 00000001801d4830     GuGeometryQuery.obj
 0002:00002858       ??_C@_0CB@CKMKHJDD@Provided?5geometry?51?5is?5not?5vali@ 00000001801d4858     GuGeometryQuery.obj
 0002:00002880       ??_C@_0GL@GJKJELMB@PxGeometryQuery?3?3sweep?$CI?$CJ?3?5first@ 00000001801d4880     GuGeometryQuery.obj
 0002:000028f0       ??_C@_0DB@OMDGMOND@PxGeometryQuery?3?3raycast?$CI?$CJ?3?5ray@ 00000001801d48f0     GuGeometryQuery.obj
 0002:00002928       ??_C@_0DE@MGFNMBNA@PxGeometryQuery?3?3raycast?$CI?$CJ?3?5ray@ 00000001801d4928     GuGeometryQuery.obj
 0002:00002960       ??_C@_0CP@NHLDPNEB@PxGeometryQuery?3?3raycast?$CI?$CJ?3?5pos@ 00000001801d4960     GuGeometryQuery.obj
 0002:00002990       ??_C@_0DB@HPNPNEMP@PxGeometryQuery?3?3raycast?$CI?$CJ?3?5max@ 00000001801d4990     GuGeometryQuery.obj
 0002:000029c8       ??_C@_0DC@BLMIOBO@PxGeometryQuery?3?3raycast?$CI?$CJ?3?5max@ 00000001801d49c8     GuGeometryQuery.obj
 0002:00002a00       ??_C@_0DP@IPJGHFJE@PxGeometryQuery?3?3raycast?$CI?$CJ?3?5ray@ 00000001801d4a00     GuGeometryQuery.obj
 0002:00002a40       ??_C@_0DF@BMEFDPAL@PxGeometryQuery?3?3pointDistance?$CI@ 00000001801d4a40     GuGeometryQuery.obj
 0002:00002a80       ??_C@_0HD@CIHHMJFE@PxGeometryQuery?3?3pointDistance?$CI@ 00000001801d4a80     GuGeometryQuery.obj
 0002:00002af8       ??_C@_0DJ@FHLFMELL@PxGeometryQuery?3?3computeGeomBou@ 00000001801d4af8     GuGeometryQuery.obj
 0002:00002b38       ??_C@_0DG@IHHENNM@PxGeometryQuery?3?3getWorldBounds@ 00000001801d4b38     GuGeometryQuery.obj
 0002:00002b70       ??_C@_0DL@LECAKFBF@PxGeometryQuery?3?3computePenetra@ 00000001801d4b70     GuGeometryQuery.obj
 0002:00002bb0       ??_C@_0DL@BKEIDEIE@PxGeometryQuery?3?3computePenetra@ 00000001801d4bb0     GuGeometryQuery.obj
 0002:00002bf0       ??_7?$SupportLocalImpl@VBoxV@Gu@physx@@@Gu@physx@@6B@ 00000001801d4bf0     GuGeometryQuery.obj
 0002:00002c10       ??_7?$SupportLocalImpl@VConvexHullV@Gu@physx@@@Gu@physx@@6B@ 00000001801d4c10     GuGeometryQuery.obj
 0002:00002c30       ??_C@_0EO@NJLHEPPN@F?3?2Downloads?2repos?2PhysX?9104?42?9@ 00000001801d4c30     GuGeometryQuery.obj
 0002:00002c80       __real@30d1b7e9            00000001801d4c80     GuGeometryQuery.obj
 0002:00002c84       __real@322bcc77            00000001801d4c84     GuGeometryQuery.obj
 0002:00002c88       __real@358637bd            00000001801d4c88     GuGeometryQuery.obj
 0002:00002c8c       __real@38d1b717            00000001801d4c8c     GuGeometryQuery.obj
 0002:00002c90       __real@3a83126f            00000001801d4c90     GuGeometryQuery.obj
 0002:00002c94       __real@3ccccccd            00000001801d4c94     GuGeometryQuery.obj
 0002:00002c98       __real@3dcccccd            00000001801d4c98     GuGeometryQuery.obj
 0002:00002c9c       __real@49742400            00000001801d4c9c     GuGeometryQuery.obj
 0002:00002ca0       __real@7f7fffff            00000001801d4ca0     GuGeometryQuery.obj
 0002:00002ca4       __real@bf800000            00000001801d4ca4     GuGeometryQuery.obj
 0002:00002cb0       __xmm@0000000000000000000000003f800000 00000001801d4cb0     GuGeometryQuery.obj
 0002:00002cc0       __xmm@00000000000000003f80000000000000 00000001801d4cc0     GuGeometryQuery.obj
 0002:00002cd0       __xmm@00000000000000003f8000003f800000 00000001801d4cd0     GuGeometryQuery.obj
 0002:00002ce0       __xmm@000000003f8000000000000000000000 00000001801d4ce0     GuGeometryQuery.obj
 0002:00002cf0       __xmm@000000003f8000003f8000003f800000 00000001801d4cf0     GuGeometryQuery.obj
 0002:00002d00       __xmm@00000000ffffffffffffffffffffffff 00000001801d4d00     GuGeometryQuery.obj
 0002:00002d10       __xmm@3d4ccccd3d4ccccd3d4ccccd3d4ccccd 00000001801d4d10     GuGeometryQuery.obj
 0002:00002d20       __xmm@3e19999a3e19999a3e19999a3e19999a 00000001801d4d20     GuGeometryQuery.obj
 0002:00002d30       __xmm@3e4ccccd3e4ccccd3e4ccccd3e4ccccd 00000001801d4d30     GuGeometryQuery.obj
 0002:00002d40       __xmm@3e8000003e8000003e8000003e800000 00000001801d4d40     GuGeometryQuery.obj
 0002:00002d50       __xmm@3f7ef9db3f7ef9db3f7ef9db3f7ef9db 00000001801d4d50     GuGeometryQuery.obj
 0002:00002d60       __xmm@3f7ff2e53f7ff2e53f7ff2e53f7ff2e5 00000001801d4d60     GuGeometryQuery.obj
 0002:00002d70       __xmm@7f7fffff7f7fffff7f7fffff7f7fffff 00000001801d4d70     GuGeometryQuery.obj
 0002:00002d80       __xmm@bf000000bf000000bf000000bf000000 00000001801d4d80     GuGeometryQuery.obj
 0002:00002dc0       ??_C@_0EM@BDFDGBD@Inserting?5object?5failed?3?5Object@ 00000001801d4dc0     GuMeshFactory.obj
 0002:00002e30       ??_7CallbackRefit@RTree@Gu@physx@@6B@ 00000001801d4e30     GuTriangleMeshRTree.obj
 0002:00002e30       ??_7PxInsertionCallback@physx@@6B@ 00000001801d4e30     GuMeshFactory.obj
 0002:00002e30       ??_7CallbackRaycast@RTree@Gu@physx@@6B@ 00000001801d4e30     GuMidphaseRTree.obj
 0002:00002e40       ??_C@_0FI@OFAAPLDG@F?3?2Downloads?2repos?2PhysX?9104?42?9@ 00000001801d4e40     GuMeshFactory.obj
 0002:00002e98       ??_7PxCollisionMeshMappingData@physx@@6B@ 00000001801d4e98     GuMeshFactory.obj
 0002:00002ea8       ??_7MeshFactory@Gu@physx@@6B@ 00000001801d4ea8     GuMeshFactory.obj
 0002:00002eb0       ??_7MeshDataBase@Gu@physx@@6B@ 00000001801d4eb0     GuMeshFactory.obj
 0002:00002ec0       ??_C@_0FI@LNGPFLB@F?3?2Downloads?2repos?2PhysX?9104?42?9@ 00000001801d4ec0     GuMeshFactory.obj
 0002:00002f18       ??_7TriangleMeshData@Gu@physx@@6B@ 00000001801d4f18     GuMeshFactory.obj
 0002:00002f20       ??_7RTreeTriangleData@Gu@physx@@6B@ 00000001801d4f20     GuMeshFactory.obj
 0002:00002f28       ??_7BV4TriangleData@Gu@physx@@6B@ 00000001801d4f28     GuMeshFactory.obj
 0002:00002f30       ??_7SoftBodyCollisionData@Gu@physx@@6B@ 00000001801d4f30     GuMeshFactory.obj
 0002:00002f38       ??_7CollisionMeshMappingData@Gu@physx@@6B@ 00000001801d4f38     GuMeshFactory.obj
 0002:00002f48       ??_7SoftBodySimulationData@Gu@physx@@6B@ 00000001801d4f48     GuMeshFactory.obj
 0002:00002f50       ??_C@_0GP@NHELMDAL@Loading?5triangle?5mesh?5failed?3?5D@ 00000001801d4f50     GuMeshFactory.obj
 0002:00002fc0       ??_C@_0BP@CDOKDACA@RTree?5binary?5image?5load?5error?4@ 00000001801d4fc0     GuMeshFactory.obj
 0002:00002fe0       ??_C@_0BN@MJPNIELF@BV4?5binary?5image?5load?5error?4@ 00000001801d4fe0     GuMeshFactory.obj
 0002:00003000       ??_C@_0BO@JDPABAOF@BV32?5binary?5image?5load?5error?4@ 00000001801d5000     GuMeshFactory.obj
 0002:00003020       ??_C@_0EO@NANKEGIE@F?3?2Downloads?2repos?2PhysX?9104?42?9@ 00000001801d5020     GuMeshFactory.obj
 0002:00003070       __xmm@cdcdcdcdcdcdcdcdcdcdcdcdcdcdcdcd 00000001801d5070     GuMeshFactory.obj
 0002:00003080       __xmm@fe7fffff7e7fffff7e7fffff7e7fffff 00000001801d5080     GuMeshFactory.obj
 0002:000030b0       ??_C@_06EJKDJEDO@PxBase@   00000001801d50b0     GuMetaData.obj
 0002:000030b8       ??_C@_07GFCEJNGM@Valency@  00000001801d50b8     GuMetaData.obj
 0002:000030c0       ??_C@_07NHGKEEIN@mOffset@  00000001801d50c0     GuMetaData.obj
 0002:000030c8       ??_C@_0BB@BAGHBMNJ@BigConvexRawData@ 00000001801d50c8     GuMetaData.obj
 0002:000030e0       ??_C@_07PBDEJAAC@mSubdiv@  00000001801d50e0     GuMetaData.obj
 0002:000030e8       ??_C@_0L@HNPACPGH@mNbSamples@ 00000001801d50e8     GuMetaData.obj
 0002:000030f4       ??_C@_04NCKNBPPK@PxU8@     00000001801d50f4     GuMetaData.obj
 0002:00003100       ??_C@_08DEPEKJNI@mSamples@ 00000001801d5100     GuMetaData.obj
 0002:00003110       ??_C@_08IJDNJBMI@mNbVerts@ 00000001801d5110     GuMetaData.obj
 0002:00003120       ??_C@_0M@MMKMIJAF@mNbAdjVerts@ 00000001801d5120     GuMetaData.obj
 0002:00003130       ??_C@_0L@EOKMNILC@mValencies@ 00000001801d5130     GuMetaData.obj
 0002:00003140       ??_C@_0P@DLGEAMHJ@mAdjacentVerts@ 00000001801d5140     GuMetaData.obj
 0002:00003150       ??_C@_03NGLDENDA@SDF@      00000001801d5150     GuMetaData.obj
 0002:00003154       ??_C@_06KDGGGLIJ@PxVec3@   00000001801d5154     GuMetaData.obj
 0002:0000315c       ??_C@_06GIEBFILM@PxReal@   00000001801d515c     GuMetaData.obj
 0002:00003168       ??_C@_0O@PFOPBKAM@BigConvexData@ 00000001801d5168     GuMetaData.obj
 0002:00003178       ??_C@_05PLKALGFN@mData@    00000001801d5178     GuMetaData.obj
 0002:00003180       ??_C@_08PEMCLHEM@mVBuffer@ 00000001801d5180     GuMetaData.obj
 0002:00003190       ??_C@_09FBMAGD@Alignment@  00000001801d5190     GuMetaData.obj
 0002:000031a0       ??_C@_0BE@KFHIBEEA@InternalObjectsData@ 00000001801d51a0     GuMetaData.obj
 0002:000031b8       ??_C@_07NKGFFIBH@mRadius@  00000001801d51b8     GuMetaData.obj
 0002:000031c0       ??_C@_08EHFCACAE@mExtents@ 00000001801d51c0     GuMetaData.obj
 0002:000031d0       ??_C@_0BA@LFMGGCBK@HullPolygonData@ 00000001801d51d0     GuMetaData.obj
 0002:000031e0       ??_C@_06BOHHGLB@mPlane@    00000001801d51e0     GuMetaData.obj
 0002:000031e8       ??_C@_06EHMLHGLN@mVRef8@   00000001801d51e8     GuMetaData.obj
 0002:000031f0       ??_C@_09BAHHHINI@mMinIndex@ 00000001801d51f0     GuMetaData.obj
 0002:00003200       ??_C@_0P@GBLBPIPB@ConvexHullData@ 00000001801d5200     GuMetaData.obj
 0002:00003210       ??_C@_09JDCJAPKD@PxBounds3@ 00000001801d5210     GuMetaData.obj
 0002:0000321c       ??_C@_05NDNHIFA@mAABB@     00000001801d521c     GuMetaData.obj
 0002:00003228       ??_C@_0O@LNOGEMJI@mCenterOfMass@ 00000001801d5228     GuMetaData.obj
 0002:00003238       ??_C@_09CNMCBBKH@mPolygons@ 00000001801d5238     GuMetaData.obj
 0002:00003248       ??_C@_0BC@KKPDCFJC@mBigConvexRawData@ 00000001801d5248     GuMetaData.obj
 0002:00003260       ??_C@_08MPNAAJLD@mSdfData@ 00000001801d5260     GuMetaData.obj
 0002:00003270       ??_C@_08ELDMKGKH@mNbEdges@ 00000001801d5270     GuMetaData.obj
 0002:00003280       ??_C@_0BA@CGLOHBAC@mNbHullVertices@ 00000001801d5280     GuMetaData.obj
 0002:00003290       ??_C@_0M@HGFFLLDM@mNbPolygons@ 00000001801d5290     GuMetaData.obj
 0002:000032a0       ??_C@_09BHJEMDGO@mInternal@ 00000001801d52a0     GuMetaData.obj
 0002:000032b0       ??_C@_0L@GMFHOMKA@ConvexMesh@ 00000001801d52b0     GuMetaData.obj
 0002:000032c0       ??_C@_09ILEBDLJH@mHullData@ 00000001801d52c0     GuMetaData.obj
 0002:000032cc       ??_C@_03DKDIKGNC@mNb@      00000001801d52cc     GuMetaData.obj
 0002:000032d0       ??_C@_0P@ENLHFHMD@mBigConvexData@ 00000001801d52d0     GuMetaData.obj
 0002:000032e0       ??_C@_05ILALLCHK@mMass@    00000001801d52e0     GuMetaData.obj
 0002:000032e8       ??_C@_07DBPDADGB@PxMat33@  00000001801d52e8     GuMetaData.obj
 0002:000032f0       ??_C@_08FNBHNDBI@mInertia@ 00000001801d52f0     GuMetaData.obj
 0002:00003300       ??_C@_0O@FCKNKLMJ@GuMeshFactory@ 00000001801d5300     GuMetaData.obj
 0002:00003310       ??_C@_0N@EGBCLMAK@mMeshFactory@ 00000001801d5310     GuMetaData.obj
 0002:00003320       ??_C@_0BE@CJJAMAMK@PxHeightFieldSample@ 00000001801d5320     GuMetaData.obj
 0002:00003334       ??_C@_05MBLIPEMA@PxI16@    00000001801d5334     GuMetaData.obj
 0002:0000333c       ??_C@_06LNLHEAAG@height@   00000001801d533c     GuMetaData.obj
 0002:00003348       ??_C@_0N@HHDGHJN@PxBitAndByte@ 00000001801d5348     GuMetaData.obj
 0002:00003358       ??_C@_0P@MBBMLBO@materialIndex0@ 00000001801d5358     GuMetaData.obj
 0002:00003368       ??_C@_0P@BFAKPKFP@materialIndex1@ 00000001801d5368     GuMetaData.obj
 0002:00003378       ??_C@_0BD@EBLPJEOE@PxHeightFieldFlags@ 00000001801d5378     GuMetaData.obj
 0002:00003390       ??_C@_0BK@FNNCFFCN@PxHeightFieldFormat?3?3Enum@ 00000001801d5390     GuMetaData.obj
 0002:000033b0       ??_C@_0BA@CLNFMAAA@HeightFieldData@ 00000001801d53b0     GuMetaData.obj
 0002:000033c0       ??_C@_04IMCGAIPI@rows@     00000001801d53c0     GuMetaData.obj
 0002:000033c8       ??_C@_07HIFEPIJN@columns@  00000001801d53c8     GuMetaData.obj
 0002:000033d0       ??_C@_08MOAGOABI@rowLimit@ 00000001801d53d0     GuMetaData.obj
 0002:000033e0       ??_C@_08BAGEHOBO@colLimit@ 00000001801d53e0     GuMetaData.obj
 0002:000033f0       ??_C@_09LKDBLADF@nbColumns@ 00000001801d53f0     GuMetaData.obj
 0002:00003400       ??_C@_07ODIFGGLK@samples@  00000001801d5400     GuMetaData.obj
 0002:00003408       ??_C@_0BE@POHEGOJG@convexEdgeThreshold@ 00000001801d5408     GuMetaData.obj
 0002:0000341c       ??_C@_05GECEPKB@flags@     00000001801d541c     GuMetaData.obj
 0002:00003424       ??_C@_06DLEPGFEF@format@   00000001801d5424     GuMetaData.obj
 0002:00003430       ??_C@_0BF@MOGDNMPL@PxMaterialTableIndex@ 00000001801d5430     GuMetaData.obj
 0002:00003448       ??_C@_0M@JMJICJJO@HeightField@ 00000001801d5448     GuMetaData.obj
 0002:00003458       ??_C@_0O@ENGHMLJP@mSampleStride@ 00000001801d5458     GuMetaData.obj
 0002:00003468       ??_C@_0L@EBEEMFFB@mMinHeight@ 00000001801d5468     GuMetaData.obj
 0002:00003478       ??_C@_0L@EAEIFPOF@mMaxHeight@ 00000001801d5478     GuMetaData.obj
 0002:00003488       ??_C@_0N@FEFJOKKE@mModifyCount@ 00000001801d5488     GuMetaData.obj
 0002:00003498       ??_C@_09PHDKHCK@RTreePage@ 00000001801d5498     GuMetaData.obj
 0002:000034a4       ??_C@_04LLPOBGED@minx@     00000001801d54a4     GuMetaData.obj
 0002:000034ac       ??_C@_04KCOFCHAC@miny@     00000001801d54ac     GuMetaData.obj
 0002:000034b4       ??_C@_04IJMIHEMB@minz@     00000001801d54b4     GuMetaData.obj
 0002:000034bc       ??_C@_04GGOBOBGO@maxx@     00000001801d54bc     GuMetaData.obj
 0002:000034c4       ??_C@_04HPPKNACP@maxy@     00000001801d54c4     GuMetaData.obj
 0002:000034cc       ??_C@_04FENHIDOM@maxz@     00000001801d54cc     GuMetaData.obj
 0002:000034d4       ??_C@_04HHDFEJON@ptrs@     00000001801d54d4     GuMetaData.obj
 0002:000034dc       ??_C@_05FFEIGAJF@RTree@    00000001801d54dc     GuMetaData.obj
 0002:000034e4       ??_C@_06OMCHPNEO@PxVec4@   00000001801d54e4     GuMetaData.obj
 0002:000034f0       ??_C@_0L@NBIFEFLN@mBoundsMin@ 00000001801d54f0     GuMetaData.obj
 0002:00003500       ??_C@_0L@MDAOKBNC@mBoundsMax@ 00000001801d5500     GuMetaData.obj
 0002:00003510       ??_C@_0N@NJEHLCOF@mInvDiagonal@ 00000001801d5510     GuMetaData.obj
 0002:00003520       ??_C@_0BA@BEFIGPFG@mDiagonalScaler@ 00000001801d5520     GuMetaData.obj
 0002:00003530       ??_C@_09DICGGKGO@mPageSize@ 00000001801d5530     GuMetaData.obj
 0002:00003540       ??_C@_0O@BOFFCNOL@mNumRootPages@ 00000001801d5540     GuMetaData.obj
 0002:00003550       ??_C@_0L@JKLGBKAE@mNumLevels@ 00000001801d5550     GuMetaData.obj
 0002:00003560       ??_C@_0M@PHDOHJGK@mTotalNodes@ 00000001801d5560     GuMetaData.obj
 0002:00003570       ??_C@_0M@GDGHALAO@mTotalPages@ 00000001801d5570     GuMetaData.obj
 0002:0000357c       ??_C@_06MHCBBJGP@mFlags@   00000001801d557c     GuMetaData.obj
 0002:00003584       ??_C@_06MMNBLHOK@mPages@   00000001801d5584     GuMetaData.obj
 0002:00003590       ??_C@_0P@JNLGHJNH@SourceMeshBase@ 00000001801d5590     GuMetaData.obj
 0002:000035a0       ??_C@_06JFCLJMNN@mVerts@   00000001801d55a0     GuMetaData.obj
 0002:000035a8       ??_C@_05GNIIDDHH@mType@    00000001801d55a8     GuMetaData.obj
 0002:000035b0       ??_C@_06DHAAKLFK@mRemap@   00000001801d55b0     GuMetaData.obj
 0002:000035b8       ??_C@_0L@LEOGNOEC@SourceMesh@ 00000001801d55b8     GuMetaData.obj
 0002:000035c8       ??_C@_07MPIKOOAP@mNbTris@  00000001801d55c8     GuMetaData.obj
 0002:000035d0       ??_C@_0N@FBMOMEHF@mTriangles32@ 00000001801d55d0     GuMetaData.obj
 0002:000035e0       ??_C@_0N@DGCGNFBP@mTriangles16@ 00000001801d55e0     GuMetaData.obj
 0002:000035f0       ??_C@_0O@NLNHFNO@QuantizedAABB@ 00000001801d55f0     GuMetaData.obj
 0002:00003600       ??_C@_0BC@OOGBEMHH@mData?$FL0?$FN?4mExtents@ 00000001801d5600     GuMetaData.obj
 0002:00003618       ??_C@_0BB@OCEDKIEF@mData?$FL0?$FN?4mCenter@ 00000001801d5618     GuMetaData.obj
 0002:00003630       ??_C@_0BC@HFMEAABI@mData?$FL1?$FN?4mExtents@ 00000001801d5630     GuMetaData.obj
 0002:00003648       ??_C@_0BB@CDMNHHIF@mData?$FL1?$FN?4mCenter@ 00000001801d5648     GuMetaData.obj
 0002:00003660       ??_C@_0BC@CFKNCOI@mData?$FL2?$FN?4mExtents@ 00000001801d5660     GuMetaData.obj
 0002:00003678       ??_C@_0BB@LKCPBBIE@mData?$FL2?$FN?4mCenter@ 00000001801d5678     GuMetaData.obj
 0002:00003690       ??_C@_0O@MJJKKPFN@BVDataPackedQ@ 00000001801d5690     GuMetaData.obj
 0002:000036a0       ??_C@_0O@JFMLAIPJ@CenterExtents@ 00000001801d56a0     GuMetaData.obj
 0002:000036b0       ??_C@_07GNKDIIKJ@mCenter@  00000001801d56b0     GuMetaData.obj
 0002:000036b8       ??_C@_0P@KBMJDPLO@BVDataPackedNQ@ 00000001801d56b8     GuMetaData.obj
 0002:000036c8       ??_C@_0M@PNCEBOG@LocalBounds@ 00000001801d56c8     GuMetaData.obj
 0002:000036d4       ??_C@_05KNFBNCOH@float@    00000001801d56d4     GuMetaData.obj
 0002:000036e0       ??_C@_0BC@LADJKHPL@mExtentsMagnitude@ 00000001801d56e0     GuMetaData.obj
 0002:000036f8       ??_C@_07HELIOLAF@BV4Tree@  00000001801d56f8     GuMetaData.obj
 0002:00003700       ??_C@_0P@EMMDNPMH@mMeshInterface@ 00000001801d5700     GuMetaData.obj
 0002:00003710       ??_C@_0N@DCKMHLCL@mLocalBounds@ 00000001801d5710     GuMetaData.obj
 0002:00003720       ??_C@_08EEJOMIJL@mNbNodes@ 00000001801d5720     GuMetaData.obj
 0002:0000372c       ??_C@_06FIIIMFIO@mNodes@   00000001801d572c     GuMetaData.obj
 0002:00003738       ??_C@_09FGKNPI@mInitData@  00000001801d5738     GuMetaData.obj
 0002:00003748       ??_C@_0BC@CLDEHKCO@mCenterOrMinCoeff@ 00000001801d5748     GuMetaData.obj
 0002:00003760       ??_C@_0BD@LAOLBNJ@mExtentsOrMaxCoeff@ 00000001801d5760     GuMetaData.obj
 0002:00003778       ??_C@_0P@JEECKKBL@mUserAllocated@ 00000001801d5778     GuMetaData.obj
 0002:00003788       ??_C@_0L@GLIMNECG@mQuantized@ 00000001801d5788     GuMetaData.obj
 0002:00003798       ??_C@_0L@CCOJDAID@mIsEdgeSet@ 00000001801d5798     GuMetaData.obj
 0002:000037a8       ??_C@_08BNDBAGDH@mPadding@ 00000001801d57a8     GuMetaData.obj
 0002:000037b8       ??_C@_0N@OJNNNLIB@TriangleMesh@ 00000001801d57b8     GuMetaData.obj
 0002:000037c8       ??_C@_0M@OGEDMEAL@mNbVertices@ 00000001801d57c8     GuMetaData.obj
 0002:000037d8       ??_C@_0N@MGGDNHNI@mNbTriangles@ 00000001801d57d8     GuMetaData.obj
 0002:000037e8       ??_C@_09LNNEGOJA@mVertices@ 00000001801d57e8     GuMetaData.obj
 0002:000037f8       ??_C@_0L@KBOFAKLO@mTriangles@ 00000001801d57f8     GuMetaData.obj
 0002:00003808       ??_C@_0P@MHDFIHLD@mExtraTrigData@ 00000001801d5808     GuMetaData.obj
 0002:00003818       ??_C@_0N@MGIKKCI@mGeomEpsilon@ 00000001801d5818     GuMetaData.obj
 0002:00003828       ??_C@_0BB@IFLOOCNA@mMaterialIndices@ 00000001801d5828     GuMetaData.obj
 0002:00003840       ??_C@_0L@OPJMBFMI@mFaceRemap@ 00000001801d5840     GuMetaData.obj
 0002:00003850       ??_C@_0N@BIOECAPM@mAdjacencies@ 00000001801d5850     GuMetaData.obj
 0002:00003860       ??_C@_09CICJHLPI@mEdgeList@ 00000001801d5860     GuMetaData.obj
 0002:00003870       ??_C@_0BD@IPKCNNIK@mLocalCenterOfMass@ 00000001801d5870     GuMetaData.obj
 0002:00003888       ??_C@_0BA@OCOIGPII@mGRB_triIndices@ 00000001801d5888     GuMetaData.obj
 0002:00003898       ??_C@_0BE@JPINNDAH@mGRB_triAdjacencies@ 00000001801d5898     GuMetaData.obj
 0002:000038b0       ??_C@_0P@EDFJJHEF@mGRB_faceRemap@ 00000001801d58b0     GuMetaData.obj
 0002:000038c0       ??_C@_0BG@EEALPPCP@mGRB_faceRemapInverse@ 00000001801d58c0     GuMetaData.obj
 0002:000038d8       ??_C@_0O@CKMBAIFN@mGRB_BV32Tree@ 00000001801d58d8     GuMetaData.obj
 0002:000038e8       ??_C@_0BE@MGIOIICI@mSdfData?4mMeshLower@ 00000001801d58e8     GuMetaData.obj
 0002:00003900       ??_C@_0BC@NNEDELGI@mSdfData?4mSpacing@ 00000001801d5900     GuMetaData.obj
 0002:00003918       ??_C@_0BB@OHOFDAIL@mSdfData?4mDims?4x@ 00000001801d5918     GuMetaData.obj
 0002:00003930       ??_C@_0BB@POPOABMK@mSdfData?4mDims?4y@ 00000001801d5930     GuMetaData.obj
 0002:00003948       ??_C@_0BB@NFNDFCAJ@mSdfData?4mDims?4z@ 00000001801d5948     GuMetaData.obj
 0002:00003960       ??_C@_0BC@GMPBGGPI@mSdfData?4mNumSdfs@ 00000001801d5960     GuMetaData.obj
 0002:00003978       ??_C@_0O@BCEBBLNE@mSdfData?4mSdf@ 00000001801d5978     GuMetaData.obj
 0002:00003988       ??_C@_0BG@HMHEFHIE@mSdfData?4mSubgridSize@ 00000001801d5988     GuMetaData.obj
 0002:000039a0       ??_C@_0BI@OFJBKPGB@mSdfData?4mNumStartSlots@ 00000001801d59a0     GuMetaData.obj
 0002:000039b8       ??_C@_0BM@MGEPBEON@mSdfData?4mSubgridStartSlots@ 00000001801d59b8     GuMetaData.obj
 0002:000039d8       ??_C@_0BJ@PKKGJLNM@mSdfData?4mNumSubgridSdfs@ 00000001801d59d8     GuMetaData.obj
 0002:000039f8       ??_C@_0BF@HLMPGIBH@mSdfData?4mSubgridSdf@ 00000001801d59f8     GuMetaData.obj
 0002:00003a10       ??_C@_0CF@GMJNHGOK@mSdfData?4mSdfSubgrids3DTexBlock@ 00000001801d5a10     GuMetaData.obj
 0002:00003a38       ??_C@_0CF@HFIGEHKL@mSdfData?4mSdfSubgrids3DTexBlock@ 00000001801d5a38     GuMetaData.obj
 0002:00003a60       ??_C@_0CF@FOKLBEGI@mSdfData?4mSdfSubgrids3DTexBlock@ 00000001801d5a60     GuMetaData.obj
 0002:00003a88       ??_C@_0BO@EIPCIOJH@mSdfData?4mSubgridsMinSdfValue@ 00000001801d5a88     GuMetaData.obj
 0002:00003aa8       ??_C@_0BO@NIIBJOHN@mSdfData?4mSubgridsMaxSdfValue@ 00000001801d5aa8     GuMetaData.obj
 0002:00003ac8       ??_C@_0BO@GKGODKFG@mSdfData?4mBytesPerSparsePixel@ 00000001801d5ac8     GuMetaData.obj
 0002:00003ae8       ??_C@_0BJ@LEBGJKBE@mAccumulatedTrianglesRef@ 00000001801d5ae8     GuMetaData.obj
 0002:00003b08       ??_C@_0BF@OJMCNCDP@mTrianglesReferences@ 00000001801d5b08     GuMetaData.obj
 0002:00003b20       ??_C@_0BH@LDGPOFA@mNbTrianglesReferences@ 00000001801d5b20     GuMetaData.obj
 0002:00003b38       ??_C@_0BC@IFGECKF@RTreeTriangleMesh@ 00000001801d5b38     GuMetaData.obj
 0002:00003b4c       ??_C@_06JDIHDDGN@mRTree@   00000001801d5b4c     GuMetaData.obj
 0002:00003b58       ??_C@_0BA@LNNFPOKA@BV4TriangleMesh@ 00000001801d5b58     GuMetaData.obj
 0002:00003b68       ??_C@_08FKLPEGDB@mBV4Tree@ 00000001801d5b68     GuMetaData.obj
 0002:00003ba0       ??_7?$SupportLocalImpl@VConvexHullNoScaleV@Gu@physx@@@Gu@physx@@6B@ 00000001801d5ba0     GuMTD.obj
 0002:00003bc0       ?absMask@?1??FAbs@aos@physx@@YA?AT__m128@@T4@@Z@4QBIB 00000001801d5bc0     GuMTD.obj
 0002:00003bd0       ??_7GjkConvex@Gu@physx@@6B@ 00000001801d5bd0     GuMTD.obj
 0002:00003c00       ??_7?$LocalConvex@VCapsuleV@Gu@physx@@@Gu@physx@@6B@ 00000001801d5c00     GuMTD.obj
 0002:00003c30       ??_7?$LocalConvex@VConvexHullV@Gu@physx@@@Gu@physx@@6B@ 00000001801d5c30     GuMTD.obj
 0002:00003c60       __real@2edbe6ff            00000001801d5c60     GuMTD.obj
 0002:00003c64       __real@34000000            00000001801d5c64     GuMTD.obj
 0002:00003c68       __real@ff7fffff            00000001801d5c68     GuMTD.obj
 0002:00003c70       __xmm@34000000340000003400000034000000 00000001801d5c70     GuMTD.obj
 0002:00003c80       __xmm@358637bd358637bd358637bd358637bd 00000001801d5c80     GuMTD.obj
 0002:00003c90       __xmm@3dcccccd3dcccccd3dcccccd3dcccccd 00000001801d5c90     GuMTD.obj
 0002:00003ca0       __xmm@3f7ff1413f7ff1413f7ff1413f7ff141 00000001801d5ca0     GuMTD.obj
 0002:00003cb0       __xmm@3f8000003f8000003f8000003f800000 00000001801d5cb0     GuMTD.obj
 0002:00003cc0       ??_7?$RelativeConvex@VBoxV@Gu@physx@@@Gu@physx@@6B@ 00000001801d5cc0     GuOverlapTests.obj
 0002:00003d10       ??_7?$RelativeConvex@VConvexHullV@Gu@physx@@@Gu@physx@@6B@ 00000001801d5d10     GuOverlapTests.obj
 0002:00003d40       ??_C@_0EC@MLIJOGHA@Height?5Field?5Overlap?5test?5calle@ 00000001801d5d40     GuOverlapTests.obj
 0002:00003d90       ??_C@_0FJ@LCEKEDNM@F?3?2Downloads?2repos?2PhysX?9104?42?9@ 00000001801d5d90     GuOverlapTests.obj
 0002:00003df0       ??_C@_0EC@GJLDADPE@Height?5Field?5Raycast?5test?5calle@ 00000001801d5df0     GuRaycastTests.obj
 0002:00003e40       ??_C@_0FJ@EBIHDEHG@F?3?2Downloads?2repos?2PhysX?9104?42?9@ 00000001801d5e40     GuRaycastTests.obj
 0002:00003ed0       __real@1e3ce508            00000001801d5ed0     GuRaycastTests.obj
 0002:00003ed4       __real@28800000            00000001801d5ed4     GuRaycastTests.obj
 0002:00003ed8       __real@33d6bf95            00000001801d5ed8     GuRaycastTests.obj
 0002:00003edc       __real@3727c5ac            00000001801d5edc     GuRaycastTests.obj
 0002:00003ee0       __real@3f0147ae            00000001801d5ee0     GuRaycastTests.obj
 0002:00003ee4       __real@3f7ffffe            00000001801d5ee4     GuRaycastTests.obj
 0002:00003ee8       __real@3f800347            00000001801d5ee8     GuRaycastTests.obj
 0002:00003eec       __real@41200000            00000001801d5eec     GuRaycastTests.obj
 0002:00003ef0       __real@80000000            00000001801d5ef0     GuRaycastTests.obj
 0002:00003ef4       __real@b3d6bf95            00000001801d5ef4     GuRaycastTests.obj
 0002:00003ef8       __real@b8d1b717            00000001801d5ef8     GuRaycastTests.obj
 0002:00003efc       __real@c1200000            00000001801d5efc     GuRaycastTests.obj
 0002:00003f30       ??_7?$MeshHitCallback@UPxGeomRaycastHit@physx@@@Gu@physx@@6B@ 00000001801d5f30     GuSweepMTD.obj
 0002:00003f40       ??_7MeshMTDGenerationCallback@@6B@ 00000001801d5f40     GuSweepMTD.obj
 0002:00003f50       ??_7MidPhaseQueryLocalReport@@6B@ 00000001801d5f50     GuSweepMTD.obj
 0002:00003f60       __real@3f8147ae            00000001801d5f60     GuSweepMTD.obj
 0002:00003f64       __real@3f933333            00000001801d5f64     GuSweepMTD.obj
 0002:00003f90       __real@3c23d70a            00000001801d5f90     GuSweepSharedTests.obj
 0002:00003f94       __real@42c80000            00000001801d5f94     GuSweepSharedTests.obj
 0002:00003fa0       __xmm@ffffffffffffffffffffffffffffffff 00000001801d5fa0     GuSweepSharedTests.obj
 0002:00003fd0       ??_C@_0EA@GNDJNJGB@Height?5Field?5Sweep?5test?5called?5@ 00000001801d5fd0     GuSweepTests.obj
 0002:00004010       ??_C@_0FH@EFLCGANA@F?3?2Downloads?2repos?2PhysX?9104?42?9@ 00000001801d6010     GuSweepTests.obj
 0002:00004068       ??_7?$LocalConvex@VBoxV@Gu@physx@@@Gu@physx@@6B@ 00000001801d6068     GuSweepTests.obj
 0002:00004098       ??_7?$LocalConvex@VTriangleV@Gu@physx@@@Gu@physx@@6B@ 00000001801d6098     GuSweepTests.obj
 0002:000040d0       __xmm@00000002000000020000000200000002 00000001801d60d0     GuSweepTests.obj
 0002:000040e0       __xmm@3eaaaa9f3eaaaa9f3eaaaa9f3eaaaa9f 00000001801d60e0     GuSweepTests.obj
 0002:00004198       ??_7PxRunnable@physx@@6B@  00000001801d6198     GuSDF.obj
 0002:000041b0       ??_C@_0FA@DGNPPAHP@F?3?2Downloads?2repos?2PhysX?9104?42?9@ 00000001801d61b0     GuSDF.obj
 0002:00004200       ??_7?$PxThreadT@V?$PxReflectionAllocator@VPxThreadImpl@physx@@@physx@@@physx@@6B@ 00000001801d6200     GuSDF.obj
 0002:00004210       ??_C@_06FJHNOCKE@thread@   00000001801d6210     GuSDF.obj
 0002:00004220       ??_C@_0EP@COGCCFOC@F?3?2Downloads?2repos?2PhysX?9104?42?9@ 00000001801d6220     GuSDF.obj
 0002:00004270       __real@37800080            00000001801d6270     GuSDF.obj
 0002:00004274       __real@3b808081            00000001801d6274     GuSDF.obj
 0002:00004278       __real@3eaaaaab            00000001801d6278     GuSDF.obj
 0002:0000427c       __real@3f400000            00000001801d627c     GuSDF.obj
 0002:00004280       __real@3f7d70a4            00000001801d6280     GuSDF.obj
 0002:00004284       __real@4996b438            00000001801d6284     GuSDF.obj
 0002:00004288       __real@7e7fffff            00000001801d6288     GuSDF.obj
 0002:0000428c       __real@bf000000            00000001801d628c     GuSDF.obj
 0002:00004290       __real@fe7fffff            00000001801d6290     GuSDF.obj
 0002:000042a0       __xmm@00000001000000000000000000000000 00000001801d62a0     GuSDF.obj
 0002:000042b0       __xmm@80000000800000000000000000000000 00000001801d62b0     GuSDF.obj
 0002:000042c0       __real@437f0000            00000001801d62c0     GuCookingSDF.obj
 0002:000042c4       __real@477fff00            00000001801d62c4     GuCookingSDF.obj
 0002:000042f0       ??_7?$RelativeConvex@UCustomConvexV@@@Gu@physx@@6B@ 00000001801d62f0     GuGjkQuery.obj
 0002:00004320       ??_7?$LocalConvex@UCustomConvexV@@@Gu@physx@@6B@ 00000001801d6320     GuGjkQuery.obj
 0002:00004350       ??_7?$LocalConvex@UPointConvexV@@@Gu@physx@@6B@ 00000001801d6350     GuGjkQuery.obj
 0002:00004380       __xmm@3f0000003f0000003f0000003f000000 00000001801d6380     GuGjkQuery.obj
 0002:000043b0       __real@3da2f983            00000001801d63b0     GuWindingNumber.obj
 0002:000043b4       __real@3e22f983            00000001801d63b4     GuWindingNumber.obj
 0002:000043b8       __real@3f99999a            00000001801d63b8     GuWindingNumber.obj
 0002:00004420       __real@3c343958            00000001801d6420     GuCCDSweepConvexMesh.obj
 0002:00004424       __real@3ca3d70a            00000001801d6424     GuCCDSweepConvexMesh.obj
 0002:00004428       __real@3f0ccccd            00000001801d6428     GuCCDSweepConvexMesh.obj
 0002:0000442c       __real@3f8ccccd            00000001801d642c     GuCCDSweepConvexMesh.obj
 0002:00004430       __real@b58637bd            00000001801d6430     GuCCDSweepConvexMesh.obj
 0002:00004460       ??_7?$RelativeConvex@VCapsuleV@Gu@physx@@@Gu@physx@@6B@ 00000001801d6460     GuCCDSweepPrimitives.obj
 0002:00004490       ??_7?$RelativeConvex@VTriangleV@Gu@physx@@@Gu@physx@@6B@ 00000001801d6490     GuCCDSweepPrimitives.obj
 0002:000044c0       __real@3ba3d70a            00000001801d64c0     GuCCDSweepPrimitives.obj
 0002:000044c4       __real@501502f9            00000001801d64c4     GuCCDSweepPrimitives.obj
 0002:000044f0       ??_C@_0FP@BHNCEEAG@F?3?2Downloads?2repos?2PhysX?9104?42?9@ 00000001801d64f0     GuAdjacencies.obj
 0002:00004550       ??_C@_0DA@FMEHLBKI@Adjacencies?3?3UpdateLink?3?5invali@ 00000001801d6550     GuAdjacencies.obj
 0002:00004580       ??_C@_0EA@CPHOACLK@Adjacencies?3?3CreateDatabase?3?5ca@ 00000001801d6580     GuAdjacencies.obj
 0002:000045c0       ??_C@_0FM@GOHLFMAL@F?3?2Downloads?2repos?2PhysX?9104?42?9@ 00000001801d65c0     GuEdgeList.obj
 0002:00004620       ??_C@_0CO@GBNJFPN@EdgeList?3?3CreateFacesToEdges?3?5N@ 00000001801d6620     GuEdgeList.obj
 0002:00004650       ??_C@_0CO@EHJBBMNK@EdgeList?3?3ComputeActiveEdges?3?5N@ 00000001801d6650     GuEdgeList.obj
 0002:00004680       ??_C@_0DI@GBHLFOFP@ActiveEdges?3?3ComputeConvexEdges@ 00000001801d6680     GuEdgeList.obj
 0002:000046b8       ??_C@_0DM@JOGBLHDI@ActiveEdges?3?3ComputeConvexEdges@ 00000001801d66b8     GuEdgeList.obj
 0002:00004700       ??_C@_0ED@FEMJKPEL@ActiveEdges?3?3ComputeConvexEdges@ 00000001801d6700     GuEdgeList.obj
 0002:00004750       ??_C@_0EB@BFDPMFCD@ActiveEdges?3?3ComputeConvexEdges@ 00000001801d6750     GuEdgeList.obj
 0002:00004794       __real@bf7fbe77            00000001801d6794     GuEdgeList.obj
 0002:00004798       ??_7Quantizer@Gu@physx@@6B@ 00000001801d6798     GuQuantizer.obj
 0002:000047c0       ??_7QuantizerImpl@@6B@     00000001801d67c0     GuQuantizer.obj
 0002:000047f0       ??_C@_0FN@FOFBNHDG@F?3?2Downloads?2repos?2PhysX?9104?42?9@ 00000001801d67f0     GuQuantizer.obj
 0002:00004850       __real@3f0020c5            00000001801d6850     GuQuantizer.obj
 0002:00004854       __real@3f8020c5            00000001801d6854     GuQuantizer.obj
 0002:00004860       ??_C@_0FP@DCIJGJFC@F?3?2Downloads?2repos?2PhysX?9104?42?9@ 00000001801d6860     GuMeshCleaner.obj
 0002:000048c0       ??_C@_0GB@GKCMIEAJ@F?3?2Downloads?2repos?2PhysX?9104?42?9@ 00000001801d68c0     GuVertexReducer.obj
 0002:00004a20       __real@3f7fbe77            00000001801d6a20     GuContactBoxBox.obj
 0002:00004a50       __real@3f7ff2e5            00000001801d6a50     GuContactCapsuleCapsule.obj
 0002:00004a54       __real@40800000            00000001801d6a54     GuContactCapsuleCapsule.obj
 0002:00004ae0       __real@358637be            00000001801d6ae0     GuContactCapsuleMesh.obj
 0002:00004ae4       __real@ba83126f            00000001801d6ae4     GuContactCapsuleMesh.obj
 0002:00004b40       ??_7ConvexMeshContactGenerationCallback@@6B@ 00000001801d6b40     GuContactConvexMesh.obj
 0002:00004bc0       __real@3ec90fdb            00000001801d6bc0     GuContactPolygonPolygon.obj
 0002:00004bc4       __real@3f490fdb            00000001801d6bc4     GuContactPolygonPolygon.obj
 0002:00004bc8       __real@3f96cbe4            00000001801d6bc8     GuContactPolygonPolygon.obj
 0002:00004bcc       __real@3fc90fdb            00000001801d6bcc     GuContactPolygonPolygon.obj
 0002:00004bd0       __real@3ffb53d2            00000001801d6bd0     GuContactPolygonPolygon.obj
 0002:00004bd4       __real@4016cbe4            00000001801d6bd4     GuContactPolygonPolygon.obj
 0002:00004bd8       __real@402feddf            00000001801d6bd8     GuContactPolygonPolygon.obj
 0002:00004be0       __xmm@ff7fffffff7fffffff7fffffff7fffff 00000001801d6be0     GuContactPolygonPolygon.obj
 0002:00004c20       ??_C@_0DL@OAFGOMGB@Dropping?5contacts?5in?5sphere?5vs?5@ 00000001801d6c20     GuContactSphereMesh.obj
 0002:00004c60       ??_C@_0GG@CDIFKJEO@F?3?2Downloads?2repos?2PhysX?9104?42?9@ 00000001801d6c60     GuContactSphereMesh.obj
 0002:00004d00       ??_C@_0EN@MFGCCDDK@F?3?2Downloads?2repos?2PhysX?9104?42?9@ 00000001801d6d00     GuContactSphereMesh.obj
 0002:00004d50       ??_C@_0GB@DIKPOACN@F?3?2Downloads?2repos?2PhysX?9104?42?9@ 00000001801d6d50     GuBigConvexData.obj
 0002:00004de0       ??_C@_0N@CDGINLLF@PxConvexMesh@ 00000001801d6de0     GuConvexMesh.obj
 0002:00004df0       ??_7PxBase@physx@@6B@      00000001801d6df0     GuConvexMesh.obj
 0002:00004e18       ??_C@_0N@OPPDBGAG@PxRefCounted@ 00000001801d6e18     GuConvexMesh.obj
 0002:00004e28       ??_7ConvexMesh@Gu@physx@@6B@ 00000001801d6e28     GuConvexMesh.obj
 0002:00004ec0       ??_C@_0FO@BANIEFDC@F?3?2Downloads?2repos?2PhysX?9104?42?9@ 00000001801d6ec0     GuConvexMesh.obj
 0002:00004f20       ??_C@_0DM@NEJKOFIP@Loading?5convex?5mesh?5failed?3?5Dep@ 00000001801d6f20     GuConvexMesh.obj
 0002:00004f60       ??_C@_0DB@PAHEPIEL@PxConvexMesh?3?3release?3?5double?5d@ 00000001801d6f60     GuConvexMesh.obj
 0002:00004fa0       ??_C@_0FG@JGILIBKF@F?3?2Downloads?2repos?2PhysX?9104?42?9@ 00000001801d6fa0     GuConvexMesh.obj
 0002:00005020       __xmm@000000000000000000000000ffffffff 00000001801d7020     GuConvexSupportTable.obj
 0002:00005030       __xmm@0000000000000000ffffffff00000000 00000001801d7030     GuConvexSupportTable.obj
 0002:00005040       __xmm@0000000000000000ffffffffffffffff 00000001801d7040     GuConvexSupportTable.obj
 0002:00005050       __xmm@00000000ffffffff0000000000000000 00000001801d7050     GuConvexSupportTable.obj
 0002:00005060       __xmm@00000000ffffffff00000000ffffffff 00000001801d7060     GuConvexSupportTable.obj
 0002:00005070       __xmm@00000000ffffffffffffffff00000000 00000001801d7070     GuConvexSupportTable.obj
 0002:00005140       __real@2b8cbccc            00000001801d7140     GuDistanceSegmentTriangle.obj
 0002:00005150       __xmm@3f8000013f8000013f8000013f800001 00000001801d7150     GuDistanceSegmentTriangle.obj
 0002:00005160       __xmm@b4000000b4000000b4000000b4000000 00000001801d7160     GuDistanceSegmentTriangle.obj
 0002:000051c0       __xmm@38d1b71738d1b71738d1b71738d1b717 00000001801d71c0     GuGJKSimplex.obj
 0002:000051f0       ??_C@_0O@PBAKPCEC@PxHeightField@ 00000001801d71f0     GuHeightField.obj
 0002:00005200       ??_7HeightField@Gu@physx@@6B@ 00000001801d7200     GuHeightField.obj
 0002:000052b8       ??_C@_0DC@BDMMBOKH@PxHeightField?3?3release?3?5double?5@ 00000001801d72b8     GuHeightField.obj
 0002:000052f0       ??_C@_0DF@LLAFPPKJ@Gu?3?3HeightField?3?3modifySamples?3@ 00000001801d72f0     GuHeightField.obj
 0002:00005330       ??_C@_0FL@IDOGDMIE@F?3?2Downloads?2repos?2PhysX?9104?42?9@ 00000001801d7330     GuHeightField.obj
 0002:00005390       ??_C@_0CI@DMKEKGNK@Gu?3?3HeightField?3?3load?3?5PX_ALLOC@ 00000001801d7390     GuHeightField.obj
 0002:000053b8       ??_C@_0DG@LACOBMDE@Gu?3?3HeightField?3?3loadFromDesc?3?5@ 00000001801d73b8     GuHeightField.obj
 0002:000053f0       ??_C@_0EP@GKEGGMCO@F?3?2Downloads?2repos?2PhysX?9104?42?9@ 00000001801d73f0     GuHeightField.obj
 0002:00005460       ??_C@_0DH@EJDJIMCB@HeightFieldShape?3?3getTriangle?3?5@ 00000001801d7460     GuHeightFieldUtil.obj
 0002:000054a0       ??_C@_0FP@JNKJBNIB@F?3?2Downloads?2repos?2PhysX?9104?42?9@ 00000001801d74a0     GuHeightFieldUtil.obj
 0002:00005500       __real@3a03126f            00000001801d7500     GuHeightFieldUtil.obj
 0002:00005504       __real@3f19999a            00000001801d7504     GuHeightFieldUtil.obj
 0002:00005510       __xmm@40000000000000000000000000000000 00000001801d7510     GuHeightFieldUtil.obj
 0002:000055a0       ??_7HeightFieldTraceSegmentReport@@6B@ 00000001801d75a0     GuSweepsHF.obj
 0002:000055b0       ??_7CapsuleTraceSegmentReport@@6B@ 00000001801d75b0     GuSweepsHF.obj
 0002:000055c0       ??_7ConvexTraceSegmentReport@@6B@ 00000001801d75c0     GuSweepsHF.obj
 0002:000055d0       ??_7BoxTraceSegmentReport@@6B@ 00000001801d75d0     GuSweepsHF.obj
 0002:000055e0       __real@aedbe6ff            00000001801d75e0     GuSweepsHF.obj
 0002:00005610       __real@3089705f            00000001801d7610     GuIntersectionRayBox.obj
 0002:00005614       __real@b4000000            00000001801d7614     GuIntersectionRayBox.obj
 0002:00005620       __xmm@000000003089705f3089705f3089705f 00000001801d7620     GuIntersectionRayBox.obj
 0002:00005630       __xmm@00000000bf800000bf800000bf800000 00000001801d7630     GuIntersectionRayBox.obj
 0002:00005660       __real@ffc00000            00000001801d7660     GuIntersectionTriangleTriangle.obj
 0002:00005670       __xmm@ffc00000ffc00000ffc00000ffc00000 00000001801d7670     GuIntersectionTriangleTriangle.obj
 0002:000056a0       ??_7SourceMeshBase@Gu@physx@@6B@ 00000001801d76a0     GuBV4.obj
 0002:000056c8       ??_7SourceMesh@Gu@physx@@6B@ 00000001801d76c8     GuBV4.obj
 0002:000056f0       ??_7TetrahedronSourceMesh@Gu@physx@@6B@ 00000001801d76f0     GuBV4.obj
 0002:00005720       ??_C@_0FF@LDKDGNJE@F?3?2Downloads?2repos?2PhysX?9104?42?9@ 00000001801d7720     GuBV4.obj
 0002:000057a0       ??_C@_0FK@JBFOCGJB@F?3?2Downloads?2repos?2PhysX?9104?42?9@ 00000001801d77a0     GuBV4Build.obj
 0002:000057fc       __real@38000100            00000001801d77fc     GuBV4Build.obj
 0002:00005800       __real@3e93cd3a            00000001801d7800     GuBV4Build.obj
 0002:00005804       __real@46fffe00            00000001801d7804     GuBV4Build.obj
 0002:00005808       __real@be93cd3a            00000001801d7808     GuBV4Build.obj
 0002:00005830       __xmm@0000ffff0000ffff0000ffff0000ffff 00000001801d7830     GuBV4_AABBSweep.obj
 0002:00005840       __xmm@3089705f3089705f3089705f3089705f 00000001801d7840     GuBV4_AABBSweep.obj
 0002:00005850       __xmm@33d6bf9533d6bf9533d6bf9533d6bf95 00000001801d7850     GuBV4_AABBSweep.obj
 0002:00005860       __xmm@40000000400000004000000040000000 00000001801d7860     GuBV4_AABBSweep.obj
 0002:00005930       __real@00000000            00000001801d7930     GuBV4_Raycast.obj
 0002:00005960       __real@4f7fffff            00000001801d7960     GuBV4_SphereOverlap.obj
 0002:000059b0       __xmm@000000007f7fffff0000000000000000 00000001801d79b0     GuMidphaseBV4.obj
 0002:00005a20       ??_C@_0DK@FFHPKGEP@PxMeshQuery?3?3getTriangle?3?5trian@ 00000001801d7a20     GuMeshQuery.obj
 0002:00005a60       ??_C@_0FL@IAAOMEOP@F?3?2Downloads?2repos?2PhysX?9104?42?9@ 00000001801d7a60     GuMeshQuery.obj
 0002:00005ac0       ??_C@_0FD@EHCCILIF@Adjacency?5information?5not?5creat@ 00000001801d7ac0     GuMeshQuery.obj
 0002:00005b20       ??_C@_0FA@MCAAGAGM@findOverlapTriangleMesh?3?5Only?5b@ 00000001801d7b20     GuMeshQuery.obj
 0002:00005b70       ??_C@_0FL@BKNMAHIA@PxMeshQuery?3?3findOverlapTriangl@ 00000001801d7b70     GuMeshQuery.obj
 0002:00005bd0       ??_C@_0EM@BEFNLPHI@findOverlapHeightField?3?5Only?5bo@ 00000001801d7bd0     GuMeshQuery.obj
 0002:00005c20       ??_C@_0CJ@NLNHIMDM@PxMeshQuery?3?3sweep?$CI?$CJ?3?5pose?5is?5n@ 00000001801d7c20     GuMeshQuery.obj
 0002:00005c50       ??_C@_0CM@BFKJPOOO@PxMeshQuery?3?3sweep?$CI?$CJ?3?5unitDir?5i@ 00000001801d7c50     GuMeshQuery.obj
 0002:00005c80       ??_C@_0CN@JKBDLLPP@PxMeshQuery?3?3sweep?$CI?$CJ?3?5distance?5@ 00000001801d7c80     GuMeshQuery.obj
 0002:00005cb0       ??_C@_0DN@DPNNFGGF@PxMeshQuery?3?3sweep?$CI?$CJ?3?5sweep?5dis@ 00000001801d7cb0     GuMeshQuery.obj
 0002:00005cf0       ??_C@_0BA@MBAFFELP@MeshQuery?4sweep@ 00000001801d7cf0     GuMeshQuery.obj
 0002:00005d00       ??_C@_0FJ@GNAHJJCM@PxMeshQuery?3?3sweep?$CI?$CJ?3?5geometry?5@ 00000001801d7d00     GuMeshQuery.obj
 0002:00005d5c       __real@4cbebc20            00000001801d7d5c     GuMeshQuery.obj
 0002:00005d80       ??_7Callback@RTree@Gu@physx@@6B@ 00000001801d7d80     GuMidphaseRTree.obj
 0002:00005d98       ??_7?$RayRTreeCallback@$00$0A@@@6BCallbackRaycast@RTree@Gu@physx@@@ 00000001801d7d98     GuMidphaseRTree.obj
 0002:00005d98       ??_7?$RayRTreeCallback@$0A@$0A@@@6BCallbackRaycast@RTree@Gu@physx@@@ 00000001801d7d98     GuMidphaseRTree.obj
 0002:00005da8       ??_7?$RayRTreeCallback@$00$0A@@@6BCallback@RTree@Gu@physx@@@ 00000001801d7da8     GuMidphaseRTree.obj
 0002:00005da8       ??_7?$RayRTreeCallback@$0A@$0A@@@6BCallback@RTree@Gu@physx@@@ 00000001801d7da8     GuMidphaseRTree.obj
 0002:00005dc0       ??_7RayMeshColliderCallback@@6B@ 00000001801d7dc0     GuMidphaseRTree.obj
 0002:00005dd0       ??_C@_0EN@DPPFLBLF@Point?9mesh?5distance?5query?5not?5s@ 00000001801d7dd0     GuMidphaseRTree.obj
 0002:00005e20       ??_C@_0FP@FDAKKKHE@F?3?2Downloads?2repos?2PhysX?9104?42?9@ 00000001801d7e20     GuMidphaseRTree.obj
 0002:00005e80       ??_7?$RayRTreeCallback@$0A@$00@@6BCallbackRaycast@RTree@Gu@physx@@@ 00000001801d7e80     GuMidphaseRTree.obj
 0002:00005e90       ??_7?$RayRTreeCallback@$0A@$00@@6BCallback@RTree@Gu@physx@@@ 00000001801d7e90     GuMidphaseRTree.obj
 0002:00005ea8       ??_7?$RayRTreeCallback@$00$00@@6BCallbackRaycast@RTree@Gu@physx@@@ 00000001801d7ea8     GuMidphaseRTree.obj
 0002:00005eb8       ??_7?$RayRTreeCallback@$00$00@@6BCallback@RTree@Gu@physx@@@ 00000001801d7eb8     GuMidphaseRTree.obj
 0002:00005f30       __xmm@7f7fffff000000000000000000000000 00000001801d7f30     GuMidphaseRTree.obj
 0002:00005fb0       ??_7?$PxReportCallback@UPxGeomIndexPair@physx@@@physx@@6B@ 00000001801d7fb0     GuOverlapTestsMesh.obj
 0002:00005fd0       ??_C@_0EP@CEFGCJKJ@PxGeometryQuery?3?3overlap?$CI?$CJ?3?5onl@ 00000001801d7fd0     GuOverlapTestsMesh.obj
 0002:00006020       ??_C@_0GC@NNJPJMEB@F?3?2Downloads?2repos?2PhysX?9104?42?9@ 00000001801d8020     GuOverlapTestsMesh.obj
 0002:00006090       ?MN@RTreePage@Gu@physx@@2MB 00000001801d8090     GuRTree.obj
 0002:00006094       ?MX@RTreePage@Gu@physx@@2MB 00000001801d8094     GuRTree.obj
 0002:000060c0       ??_C@_0FH@OOJANJLP@F?3?2Downloads?2repos?2PhysX?9104?42?9@ 00000001801d80c0     GuRTree.obj
 0002:00006190       ??_7SweepShapeMeshHitCallback@Gu@physx@@6B@ 00000001801d8190     GuSweepsMesh.obj
 0002:000061a0       ??_7SweepCapsuleMeshHitCallback@Gu@physx@@6B@ 00000001801d81a0     GuSweepsMesh.obj
 0002:000061b0       ??_7SweepBoxMeshHitCallback@Gu@physx@@6B@ 00000001801d81b0     GuSweepsMesh.obj
 0002:000061c0       ??_7SweepConvexMeshHitCallback@Gu@physx@@6B@ 00000001801d81c0     GuSweepsMesh.obj
 0002:000061f0       ??_C@_0P@GGNFNHKF@PxTriangleMesh@ 00000001801d81f0     GuTriangleMesh.obj
 0002:00006200       ??_7TriangleMesh@Gu@physx@@6B@ 00000001801d8200     GuTriangleMesh.obj
 0002:000062d8       ??_C@_0DD@LOOPMCGG@PxTriangleMesh?3?3release?3?5double@ 00000001801d82d8     GuTriangleMesh.obj
 0002:00006310       ??_C@_0FH@PMPAJDGI@PxTriangleMesh?3?3getVerticesForM@ 00000001801d8310     GuTriangleMesh.obj
 0002:00006370       ??_C@_0FO@COIIOKND@F?3?2Downloads?2repos?2PhysX?9104?42?9@ 00000001801d8370     GuTriangleMesh.obj
 0002:000063d0       ??_C@_0EF@GMNFLDH@PxTriangleMesh?3?3refitBVH?$CI?$CJ?5is?5n@ 00000001801d83d0     GuTriangleMesh.obj
 0002:00006420       __xmm@38383838383838383838383838383838 00000001801d8420     GuTriangleMesh.obj
 0002:00006450       ??_C@_0BE@CNJKIINO@PxBVH34TriangleMesh@ 00000001801d8450     GuTriangleMeshBV4.obj
 0002:00006468       ??_7BV4TriangleMesh@Gu@physx@@6B@ 00000001801d8468     GuTriangleMeshBV4.obj
 0002:00006540       ??_C@_0EF@JLFNNPLP@BVH34?5trees?3?5refit?5operation?5on@ 00000001801d8540     GuTriangleMeshBV4.obj
 0002:00006590       ??_C@_0GB@PEJFNEKJ@F?3?2Downloads?2repos?2PhysX?9104?42?9@ 00000001801d8590     GuTriangleMeshBV4.obj
 0002:000065f4       __real@3951b717            00000001801d85f4     GuTriangleMeshBV4.obj
 0002:00006620       ??_C@_0BE@EIFHCCBO@PxBVH33TriangleMesh@ 00000001801d8620     GuTriangleMeshRTree.obj
 0002:00006638       ??_7RTreeTriangleMesh@Gu@physx@@6B@ 00000001801d8638     GuTriangleMeshRTree.obj
 0002:00006710       ??_7?$RefitCallback@G@physx@@6B@ 00000001801d8710     GuTriangleMeshRTree.obj
 0002:00006720       ??_7?$RefitCallback@I@physx@@6B@ 00000001801d8720     GuTriangleMeshRTree.obj
 0002:00006750       ??_C@_0FG@ILJCBFCB@F?3?2Downloads?2repos?2PhysX?9104?42?9@ 00000001801d8750     GuBV32.obj
 0002:000067d0       ??_C@_0FL@NFMEBKNK@F?3?2Downloads?2repos?2PhysX?9104?42?9@ 00000001801d87d0     GuBV32Build.obj
 0002:00006850       ??_C@_0BC@FDAIDHBP@PxTetrahedronMesh@ 00000001801d8850     GuTetrahedronMesh.obj
 0002:00006868       ??_C@_0BC@FBICGJIB@PxSoftBodyAuxData@ 00000001801d8868     GuTetrahedronMesh.obj
 0002:00006880       ??_C@_0P@CLLFGFAA@PxSoftBodyMesh@ 00000001801d8880     GuTetrahedronMesh.obj
 0002:00006890       ??_7SoftBodyAuxData@Gu@physx@@6B@ 00000001801d8890     GuTetrahedronMesh.obj
 0002:000068d0       ??_7TetrahedronMesh@Gu@physx@@6B@ 00000001801d88d0     GuTetrahedronMesh.obj
 0002:00006948       ??_7BVTetrahedronMesh@Gu@physx@@6B@ 00000001801d8948     GuTetrahedronMesh.obj
 0002:000069c0       ??_7SoftBodyMesh@Gu@physx@@6B@ 00000001801d89c0     GuTetrahedronMesh.obj
 0002:00006a40       ??_C@_0DG@JJNMDPMD@PxTetrahedronMesh?3?3release?3?5dou@ 00000001801d8a40     GuTetrahedronMesh.obj
 0002:00006a78       ??_C@_0DD@GGFGEPII@PxSoftBodyMesh?3?3release?3?5double@ 00000001801d8a78     GuTetrahedronMesh.obj
 0002:00006ab0       ??_C@_0GB@BGNGDODN@F?3?2Downloads?2repos?2PhysX?9104?42?9@ 00000001801d8ab0     GuTetrahedronMesh.obj
 0002:00006b40       __xmm@00000000358637bd358637bd358637bd 00000001801d8b40     GuPCMContactBoxBox.obj
 0002:00006b50       __xmm@3f4ccccd3f4ccccd3f4ccccd3f4ccccd 00000001801d8b50     GuPCMContactBoxBox.obj
 0002:00006b60       __xmm@3f8003473f8003473f8003473f800347 00000001801d8b60     GuPCMContactBoxBox.obj
 0002:00006b70       __xmm@ffffffff00000000ffffffffffffffff 00000001801d8b70     GuPCMContactBoxBox.obj
 0002:00006ba0       ??_7?$LocalConvex@VConvexHullNoScaleV@Gu@physx@@@Gu@physx@@6B@ 00000001801d8ba0     GuPCMContactBoxConvex.obj
 0002:00006bd0       __xmm@3f3504f33f3504f33f3504f33f3504f3 00000001801d8bd0     GuPCMContactBoxConvex.obj
 0002:00006c20       __xmm@ffffffffffffffffffffffff00000000 00000001801d8c20     GuPCMContactCapsuleCapsule.obj
 0002:00006c50       __xmm@3fa000003fa000003fa000003fa00000 00000001801d8c50     GuPCMContactCapsuleConvex.obj
 0002:00006c80       ??_7PCMCapsuleVsHeightfieldContactGenerationCallback@@6B@ 00000001801d8c80     GuPCMContactCapsuleHeightField.obj
 0002:00006c90       __real@3f7f3b64            00000001801d8c90     GuPCMContactCapsuleHeightField.obj
 0002:00006ce0       __xmm@3f7ff9723f7ff9723f7ff9723f7ff972 00000001801d8ce0     GuPCMContactCapsuleMesh.obj
 0002:00006cf0       __xmm@3f7fffef3f7fffef3f7fffef3f7fffef 00000001801d8cf0     GuPCMContactCapsuleMesh.obj
 0002:00006d00       __xmm@60ad78ec60ad78ec60ad78ec60ad78ec 00000001801d8d00     GuPCMContactCapsuleMesh.obj
 0002:00006d30       ??_7?$SupportLocalImpl@VTriangleV@Gu@physx@@@Gu@physx@@6B@ 00000001801d8d30     GuPCMContactConvexCommon.obj
 0002:00006d50       __xmm@3cf5c2803cf5c2803cf5c2803cf5c280 00000001801d8d50     GuPCMContactConvexCommon.obj
 0002:00006d60       __xmm@3f7851ec3f7851ec3f7851ec3f7851ec 00000001801d8d60     GuPCMContactConvexCommon.obj
 0002:00006d90       ??_7?$RelativeConvex@VConvexHullNoScaleV@Gu@physx@@@Gu@physx@@6B@ 00000001801d8d90     GuPCMContactConvexConvex.obj
 0002:00006de0       ??_7PCMConvexVsHeightfieldContactGenerationCallback@physx@@6B@ 00000001801d8de0     GuPCMContactConvexHeightField.obj
 0002:00006df0       __xmm@3f19999a3f19999a3f19999a3f19999a 00000001801d8df0     GuPCMContactConvexHeightField.obj
 0002:00006e30       ??_7PCMConvexVsMeshContactGenerationCallback@physx@@6B@ 00000001801d8e30     GuPCMContactConvexMesh.obj
 0002:00006e60       __xmm@3f34fdf43f34fdf43f34fdf43f34fdf4 00000001801d8e60     GuPCMContactGenBoxConvex.obj
 0002:00006e90       __xmm@3f80a3d73f80a3d73f80a3d73f80a3d7 00000001801d8e90     GuPCMContactGenSphereCapsule.obj
 0002:00006ea0       __xmm@bba3d70abba3d70abba3d70abba3d70a 00000001801d8ea0     GuPCMContactGenSphereCapsule.obj
 0002:00006ed0       __xmm@3f7ffd613f7ffd613f7ffd613f7ffd61 00000001801d8ed0     GuPCMContactPlaneBox.obj
 0002:00006f00       __real@3b23d70b            00000001801d8f00     GuPCMContactPlaneCapsule.obj
 0002:00006f10       __xmm@3ca3d70a3ca3d70a3ca3d70a3ca3d70a 00000001801d8f10     GuPCMContactPlaneCapsule.obj
 0002:00006f40       __xmm@3a03126f3a03126f3a03126f3a03126f 00000001801d8f40     GuPCMContactPlaneConvex.obj
 0002:00006fd0       ??_7PCMSphereVsHeightfieldContactGenerationCallback@physx@@6B@ 00000001801d8fd0     GuPCMContactSphereHeightField.obj
 0002:00007020       ??_C@_0FG@IACIDBCO@F?3?2Downloads?2repos?2PhysX?9104?42?9@ 00000001801d9020     GuPCMContactSphereMesh.obj
 0002:000070c0       __xmm@3727c5ac3727c5ac3727c5ac3727c5ac 00000001801d90c0     GuPCMContactSphereSphere.obj
 0002:000070f0       __xmm@3f7f06f73f7f06f73f7f06f73f7f06f7 00000001801d90f0     GuPCMContactCustomGeometry.obj
 0002:00007100       ?gPCMBoxPolygonData@Gu@physx@@3QBEB 00000001801d9100     GuPCMShapeConvex.obj
 0002:00007160       ?invalidateThresholds@Gu@physx@@3QBMB 00000001801d9160     GuPersistentContactManifold.obj
 0002:00007178       ?invalidateQuatThresholds@Gu@physx@@3QBMB 00000001801d9178     GuPersistentContactManifold.obj
 0002:00007190       ?invalidateThresholds2@Gu@physx@@3QBMB 00000001801d9190     GuPersistentContactManifold.obj
 0002:000071a0       ?invalidateQuatThresholds2@Gu@physx@@3QBMB 00000001801d91a0     GuPersistentContactManifold.obj
 0002:000071d0       __xmm@00000000340000003400000034000000 00000001801d91d0     GuPersistentContactManifold.obj
 0002:000071e0       __xmm@000000003f8000003f80000000000000 00000001801d91e0     GuPersistentContactManifold.obj
 0002:000071f0       __xmm@00000000bf8000003f80000000000000 00000001801d91f0     GuPersistentContactManifold.obj
 0002:00007200       __xmm@ffffffffffffffff00000000ffffffff 00000001801d9200     GuPersistentContactManifold.obj
 0002:00007270       __real@b727c5ac            00000001801d9270     GuSweepBoxSphere.obj
 0002:000072e0       ??_C@_0GC@BPLFPJBD@F?3?2Downloads?2repos?2PhysX?9104?42?9@ 00000001801d92e0     GuSweepCapsuleBox.obj
 0002:00007370       __real@3f7fff58            00000001801d9370     GuSweepCapsuleTriangle.obj
 0002:000073e0       ??_C@_0CH@DHJGKCPD@Gu?3?3computeBounds?3?5Unknown?5shap@ 00000001801d93e0     GuBounds.obj
 0002:00007410       ??_C@_0FD@CNNEKILE@F?3?2Downloads?2repos?2PhysX?9104?42?9@ 00000001801d9410     GuBounds.obj
 0002:00007464       __real@34800000            00000001801d9464     GuBounds.obj
 0002:00007468       __real@3f7fffef            00000001801d9468     GuBounds.obj
 0002:00007470       __xmm@3f8147ae3f8147ae3f8147ae3f8147ae 00000001801d9470     GuBounds.obj
 0002:000074a0       ??_C@_0FF@IMNBCOPE@F?3?2Downloads?2repos?2PhysX?9104?42?9@ 00000001801d94a0     GuAABBTree.obj
 0002:00007500       __xmm@5a60b17f5a60b17f5a60b17f5a60b17f 00000001801d9500     GuAABBTree.obj
 0002:00007510       __xmm@da60b17fda60b17fda60b17fda60b17f 00000001801d9510     GuAABBTree.obj
 0002:00007580       ??_C@_0GA@CBKGMEEB@F?3?2Downloads?2repos?2PhysX?9104?42?9@ 00000001801d9580     GuIncrementalAABBTree.obj
 0002:000075e0       ??_C@_0EN@PJFHBFOE@F?3?2Downloads?2repos?2PhysX?9104?42?9@ 00000001801d95e0     GuIncrementalAABBTree.obj
 0002:00007630       __real@40400000            00000001801d9630     GuIncrementalAABBTree.obj
 0002:00007640       ??_C@_0FA@FOONLOKI@F?3?2Downloads?2repos?2PhysX?9104?42?9@ 00000001801d9640     GuSAH.obj
 0002:000076b0       ??_7PxBVH@physx@@6B@       00000001801d96b0     GuBVH.obj
 0002:00007740       ??_C@_05OKJNPKBM@PxBVH@    00000001801d9740     GuBVH.obj
 0002:00007748       ??_7RefCountable@Cm@physx@@6B@ 00000001801d9748     GuBVH.obj
 0002:00007758       ??_7BVH@Gu@physx@@6BPxBVH@2@@ 00000001801d9758     GuBVH.obj
 0002:000077e8       ??_7BVH@Gu@physx@@6BRefCountable@Cm@2@@ 00000001801d97e8     GuBVH.obj
 0002:00007800       ??_C@_0FA@EMIFCNFN@F?3?2Downloads?2repos?2PhysX?9104?42?9@ 00000001801d9800     GuBVH.obj
 0002:00007850       ??_C@_0CK@HAIOEINI@PxBVH?3?3release?3?5double?5deletion@ 00000001801d9850     GuBVH.obj
 0002:000078a0       ??_C@_0GG@EGLHLGED@F?3?2Downloads?2repos?2PhysX?9104?42?9@ 00000001801d98a0     GuIncrementalAABBPrunerCore.obj
 0002:00007908       __real@3f80a3d7            00000001801d9908     GuIncrementalAABBPrunerCore.obj
 0002:00007930       ??_7BasePruner@Gu@physx@@6B@ 00000001801d9930     GuIncrementalAABBPruner.obj
 0002:00007948       ??_7IncrementalAABBPruner@Gu@physx@@6B@ 00000001801d9948     GuIncrementalAABBPruner.obj
 0002:000079d0       ??_C@_0BM@FLAABPLG@SceneQuery?4prunerAddObjects@ 00000001801d99d0     GuIncrementalAABBPruner.obj
 0002:000079f0       ??_C@_0BP@EAAOKPEE@SceneQuery?4prunerUpdateObjects@ 00000001801d99f0     GuIncrementalAABBPruner.obj
 0002:00007a10       ??_C@_0BP@EHMBNBOH@SceneQuery?4prunerRemoveObjects@ 00000001801d9a10     GuIncrementalAABBPruner.obj
 0002:00007a30       ??_C@_0BI@HOKOKBIM@SceneQuery?4prunerCommit@ 00000001801d9a30     GuIncrementalAABBPruner.obj
 0002:00007a50       ??_C@_0GC@ENPBMCO@F?3?2Downloads?2repos?2PhysX?9104?42?9@ 00000001801d9a50     GuIncrementalAABBPruner.obj
 0002:00007ae0       ??_C@_0BE@PKINCBHP@PruningPool?3?3resize@ 00000001801d9ae0     GuPruningPool.obj
 0002:00007b00       ??_C@_0FI@PHJACOHD@F?3?2Downloads?2repos?2PhysX?9104?42?9@ 00000001801d9b00     GuPruningPool.obj
 0002:00007b58       ??_C@_0BI@HMDEMGJB@PruningPool?3?3addObjects@ 00000001801d9b58     GuPruningPool.obj
 0002:00007b70       ??_C@_0BK@JPNIEHEJ@PruningPool?3?3removeObject@ 00000001801d9b70     GuPruningPool.obj
 0002:00007b90       ??_C@_0BJ@GNLAFFBD@PruningPool?3?3shiftOrigin@ 00000001801d9b90     GuPruningPool.obj
 0002:00007bb0       ??_C@_0CE@MGPCCKGE@PruningPool?3?3updateAndInflateBo@ 00000001801d9bb0     GuPruningPool.obj
 0002:00007c20       ??_7BucketPruner@Gu@physx@@6B@ 00000001801d9c20     GuBucketPruner.obj
 0002:00007cb0       ??_C@_0FJ@PFFIANPC@F?3?2Downloads?2repos?2PhysX?9104?42?9@ 00000001801d9cb0     GuBucketPruner.obj
 0002:00007d10       __xmm@000000007e7fffff7e7fffff7e7fffff 00000001801d9d10     GuBucketPruner.obj
 0002:00007d20       __xmm@00000000fe7ffffffe7ffffffe7fffff 00000001801d9d20     GuBucketPruner.obj
 0002:00007d30       __xmm@3f13cd3a3f13cd3a3f13cd3a3f13cd3a 00000001801d9d30     GuBucketPruner.obj
 0002:00007d40       __xmm@bf13cd3abf13cd3abf13cd3a3f13cd3a 00000001801d9d40     GuBucketPruner.obj
 0002:00007d50       ?mIndices@MaverickNode@Gu@physx@@2QBIB 00000001801d9d50     GuMaverickNode.obj
 0002:00007db0       ??_C@_0GB@ECJMPNNA@F?3?2Downloads?2repos?2PhysX?9104?42?9@ 00000001801d9db0     GuExtendedBucketPruner.obj
 0002:00007e40       ??_7CompanionPruner@Gu@physx@@6B@ 00000001801d9e40     GuSecondaryPruner.obj
 0002:00007ec0       ??_7CompanionPrunerBucket@@6B@ 00000001801d9ec0     GuSecondaryPruner.obj
 0002:00007f40       ??_7CompanionPrunerIncremental@@6B@ 00000001801d9f40     GuSecondaryPruner.obj
 0002:00007fc0       ??_7CompanionPrunerAABBTree@@6B@ 00000001801d9fc0     GuSecondaryPruner.obj
 0002:00008040       ??_C@_0FM@KHCLCJKI@F?3?2Downloads?2repos?2PhysX?9104?42?9@ 00000001801da040     GuSecondaryPruner.obj
 0002:000080c0       ??_7AABBPruner@Gu@physx@@6B@ 00000001801da0c0     GuAABBPruner.obj
 0002:00008160       ??_C@_0CC@JANKLMNO@SceneQuery?4bucketPrunerAddObjec@ 00000001801da160     GuAABBPruner.obj
 0002:00008190       ??_C@_0LA@IHBEIKND@SceneQuery?5static?5AABB?5Tree?5reb@ 00000001801da190     GuAABBPruner.obj
 0002:00008240       ??_C@_0FH@NNLCOAMC@F?3?2Downloads?2repos?2PhysX?9104?42?9@ 00000001801da240     GuAABBPruner.obj
 0002:00008298       ??_C@_0CB@JOCHAJIC@SceneQuery?4prunerNewTreeFinaliz@ 00000001801da298     GuAABBPruner.obj
 0002:000082c0       ??_C@_0BP@IOICCIGM@SceneQuery?4prunerNewTreeSwitch@ 00000001801da2c0     GuAABBPruner.obj
 0002:000082e0       ??_C@_0CA@LJGALBJD@SceneQuery?4prunerNewTreeMapping@ 00000001801da2e0     GuAABBPruner.obj
 0002:00008300       ??_C@_0CD@OCIEMIME@SceneQuery?4prunerNewTreeFinalRe@ 00000001801da300     GuAABBPruner.obj
 0002:00008328       ??_C@_0CG@PMFEEPAE@SceneQuery?4prunerNewTreeRemoveO@ 00000001801da328     GuAABBPruner.obj
 0002:00008350       ??_C@_0BL@NAENOAHO@SceneQuery?4prunerBuildStep@ 00000001801da350     GuAABBPruner.obj
 0002:00008370       ??_C@_0CC@MJCIDELA@SceneQuery?4prunerNewTreeFullRef@ 00000001801da370     GuAABBPruner.obj
 0002:00008398       ??_C@_0BI@DAHHAEPA@SceneQuery?4prepareBuild@ 00000001801da398     GuAABBPruner.obj
 0002:000083b0       ??_C@_0CF@PDMDBIIO@SceneQuery?4prunerFullRebuildAAB@ 00000001801da3b0     GuAABBPruner.obj
 0002:000083d8       ??_C@_0CE@GKMPPEJP@SceneQuery?4prunerUpdateBucketPr@ 00000001801da3d8     GuAABBPruner.obj
 0002:00008400       ??_C@_0CI@MKOHFNNO@SceneQuery?4prunerRefitUpdatedAn@ 00000001801da400     GuAABBPruner.obj
 0002:00008430       ??_C@_0FK@JDOJHMEC@F?3?2Downloads?2repos?2PhysX?9104?42?9@ 00000001801da430     GuActorShapeMap.obj
 0002:000084b0       ??_C@_0BF@DNABLJAF@Invalid?5pruner?5index@ 00000001801da4b0     GuQuerySystem.obj
 0002:000084d0       ??_C@_0FI@KJPGNGPJ@F?3?2Downloads?2repos?2PhysX?9104?42?9@ 00000001801da4d0     GuQuerySystem.obj
 0002:00008528       ??_C@_0BO@MMDENGGP@QuerySystem?4processDirtyLists@ 00000001801da528     GuQuerySystem.obj
 0002:00008548       ??_C@_0BE@PHJMAGEL@QuerySystem?3?3update@ 00000001801da548     GuQuerySystem.obj
 0002:00008560       ??_C@_0BK@GODFCMPK@QuerySystem?4commitUpdates@ 00000001801da560     GuQuerySystem.obj
 0002:000085b0       ??_C@_0CA@NAJNANMC@QuerySystem?4createTreeOfPruners@ 00000001801da5b0     GuQuerySystem.obj
 0002:000085f0       ??_C@_0FE@KJGJLING@F?3?2Downloads?2repos?2PhysX?9104?42?9@ 00000001801da5f0     GuFactory.obj
 0002:00008670       ?reductionFactors@SubSortQuick@physx@@2QBMB 00000001801da670     GuRTreeCooking.obj
 0002:00008680       ?stopAtTrisPerLeaf1@SubSortQuick@physx@@2QBIB 00000001801da680     GuRTreeCooking.obj
 0002:00008730       ??_C@_0GB@KEEILHCF@F?3?2Downloads?2repos?2PhysX?9104?42?9@ 00000001801da730     GuRTreeCooking.obj
 0002:00008794       __real@41100000            00000001801da794     GuRTreeCooking.obj
 0002:00008798       __real@41700000            00000001801da798     GuRTreeCooking.obj
 0002:0000879c       __real@42200000            00000001801da79c     GuRTreeCooking.obj
 0002:000087a0       __xmm@00000004000000030000000200000001 00000001801da7a0     GuRTreeCooking.obj
 0002:000087d0       ??_C@_0FP@JFHLNDAE@F?3?2Downloads?2repos?2PhysX?9104?42?9@ 00000001801da7d0     GuCookingBVH.obj
 0002:00008830       ??_C@_0DL@JHPKHGFA@Cooking?3?3cookBVH?3?5user?9provided@ 00000001801da830     GuCookingBVH.obj
 0002:00008870       ??_C@_0DN@PLNPGFEB@Cooking?3?3createBVH?3?5user?9provid@ 00000001801da870     GuCookingBVH.obj
 0002:000088b0       ??_C@_0EL@JCJBAPHL@Cooking?3?3cookHeightField?3?5user?9@ 00000001801da8b0     GuCookingHF.obj
 0002:00008900       ??_C@_0FO@FCFGLFAF@F?3?2Downloads?2repos?2PhysX?9104?42?9@ 00000001801da900     GuCookingHF.obj
 0002:00008960       ??_C@_0EN@FCEPCAFC@Cooking?3?3createHeightField?3?5use@ 00000001801da960     GuCookingHF.obj
 0002:000089b0       ??_C@_0EK@EKAIJEBL@Cooking?3?3cookConvexMesh?3?5user?9p@ 00000001801da9b0     GuCookingConvexMesh.obj
 0002:00008a00       ??_C@_0FA@GFFGAPML@Cooking?3?3cookConvexMesh?3?5provid@ 00000001801daa00     GuCookingConvexMesh.obj
 0002:00008a50       ??_C@_0EP@PKDCPNNO@Cooking?3?3cookConvexMesh?3?5provid@ 00000001801daa50     GuCookingConvexMesh.obj
 0002:00008aa0       ??_C@_0EO@LKFMMDE@Cooking?3?3cookConvexMesh?3?5user?9p@ 00000001801daaa0     GuCookingConvexMesh.obj
 0002:00008af0       ??_C@_0EL@KJEPJALG@Cooking?3?3cookConvexMesh?3?5user?9p@ 00000001801daaf0     GuCookingConvexMesh.obj
 0002:00008b40       ??_C@_0FM@LHMEBKMM@Cooking?3?3cookConvexMesh?3?5GPU?9co@ 00000001801dab40     GuCookingConvexMesh.obj
 0002:00008ba0       ??_C@_0FJ@FHCFFABE@Cooking?3?3cookConvexMesh?3?5GPU?9co@ 00000001801daba0     GuCookingConvexMesh.obj
 0002:00008c00       ??_C@_0GG@FIHCMOFO@F?3?2Downloads?2repos?2PhysX?9104?42?9@ 00000001801dac00     GuCookingConvexMesh.obj
 0002:00008c90       ??_7TriangleMeshBuilder@physx@@6B@ 00000001801dac90     GuCookingTriangleMesh.obj
 0002:00008cb8       ??_7RTreeTriangleMeshBuilder@physx@@6B@ 00000001801dacb8     GuCookingTriangleMesh.obj
 0002:00008ce0       ??_7BV4TriangleMeshBuilder@physx@@6B@ 00000001801dace0     GuCookingTriangleMesh.obj
 0002:00008d10       ??_C@_0GI@CNBBLEDJ@F?3?2Downloads?2repos?2PhysX?9104?42?9@ 00000001801dad10     GuCookingTriangleMesh.obj
 0002:00008d78       ??_C@_0DJ@IGODLHLP@TriangleMesh?3?5Enable?5mesh?5weldi@ 00000001801dad78     GuCookingTriangleMesh.obj
 0002:00008dc0       ??_C@_0FJ@HHJLKGDF@TriangleMesh?3?5triangles?5are?5too@ 00000001801dadc0     GuCookingTriangleMesh.obj
 0002:00008e20       ??_C@_0CN@KGPHHHLK@TriangleMesh?3?5mesh?5is?5too?5big?5f@ 00000001801dae20     GuCookingTriangleMesh.obj
 0002:00008e50       ??_C@_0DD@CMJGDCNN@TriangleMesh?3?3loadFromDesc?3?5des@ 00000001801dae50     GuCookingTriangleMesh.obj
 0002:00008e90       ??_C@_0ED@ILJJNHIP@TriangleMesh?3?3loadFromDesc?3?5mPa@ 00000001801dae90     GuCookingTriangleMesh.obj
 0002:00008ed8       ??_C@_0CK@BJFFGDPK@input?5mesh?5contains?5corrupted?5v@ 00000001801daed8     GuCookingTriangleMesh.obj
 0002:00008f08       ??_C@_0BJ@BKHDBBHO@cleaning?5the?5mesh?5failed@ 00000001801daf08     GuCookingTriangleMesh.obj
 0002:00008f28       ??_C@_0CC@BPIMLJA@input?5sdf?5contains?5corrupted?5da@ 00000001801daf28     GuCookingTriangleMesh.obj
 0002:00008f50       ??_C@_0BK@JIDHMMCE@BV4?5tree?5failed?5to?5build?4@ 00000001801daf50     GuCookingTriangleMesh.obj
 0002:00008f70       ??_C@_0BL@DHNECNBE@BV32?5tree?5failed?5to?5build?4@ 00000001801daf70     GuCookingTriangleMesh.obj
 0002:00008f90       ??_7RTreeCookerRemap@@6B@  00000001801daf90     GuCookingTriangleMesh.obj
 0002:00008fa0       ??_C@_0FC@PJIHAFK@Cooking?3?3validateTriangleMesh?3?5@ 00000001801dafa0     GuCookingTriangleMesh.obj
 0002:00008ff4       __real@48742400            00000001801daff4     GuCookingTriangleMesh.obj
 0002:00009020       ??_7PxCollisionTetrahedronMeshData@physx@@6B@ 00000001801db020     GuCookingTetrahedronMesh.obj
 0002:00009050       ??_7PxSimulationTetrahedronMeshData@physx@@6B@ 00000001801db050     GuCookingTetrahedronMesh.obj
 0002:00009070       ??_7CollisionTetrahedronMeshData@Gu@physx@@6B@ 00000001801db070     GuCookingTetrahedronMesh.obj
 0002:000090a0       ??_7SimulationTetrahedronMeshData@Gu@physx@@6B@ 00000001801db0a0     GuCookingTetrahedronMesh.obj
 0002:000090c0       ??_C@_0GL@BPEIDAHC@F?3?2Downloads?2repos?2PhysX?9104?42?9@ 00000001801db0c0     GuCookingTetrahedronMesh.obj
 0002:00009130       ??_C@_0EG@BKGBJDHG@computeRestPoseAndPointMass?$CI?$CJ?3?5@ 00000001801db130     GuCookingTetrahedronMesh.obj
 0002:00009178       ??_7?$LocalConvex@VTetrahedronV@Gu@physx@@@Gu@physx@@6B@ 00000001801db178     GuCookingTetrahedronMesh.obj
 0002:000091a8       ??_C@_0CD@OJGNHLOE@BV4_AABBTree?5tree?5failed?5to?5bui@ 00000001801db1a8     GuCookingTetrahedronMesh.obj
 0002:000091d0       ??_C@_0DG@NCNIEEHB@TetrahedronMesh?3?3loadFromDesc?3?5@ 00000001801db1d0     GuCookingTetrahedronMesh.obj
 0002:00009210       ??_C@_0EG@CJIFGLMC@TetrahedronMesh?3?3loadFromDesc?3?5@ 00000001801db210     GuCookingTetrahedronMesh.obj
 0002:00009258       __real@3e2aaaab            00000001801db258     GuCookingTetrahedronMesh.obj
 0002:0000925c       __real@be2aaaab            00000001801db25c     GuCookingTetrahedronMesh.obj
 0002:00009260       __xmm@00000003000000030000000300000003 00000001801db260     GuCookingTetrahedronMesh.obj
 0002:00009290       __real@3bc79ca10c924223    00000001801db290     GuCookingVolumeIntegration.obj
 0002:00009298       __real@3f91111111111111    00000001801db298     GuCookingVolumeIntegration.obj
 0002:000092a0       __real@3fa5555555555555    00000001801db2a0     GuCookingVolumeIntegration.obj
 0002:000092a8       __real@3fa999999999999a    00000001801db2a8     GuCookingVolumeIntegration.obj
 0002:000092b0       __real@3fb5555555555555    00000001801db2b0     GuCookingVolumeIntegration.obj
 0002:000092b8       __real@3fc5555555555555    00000001801db2b8     GuCookingVolumeIntegration.obj
 0002:000092c0       __real@3fd5555555555555    00000001801db2c0     GuCookingVolumeIntegration.obj
 0002:000092c8       __real@3fe0000000000000    00000001801db2c8     GuCookingVolumeIntegration.obj
 0002:000092d0       __real@3ff0000000000000    00000001801db2d0     GuCookingVolumeIntegration.obj
 0002:000092d8       __real@4008000000000000    00000001801db2d8     GuCookingVolumeIntegration.obj
 0002:000092e0       __real@4010000000000000    00000001801db2e0     GuCookingVolumeIntegration.obj
 0002:000092e8       __real@bf91111111111111    00000001801db2e8     GuCookingVolumeIntegration.obj
 0002:000092f0       __real@bfa999999999999a    00000001801db2f0     GuCookingVolumeIntegration.obj
 0002:000092f8       __real@bfb5555555555555    00000001801db2f8     GuCookingVolumeIntegration.obj
 0002:00009300       __real@bfc5555555555555    00000001801db300     GuCookingVolumeIntegration.obj
 0002:00009310       __xmm@3c0888893c0888893c0888893c088889 00000001801db310     GuCookingVolumeIntegration.obj
 0002:00009320       __xmm@3c8888893c8888893c8888893c888889 00000001801db320     GuCookingVolumeIntegration.obj
 0002:00009330       __xmm@3d2aaaab3d2aaaab3d2aaaab3d2aaaab 00000001801db330     GuCookingVolumeIntegration.obj
 0002:00009340       __xmm@3e2aaaab3e2aaaab3e2aaaab3e2aaaab 00000001801db340     GuCookingVolumeIntegration.obj
 0002:00009350       __xmm@3f811111111111113f81111111111111 00000001801db350     GuCookingVolumeIntegration.obj
 0002:00009360       __xmm@3f811111111111113f91111111111111 00000001801db360     GuCookingVolumeIntegration.obj
 0002:00009370       __xmm@3f911111111111113f91111111111111 00000001801db370     GuCookingVolumeIntegration.obj
 0002:00009380       __xmm@3fa55555555555553fa5555555555555 00000001801db380     GuCookingVolumeIntegration.obj
 0002:00009390       __xmm@3fa55555555555553fc5555555555555 00000001801db390     GuCookingVolumeIntegration.obj
 0002:000093a0       __xmm@7fffffffffffffff7fffffffffffffff 00000001801db3a0     GuCookingVolumeIntegration.obj
 0002:000093b0       __xmm@80000000000000008000000000000000 00000001801db3b0     GuCookingVolumeIntegration.obj
 0002:000093c0       ??_7ConvexHullLib@physx@@6B@ 00000001801db3c0     GuCookingQuickHullConvexHullLib.obj
 0002:000093e0       ??_7QuickHullConvexHullLib@physx@@6B@ 00000001801db3e0     GuCookingQuickHullConvexHullLib.obj
 0002:00009400       ??_C@_0HC@CCHPHICC@F?3?2Downloads?2repos?2PhysX?9104?42?9@ 00000001801db400     GuCookingQuickHullConvexHullLib.obj
 0002:00009480       ??_C@_0GA@EPPAEJPM@QuickHullConvexHullLib?3?3findSim@ 00000001801db480     GuCookingQuickHullConvexHullLib.obj
 0002:000094e0       ??_C@_0FB@NEBIJMML@QuickHullConvexHullLib?3?3findSim@ 00000001801db4e0     GuCookingQuickHullConvexHullLib.obj
 0002:00009540       ??_C@_0FB@CLLCBEMM@QuickHullConvexHullLib?3?3findSim@ 00000001801db540     GuCookingQuickHullConvexHullLib.obj
 0002:00009594       __real@34c00000            00000001801db594     GuCookingQuickHullConvexHullLib.obj
 0002:00009598       ??_C@_0DP@PJBJBEGF@Meshmerizer?3?3extractHullPolygon@ 00000001801db598     GuCookingConvexPolygonsBuilder.obj
 0002:000095e0       ??_C@_0HB@PCHDLAHD@F?3?2Downloads?2repos?2PhysX?9104?42?9@ 00000001801db5e0     GuCookingConvexPolygonsBuilder.obj
 0002:00009658       ??_C@_0DL@IAFKOCCK@ConvexHullBuilder?3?5convex?5hull?5@ 00000001801db658     GuCookingConvexPolygonsBuilder.obj
 0002:000096a0       ??_C@_0GF@OJLJHAMH@ConvexHullBuilder?3?3CreateTriang@ 00000001801db6a0     GuCookingConvexPolygonsBuilder.obj
 0002:00009730       ??_C@_0DF@LLFJIJGM@Gu?3?3ConvexMesh?3?3loadFromDesc?3?5d@ 00000001801db730     GuCookingConvexMeshBuilder.obj
 0002:00009770       ??_C@_0HK@JOGKIEAA@Gu?3?3ConvexMesh?3?5Mesh?5has?5a?5nega@ 00000001801db770     GuCookingConvexMeshBuilder.obj
 0002:000097f0       ??_C@_0DH@NJPPHFFD@Gu?3?3ConvexMesh?3?5Error?5computing@ 00000001801db7f0     GuCookingConvexMeshBuilder.obj
 0002:00009828       ??_C@_0DJ@LJDLGLDJ@Gu?3?3ConvexMesh?3?3loadConvexHull?3@ 00000001801db828     GuCookingConvexMeshBuilder.obj
 0002:00009870       ??_C@_0HJ@KJANPPOE@ConvexMeshBuilder?3?3computeHullP@ 00000001801db870     GuCookingConvexMeshBuilder.obj
 0002:000098f0       ??_C@_0GN@MIJOPEGN@F?3?2Downloads?2repos?2PhysX?9104?42?9@ 00000001801db8f0     GuCookingConvexMeshBuilder.obj
 0002:00009960       ??_C@_0O@JMAGMMGG@PxHullPolygon@ 00000001801db960     GuCookingConvexMeshBuilder.obj
 0002:00009970       __real@3f13cd3a            00000001801db970     GuCookingConvexMeshBuilder.obj
 0002:000099a0       ??_C@_0GL@GOMPGAGJ@F?3?2Downloads?2repos?2PhysX?9104?42?9@ 00000001801db9a0     GuCookingConvexHullUtils.obj
 0002:00009a0c       __real@3e20d97c            00000001801dba0c     GuCookingConvexHullUtils.obj
 0002:00009a10       ??_C@_0GJ@JNJCLCHJ@F?3?2Downloads?2repos?2PhysX?9104?42?9@ 00000001801dba10     GuCookingConvexHullLib.obj
 0002:00009a80       ??_C@_0JE@PABBNGEL@ConvexHullLib?3?3cleanupVertices?3@ 00000001801dba80     GuCookingConvexHullLib.obj
 0002:00009b40       ??_C@_0GN@GDKFEDI@F?3?2Downloads?2repos?2PhysX?9104?42?9@ 00000001801dbb40     GuCookingConvexHullBuilder.obj
 0002:00009bb0       ??_C@_0EB@DCEIFDGC@ConvexHullBuilder?3?3init?3?5convex@ 00000001801dbbb0     GuCookingConvexHullBuilder.obj
 0002:00009c00       ??_C@_0FM@KICBLCBH@Gu?3?3ConvexMesh?3?3checkHullPolygo@ 00000001801dbc00     GuCookingConvexHullBuilder.obj
 0002:00009c60       ??_C@_0GO@HBFIOGLL@Gu?3?3ConvexMesh?3?3checkHullPolygo@ 00000001801dbc60     GuCookingConvexHullBuilder.obj
 0002:00009cd0       ??_C@_0HF@OLJFBIEL@ConvexHullBuilder?3?5convex?5hull?5@ 00000001801dbcd0     GuCookingConvexHullBuilder.obj
 0002:00009d50       ??_C@_0OG@JNHFOIL@ConvexHullBuilder?3?5convex?5hull?5@ 00000001801dbd50     GuCookingConvexHullBuilder.obj
 0002:00009e40       ??_C@_0EJ@NIOIBAKH@Cooking?3?3cookConvexMesh?3?5non?9ma@ 00000001801dbe40     GuCookingConvexHullBuilder.obj
 0002:00009eb0       ??_C@_0HA@BEJKMEA@F?3?2Downloads?2repos?2PhysX?9104?42?9@ 00000001801dbeb0     GuCookingBigConvexDataBuilder.obj
 0002:00009f20       __sz_PhysXFoundation_64_dll 00000001801dbf20     PhysXFoundation_64:PhysXFoundation_64.dll
 0002:00009f38       ??_C@_1BK@DBDEIDLH@?$AAK?$AAE?$AAR?$AAN?$AAE?$AAL?$AA3?$AA2?$AA?4?$AAD?$AAL?$AAL@ 00000001801dbf38     Delayimp:delayhlp.obj
 0002:00009f58       ??_C@_0BI@OMNLIJDB@AcquireSRWLockExclusive@ 00000001801dbf58     Delayimp:delayhlp.obj
 0002:00009f70       ??_C@_0BI@HMIEPCNJ@ReleaseSRWLockExclusive@ 00000001801dbf70     Delayimp:delayhlp.obj
 0002:00009f88       __pfnDliFailureHook2       00000001801dbf88     Delayimp:delayhk1.obj
 0002:00009f98       ??_7type_info@@6B@         00000001801dbf98     LIBCMT:std_type_info_static.obj
 0002:0000a000       _pDefaultRawDllMain        00000001801dc000     LIBCMT:dll_dllmain.obj
 0002:0000a000       _pRawDllMain               00000001801dc000     LIBCMT:dll_dllmain.obj
 0002:0000a010       _load_config_used          00000001801dc010     LIBCMT:loadcfg.obj
 0002:0000a148       _pDestructExceptionObject  00000001801dc148     libvcruntime:ehhelpers.obj
 0002:0000a850       ??_C@_08EHJDFFNH@__based?$CI@ 00000001801dc850     libvcruntime:undname.obj
 0002:0000a860       ??_C@_07KOLFKCDI@__cdecl@  00000001801dc860     libvcruntime:undname.obj
 0002:0000a868       ??_C@_08GHMPAG@__pascal@   00000001801dc868     libvcruntime:undname.obj
 0002:0000a878       ??_C@_09IFJBGAPI@__stdcall@ 00000001801dc878     libvcruntime:undname.obj
 0002:0000a888       ??_C@_0L@NPHFGOKO@__thiscall@ 00000001801dc888     libvcruntime:undname.obj
 0002:0000a898       ??_C@_0L@JMKHOMEK@__fastcall@ 00000001801dc898     libvcruntime:undname.obj
 0002:0000a8a8       ??_C@_0N@BCKKPABJ@__vectorcall@ 00000001801dc8a8     libvcruntime:undname.obj
 0002:0000a8b8       ??_C@_09HIJEGCPM@__clrcall@ 00000001801dc8b8     libvcruntime:undname.obj
 0002:0000a8c4       ??_C@_06GHPCKEAG@__eabi@   00000001801dc8c4     libvcruntime:undname.obj
 0002:0000a8d0       ??_C@_09IOPIDJLG@__swift_1@ 00000001801dc8d0     libvcruntime:undname.obj
 0002:0000a8e0       ??_C@_09KFNFGKHF@__swift_2@ 00000001801dc8e0     libvcruntime:undname.obj
 0002:0000a8f0       ??_C@_07JOMMBBKO@__ptr64@  00000001801dc8f0     libvcruntime:undname.obj
 0002:0000a8f8       ??_C@_0L@PILCLIHE@__restrict@ 00000001801dc8f8     libvcruntime:undname.obj
 0002:0000a908       ??_C@_0M@GFIIJFMG@__unaligned@ 00000001801dc908     libvcruntime:undname.obj
 0002:0000a918       ??_C@_09DHDLOLLB@restrict?$CI@ 00000001801dc918     libvcruntime:undname.obj
 0002:0000a924       ??_C@_04NIHEBCM@?5new@     00000001801dc924     libvcruntime:undname.obj
 0002:0000a930       ??_C@_07FPCDHGMM@?5delete@ 00000001801dc930     libvcruntime:undname.obj
 0002:0000a938       ??_C@_01NEMOKFLO@?$DN@     00000001801dc938     libvcruntime:undname.obj
 0002:0000a93c       ??_C@_02GPIOPFAK@?$DO?$DO@ 00000001801dc93c     libvcruntime:undname.obj
 0002:0000a940       ??_C@_02FODMEDOG@?$DM?$DM@ 00000001801dc940     libvcruntime:undname.obj
 0002:0000a944       ??_C@_01DCLJPIOD@?$CB@     00000001801dc944     libvcruntime:undname.obj
 0002:0000a948       ??_C@_02EGOFBIJA@?$DN?$DN@ 00000001801dc948     libvcruntime:undname.obj
 0002:0000a94c       ??_C@_02FDNJECIE@?$CB?$DN@ 00000001801dc94c     libvcruntime:undname.obj
 0002:0000a950       ??_C@_02GPECMEKF@?$FL?$FN@ 00000001801dc950     libvcruntime:undname.obj
 0002:0000a958       ??_C@_08LHJFAFGD@operator@ 00000001801dc958     libvcruntime:undname.obj
 0002:0000a964       ??_C@_02HBOOOICD@?9?$DO@   00000001801dc964     libvcruntime:undname.obj
 0002:0000a968       ??_C@_01NBENCBCI@?$CK@     00000001801dc968     libvcruntime:undname.obj
 0002:0000a96c       ??_C@_02ECNGHCIF@?$CL?$CL@ 00000001801dc96c     libvcruntime:undname.obj
 0002:0000a970       ??_C@_02BAABKJLB@?9?9@     00000001801dc970     libvcruntime:undname.obj
 0002:0000a974       ??_C@_01JOAMLHOP@?9@       00000001801dc974     libvcruntime:undname.obj
 0002:0000a978       ??_C@_01MIFGBAGJ@?$CL@     00000001801dc978     libvcruntime:undname.obj
 0002:0000a97c       ??_C@_01HNPIGOCE@?$CG@     00000001801dc97c     libvcruntime:undname.obj
 0002:0000a980       ??_C@_03MNHNFDLC@?9?$DO?$CK@ 00000001801dc980     libvcruntime:undname.obj
 0002:0000a984       ??_C@_01KMDKNFGN@?1@       00000001801dc984     libvcruntime:undname.obj
 0002:0000a988       ??_C@_01FGNFDNOH@?$CF@     00000001801dc988     libvcruntime:undname.obj
 0002:0000a98c       ??_C@_01MNNFJEPP@?$DM@     00000001801dc98c     libvcruntime:undname.obj
 0002:0000a990       ??_C@_02EHCHHCKH@?$DM?$DN@ 00000001801dc990     libvcruntime:undname.obj
 0002:0000a994       ??_C@_01PPODPGHN@?$DO@     00000001801dc994     libvcruntime:undname.obj
 0002:0000a998       ??_C@_02EEKDKGMJ@?$DO?$DN@ 00000001801dc998     libvcruntime:undname.obj
 0002:0000a99c       ??_C@_01IHBHIGKO@?0@       00000001801dc99c     libvcruntime:undname.obj
 0002:0000a9a0       ??_C@_02HCKGKOFO@?$CI?$CJ@ 00000001801dc9a0     libvcruntime:undname.obj
 0002:0000a9a4       ??_C@_01PJKLJHI@?$HO@      00000001801dc9a4     libvcruntime:undname.obj
 0002:0000a9a8       ??_C@_01JKBOJNNK@?$FO@     00000001801dc9a8     libvcruntime:undname.obj
 0002:0000a9ac       ??_C@_01DNKMNLPK@?$HM@     00000001801dc9ac     libvcruntime:undname.obj
 0002:0000a9b0       ??_C@_02PPKAJPJL@?$CG?$CG@ 00000001801dc9b0     libvcruntime:undname.obj
 0002:0000a9b4       ??_C@_02NONPIBCD@?$HM?$HM@ 00000001801dc9b4     libvcruntime:undname.obj
 0002:0000a9b8       ??_C@_02FPIMKNGF@?$CK?$DN@ 00000001801dc9b8     libvcruntime:undname.obj
 0002:0000a9bc       ??_C@_02FOEOMHFC@?$CL?$DN@ 00000001801dc9bc     libvcruntime:undname.obj
 0002:0000a9c0       ??_C@_02FKMDLLOA@?9?$DN@   00000001801dc9c0     libvcruntime:undname.obj
 0002:0000a9c4       ??_C@_02FJEHGPIO@?1?$DN@   00000001801dc9c4     libvcruntime:undname.obj
 0002:0000a9c8       ??_C@_02FENAOKFI@?$CF?$DN@ 00000001801dc9c8     libvcruntime:undname.obj
 0002:0000a9cc       ??_C@_03IKFCCPFF@?$DO?$DO?$DN@ 00000001801dc9cc     libvcruntime:undname.obj
 0002:0000a9d0       ??_C@_03CDNPDDLA@?$DM?$DM?$DN@ 00000001801dc9d0     libvcruntime:undname.obj
 0002:0000a9d4       ??_C@_02FGJGFEAB@?$CG?$DN@ 00000001801dc9d4     libvcruntime:undname.obj
 0002:0000a9d8       ??_C@_02DHLNPPGH@?$HM?$DN@ 00000001801dc9d8     libvcruntime:undname.obj
 0002:0000a9dc       ??_C@_02MHEGNOJ@?$FO?$DN@  00000001801dc9dc     libvcruntime:undname.obj
 0002:0000a9e0       ??_C@_09IFPLHPGF@?$GAvftable?8@ 00000001801dc9e0     libvcruntime:undname.obj
 0002:0000a9f0       ??_C@_09BLBHBJP@?$GAvbtable?8@ 00000001801dc9f0     libvcruntime:undname.obj
 0002:0000aa00       ??_C@_07FEEIOKP@?$GAvcall?8@ 00000001801dca00     libvcruntime:undname.obj
 0002:0000aa08       ??_C@_08LLFFHHDJ@?$GAtypeof?8@ 00000001801dca08     libvcruntime:undname.obj
 0002:0000aa18       ??_C@_0BF@KDPPACIK@?$GAlocal?5static?5guard?8@ 00000001801dca18     libvcruntime:undname.obj
 0002:0000aa30       ??_C@_08OBABFOLI@?$GAstring?8@ 00000001801dca30     libvcruntime:undname.obj
 0002:0000aa40       ??_C@_0BD@JDLKDPAB@?$GAvbase?5destructor?8@ 00000001801dca40     libvcruntime:undname.obj
 0002:0000aa58       ??_C@_0BN@DEGPLNFK@?$GAvector?5deleting?5destructor?8@ 00000001801dca58     libvcruntime:undname.obj
 0002:0000aa78       ??_C@_0BO@OBMKPJIG@?$GAdefault?5constructor?5closure?8@ 00000001801dca78     libvcruntime:undname.obj
 0002:0000aa98       ??_C@_0BN@IMDCHIKM@?$GAscalar?5deleting?5destructor?8@ 00000001801dca98     libvcruntime:undname.obj
 0002:0000aab8       ??_C@_0BO@PFGOCPJJ@?$GAvector?5constructor?5iterator?8@ 00000001801dcab8     libvcruntime:undname.obj
 0002:0000aad8       ??_C@_0BN@LFPFMEDL@?$GAvector?5destructor?5iterator?8@ 00000001801dcad8     libvcruntime:undname.obj
 0002:0000aaf8       ??_C@_0CE@IKBNEHA@?$GAvector?5vbase?5constructor?5itera@ 00000001801dcaf8     libvcruntime:undname.obj
 0002:0000ab20       ??_C@_0BL@NILFHHPC@?$GAvirtual?5displacement?5map?8@ 00000001801dcb20     libvcruntime:undname.obj
 0002:0000ab40       ??_C@_0CB@JONCMFFK@?$GAeh?5vector?5constructor?5iterator@ 00000001801dcb40     libvcruntime:undname.obj
 0002:0000ab68       ??_C@_0CA@GCEOPDGL@?$GAeh?5vector?5destructor?5iterator?8@ 00000001801dcb68     libvcruntime:undname.obj
 0002:0000ab88       ??_C@_0CH@OOJPLCPH@?$GAeh?5vector?5vbase?5constructor?5it@ 00000001801dcb88     libvcruntime:undname.obj
 0002:0000abb0       ??_C@_0BL@LLKPOHJI@?$GAcopy?5constructor?5closure?8@ 00000001801dcbb0     libvcruntime:undname.obj
 0002:0000abd0       ??_C@_0BA@KBCDOMBN@?$GAudt?5returning?8@ 00000001801dcbd0     libvcruntime:undname.obj
 0002:0000abe0       ??_C@_03KLGMFNMG@?$GAEH@   00000001801dcbe0     libvcruntime:undname.obj
 0002:0000abe4       ??_C@_05KHLCHHI@?$GARTTI@  00000001801dcbe4     libvcruntime:undname.obj
 0002:0000abf0       ??_C@_0BA@KKLDJDLB@?$GAlocal?5vftable?8@ 00000001801dcbf0     libvcruntime:undname.obj
 0002:0000ac00       ??_C@_0CE@IIHCMGGL@?$GAlocal?5vftable?5constructor?5clos@ 00000001801dcc00     libvcruntime:undname.obj
 0002:0000ac24       ??_C@_06FHBGPFGH@?5new?$FL?$FN@ 00000001801dcc24     libvcruntime:undname.obj
 0002:0000ac30       ??_C@_09LBNFPBCA@?5delete?$FL?$FN@ 00000001801dcc30     libvcruntime:undname.obj
 0002:0000ac40       ??_C@_0P@HJKNJFNN@?$GAomni?5callsig?8@ 00000001801dcc40     libvcruntime:undname.obj
 0002:0000ac50       ??_C@_0BL@CNOONJFP@?$GAplacement?5delete?5closure?8@ 00000001801dcc50     libvcruntime:undname.obj
 0002:0000ac70       ??_C@_0BN@CKNJLHMB@?$GAplacement?5delete?$FL?$FN?5closure?8@ 00000001801dcc70     libvcruntime:undname.obj
 0002:0000ac90       ??_C@_0CG@CFDHKGGD@?$GAmanaged?5vector?5constructor?5ite@ 00000001801dcc90     libvcruntime:undname.obj
 0002:0000acb8       ??_C@_0CF@IMGKMJNO@?$GAmanaged?5vector?5destructor?5iter@ 00000001801dccb8     libvcruntime:undname.obj
 0002:0000ace0       ??_C@_0CG@HLDDJMAG@?$GAeh?5vector?5copy?5constructor?5ite@ 00000001801dcce0     libvcruntime:undname.obj
 0002:0000ad08       ??_C@_0CM@FCBBDIGB@?$GAeh?5vector?5vbase?5copy?5construct@ 00000001801dcd08     libvcruntime:undname.obj
 0002:0000ad38       ??_C@_0BL@CLIPGLGB@?$GAdynamic?5initializer?5for?5?8@ 00000001801dcd38     libvcruntime:undname.obj
 0002:0000ad58       ??_C@_0CB@PDBIFEP@?$GAdynamic?5atexit?5destructor?5for?5@ 00000001801dcd58     libvcruntime:undname.obj
 0002:0000ad80       ??_C@_0CD@CGAJBKEJ@?$GAvector?5copy?5constructor?5iterat@ 00000001801dcd80     libvcruntime:undname.obj
 0002:0000ada8       ??_C@_0CJ@GJELGAMM@?$GAvector?5vbase?5copy?5constructor?5@ 00000001801dcda8     libvcruntime:undname.obj
 0002:0000add8       ??_C@_0CL@FGIJHLCE@?$GAmanaged?5vector?5copy?5constructo@ 00000001801dcdd8     libvcruntime:undname.obj
 0002:0000ae08       ??_C@_0BM@PMGGMLDN@?$GAlocal?5static?5thread?5guard?8@ 00000001801dce08     libvcruntime:undname.obj
 0002:0000ae28       ??_C@_0N@BDNMDMOL@operator?5?$CC?$CC?5@ 00000001801dce28     libvcruntime:undname.obj
 0002:0000ae38       ??_C@_0BC@GGEBGALA@operator?5co_await@ 00000001801dce38     libvcruntime:undname.obj
 0002:0000ae50       ??_C@_0M@GAAIMMOH@operator?$DM?$DN?$DO@ 00000001801dce50     libvcruntime:undname.obj
 0002:0000ae60       ??_C@_0BC@DAFEJGAK@?5Type?5Descriptor?8@ 00000001801dce60     libvcruntime:undname.obj
 0002:0000ae78       ??_C@_0BM@LDKODKLH@?5Base?5Class?5Descriptor?5at?5?$CI@ 00000001801dce78     libvcruntime:undname.obj
 0002:0000ae98       ??_C@_0BD@LGICGFMM@?5Base?5Class?5Array?8@ 00000001801dce98     libvcruntime:undname.obj
 0002:0000aeb0       ??_C@_0BN@MECKDCOJ@?5Class?5Hierarchy?5Descriptor?8@ 00000001801dceb0     libvcruntime:undname.obj
 0002:0000aed0       ??_C@_0BK@CFCOFLF@?5Complete?5Object?5Locator?8@ 00000001801dced0     libvcruntime:undname.obj
 0002:0000aef0       ??_C@_0BG@JNJLAMPM@?$GAanonymous?5namespace?8@ 00000001801dcef0     libvcruntime:undname.obj
 0002:0000af08       ??_C@_04HEJADOOB@CV?3?5@   00000001801dcf08     libvcruntime:undname.obj
 0002:0000af10       ??_C@_02MOLJINC@?3?3@      00000001801dcf10     libvcruntime:undname.obj
 0002:0000af18       ??_C@_0BE@JAEOCHPE@template?9parameter?9@ 00000001801dcf18     libvcruntime:undname.obj
 0002:0000af30       ??_C@_0BF@LNLGBBNL@?$GAtemplate?9parameter?9@ 00000001801dcf30     libvcruntime:undname.obj
 0002:0000af48       ??_C@_0O@KHGCOMHP@generic?9type?9@ 00000001801dcf48     libvcruntime:undname.obj
 0002:0000af58       ??_C@_0P@ODDENDLM@?$GAgeneric?9type?9@ 00000001801dcf58     libvcruntime:undname.obj
 0002:0000af68       ??_C@_02OHHJMEON@?8?8@     00000001801dcf68     libvcruntime:undname.obj
 0002:0000af70       ??_C@_0BN@IBLMMFAP@?$GAnon?9type?9template?9parameter@ 00000001801dcf70     libvcruntime:undname.obj
 0002:0000af90       ??_C@_03DLDNIBIK@?$CFlf@   00000001801dcf90     libvcruntime:undname.obj
 0002:0000af94       ??_C@_04OFALKAJ@?$DP?$DP_C@ 00000001801dcf94     libvcruntime:undname.obj
 0002:0000af9c       ??_C@_03KHICJKCI@?4?4?4@   00000001801dcf9c     libvcruntime:undname.obj
 0002:0000afa0       ??_C@_04HIBGFPH@NULL@      00000001801dcfa0     libvcruntime:undname.obj
 0002:0000afa8       ??_C@_02DPKJAMEF@?$CFd@    00000001801dcfa8     libvcruntime:undname.obj
 0002:0000afb0       ??_C@_0BK@IHCCFNEL@?$GAtemplate?9type?9parameter?9@ 00000001801dcfb0     libvcruntime:undname.obj
 0002:0000afd0       ??_C@_0BK@OFCNNNKO@?$GAgeneric?9class?9parameter?9@ 00000001801dcfd0     libvcruntime:undname.obj
 0002:0000aff0       ??_C@_0BL@NGJBLFIL@?$GAgeneric?9method?9parameter?9@ 00000001801dcff0     libvcruntime:undname.obj
 0002:0000b010       ??_C@_07OHNGEDJK@nullptr@  00000001801dd010     libvcruntime:undname.obj
 0002:0000b018       ??_C@_0BE@EODMJLIF@?$GAtemplate?9parameter@ 00000001801dd018     libvcruntime:undname.obj
 0002:0000b02c       ??_C@_03OPGICMGF@?$HN?8?5@ 00000001801dd02c     libvcruntime:undname.obj
 0002:0000b030       ??_C@_02IGFCGPIL@?$HN?8@   00000001801dd030     libvcruntime:undname.obj
 0002:0000b038       ??_C@_0N@CBHHHENL@?$GAvtordispex?$HL@ 00000001801dd038     libvcruntime:undname.obj
 0002:0000b048       ??_C@_0L@GHPFDFH@?$GAvtordisp?$HL@ 00000001801dd048     libvcruntime:undname.obj
 0002:0000b058       ??_C@_0L@HNGCOGAE@?$GAadjustor?$HL@ 00000001801dd058     libvcruntime:undname.obj
 0002:0000b068       ??_C@_0CB@KJDOOODE@?$GAlocal?5static?5destructor?5helper@ 00000001801dd068     libvcruntime:undname.obj
 0002:0000b090       ??_C@_0DB@ILEFOCIJ@?$GAtemplate?5static?5data?5member?5co@ 00000001801dd090     libvcruntime:undname.obj
 0002:0000b0c8       ??_C@_0DA@HGFJFBBE@?$GAtemplate?5static?5data?5member?5de@ 00000001801dd0c8     libvcruntime:undname.obj
 0002:0000b0f8       ??_C@_07PGOEDBHP@static?5@ 00000001801dd0f8     libvcruntime:undname.obj
 0002:0000b100       ??_C@_08NIEOINHE@virtual?5@ 00000001801dd100     libvcruntime:undname.obj
 0002:0000b110       ??_C@_09LAPHOOG@private?3?5@ 00000001801dd110     libvcruntime:undname.obj
 0002:0000b120       ??_C@_0M@GAIFPFIP@protected?3?5@ 00000001801dd120     libvcruntime:undname.obj
 0002:0000b130       ??_C@_08GPDDCMKI@public?3?5@ 00000001801dd130     libvcruntime:undname.obj
 0002:0000b140       ??_C@_08KJLFOPNE@?$FLthunk?$FN?3@ 00000001801dd140     libvcruntime:undname.obj
 0002:0000b150       ??_C@_0M@DHNBOJMP@extern?5?$CCC?$CC?5@ 00000001801dd150     libvcruntime:undname.obj
 0002:0000b15c       ??_C@_02KCKGHPCA@?$CJ?5@   00000001801dd15c     libvcruntime:undname.obj
 0002:0000b160       ??_C@_05CIHEBHNO@char?5@   00000001801dd160     libvcruntime:undname.obj
 0002:0000b168       ??_C@_06EHJMALKF@short?5@  00000001801dd168     libvcruntime:undname.obj
 0002:0000b170       ??_C@_04LAHKHJMA@int?5@    00000001801dd170     libvcruntime:undname.obj
 0002:0000b178       ??_C@_05CJIMAING@long?5@   00000001801dd178     libvcruntime:undname.obj
 0002:0000b180       ??_C@_09EBBEKKIH@unsigned?5@ 00000001801dd180     libvcruntime:undname.obj
 0002:0000b18c       ??_C@_05BEFAKPML@void?5@   00000001801dd18c     libvcruntime:undname.obj
 0002:0000b198       ??_C@_09GAIEOBLP@volatile?5@ 00000001801dd198     libvcruntime:undname.obj
 0002:0000b1a8       ??_C@_08PABEKFH@volatile@  00000001801dd1a8     libvcruntime:undname.obj
 0002:0000b1b8       ??_C@_0BA@LKIJLKPP@std?3?3nullptr_t?5@ 00000001801dd1b8     libvcruntime:undname.obj
 0002:0000b1c8       ??_C@_0P@GCOCNKDM@std?3?3nullptr_t@ 00000001801dd1c8     libvcruntime:undname.obj
 0002:0000b1d8       ??_C@_0L@EGPHHEKN@?$DMellipsis?$DO@ 00000001801dd1d8     libvcruntime:undname.obj
 0002:0000b1e4       ??_C@_04EENFHACM@?0?4?4?4@ 00000001801dd1e4     libvcruntime:undname.obj
 0002:0000b1f0       ??_C@_0M@ELJOJFFH@?0?$DMellipsis?$DO@ 00000001801dd1f0     libvcruntime:undname.obj
 0002:0000b200       ??_C@_09DNHFEOJI@?5noexcept@ 00000001801dd200     libvcruntime:undname.obj
 0002:0000b20c       ??_C@_03PBJBJNON@cpu@      00000001801dd20c     libvcruntime:undname.obj
 0002:0000b210       ??_C@_03DCBBJBAA@amp@      00000001801dd210     libvcruntime:undname.obj
 0002:0000b214       ??_C@_02KEGNLNML@?0?5@     00000001801dd214     libvcruntime:undname.obj
 0002:0000b218       ??_C@_04ENMBGAPA@char@     00000001801dd218     libvcruntime:undname.obj
 0002:0000b220       ??_C@_05BFKKPKCG@short@    00000001801dd220     libvcruntime:undname.obj
 0002:0000b228       ??_C@_03JBIPMCLC@int@      00000001801dd228     libvcruntime:undname.obj
 0002:0000b22c       ??_C@_04GOKPGOLB@long@     00000001801dd22c     libvcruntime:undname.obj
 0002:0000b234       ??_C@_06BNJCAIGJ@double@   00000001801dd234     libvcruntime:undname.obj
 0002:0000b23c       ??_C@_06EBGKOKIG@__int8@   00000001801dd23c     libvcruntime:undname.obj
 0002:0000b248       ??_C@_07ICFHOGAF@__int16@  00000001801dd248     libvcruntime:undname.obj
 0002:0000b250       ??_C@_07OFLPPHGP@__int32@  00000001801dd250     libvcruntime:undname.obj
 0002:0000b258       ??_C@_07LFCOJCAC@__int64@  00000001801dd258     libvcruntime:undname.obj
 0002:0000b260       ??_C@_08GAHOLHEO@__int128@ 00000001801dd260     libvcruntime:undname.obj
 0002:0000b270       ??_C@_09EEKGDCPH@?$DMunknown?$DO@ 00000001801dd270     libvcruntime:undname.obj
 0002:0000b280       ??_C@_07CFHGOPCN@char8_t@  00000001801dd280     libvcruntime:undname.obj
 0002:0000b288       ??_C@_08HBIPOFJB@char16_t@ 00000001801dd288     libvcruntime:undname.obj
 0002:0000b298       ??_C@_08IECNCBKG@char32_t@ 00000001801dd298     libvcruntime:undname.obj
 0002:0000b2a8       ??_C@_07CLGGIAMF@wchar_t@  00000001801dd2a8     libvcruntime:undname.obj
 0002:0000b2b0       ??_C@_04HAPDLBFF@auto@     00000001801dd2b0     libvcruntime:undname.obj
 0002:0000b2b8       ??_C@_0P@LHCGKIGK@decltype?$CIauto?$CJ@ 00000001801dd2b8     libvcruntime:undname.obj
 0002:0000b2c8       ??_C@_06GCICPBLB@__w64?5@  00000001801dd2c8     libvcruntime:undname.obj
 0002:0000b2d0       ??_C@_07NFANNNEC@UNKNOWN@  00000001801dd2d0     libvcruntime:undname.obj
 0002:0000b2d8       ??_C@_07EDHNAJHC@signed?5@ 00000001801dd2d8     libvcruntime:undname.obj
 0002:0000b2e0       ??_C@_05BNCCCJPP@const@    00000001801dd2e0     libvcruntime:undname.obj
 0002:0000b2e8       ??_C@_09EFNPDFFP@?5volatile@ 00000001801dd2e8     libvcruntime:undname.obj
 0002:0000b2f8       ??_C@_0P@GCIFDJCJ@?$GAunknown?5ecsu?8@ 00000001801dd2f8     libvcruntime:undname.obj
 0002:0000b308       ??_C@_06MOJHIBMG@union?5@  00000001801dd308     libvcruntime:undname.obj
 0002:0000b310       ??_C@_07DIBCDNGL@struct?5@ 00000001801dd310     libvcruntime:undname.obj
 0002:0000b318       ??_C@_06LJBABKPM@class?5@  00000001801dd318     libvcruntime:undname.obj
 0002:0000b320       ??_C@_08KOFANOFK@coclass?5@ 00000001801dd320     libvcruntime:undname.obj
 0002:0000b330       ??_C@_0N@DLIEFKNA@cointerface?5@ 00000001801dd330     libvcruntime:undname.obj
 0002:0000b340       ??_C@_05LJGMCFOG@enum?5@   00000001801dd340     libvcruntime:undname.obj
 0002:0000b348       ??_C@_06LIJLOJAG@const?5@  00000001801dd348     libvcruntime:undname.obj
 0002:0000b350       ??_C@_02KJPKDIBN@?$CG?5@   00000001801dd350     libvcruntime:undname.obj
 0002:0000b354       ??_C@_03PCKGMOPB@?$CG?$CG?5@ 00000001801dd354     libvcruntime:undname.obj
 0002:0000b358       ??_C@_0M@EALIELKG@cli?3?3array?$DM@ 00000001801dd358     libvcruntime:undname.obj
 0002:0000b368       ??_C@_0O@GKABPPIF@cli?3?3pin_ptr?$DM@ 00000001801dd368     libvcruntime:undname.obj
 0002:0000b378       ??_C@_02GOGNNPBN@?$CJ?$FL@ 00000001801dd378     libvcruntime:undname.obj
 0002:0000b37c       ??_C@_06EEGAIFAK@?$HLflat?$HN@ 00000001801dd37c     libvcruntime:undname.obj
 0002:0000b384       ??_C@_05JIBOFOHK@?$HLfor?5@ 00000001801dd384     libvcruntime:undname.obj
 0002:0000b38c       ??_C@_02MDINNEEG@s?5@      00000001801dd38c     libvcruntime:undname.obj
 0002:0000b398       ??_7charNode@@6B@          00000001801dd398     libvcruntime:undname.obj
 0002:0000b3c0       ??_7pcharNode@@6B@         00000001801dd3c0     libvcruntime:undname.obj
 0002:0000b3e8       ??_7pDNameNode@@6B@        00000001801dd3e8     libvcruntime:undname.obj
 0002:0000b410       ??_7DNameStatusNode@@6B@   00000001801dd410     libvcruntime:undname.obj
 0002:0000b438       ??_7pairNode@@6B@          00000001801dd438     libvcruntime:undname.obj
 0002:0000b560       ??_C@_04OKOHEJBO@?5?$DP?$DP?5@ 00000001801dd560     libvcruntime:undname.obj
 0002:0000b570       ?nodes@?1??make@DNameStatusNode@@SAPEBV2@W4DNameStatus@@@Z@4QBV2@B 00000001801dd570     libvcruntime:undname.obj
 0002:0000b5b0       ?s_negLengthTab@FH4@@3QBCB 00000001801dd5b0     libvcruntime:risctrnsctrl.obj
 0002:0000b5c0       ?s_shiftTab@FH4@@3QBEB     00000001801dd5c0     libvcruntime:risctrnsctrl.obj
 0002:0000b680       ??_C@_1DM@KHCHBNEB@?$AAa?$AAp?$AAi?$AA?9?$AAm?$AAs?$AA?9?$AAw?$AAi?$AAn?$AA?9?$AAc?$AAo?$AAr?$AAe@ 00000001801dd680     libvcruntime:winapi_downlevel.obj
 0002:0000b6c0       ??_C@_1DK@LPPGFMPP@?$AAa?$AAp?$AAi?$AA?9?$AAm?$AAs?$AA?9?$AAw?$AAi?$AAn?$AA?9?$AAc?$AAo?$AAr?$AAe@ 00000001801dd6c0     libvcruntime:winapi_downlevel.obj
 0002:0000b700       ??_C@_1BC@GDMECMAK@?$AAk?$AAe?$AAr?$AAn?$AAe?$AAl?$AA3?$AA2@ 00000001801dd700     libvcruntime:winapi_downlevel.obj
 0002:0000b718       ??_C@_1BA@PFFKHIOG@?$AAa?$AAp?$AAi?$AA?9?$AAm?$AAs?$AA?9@ 00000001801dd718     libvcruntime:winapi_downlevel.obj
 0002:0000b730       ??_C@_08KNHFBNJ@FlsAlloc@  00000001801dd730     libvcruntime:winapi_downlevel.obj
 0002:0000b748       ??_C@_07PEJMOBNF@FlsFree@  00000001801dd748     libvcruntime:winapi_downlevel.obj
 0002:0000b758       ??_C@_0M@GDNOONDI@FlsGetValue@ 00000001801dd758     libvcruntime:winapi_downlevel.obj
 0002:0000b770       ??_C@_0M@JCPCPOEF@FlsSetValue@ 00000001801dd770     libvcruntime:winapi_downlevel.obj
 0002:0000b788       ??_C@_0BM@HCFOFFN@InitializeCriticalSectionEx@ 00000001801dd788     libvcruntime:winapi_downlevel.obj
 0002:0000b7b0       ??_7exception@std@@6B@     00000001801dd7b0     libvcruntime:frame.obj
 0002:0000b7c0       ??_C@_0BC@EOODALEL@Unknown?5exception@ 00000001801dd7c0     libvcruntime:frame.obj
 0002:0000b7e0       ??_7bad_exception@std@@6B@ 00000001801dd7e0     libvcruntime:frame.obj
 0002:0000b7f0       ??_C@_0O@DPKOEFFH@bad?5exception@ 00000001801dd7f0     libvcruntime:frame.obj
 0002:0000bb40       ?standard_lookup_table_spectre@__crt_stdio_output@@3V?$spectre_mitigated_lookup_table@Ustate_transition_pair@__crt_stdio_output@@$0IA@@1@B 00000001801ddb40     libucrt:output.obj
 0002:0000bf40       ?format_validation_lookup_table_spectre@__crt_stdio_output@@3V?$spectre_mitigated_lookup_table@Ustate_transition_pair@__crt_stdio_output@@$0IA@@1@B 00000001801ddf40     libucrt:output.obj
 0002:0000c340       ??_C@_1O@CEDCILHN@?$AA?$CI?$AAn?$AAu?$AAl?$AAl?$AA?$CJ@ 00000001801de340     libucrt:output.obj
 0002:0000c350       ??_C@_06OJHGLDPL@?$CInull?$CJ@ 00000001801de350     libucrt:output.obj
 0002:0000d3e8       __real@3f1a36e2eb1c432d    00000001801df3e8     libucrt:atan2f.obj
 0002:0000d3f0       __real@3fb0000000000000    00000001801df3f0     libucrt:atan2f.obj
 0002:0000d3f8       __real@3fc2492482bd6be1    00000001801df3f8     libucrt:atan2f.obj
 0002:0000d400       __real@3fc99999999643a3    00000001801df400     libucrt:atan2f.obj
 0002:0000d408       __real@3fd5555555550877    00000001801df408     libucrt:atan2f.obj
 0002:0000d410       __real@3fd5555555555538    00000001801df410     libucrt:atan2f.obj
 0002:0000d418       __real@3ff921fb54442d18    00000001801df418     libucrt:atan2f.obj
 0002:0000d420       __real@400921fb54442d18    00000001801df420     libucrt:atan2f.obj
 0002:0000d428       __real@4070000000000000    00000001801df428     libucrt:atan2f.obj
 0002:0000d430       __real@bf490fdb            00000001801df430     libucrt:atan2f.obj
 0002:0000d434       __real@bfc90fdb            00000001801df434     libucrt:atan2f.obj
 0002:0000d438       __real@c016cbe4            00000001801df438     libucrt:atan2f.obj
 0002:0000d43c       __real@c0490fdb            00000001801df43c     libucrt:atan2f.obj
 0002:0000d440       ??_C@_05FFFCHCED@acosf@    00000001801df440     libucrt:acosf.obj
 0002:0000d448       __real@3b81ce6b            00000001801df448     libucrt:acosf.obj
 0002:0000d450       __real@3c91a62633145c07    00000001801df450     libucrt:acosf.obj
 0002:0000d458       __real@3d678bdd            00000001801df458     libucrt:acosf.obj
 0002:0000d45c       __real@3e3c94dc            00000001801df45c     libucrt:acosf.obj
 0002:0000d460       __real@3f561f0d            00000001801df460     libucrt:acosf.obj
 0002:0000d464       __real@3f8d6fa5            00000001801df464     libucrt:acosf.obj
 0002:0000d468       __real@bc5b3fe1            00000001801df468     libucrt:acosf.obj
 0002:0000d470       __acrt_exception_action_table 00000001801df470     libucrt:exception_filter.obj
 0002:0000d530       __acrt_signal_action_table_count 00000001801df530     libucrt:exception_filter.obj
 0002:0000d538       __acrt_signal_action_first_fpe_index 00000001801df538     libucrt:exception_filter.obj
 0002:0000d540       __acrt_signal_action_fpe_count 00000001801df540     libucrt:exception_filter.obj
 0002:0000d548       ??_C@_1BI@BGOHAHKC@?$AAm?$AAs?$AAc?$AAo?$AAr?$AAe?$AAe?$AA?4?$AAd?$AAl?$AAl@ 00000001801df548     libucrt:exit.obj
 0002:0000d560       ??_C@_0P@MIGLKIOC@CorExitProcess@ 00000001801df560     libucrt:exit.obj
 0002:0000d7e0       ??_C@_04LAGPAAHP@sinf@     00000001801df7e0     libucrt:sincos_special.obj
 0002:0000d7e8       ??_C@_04OBBKPIAC@cosf@     00000001801df7e8     libucrt:sincos_special.obj
 0002:0000d7f0       ??_C@_04MHPLPEIA@tanf@     00000001801df7f0     libucrt:sincos_special.obj
 0002:0000d800       __Lcosfarray               00000001801df800     libucrt:lsincosf_array.obj
 0002:0000d830       __Lsinfarray               00000001801df830     libucrt:lsincosf_array.obj
 0002:0000d850       __L_2_by_pi_bits           00000001801df850     libucrt:l2_by_pi_bits.obj
 0002:0000dbb0       ??_C@_1EA@JGEFHKEI@?$AAa?$AAp?$AAi?$AA?9?$AAm?$AAs?$AA?9?$AAw?$AAi?$AAn?$AA?9?$AAc?$AAo?$AAr?$AAe@ 00000001801dfbb0     libucrt:winapi_thunks.obj
 0002:0000dbf0       ??_C@_1DI@IJCEHOCB@?$AAa?$AAp?$AAi?$AA?9?$AAm?$AAs?$AA?9?$AAw?$AAi?$AAn?$AA?9?$AAc?$AAo?$AAr?$AAe@ 00000001801dfbf0     libucrt:winapi_thunks.obj
 0002:0000dc30       ??_C@_1EI@MPIAOHOC@?$AAa?$AAp?$AAi?$AA?9?$AAm?$AAs?$AA?9?$AAw?$AAi?$AAn?$AA?9?$AAc?$AAo?$AAr?$AAe@ 00000001801dfc30     libucrt:winapi_thunks.obj
 0002:0000dc80       ??_C@_1FK@FPHCKFIE@?$AAa?$AAp?$AAi?$AA?9?$AAm?$AAs?$AA?9?$AAw?$AAi?$AAn?$AA?9?$AAc?$AAo?$AAr?$AAe@ 00000001801dfc80     libucrt:winapi_thunks.obj
 0002:0000dce0       ??_C@_1EM@DILCGIIO@?$AAa?$AAp?$AAi?$AA?9?$AAm?$AAs?$AA?9?$AAw?$AAi?$AAn?$AA?9?$AAc?$AAo?$AAr?$AAe@ 00000001801dfce0     libucrt:winapi_thunks.obj
 0002:0000dd30       ??_C@_1DM@LNCGDDPN@?$AAa?$AAp?$AAi?$AA?9?$AAm?$AAs?$AA?9?$AAw?$AAi?$AAn?$AA?9?$AAc?$AAo?$AAr?$AAe@ 00000001801dfd30     libucrt:winapi_thunks.obj
 0002:0000dd70       ??_C@_1DO@FPAPJEMD@?$AAa?$AAp?$AAi?$AA?9?$AAm?$AAs?$AA?9?$AAw?$AAi?$AAn?$AA?9?$AAc?$AAo?$AAr?$AAe@ 00000001801dfd70     libucrt:winapi_thunks.obj
 0002:0000ddb0       ??_C@_1DK@NDHNAHIO@?$AAa?$AAp?$AAi?$AA?9?$AAm?$AAs?$AA?9?$AAw?$AAi?$AAn?$AA?9?$AAc?$AAo?$AAr?$AAe@ 00000001801dfdb0     libucrt:winapi_thunks.obj
 0002:0000ddf0       ??_C@_1DM@KGHDGBCM@?$AAa?$AAp?$AAi?$AA?9?$AAm?$AAs?$AA?9?$AAw?$AAi?$AAn?$AA?9?$AAc?$AAo?$AAr?$AAe@ 00000001801dfdf0     libucrt:winapi_thunks.obj
 0002:0000de30       ??_C@_1EO@IJIOEFOH@?$AAa?$AAp?$AAi?$AA?9?$AAm?$AAs?$AA?9?$AAw?$AAi?$AAn?$AA?9?$AAr?$AAt?$AAc?$AAo@ 00000001801dfe30     libucrt:winapi_thunks.obj
 0002:0000de80       ??_C@_1FG@HHGEKANL@?$AAa?$AAp?$AAi?$AA?9?$AAm?$AAs?$AA?9?$AAw?$AAi?$AAn?$AA?9?$AAs?$AAe?$AAc?$AAu@ 00000001801dfe80     libucrt:winapi_thunks.obj
 0002:0000dee0       ??_C@_1EG@DBIOJECG@?$AAe?$AAx?$AAt?$AA?9?$AAm?$AAs?$AA?9?$AAw?$AAi?$AAn?$AA?9?$AAn?$AAt?$AAu?$AAs@ 00000001801dfee0     libucrt:winapi_thunks.obj
 0002:0000df30       ??_C@_1EO@FIHMJCLF@?$AAe?$AAx?$AAt?$AA?9?$AAm?$AAs?$AA?9?$AAw?$AAi?$AAn?$AA?9?$AAn?$AAt?$AAu?$AAs@ 00000001801dff30     libucrt:winapi_thunks.obj
 0002:0000df80       ??_C@_1BC@DNHGCMLG@?$AAa?$AAd?$AAv?$AAa?$AAp?$AAi?$AA3?$AA2@ 00000001801dff80     libucrt:winapi_thunks.obj
 0002:0000df98       ??_C@_1M@OAIMIKLP@?$AAn?$AAt?$AAd?$AAl?$AAl@ 00000001801dff98     libucrt:winapi_thunks.obj
 0002:0000dfb0       ??_C@_1EG@DPGNFKGC@?$AAa?$AAp?$AAi?$AA?9?$AAm?$AAs?$AA?9?$AAw?$AAi?$AAn?$AA?9?$AAa?$AAp?$AAp?$AAm@ 00000001801dffb0     libucrt:winapi_thunks.obj
 0002:0000dff8       ??_C@_1O@BCCLBEOE@?$AAu?$AAs?$AAe?$AAr?$AA3?$AA2@ 00000001801dfff8     libucrt:winapi_thunks.obj
 0002:0000e008       ??_C@_1BA@IAIFMGEF@?$AAe?$AAx?$AAt?$AA?9?$AAm?$AAs?$AA?9@ 00000001801e0008     libucrt:winapi_thunks.obj
 0002:0000e020       ??_C@_0BA@FHFNEAED@AreFileApisANSI@ 00000001801e0020     libucrt:winapi_thunks.obj
 0002:0000e060       ??_C@_0O@KKBNKAPF@LCMapStringEx@ 00000001801e0060     libucrt:winapi_thunks.obj
 0002:0000e078       ??_C@_0BB@HBDEELFH@LocaleNameToLCID@ 00000001801e0078     libucrt:winapi_thunks.obj
 0002:0000e090       ??_C@_0CF@OJOFEIGO@AppPolicyGetProcessTerminationM@ 00000001801e0090     libucrt:winapi_thunks.obj
 0002:0000e140       ??_C@_03OEIAHPBN@INF@      00000001801e0140     libucrt:cvt.obj
 0002:0000e144       ??_C@_03OJHLLCGB@inf@      00000001801e0144     libucrt:cvt.obj
 0002:0000e148       ??_C@_03LKNCIKJB@NAN@      00000001801e0148     libucrt:cvt.obj
 0002:0000e14c       ??_C@_03LHCJEHON@nan@      00000001801e014c     libucrt:cvt.obj
 0002:0000e150       ??_C@_09OFJJIMPC@NAN?$CISNAN?$CJ@ 00000001801e0150     libucrt:cvt.obj
 0002:0000e160       ??_C@_09IPFBKMDL@nan?$CIsnan?$CJ@ 00000001801e0160     libucrt:cvt.obj
 0002:0000e170       ??_C@_08IKHNHAJ@NAN?$CIIND?$CJ@ 00000001801e0170     libucrt:cvt.obj
 0002:0000e180       ??_C@_08OFCDMILK@nan?$CIind?$CJ@ 00000001801e0180     libucrt:cvt.obj
 0002:0000e18c       ??_C@_05KLBDPFGC@e?$CL000@ 00000001801e018c     libucrt:cvt.obj
 0002:0000e1a0       __lc_time_c                00000001801e01a0     libucrt:nlsdata.obj
 0002:0000e460       ??_C@_03KOEHGMDN@Sun@      00000001801e0460     libucrt:nlsdata.obj
 0002:0000e464       ??_C@_03PDAGKDH@Mon@       00000001801e0464     libucrt:nlsdata.obj
 0002:0000e468       ??_C@_03NAGEINEP@Tue@      00000001801e0468     libucrt:nlsdata.obj
 0002:0000e46c       ??_C@_03MHOMLAJA@Wed@      00000001801e046c     libucrt:nlsdata.obj
 0002:0000e470       ??_C@_03IOFIKPDN@Thu@      00000001801e0470     libucrt:nlsdata.obj
