 PhysX_64

 Timestamp is 640ea26a (Mon Mar 13 00:11:22 2023)

 Preferred load address is 0000000180000000

 Start         Length     Name                   Class
 0001:00000000 000032d0H .text$di                CODE
 0001:000032d0 001e6480H .text$mn                CODE
 0001:001e9750 00000040H .text$mn$00             CODE
 0001:001e9790 00000490H .text$x                 CODE
 0001:001e9c20 0000002fH .text$yd                CODE
 0002:00000000 00000290H .idata$5                DATA
 0002:00000290 00000028H .00cfg                  DATA
 0002:000002b8 00000008H .CRT$XCA                DATA
 0002:000002c0 00001920H .CRT$XCU                DATA
 0002:00001be0 00000008H .CRT$XCZ                DATA
 0002:00001be8 00000008H .CRT$XIA                DATA
 0002:00001bf0 00000018H .CRT$XIC                DATA
 0002:00001c08 00000008H .CRT$XIZ                DATA
 0002:00001c10 00000008H .CRT$XPA                DATA
 0002:00001c18 00000010H .CRT$XPX                DATA
 0002:00001c28 00000008H .CRT$XPXA               DATA
 0002:00001c30 00000008H .CRT$XPZ                DATA
 0002:00001c38 00000008H .CRT$XTA                DATA
 0002:00001c40 00000010H .CRT$XTZ                DATA
 0002:00001c48 00000000H .gehcont$y              DATA
 0002:00001c48 00000000H .gfids$y                DATA
 0002:00001c50 00038eb0H .rdata                  DATA
 0002:0003ab00 00000000H .rdata$CastGuardVftablesA DATA
 0002:0003ab00 00000000H .rdata$CastGuardVftablesC DATA
 0002:0003ab00 0000043cH .rdata$r                DATA
 0002:0003af3c 00000a7cH .rdata$voltmd           DATA
 0002:0003b9b8 00000430H .rdata$zzzdbg           DATA
 0002:0003bde8 00000008H .rtc$IAA                DATA
 0002:0003bdf0 00000008H .rtc$IZZ                DATA
 0002:0003bdf8 00000008H .rtc$TAA                DATA
 0002:0003be00 00000008H .rtc$TZZ                DATA
 0002:0003be08 0001bfd8H .xdata                  DATA
 0002:00057de0 00000084H .xdata$x                DATA
 0002:00057e64 00000040H .didat$2                DATA
 0002:00057ea4 00000024H .didat$3                DATA
 0002:00057ec8 00000788H .didat$4                DATA
 0002:00058650 000052a0H .didat$6                DATA
 0002:0005d8f0 00000790H .didat$7                DATA
 0002:0005e080 00002d4cH .edata                  DATA
 0002:00060dcc 00000014H .idata$2                DATA
 0002:00060de0 00000018H .idata$3                DATA
 0002:00060df8 00000290H .idata$4                DATA
 0002:00061088 00000604H .idata$6                DATA
 0003:00000000 00002830H .data                   DATA
 0003:00002830 00003bd0H .data$r                 DATA
 0003:00006400 000000f0H .data$rs                DATA
 0003:000064f0 00000790H .didat$5                DATA
 0003:00006c80 00004b70H .bss                    DATA
 0004:00000000 00018768H .pdata                  DATA
 0005:00000000 00002304H _RDATA                  DATA
 0006:00000000 000000a0H .rsrc$01                DATA
 0006:000000a0 00000488H .rsrc$02                DATA

  Address         Publics by Value              Rva+Base               Lib:Object

 0000:00000000       ___safe_se_handler_count   0000000000000000     <absolute>
 0000:00000000       __guard_longjmp_table      0000000000000000     <absolute>
 0000:00000000       __hybrid_auxiliary_iat_copy 0000000000000000     <absolute>
 0000:00000000       __guard_iat_table          0000000000000000     <absolute>
 0000:00000000       __arm64x_extra_rfe_table_size 0000000000000000     <absolute>
 0000:00000000       __x64_code_ranges_to_entry_points_count 0000000000000000     <absolute>
 0000:00000000       __dynamic_value_reloc_table 0000000000000000     <absolute>
 0000:00000000       __hybrid_code_map          0000000000000000     <absolute>
 0000:00000000       __AbsoluteZero             0000000000000000     <absolute>
 0000:00000000       __guard_longjmp_count      0000000000000000     <absolute>
 0000:00000000       __x64_code_ranges_to_entry_points 0000000000000000     <absolute>
 0000:00000000       __guard_iat_count          0000000000000000     <absolute>
 0000:00000000       ___safe_se_handler_table   0000000000000000     <absolute>
 0000:00000000       __guard_check_icall_a64n_fptr 0000000000000000     <absolute>
 0000:00000000       __guard_eh_cont_count      0000000000000000     <absolute>
 0000:00000000       __guard_fids_count         0000000000000000     <absolute>
 0000:00000000       __hybrid_auxiliary_iat     0000000000000000     <absolute>
 0000:00000000       __guard_fids_table         0000000000000000     <absolute>
 0000:00000000       __arm64x_redirection_metadata_count 0000000000000000     <absolute>
 0000:00000000       __enclave_config           0000000000000000     <absolute>
 0000:00000000       __arm64x_extra_rfe_table   0000000000000000     <absolute>
 0000:00000000       __guard_eh_cont_table      0000000000000000     <absolute>
 0000:00000000       __arm64x_native_entrypoint 0000000000000000     <absolute>
 0000:00000000       __hybrid_code_map_count    0000000000000000     <absolute>
 0000:00000000       __arm64x_redirection_metadata 0000000000000000     <absolute>
 0000:00000100       __guard_flags              0000000000000100     <absolute>
 0000:00000000       __ImageBase                0000000180000000     <linker-defined>
 0001:000032d0       ??0PxFoundation@physx@@QEAA@AEBV01@@Z 00000001800042d0 f i NpOmniPvd.obj
 0001:000032d0       ??0PxFoundation@physx@@QEAA@XZ 00000001800042d0 f i NpOmniPvd.obj
 0001:000032e0       ??1PxFoundation@physx@@MEAA@XZ 00000001800042e0 f i NpOmniPvd.obj
 0001:000032f0       ??4PxSyncImpl@physx@@QEAAAEAV01@AEBV01@@Z 00000001800042f0 f i OmniPvdPxSampler.obj
 0001:000032f0       ??0PxGeometryGeneratedInfo@physx@@QEAA@XZ 00000001800042f0 f i PxAutoGeneratedMetaDataObjects.obj
 0001:000032f0       ??4PxSListImpl@physx@@QEAAAEAU01@AEBU01@@Z 00000001800042f0 f i OmniPvdPxSampler.obj
 0001:000032f0       ??0PxPlaneGeometryGeneratedValues@physx@@QEAA@PEBVPxPlaneGeometry@1@@Z 00000001800042f0 f i PxAutoGeneratedMetaDataObjects.obj
 0001:000032f0       ??4PxMutexImpl@physx@@QEAAAEAV01@AEBV01@@Z 00000001800042f0 f i NpOmniPvd.obj
 0001:000032f0       ??0PxPlaneGeometryGeneratedInfo@physx@@QEAA@XZ 00000001800042f0 f i PxAutoGeneratedMetaDataObjects.obj
 0001:000032f0       ??$forward@_K@std@@YA$$QEA_KAEA_K@Z 00000001800042f0 f i libvcruntime:undname.obj
 0001:000032f0       ??4PxFoundation@physx@@QEAAAEAV01@AEBV01@@Z 00000001800042f0 f i NpOmniPvd.obj
 0001:000032f0       ??0PxGeometryGeneratedValues@physx@@QEAA@PEBVPxGeometry@1@@Z 00000001800042f0 f i PxAutoGeneratedMetaDataObjects.obj
 0001:000032f0       ??4PxThreadImpl@physx@@QEAAAEAV01@AEBV01@@Z 00000001800042f0 f i OmniPvdPxSampler.obj
 0001:00003300       ??_EPxFoundation@physx@@MEAAPEAXI@Z 0000000180004300 f i NpOmniPvd.obj
 0001:00003390       ??_ENpOmniPvd@physx@@UEAAPEAXI@Z 0000000180004390 f i NpOmniPvd.obj
 0001:00003390       ??_GNpOmniPvd@physx@@UEAAPEAXI@Z 0000000180004390 f i NpOmniPvd.obj
 0001:00003460       ??_GPxOmniPvd@physx@@UEAAPEAXI@Z 0000000180004460 f i NpOmniPvd.obj
 0001:00003460       ??_EPxOmniPvd@physx@@UEAAPEAXI@Z 0000000180004460 f i NpOmniPvd.obj
 0001:00003460       ??_GPVDCapture@Sq@physx@@UEAAPEAXI@Z 0000000180004460 f i NpSceneQueries.obj
 0001:00003460       ??_EPVDCapture@Sq@physx@@UEAAPEAXI@Z 0000000180004460 f i NpSceneQueries.obj
 0001:00003490       ?decRefCount@NpOmniPvd@physx@@SAXXZ 0000000180004490 f   NpOmniPvd.obj
 0001:000034b0       ?getFileWriteStream@NpOmniPvd@physx@@UEAAPEAVOmniPvdFileWriteStream@@XZ 00000001800044b0 f   NpOmniPvd.obj
 0001:000034e0       ?getWriter@NpOmniPvd@physx@@UEAAPEAVOmniPvdWriter@@XZ 00000001800044e0 f   NpOmniPvd.obj
 0001:00003510       ?incRefCount@NpOmniPvd@physx@@SAXXZ 0000000180004510 f   NpOmniPvd.obj
 0001:00003520       ?initOmniPvd@NpOmniPvd@physx@@QEAA_NXZ 0000000180004520 f   NpOmniPvd.obj
 0001:000036f0       ?release@NpOmniPvd@physx@@UEAAXXZ 00000001800046f0 f   NpOmniPvd.obj
 0001:00003750       ?startSampling@NpOmniPvd@physx@@UEAA_NXZ 0000000180004750 f   NpOmniPvd.obj
 0001:00003770       PxCreateOmniPvd            0000000180004770 f   NpOmniPvd.obj
 0001:00003850       ??$addToSet@VPxScene@physx@@VPxActor@2@@OmniPvdPxSampler@@QEAAXIAEBVPxScene@physx@@AEBVPxActor@2@@Z 0000000180004850 f i OmniPvdPxSampler.obj
 0001:00003850       ??$addToSet@VPxAggregate@physx@@VPxActor@2@@OmniPvdPxSampler@@QEAAXIAEBVPxAggregate@physx@@AEBVPxActor@2@@Z 0000000180004850 f i OmniPvdPxSampler.obj
 0001:00003850       ??$addToSet@VPxScene@physx@@VPxAggregate@2@@OmniPvdPxSampler@@QEAAXIAEBVPxScene@physx@@AEBVPxAggregate@2@@Z 0000000180004850 f i OmniPvdPxSampler.obj
 0001:00003850       ??$addToSet@VPxActor@physx@@VPxShape@2@@OmniPvdPxSampler@@QEAAXIAEBVPxActor@physx@@AEBVPxShape@2@@Z 0000000180004850 f i OmniPvdPxSampler.obj
 0001:00003850       ??$addToSet@VPxPhysics@physx@@VPxScene@2@@OmniPvdPxSampler@@QEAAXIAEBVPxPhysics@physx@@AEBVPxScene@2@@Z 0000000180004850 f i OmniPvdPxSampler.obj
 0001:00003850       ??$addToSet@VPxScene@physx@@VPxArticulationReducedCoordinate@2@@OmniPvdPxSampler@@QEAAXIAEBVPxScene@physx@@AEBVPxArticulationReducedCoordinate@2@@Z 0000000180004850 f i OmniPvdPxSampler.obj
 0001:00003890       ??$createObject@VPxScene@physx@@@OmniPvdPxSampler@@QEAAXIAEBVPxScene@physx@@@Z 0000000180004890 f i OmniPvdPxSampler.obj
 0001:000038c0       ??$destroyObject@VPxScene@physx@@@OmniPvdPxSampler@@QEAAXAEBVPxScene@physx@@@Z 00000001800048c0 f i OmniPvdPxSampler.obj
 0001:000038c0       ??$destroyObject@VPxPhysics@physx@@@OmniPvdPxSampler@@QEAAXAEBVPxPhysics@physx@@@Z 00000001800048c0 f i OmniPvdPxSampler.obj
 0001:000038c0       ??$destroyObject@VPxMaterial@physx@@@OmniPvdPxSampler@@QEAAXAEBVPxMaterial@physx@@@Z 00000001800048c0 f i OmniPvdPxSampler.obj
 0001:000038e0       ??$removeFromSet@VPxScene@physx@@VPxArticulationReducedCoordinate@2@@OmniPvdPxSampler@@QEAAXIAEBVPxScene@physx@@AEBVPxArticulationReducedCoordinate@2@@Z 00000001800048e0 f i OmniPvdPxSampler.obj
 0001:000038e0       ??$removeFromSet@VPxScene@physx@@VPxActor@2@@OmniPvdPxSampler@@QEAAXIAEBVPxScene@physx@@AEBVPxActor@2@@Z 00000001800048e0 f i OmniPvdPxSampler.obj
 0001:000038e0       ??$removeFromSet@VPxPhysics@physx@@VPxScene@2@@OmniPvdPxSampler@@QEAAXIAEBVPxPhysics@physx@@AEBVPxScene@2@@Z 00000001800048e0 f i OmniPvdPxSampler.obj
 0001:000038e0       ??$removeFromSet@VPxAggregate@physx@@VPxActor@2@@OmniPvdPxSampler@@QEAAXIAEBVPxAggregate@physx@@AEBVPxActor@2@@Z 00000001800048e0 f i OmniPvdPxSampler.obj
 0001:000038e0       ??$removeFromSet@VPxActor@physx@@VPxShape@2@@OmniPvdPxSampler@@QEAAXIAEBVPxActor@physx@@AEBVPxShape@2@@Z 00000001800048e0 f i OmniPvdPxSampler.obj
 0001:000038e0       ??$removeFromSet@VPxScene@physx@@VPxAggregate@2@@OmniPvdPxSampler@@QEAAXIAEBVPxScene@physx@@AEBVPxAggregate@2@@Z 00000001800048e0 f i OmniPvdPxSampler.obj
 0001:00003920       ??$setAttribute@VPxActor@physx@@_N@OmniPvdPxSampler@@QEAAXIAEBVPxActor@physx@@AEB_N@Z 0000000180004920 f i OmniPvdPxSampler.obj
 0001:00003920       ??$setAttribute@VPxActor@physx@@E@OmniPvdPxSampler@@QEAAXIAEBVPxActor@physx@@AEBE@Z 0000000180004920 f i OmniPvdPxSampler.obj
 0001:00003920       ??$setAttribute@VPxShape@physx@@V?$PxFlags@W4Enum@PxShapeFlag@physx@@E@2@@OmniPvdPxSampler@@QEAAXIAEBVPxShape@physx@@AEBV?$PxFlags@W4Enum@PxShapeFlag@physx@@E@2@@Z 0000000180004920 f i OmniPvdPxSampler.obj
 0001:00003920       ??$setAttribute@VPxArticulationReducedCoordinate@physx@@V?$PxFlags@W4Enum@PxArticulationFlag@physx@@E@2@@OmniPvdPxSampler@@QEAAXIAEBVPxArticulationReducedCoordinate@physx@@AEBV?$PxFlags@W4Enum@PxArticulationFlag@physx@@E@2@@Z 0000000180004920 f i OmniPvdPxSampler.obj
 0001:00003920       ??$setAttribute@VPxActor@physx@@V?$PxFlags@W4Enum@PxRigidDynamicLockFlag@physx@@E@2@@OmniPvdPxSampler@@QEAAXIAEBVPxActor@physx@@AEBV?$PxFlags@W4Enum@PxRigidDynamicLockFlag@physx@@E@2@@Z 0000000180004920 f i OmniPvdPxSampler.obj
 0001:00003920       ??$setAttribute@VPxScene@physx@@_N@OmniPvdPxSampler@@QEAAXIAEBVPxScene@physx@@AEB_N@Z 0000000180004920 f i OmniPvdPxSampler.obj
 0001:00003950       ??$setAttribute@VPxActor@physx@@M@OmniPvdPxSampler@@QEAAXIAEBVPxActor@physx@@AEBM@Z 0000000180004950 f i OmniPvdPxSampler.obj
 0001:00003950       ??$setAttribute@VPxMaterial@physx@@M@OmniPvdPxSampler@@QEAAXIAEBVPxMaterial@physx@@AEBM@Z 0000000180004950 f i OmniPvdPxSampler.obj
 0001:00003950       ??$setAttribute@VPxArticulationJointReducedCoordinate@physx@@W4Enum@PxArticulationJointType@2@@OmniPvdPxSampler@@QEAAXIAEBVPxArticulationJointReducedCoordinate@physx@@AEBW4Enum@PxArticulationJointType@2@@Z 0000000180004950 f i OmniPvdPxSampler.obj
 0001:00003950       ??$setAttribute@VPxShape@physx@@M@OmniPvdPxSampler@@QEAAXIAEBVPxShape@physx@@AEBM@Z 0000000180004950 f i OmniPvdPxSampler.obj
 0001:00003950       ??$setAttribute@VPxMaterial@physx@@W4Enum@PxCombineMode@2@@OmniPvdPxSampler@@QEAAXIAEBVPxMaterial@physx@@AEBW4Enum@PxCombineMode@2@@Z 0000000180004950 f i OmniPvdPxSampler.obj
 0001:00003950       ??$setAttribute@VPxArticulationJointReducedCoordinate@physx@@M@OmniPvdPxSampler@@QEAAXIAEBVPxArticulationJointReducedCoordinate@physx@@AEBM@Z 0000000180004950 f i OmniPvdPxSampler.obj
 0001:00003950       ??$setAttribute@VPxScene@physx@@I@OmniPvdPxSampler@@QEAAXIAEBVPxScene@physx@@AEBI@Z 0000000180004950 f i OmniPvdPxSampler.obj
 0001:00003950       ??$setAttribute@VPxScene@physx@@W4Enum@PxPairFilteringMode@2@@OmniPvdPxSampler@@QEAAXIAEBVPxScene@physx@@AEBW4Enum@PxPairFilteringMode@2@@Z 0000000180004950 f i OmniPvdPxSampler.obj
 0001:00003950       ??$setAttribute@VPxArticulationReducedCoordinate@physx@@I@OmniPvdPxSampler@@QEAAXIAEBVPxArticulationReducedCoordinate@physx@@AEBI@Z 0000000180004950 f i OmniPvdPxSampler.obj
 0001:00003950       ??$setAttribute@VPxScene@physx@@V?$PxFlags@W4Enum@PxSceneFlag@physx@@I@2@@OmniPvdPxSampler@@QEAAXIAEBVPxScene@physx@@AEBV?$PxFlags@W4Enum@PxSceneFlag@physx@@I@2@@Z 0000000180004950 f i OmniPvdPxSampler.obj
 0001:00003950       ??$setAttribute@VPxActor@physx@@I@OmniPvdPxSampler@@QEAAXIAEBVPxActor@physx@@AEBI@Z 0000000180004950 f i OmniPvdPxSampler.obj
 0001:00003950       ??$setAttribute@VPxArticulationReducedCoordinate@physx@@M@OmniPvdPxSampler@@QEAAXIAEBVPxArticulationReducedCoordinate@physx@@AEBM@Z 0000000180004950 f i OmniPvdPxSampler.obj
 0001:00003950       ??$setAttribute@VPxScene@physx@@W4Enum@PxBroadPhaseType@2@@OmniPvdPxSampler@@QEAAXIAEBVPxScene@physx@@AEBW4Enum@PxBroadPhaseType@2@@Z 0000000180004950 f i OmniPvdPxSampler.obj
 0001:00003950       ??$setAttribute@VPxScene@physx@@W4Enum@PxFrictionType@2@@OmniPvdPxSampler@@QEAAXIAEBVPxScene@physx@@AEBW4Enum@PxFrictionType@2@@Z 0000000180004950 f i OmniPvdPxSampler.obj
 0001:00003950       ??$setAttribute@VPxScene@physx@@W4Enum@PxSolverType@2@@OmniPvdPxSampler@@QEAAXIAEBVPxScene@physx@@AEBW4Enum@PxSolverType@2@@Z 0000000180004950 f i OmniPvdPxSampler.obj
 0001:00003950       ??$setAttribute@VPxScene@physx@@M@OmniPvdPxSampler@@QEAAXIAEBVPxScene@physx@@AEBM@Z 0000000180004950 f i OmniPvdPxSampler.obj
 0001:00003980       ??$setAttribute@VPxMaterial@physx@@V?$PxFlags@W4Enum@PxMaterialFlag@physx@@G@2@@OmniPvdPxSampler@@QEAAXIAEBVPxMaterial@physx@@AEBV?$PxFlags@W4Enum@PxMaterialFlag@physx@@G@2@@Z 0000000180004980 f i OmniPvdPxSampler.obj
 0001:00003980       ??$setAttribute@VPxActor@physx@@V?$PxFlags@W4Enum@PxRigidBodyFlag@physx@@G@2@@OmniPvdPxSampler@@QEAAXIAEBVPxActor@physx@@AEBV?$PxFlags@W4Enum@PxRigidBodyFlag@physx@@G@2@@Z 0000000180004980 f i OmniPvdPxSampler.obj
 0001:000039b0       ??$setAttribute@VPxShape@physx@@UPxFilterData@2@@OmniPvdPxSampler@@QEAAXIAEBVPxShape@physx@@AEBUPxFilterData@2@@Z 00000001800049b0 f i OmniPvdPxSampler.obj
 0001:000039b0       ??$setAttribute@VPxShape@physx@@V?$PxQuatT@M@2@@OmniPvdPxSampler@@QEAAXIAEBVPxShape@physx@@AEBV?$PxQuatT@M@2@@Z 00000001800049b0 f i OmniPvdPxSampler.obj
 0001:000039b0       ??$setAttribute@VPxActor@physx@@V?$PxQuatT@M@2@@OmniPvdPxSampler@@QEAAXIAEBVPxActor@physx@@AEBV?$PxQuatT@M@2@@Z 00000001800049b0 f i OmniPvdPxSampler.obj
 0001:000039b0       ??$setAttribute@VPxArticulationJointReducedCoordinate@physx@@V?$PxQuatT@M@2@@OmniPvdPxSampler@@QEAAXIAEBVPxArticulationJointReducedCoordinate@physx@@AEBV?$PxQuatT@M@2@@Z 00000001800049b0 f i OmniPvdPxSampler.obj
 0001:000039e0       ??$setAttribute@VPxActor@physx@@V?$PxTransformT@M@2@@OmniPvdPxSampler@@QEAAXIAEBVPxActor@physx@@AEBV?$PxTransformT@M@2@@Z 00000001800049e0 f i OmniPvdPxSampler.obj
 0001:00003a10       ??$setAttribute@VPxActor@physx@@V?$PxVec3T@M@2@@OmniPvdPxSampler@@QEAAXIAEBVPxActor@physx@@AEBV?$PxVec3T@M@2@@Z 0000000180004a10 f i OmniPvdPxSampler.obj
 0001:00003a10       ??$setAttribute@VPxShape@physx@@V?$PxVec3T@M@2@@OmniPvdPxSampler@@QEAAXIAEBVPxShape@physx@@AEBV?$PxVec3T@M@2@@Z 0000000180004a10 f i OmniPvdPxSampler.obj
 0001:00003a10       ??$setAttribute@VPxArticulationJointReducedCoordinate@physx@@V?$PxVec3T@M@2@@OmniPvdPxSampler@@QEAAXIAEBVPxArticulationJointReducedCoordinate@physx@@AEBV?$PxVec3T@M@2@@Z 0000000180004a10 f i OmniPvdPxSampler.obj
 0001:00003a10       ??$setAttribute@VPxScene@physx@@V?$PxVec3T@M@2@@OmniPvdPxSampler@@QEAAXIAEBVPxScene@physx@@AEBV?$PxVec3T@M@2@@Z 0000000180004a10 f i OmniPvdPxSampler.obj
 0001:00003a40       ??$setAttribute@VPxScene@physx@@VPxBounds3@2@@OmniPvdPxSampler@@QEAAXIAEBVPxScene@physx@@AEBVPxBounds3@2@@Z 0000000180004a40 f i OmniPvdPxSampler.obj
 0001:00003a40       ??$setAttribute@VPxArticulationReducedCoordinate@physx@@VPxBounds3@2@@OmniPvdPxSampler@@QEAAXIAEBVPxArticulationReducedCoordinate@physx@@AEBVPxBounds3@2@@Z 0000000180004a40 f i OmniPvdPxSampler.obj
 0001:00003a40       ??$setAttribute@VPxActor@physx@@VPxBounds3@2@@OmniPvdPxSampler@@QEAAXIAEBVPxActor@physx@@AEBVPxBounds3@2@@Z 0000000180004a40 f i OmniPvdPxSampler.obj
 0001:00003a70       ??$setAttribute@VPxAggregate@physx@@PEBVPxScene@2@@OmniPvdPxSampler@@QEAAXIAEBVPxAggregate@physx@@AEBQEBVPxScene@2@@Z 0000000180004a70 f i OmniPvdPxSampler.obj
 0001:00003a70       ??$setAttribute@VPxScene@physx@@VPxTolerancesScale@2@@OmniPvdPxSampler@@QEAAXIAEBVPxScene@physx@@AEBVPxTolerancesScale@2@@Z 0000000180004a70 f i OmniPvdPxSampler.obj
 0001:00003aa0       ??$setAttribute@VPxScene@physx@@UPxgDynamicsMemoryConfig@2@@OmniPvdPxSampler@@QEAAXIAEBVPxScene@physx@@AEBUPxgDynamicsMemoryConfig@2@@Z 0000000180004aa0 f i OmniPvdPxSampler.obj
 0001:00003ad0       ??$setAttributeBytes@VPxArticulationJointReducedCoordinate@physx@@W4Enum@PxArticulationMotion@2@@OmniPvdPxSampler@@QEAAXIAEBVPxArticulationJointReducedCoordinate@physx@@PEBW4Enum@PxArticulationMotion@2@I@Z 0000000180004ad0 f i OmniPvdPxSampler.obj
 0001:00003ad0       ??$setAttributeBytes@VPxArticulationJointReducedCoordinate@physx@@W4Enum@PxArticulationDriveType@2@@OmniPvdPxSampler@@QEAAXIAEBVPxArticulationJointReducedCoordinate@physx@@PEBW4Enum@PxArticulationDriveType@2@I@Z 0000000180004ad0 f i OmniPvdPxSampler.obj
 0001:00003ad0       ??$setAttributeBytes@VPxArticulationJointReducedCoordinate@physx@@M@OmniPvdPxSampler@@QEAAXIAEBVPxArticulationJointReducedCoordinate@physx@@PEBMI@Z 0000000180004ad0 f i OmniPvdPxSampler.obj
 0001:00003b00       ??0OmniPvdPxSampler@@QEAA@XZ 0000000180004b00 f   OmniPvdPxSampler.obj
 0001:00003c40       ??0OmniPvdSamplerInternals@@QEAA@XZ 0000000180004c40 f i OmniPvdPxSampler.obj
 0001:00003eb0       ??1OmniPvdPxSampler@@QEAA@XZ 0000000180004eb0 f   OmniPvdPxSampler.obj
 0001:00004060       ??4PxFPUGuard@physx@@QEAAAEAV01@AEBV01@@Z 0000000180005060 f i OmniPvdPxSampler.obj
 0001:00004080       ?requiresObjects@NpConstraint@physx@@UEAAXAEAVPxProcessPxBaseCallback@2@@Z 0000000180005080 f i NpConstraint.obj
 0001:00004080       ?visualize@BasePruner@Gu@physx@@UEBAXAEAVPxRenderOutput@3@II@Z 0000000180005080 f i SceneQuery_static_64:SqCompoundPruner.obj
 0001:00004080       ?deactivateHairSystem@SimulationController@Sc@physx@@UEAAXPEAVHairSystem@Dy@3@@Z 0000000180005080 f i SimulationController_static_64:ScScene.obj
 0001:00004080       ?createPvdInstance@PvdSceneClient@Vd@physx@@QEAAXPEBVNpSoftBody@3@@Z 0000000180005080 f i NpPvdSceneClient.obj
 0001:00004080       ?registerMaterial@PxsNphaseImplementationContext@physx@@UEAAXAEBV?$MaterialCoreT@UPxsFEMSoftBodyMaterialData@physx@@VPxFEMSoftBodyMaterial@2@@2@@Z 0000000180005080 f i LowLevel_static_64:PxsNphaseImplementationContext.obj
 0001:00004080       ??1PxsContactManager@physx@@QEAA@XZ 0000000180005080 f i LowLevel_static_64:PxsContactManager.obj
 0001:00004080       ?addRigidFilter@SimulationController@Sc@physx@@UEAAXPEAVSoftBody@Dy@3@AEBVPxNodeIndex@3@1I@Z 0000000180005080 f i SimulationController_static_64:ScScene.obj
 0001:00004080       ?computeCoriolisAndCentrifugalForces@SimulationController@Sc@physx@@UEAAXPEBUPxIndexDataPair@3@IPEAX@Z 0000000180005080 f i SimulationController_static_64:ScScene.obj
 0001:00004080       ?updateJoint@SimulationController@Sc@physx@@UEAAXIPEAUConstraint@Dy@3@@Z 0000000180005080 f i SimulationController_static_64:ScScene.obj
 0001:00004080       ?updateArticulationExtAccel@SimulationController@Sc@physx@@UEAAXPEAVFeatherstoneArticulation@Dy@3@AEBVPxNodeIndex@3@@Z 0000000180005080 f i SimulationController_static_64:ScScene.obj
 0001:00004080       ?preallocateNewBuffers@PxsNphaseImplementationContext@physx@@UEAAXII@Z 0000000180005080 f i LowLevel_static_64:PxsNphaseImplementationContext.obj
 0001:00004080       ?removeClothAttachment@SimulationController@Sc@physx@@UEAAXPEAVSoftBody@Dy@3@I@Z 0000000180005080 f i SimulationController_static_64:ScScene.obj
 0001:00004080       ?unregisterMaterial@PxsNphaseImplementationContext@physx@@UEAAXAEBV?$MaterialCoreT@UPxsMaterialData@physx@@VPxMaterial@2@@2@@Z 0000000180005080 f i LowLevel_static_64:PxsNphaseImplementationContext.obj
 0001:00004080       ??1ActorCore@Sc@physx@@QEAA@XZ 0000000180005080 f i SimulationController_static_64:ScActorCore.obj
 0001:00004080       ?copyContactData@SimulationController@Sc@physx@@UEAAXPEAVContext@Dy@3@PEAXI11@Z 0000000180005080 f i SimulationController_static_64:ScScene.obj
 0001:00004080       ?flush@SimulationController@Sc@physx@@UEAAXXZ 0000000180005080 f i SimulationController_static_64:ScScene.obj
 0001:00004080       ?updateBody@SimulationController@Sc@physx@@UEAAXPEAVPxsRigidBody@3@I@Z 0000000180005080 f i SimulationController_static_64:ScScene.obj
 0001:00004080       ??1ConstraintInteraction@Sc@physx@@QEAA@XZ 0000000180005080 f i SimulationController_static_64:ScConstraintInteraction.obj
 0001:00004080       ?unregisterMaterial@PxsNphaseImplementationContext@physx@@UEAAXAEBV?$MaterialCoreT@UPxsFEMSoftBodyMaterialData@physx@@VPxFEMSoftBodyMaterial@2@@2@@Z 0000000180005080 f i LowLevel_static_64:PxsNphaseImplementationContext.obj
 0001:00004080       ?activateSoftbodySelfCollision@SimulationController@Sc@physx@@UEAAXPEAVSoftBody@Dy@3@@Z 0000000180005080 f i SimulationController_static_64:ScScene.obj
 0001:00004080       ?releaseDeferredParticleSystemIds@SimulationController@Sc@physx@@UEAAXXZ 0000000180005080 f i SimulationController_static_64:ScScene.obj
 0001:00004080       ?__empty_global_delete@@YAXPEAX_K@Z 0000000180005080 f i OmniPvdPxSampler.obj
 0001:00004080       ?gpuDmabackData@SimulationController@Sc@physx@@UEAAXAEAVPxsTransformCache@3@AEAVBoundsArray@Bp@3@AEAV?$PxBitMapBase@VPxVirtualAllocator@physx@@@3@_N@Z 0000000180005080 f i SimulationController_static_64:ScScene.obj
 0001:00004080       ?runInternal@DynamicsMergeTask@Dy@physx@@UEAAXXZ 0000000180005080 f i LowLevelDynamics_static_64:DyTGSDynamics.obj
 0001:00004080       ?addParticleSystem@SimulationController@Sc@physx@@UEAAXPEAVParticleSystem@Dy@3@AEBVPxNodeIndex@3@W4Enum@PxParticleSolverType@3@@Z 0000000180005080 f i SimulationController_static_64:ScScene.obj
 0001:00004080       ?removeTriRigidFilter@SimulationController@Sc@physx@@UEAAXPEAVFEMCloth@Dy@3@AEBVPxNodeIndex@3@I@Z 0000000180005080 f i SimulationController_static_64:ScScene.obj
 0001:00004080       ?updateBodies@SimulationController@Sc@physx@@UEAAXPEAPEAVPxsRigidBody@3@PEAII@Z 0000000180005080 f i SimulationController_static_64:ScScene.obj
 0001:00004080       ?applyParticleBufferData@SimulationController@Sc@physx@@UEAAXPEBIPEBUPxGpuParticleBufferIndexPair@3@PEBV?$PxFlags@W4Enum@PxParticleBufferFlag@physx@@I@3@IPEAX3@Z 0000000180005080 f i SimulationController_static_64:ScScene.obj
 0001:00004080       ?requiresObjects@NpFEMSoftBodyMaterial@physx@@UEAAXAEAVPxProcessPxBaseCallback@2@@Z 0000000180005080 f i NpFEMSoftBodyMaterial.obj
 0001:00004080       ?addClothFilter@SimulationController@Sc@physx@@UEAAXPEAVFEMCloth@Dy@3@0II@Z 0000000180005080 f i SimulationController_static_64:ScScene.obj
 0001:00004080       ?setPersistentStateChanged@AABBManagerBase@Bp@physx@@UEAAXXZ 0000000180005080 f i LowLevelAABB_static_64:BpAABBManagerBase.obj
 0001:00004080       ?copyArticulationData@SimulationController@Sc@physx@@UEAAXPEAX0W4Enum@PxArticulationGpuDataType@3@I0@Z 0000000180005080 f i SimulationController_static_64:ScScene.obj
 0001:00004080       ?setClothMaterials@NpShape@physx@@UEAAXPEBQEAVPxFEMClothMaterial@2@G@Z 0000000180005080 f i NpShape.obj
 0001:00004080       ?switchFromNoSim@?$NpRigidActorTemplate@VPxArticulationLink@physx@@@physx@@UEAAXXZ 0000000180005080 f i NpArticulationLink.obj
 0001:00004080       ?registerMaterial@PxsNphaseImplementationContext@physx@@UEAAXAEBV?$MaterialCoreT@UPxsFLIPMaterialData@physx@@VPxFLIPMaterial@2@@2@@Z 0000000180005080 f i LowLevel_static_64:PxsNphaseImplementationContext.obj
 0001:00004080       ?runInternal@FanoutTask@Cm@physx@@UEAAXXZ 0000000180005080 f i SimulationController_static_64:ScScene.obj
 0001:00004080       ?updatePvdProperties@PvdSceneClient@Vd@physx@@QEAAXPEBVNpArticulationSpatialTendon@3@@Z 0000000180005080 f i NpPvdSceneClient.obj
 0001:00004080       ?addFEMCloth@SimulationController@Sc@physx@@UEAAXPEAVFEMCloth@Dy@3@AEBVPxNodeIndex@3@@Z 0000000180005080 f i SimulationController_static_64:ScScene.obj
 0001:00004080       ?onObjectRemove@MeshFactoryListener@Gu@physx@@UEAAXPEBVPxBase@3@@Z 0000000180005080 f i PvdPhysicsClient.obj
 0001:00004080       ?acquireContext@PxsNphaseImplementationContext@physx@@UEAAXXZ 0000000180005080 f i LowLevel_static_64:PxsNphaseImplementationContext.obj
 0001:00004080       ?releaseDeferredAggregateIds@AABBManager@Bp@physx@@UEAAXXZ 0000000180005080 f i LowLevelAABB_static_64:BpAABBManager.obj
 0001:00004080       ?addShape@SimulationController@Sc@physx@@UEAAXPEAUPxsShapeSim@3@I@Z 0000000180005080 f i SimulationController_static_64:ScScene.obj
 0001:00004080       ?removeClothAttachment@NpSoftBody@physx@@UEAAXPEAVPxFEMCloth@2@I@Z 0000000180005080 f i NpSoftBody.obj
 0001:00004080       ?applyArticulationData@SimulationController@Sc@physx@@UEAAXPEAX0W4Enum@PxArticulationGpuDataType@3@I00@Z 0000000180005080 f i SimulationController_static_64:ScScene.obj
 0001:00004080       ?unregisterCountedInteraction@ActorSim@Sc@physx@@UEAAXXZ 0000000180005080 f i SimulationController_static_64:ScScene.obj
 0001:00004080       ?removeSoftBodyAttachment@SimulationController@Sc@physx@@UEAAXPEAVSoftBody@Dy@3@I@Z 0000000180005080 f i SimulationController_static_64:ScScene.obj
 0001:00004080       ?removeRigidFilter@SimulationController@Sc@physx@@UEAAXPEAVFEMCloth@Dy@3@AEBVPxNodeIndex@3@I@Z 0000000180005080 f i SimulationController_static_64:ScScene.obj
 0001:00004080       ?run@PvdCommand@PvdInstanceDataStream@pvdsdk@physx@@UEAAXAEAV234@@Z 0000000180005080 f i PvdMetaDataPvdBinding.obj
 0001:00004080       ?requiresObjects@NpPBDMaterial@physx@@UEAAXAEAVPxProcessPxBaseCallback@2@@Z 0000000180005080 f i NpPBDMaterial.obj
 0001:00004080       ?PxcDisplayContactCacheStats@@YAXXZ 0000000180005080 f i LowLevel_static_64:PxcContactCache.obj
 0001:00004080       ?createPvdInstance@PvdSceneClient@Vd@physx@@QEAAXPEBVNpPBDParticleSystem@3@@Z 0000000180005080 f i NpPvdSceneClient.obj
 0001:00004080       ?updatePvdProperties@PvdSceneClient@Vd@physx@@QEAAXPEBVNpArticulationFixedTendon@3@@Z 0000000180005080 f i NpPvdSceneClient.obj
 0001:00004080       ?updateBoundsAndShapes@SimulationController@Sc@physx@@UEAAXAEAVAABBManagerBase@Bp@3@_N1@Z 0000000180005080 f i SimulationController_static_64:ScScene.obj
 0001:00004080       ?exportExtraData@?$PxSerializerDefaultAdapter@VNpArticulationJointReducedCoordinate@physx@@@physx@@UEBAXAEAVPxBase@2@AEAVPxSerializationContext@2@@Z 0000000180005080 f i NpSerializerAdapter.obj
 0001:00004080       ?updatePvdProperties@PvdSceneClient@Vd@physx@@QEAAXPEBV?$MaterialCoreT@UPxsPBDMaterialData@physx@@VPxPBDMaterial@2@@3@@Z 0000000180005080 f i NpPvdSceneClient.obj
 0001:00004080       ??1SapPairManager@Bp@physx@@QEAA@XZ 0000000180005080 f i LowLevelAABB_static_64:BpBroadPhaseSapAux.obj
 0001:00004080       ?releasePvdInstance@PvdSceneClient@Vd@physx@@QEAAXPEBVNpArticulationSensor@3@@Z 0000000180005080 f i NpPvdSceneClient.obj
 0001:00004080       ?switchFromNoSim@?$NpRigidActorTemplate@VPxRigidStatic@physx@@@physx@@UEAAXXZ 0000000180005080 f i NpRigidStatic.obj
 0001:00004080       ?allocatePBDMaterialsBuffer@SimulationController@Sc@physx@@UEAAXPEAVPxPhysXGpu@3@AEAVParticleSystemCore@Dy@3@PEA_K@Z 0000000180005080 f i SimulationController_static_64:ScScene.obj
 0001:00004080       ?removeParticleAttachment@SimulationController@Sc@physx@@UEAAXPEAVSoftBody@Dy@3@I@Z 0000000180005080 f i SimulationController_static_64:ScScene.obj
 0001:00004080       ?update@SimulationController@Sc@physx@@UEAAXAEAV?$PxBitMapBase@VPxVirtualAllocator@physx@@@3@@Z 0000000180005080 f i SimulationController_static_64:ScScene.obj
 0001:00004080       ?preIntegrateAndUpdateBound@SimulationController@Sc@physx@@UEAAXPEAVPxBaseTask@3@V?$PxVec3T@M@3@M@Z 0000000180005080 f i SimulationController_static_64:ScScene.obj
 0001:00004080       ?exportExtraData@?$PxSerializerDefaultAdapter@VNpConstraint@physx@@@physx@@UEBAXAEAVPxBase@2@AEAVPxSerializationContext@2@@Z 0000000180005080 f i NpSerializerAdapter.obj
 0001:00004080       ?sortContacts@SimulationController@Sc@physx@@UEAAXXZ 0000000180005080 f i SimulationController_static_64:ScScene.obj
 0001:00004080       ?addParticleFilter@SimulationController@Sc@physx@@UEAAXPEAVSoftBody@Dy@3@PEAVParticleSystem@53@III@Z 0000000180005080 f i SimulationController_static_64:ScScene.obj
 0001:00004080       ?updateMaterial@PxsNphaseImplementationContext@physx@@UEAAXAEBV?$MaterialCoreT@UPxsMaterialData@physx@@VPxMaterial@2@@2@@Z 0000000180005080 f i LowLevel_static_64:PxsNphaseImplementationContext.obj
 0001:00004080       ?addJoint@SimulationController@Sc@physx@@UEAAXIPEAUConstraint@Dy@3@AEAVIslandSim@IG@3@AEAV?$PxArray@IV?$PxReflectionAllocator@I@physx@@@3@AEAV?$PxArray@UPxgSolverConstraintManagerConstants@physx@@VPxVirtualAllocator@2@@3@I@Z 0000000180005080 f i SimulationController_static_64:ScScene.obj
 0001:00004080       ?destroyInstance@PvdMetaDataBinding@Vd@physx@@QEAAXAEAVPvdDataStream@pvdsdk@3@AEBVPxFEMSoftBodyMaterial@3@AEBVPxPhysics@3@@Z 0000000180005080 f i PvdMetaDataPvdBinding.obj
 0001:00004080       ?copySoftBodyData@SimulationController@Sc@physx@@UEAAXPEAPEAXPEAX1W4Enum@PxSoftBodyDataFlag@3@II1@Z 0000000180005080 f i SimulationController_static_64:ScScene.obj
 0001:00004080       ?updateShapeContactOffset@PxsNphaseImplementationContext@physx@@UEAAXAEBUPxsShapeCore@2@@Z 0000000180005080 f i LowLevel_static_64:PxsNphaseImplementationContext.obj
 0001:00004080       ??1ArticulationJointCore@Sc@physx@@QEAA@XZ 0000000180005080 f i SimulationController_static_64:ScArticulationJointCore.obj
 0001:00004080       ?allocateFLIPMaterialsBuffer@SimulationController@Sc@physx@@UEAAXPEAVPxPhysXGpu@3@AEAVParticleSystemCore@Dy@3@PEA_K@Z 0000000180005080 f i SimulationController_static_64:ScScene.obj
 0001:00004080       ?createPvdInstance@PvdSceneClient@Vd@physx@@QEAAXPEBVNpArticulationSpatialTendon@3@@Z 0000000180005080 f i NpPvdSceneClient.obj
 0001:00004080       ?updateBodies@SimulationController@Sc@physx@@UEAAXPEAVPxBaseTask@3@@Z 0000000180005080 f i SimulationController_static_64:ScScene.obj
 0001:00004080       ?removeParticleFilter@SimulationController@Sc@physx@@UEAAXPEAVSoftBody@Dy@3@PEBVParticleSystem@53@III@Z 0000000180005080 f i SimulationController_static_64:ScScene.obj
 0001:00004080       ?updatePvdProperties@PvdSceneClient@Vd@physx@@QEAAXPEBVNpSoftBody@3@@Z 0000000180005080 f i NpPvdSceneClient.obj
 0001:00004080       ?mergeChangedAABBMgHandle@SimulationController@Sc@physx@@UEAAXI_N@Z 0000000180005080 f i SimulationController_static_64:ScScene.obj
 0001:00004080       ?addClothFilter@NpSoftBody@physx@@UEAAXPEAVPxFEMCloth@2@II@Z 0000000180005080 f i NpSoftBody.obj
 0001:00004080       ?updateArticulation@SimulationController@Sc@physx@@UEAAXPEAVFeatherstoneArticulation@Dy@3@AEBVPxNodeIndex@3@@Z 0000000180005080 f i SimulationController_static_64:ScScene.obj
 0001:00004080       ?removeTriRigidAttachment@SimulationController@Sc@physx@@UEAAXPEAVFEMCloth@Dy@3@I@Z 0000000180005080 f i SimulationController_static_64:ScScene.obj
 0001:00004080       ?registerCountedInteraction@ActorSim@Sc@physx@@UEAAXXZ 0000000180005080 f i SimulationController_static_64:ScScene.obj
 0001:00004080       ?switchToNoSim@?$NpRigidActorTemplate@VPxArticulationLink@physx@@@physx@@UEAAXXZ 0000000180005080 f i NpArticulationLink.obj
 0001:00004080       ?applyHairSystemData@SimulationController@Sc@physx@@UEAAXPEAPEAXPEAX1W4Enum@PxHairSystemData@3@II1@Z 0000000180005080 f i SimulationController_static_64:ScScene.obj
 0001:00004080       ?removeShape@SimulationController@Sc@physx@@UEAAXI@Z 0000000180005080 f i SimulationController_static_64:ScScene.obj
 0001:00004080       ?createPvdInstance@PvdSceneClient@Vd@physx@@QEAAXPEBVNpArticulationFixedTendon@3@@Z 0000000180005080 f i NpPvdSceneClient.obj
 0001:00004080       ?runInternal@SceneCompletion@NpScene@physx@@UEAAXXZ 0000000180005080 f i NpScene.obj
 0001:00004080       ?addHairSystem@SimulationController@Sc@physx@@UEAAXPEAVHairSystem@Dy@3@AEBVPxNodeIndex@3@@Z 0000000180005080 f i SimulationController_static_64:ScScene.obj
 0001:00004080       ?releaseDeferredSoftBodyIds@SimulationController@Sc@physx@@UEAAXXZ 0000000180005080 f i SimulationController_static_64:ScScene.obj
 0001:00004080       ?releaseHairSystem@SimulationController@Sc@physx@@UEAAXPEAVHairSystem@Dy@3@@Z 0000000180005080 f i SimulationController_static_64:ScScene.obj
 0001:00004080       ?removeRigidAttachment@SimulationController@Sc@physx@@UEAAXPEAVFEMCloth@Dy@3@I@Z 0000000180005080 f i SimulationController_static_64:ScScene.obj
 0001:00004080       ?sendAllProperties@PvdMetaDataBinding@Vd@physx@@QEAAXAEAVPvdDataStream@pvdsdk@3@AEBVPxPBDParticleSystem@3@@Z 0000000180005080 f i PvdMetaDataPvdBinding.obj
 0001:00004080       ?releaseDeferredArticulationIds@SimulationController@Sc@physx@@UEAAXXZ 0000000180005080 f i SimulationController_static_64:ScScene.obj
 0001:00004080       ?unregisterMaterial@PxsNphaseImplementationContext@physx@@UEAAXAEBV?$MaterialCoreT@UPxsFEMClothMaterialData@physx@@VPxFEMClothMaterial@2@@2@@Z 0000000180005080 f i LowLevel_static_64:PxsNphaseImplementationContext.obj
 0001:00004080       ?flush@PvdPhysicsClient@Vd@physx@@UEAAXXZ 0000000180005080 f i PvdPhysicsClient.obj
 0001:00004080       ?updateDynamic@SimulationController@Sc@physx@@UEAAXPEAVFeatherstoneArticulation@Dy@3@AEBVPxNodeIndex@3@@Z 0000000180005080 f i SimulationController_static_64:ScScene.obj
 0001:00004080       ?finalizeQuery@?$PxHitCallback@UPxOverlapHit@physx@@@physx@@UEAAXXZ 0000000180005080 f i SceneQuery_static_64:SqQuery.obj
 0001:00004080       ?processLostPatches@DynamicsContext@Dy@physx@@UEAAXAEAVSimpleIslandManager@IG@3@PEAPEAVPxsContactManager@3@IPEAUPxsContactManagerOutputCounts@3@@Z 0000000180005080 f i LowLevelDynamics_static_64:DyDynamics.obj
 0001:00004080       ?concludeContact@Dy@physx@@YAXAEBUPxSolverConstraintDesc@2@@Z 0000000180005080 f i LowLevelDynamics_static_64:DyTGSContactPrep.obj
 0001:00004080       ?updateBodyCore@DynamicsContext@Dy@physx@@UEAAXPEAVPxBaseTask@3@@Z 0000000180005080 f i LowLevelDynamics_static_64:DyDynamics.obj
 0001:00004080       ?getDataStreamBase@DynamicsTGSContext@Dy@physx@@UEAAXAEAPEAX00@Z 0000000180005080 f i LowLevelDynamics_static_64:DyTGSDynamics.obj
 0001:00004080       ?unregisterMaterial@PxsNphaseImplementationContext@physx@@UEAAXAEBV?$MaterialCoreT@UPxsPBDMaterialData@physx@@VPxPBDMaterial@2@@2@@Z 0000000180005080 f i LowLevel_static_64:PxsNphaseImplementationContext.obj
 0001:00004080       ?unregisterMaterial@PxsNphaseImplementationContext@physx@@UEAAXAEBV?$MaterialCoreT@UPxsMPMMaterialData@physx@@VPxMPMMaterial@2@@2@@Z 0000000180005080 f i LowLevel_static_64:PxsNphaseImplementationContext.obj
 0001:00004080       ?preBroadPhase@BroadPhaseSap@Bp@physx@@UEAAXAEBVBroadPhaseUpdateData@23@@Z 0000000180005080 f i LowLevelAABB_static_64:BpBroadPhaseSap.obj
 0001:00004080       ?addTetRigidFilter@SimulationController@Sc@physx@@UEAAXPEAVSoftBody@Dy@3@AEBVPxNodeIndex@3@I@Z 0000000180005080 f i SimulationController_static_64:ScScene.obj
 0001:00004080       ?processFoundPatches@DynamicsTGSContext@Dy@physx@@UEAAXAEAVSimpleIslandManager@IG@3@PEAPEAVPxsContactManager@3@IPEAUPxsContactManagerOutputCounts@3@@Z 0000000180005080 f i LowLevelDynamics_static_64:DyTGSDynamics.obj
 0001:00004080       ?internalWakeUp@ActorSim@Sc@physx@@UEAAXM@Z 0000000180005080 f i SimulationController_static_64:ScScene.obj
 0001:00004080       ?unregisterMaterial@PxsNphaseImplementationContext@physx@@UEAAXAEBV?$MaterialCoreT@UPxsCustomMaterialData@physx@@VPxCustomMaterial@2@@2@@Z 0000000180005080 f i LowLevel_static_64:PxsNphaseImplementationContext.obj
 0001:00004080       ?preBroadPhase@BroadPhaseMBP@Bp@physx@@UEAAXAEBVBroadPhaseUpdateData@23@@Z 0000000180005080 f i LowLevelAABB_static_64:BpBroadPhaseMBP.obj
 0001:00004080       ?postBroadPhaseUpdateContactManager@PxsNphaseImplementationContext@physx@@UEAAXPEAVPxBaseTask@2@@Z 0000000180005080 f i LowLevel_static_64:PxsNphaseImplementationContext.obj
 0001:00004080       ?registerMaterial@PxsNphaseImplementationContext@physx@@UEAAXAEBV?$MaterialCoreT@UPxsMPMMaterialData@physx@@VPxMPMMaterial@2@@2@@Z 0000000180005080 f i LowLevel_static_64:PxsNphaseImplementationContext.obj
 0001:00004080       ?reserve@SimulationController@Sc@physx@@UEAAXI@Z 0000000180005080 f i SimulationController_static_64:ScScene.obj
 0001:00004080       ?addArticulation@SimulationController@Sc@physx@@UEAAXPEAVFeatherstoneArticulation@Dy@3@AEBVPxNodeIndex@3@@Z 0000000180005080 f i SimulationController_static_64:ScScene.obj
 0001:00004080       ?preExportDataReset@NpShapeManager@physx@@QEAAXXZ 0000000180005080 f i NpShapeManager.obj
 0001:00004080       ?stopSimulation@PxTaskMgr@physx@@UEAAXXZ 0000000180005080 f i PhysXTask_static_64:TaskManager.obj
 0001:00004080       ?activate@ActorSim@Sc@physx@@UEAAXXZ 0000000180005080 f i SimulationController_static_64:ScScene.obj
 0001:00004080       ?flush@PvdSceneClient@Vd@physx@@UEAAXXZ 0000000180005080 f i NpPvdSceneClient.obj
 0001:00004080       ?createPvdInstance@PvdSceneClient@Vd@physx@@QEAAXPEBVNpArticulationSensor@3@@Z 0000000180005080 f i NpPvdSceneClient.obj
 0001:00004080       ?removeTriClothAttachment@SimulationController@Sc@physx@@UEAAXPEAVFEMCloth@Dy@3@I@Z 0000000180005080 f i SimulationController_static_64:ScScene.obj
 0001:00004080       ?removeClothFilter@NpSoftBody@physx@@UEAAXPEAVPxFEMCloth@2@II@Z 0000000180005080 f i NpSoftBody.obj
 0001:00004080       ?mergeResults@DynamicsTGSContext@Dy@physx@@UEAAXXZ 0000000180005080 f i LowLevelDynamics_static_64:DyTGSDynamics.obj
 0001:00004080       ?registerMaterial@PxsNphaseImplementationContext@physx@@UEAAXAEBV?$MaterialCoreT@UPxsCustomMaterialData@physx@@VPxCustomMaterial@2@@2@@Z 0000000180005080 f i LowLevel_static_64:PxsNphaseImplementationContext.obj
 0001:00004080       ?waitForContactsReady@PxvNphaseImplementationContext@physx@@UEAAXXZ 0000000180005080 f i LowLevel_static_64:PxsNphaseImplementationContext.obj
 0001:00004080       ?applySoftBodyData@SimulationController@Sc@physx@@UEAAXPEAPEAXPEAX1W4Enum@PxSoftBodyDataFlag@3@II1@Z 0000000180005080 f i SimulationController_static_64:ScScene.obj
 0001:00004080       ?applyActorData@SimulationController@Sc@physx@@UEAAXPEAXPEAUPxGpuActorPair@3@W4Enum@PxActorCacheFlag@3@I00@Z 0000000180005080 f i SimulationController_static_64:ScScene.obj
 0001:00004080       ?allocateMPMMaterialsBuffer@SimulationController@Sc@physx@@UEAAXPEAVPxPhysXGpu@3@AEAVParticleSystemCore@Dy@3@PEA_K@Z 0000000180005080 f i SimulationController_static_64:ScScene.obj
 0001:00004080       ?fetchBroadPhaseResults@BroadPhaseMBP@Bp@physx@@UEAAXXZ 0000000180005080 f i LowLevelAABB_static_64:BpBroadPhaseMBP.obj
 0001:00004080       ?syncParticleData@SimulationController@Sc@physx@@UEAAXXZ 0000000180005080 f i SimulationController_static_64:ScScene.obj
 0001:00004080       ?updateMaterial@PxsNphaseImplementationContext@physx@@UEAAXAEBV?$MaterialCoreT@UPxsCustomMaterialData@physx@@VPxCustomMaterial@2@@2@@Z 0000000180005080 f i LowLevel_static_64:PxsNphaseImplementationContext.obj
 0001:00004080       ?addSoftBodyFilters@SimulationController@Sc@physx@@UEAAXPEAVSoftBody@Dy@3@0PEAI1I@Z 0000000180005080 f i SimulationController_static_64:ScScene.obj
 0001:00004080       ?releasePvdInstance@PvdSceneClient@Vd@physx@@QEAAXPEBVNpArticulationJointReducedCoordinate@3@@Z 0000000180005080 f i NpPvdSceneClient.obj
 0001:00004080       ?updateParticleSystemsAndSoftBodies@SimulationController@Sc@physx@@UEAAXXZ 0000000180005080 f i SimulationController_static_64:ScScene.obj
 0001:00004080       ?updateShapes@SimulationController@Sc@physx@@UEAAXPEAVPxBaseTask@3@@Z 0000000180005080 f i SimulationController_static_64:ScScene.obj
 0001:00004080       ?setBounds@SimulationController@Sc@physx@@UEAAXPEAVBoundsArray@Bp@3@@Z 0000000180005080 f i SimulationController_static_64:ScScene.obj
 0001:00004080       ?activateHairSystem@SimulationController@Sc@physx@@UEAAXPEAVHairSystem@Dy@3@@Z 0000000180005080 f i SimulationController_static_64:ScScene.obj
 0001:00004080       ?releaseParticleSystem@SimulationController@Sc@physx@@UEAAXPEAVParticleSystem@Dy@3@W4Enum@PxParticleSolverType@3@@Z 0000000180005080 f i SimulationController_static_64:ScScene.obj
 0001:00004080       ?removeSoftBodyFilters@SimulationController@Sc@physx@@UEAAXPEAVSoftBody@Dy@3@0PEAI1I@Z 0000000180005080 f i SimulationController_static_64:ScScene.obj
 0001:00004080       ?copyHairSystemData@SimulationController@Sc@physx@@UEAAXPEAPEAXPEAX1W4Enum@PxHairSystemData@3@II1@Z 0000000180005080 f i SimulationController_static_64:ScScene.obj
 0001:00004080       ?clear@SimulationController@Sc@physx@@UEAAXXZ 0000000180005080 f i SimulationController_static_64:ScScene.obj
 0001:00004080       ?updateShape@PxsSimulationController@physx@@UEAAXAEAUPxsShapeSim@2@AEBVPxNodeIndex@2@@Z 0000000180005080 f i SimulationController_static_64:ScScene.obj
 0001:00004080       ?addTriRigidFilter@SimulationController@Sc@physx@@UEAAXPEAVFEMCloth@Dy@3@AEBVPxNodeIndex@3@I@Z 0000000180005080 f i SimulationController_static_64:ScScene.obj
 0001:00004080       ?removeRigidAttachment@SimulationController@Sc@physx@@UEAAXPEAVSoftBody@Dy@3@I@Z 0000000180005080 f i SimulationController_static_64:ScScene.obj
 0001:00004080       ?updateShapeMaterial@PxsNphaseImplementationContext@physx@@UEAAXAEBUPxsShapeCore@2@@Z 0000000180005080 f i LowLevel_static_64:PxsNphaseImplementationContext.obj
 0001:00004080       ?removeJoint@SimulationController@Sc@physx@@UEAAXIPEAUConstraint@Dy@3@AEAV?$PxArray@IV?$PxReflectionAllocator@I@physx@@@3@AEAVIslandSim@IG@3@@Z 0000000180005080 f i SimulationController_static_64:ScScene.obj
 0001:00004080       ?releaseFEMCloth@SimulationController@Sc@physx@@UEAAXPEAVFEMCloth@Dy@3@@Z 0000000180005080 f i SimulationController_static_64:ScScene.obj
 0001:00004080       ?updateBodyCore@DynamicsTGSContext@Dy@physx@@UEAAXPEAVPxBaseTask@3@@Z 0000000180005080 f i LowLevelDynamics_static_64:DyTGSDynamics.obj
 0001:00004080       ?fetchUpdateContactManager@PxsNphaseImplementationContext@physx@@UEAAXXZ 0000000180005080 f i LowLevel_static_64:PxsNphaseImplementationContext.obj
 0001:00004080       ?setHairSystemWakeCounter@SimulationController@Sc@physx@@UEAAXPEAVHairSystem@Dy@3@@Z 0000000180005080 f i SimulationController_static_64:ScScene.obj
 0001:00004080       ?releaseDeferredHairSystemIds@SimulationController@Sc@physx@@UEAAXXZ 0000000180005080 f i SimulationController_static_64:ScScene.obj
 0001:00004080       ?addDynamics@SimulationController@Sc@physx@@UEAAXPEAPEAVPxsRigidBody@3@PEBII@Z 0000000180005080 f i SimulationController_static_64:ScScene.obj
 0001:00004080       ?processFoundPatches@DynamicsContext@Dy@physx@@UEAAXAEAVSimpleIslandManager@IG@3@PEAPEAVPxsContactManager@3@IPEAUPxsContactManagerOutputCounts@3@@Z 0000000180005080 f i LowLevelDynamics_static_64:DyDynamics.obj
 0001:00004080       ?setSoftBodyWakeCounter@SimulationController@Sc@physx@@UEAAXPEAVSoftBody@Dy@3@@Z 0000000180005080 f i SimulationController_static_64:ScScene.obj
 0001:00004080       ?requiresObjects@NpArticulationSensor@physx@@UEAAXAEAVPxProcessPxBaseCallback@2@@Z 0000000180005080 f i NpArticulationSensor.obj
 0001:00004080       ?shiftOrigin@BroadPhaseABP@Bp@physx@@UEAAXAEBV?$PxVec3T@M@3@PEBVPxBounds3@3@PEBM@Z 0000000180005080 f i LowLevelAABB_static_64:BpBroadPhaseABP.obj
 0001:00004080       ??1BpFilter@Bp@physx@@QEAA@XZ 0000000180005080 f i LowLevelAABB_static_64:BpFiltering.obj
 0001:00004080       ?destroyInstance@PvdMetaDataBinding@Vd@physx@@QEAAXAEAVPvdDataStream@pvdsdk@3@AEBVPxPBDParticleSystem@3@AEBVPxScene@3@@Z 0000000180005080 f i PvdMetaDataPvdBinding.obj
 0001:00004080       ?removeRigidFilter@SimulationController@Sc@physx@@UEAAXPEAVSoftBody@Dy@3@AEBVPxNodeIndex@3@I@Z 0000000180005080 f i SimulationController_static_64:ScScene.obj
 0001:00004080       ?deactivate@ActorSim@Sc@physx@@UEAAXXZ 0000000180005080 f i SimulationController_static_64:ScScene.obj
 0001:00004080       ?deactivateCloth@SimulationController@Sc@physx@@UEAAXPEAVFEMCloth@Dy@3@@Z 0000000180005080 f i SimulationController_static_64:ScScene.obj
 0001:00004080       ?releasePvdInstance@PvdSceneClient@Vd@physx@@QEAAXPEBVNpArticulationFixedTendon@3@@Z 0000000180005080 f i NpPvdSceneClient.obj
 0001:00004080       ?removeTetRigidFilter@SimulationController@Sc@physx@@UEAAXPEAVSoftBody@Dy@3@AEBVPxNodeIndex@3@I@Z 0000000180005080 f i SimulationController_static_64:ScScene.obj
 0001:00004080       ?deactivateSoftbodySelfCollision@SimulationController@Sc@physx@@UEAAXPEAVSoftBody@Dy@3@@Z 0000000180005080 f i SimulationController_static_64:ScScene.obj
 0001:00004080       ?copyBodyData@SimulationController@Sc@physx@@UEAAXPEAUPxGpuBodyData@3@PEAUPxGpuActorPair@3@IPEAX@Z 0000000180005080 f i SimulationController_static_64:ScScene.obj
 0001:00004080       ?setGPUStateChanged@AABBManagerBase@Bp@physx@@UEAAXXZ 0000000180005080 f i LowLevelAABB_static_64:BpAABBManagerBase.obj
 0001:00004080       ?unregisterShape@PxsNphaseImplementationContext@physx@@UEAAXAEBUPxsShapeCore@2@I_N@Z 0000000180005080 f i LowLevel_static_64:PxsNphaseImplementationContext.obj
 0001:00004080       ?addSoftBodyFilter@SimulationController@Sc@physx@@UEAAXPEAVSoftBody@Dy@3@0II@Z 0000000180005080 f i SimulationController_static_64:ScScene.obj
 0001:00004080       ?exportExtraData@NpArticulationSensor@physx@@UEAAXAEAVPxSerializationContext@2@@Z 0000000180005080 f i NpArticulationSensor.obj
 0001:00004080       ?updateMaterial@PxsNphaseImplementationContext@physx@@UEAAXAEBV?$MaterialCoreT@UPxsFLIPMaterialData@physx@@VPxFLIPMaterial@2@@2@@Z 0000000180005080 f i LowLevel_static_64:PxsNphaseImplementationContext.obj
 0001:00004080       ?removeClothFilter@SimulationController@Sc@physx@@UEAAXPEAVFEMCloth@Dy@3@0II@Z 0000000180005080 f i SimulationController_static_64:ScScene.obj
 0001:00004080       ?deactivateSoftbody@SimulationController@Sc@physx@@UEAAXPEAVSoftBody@Dy@3@@Z 0000000180005080 f i SimulationController_static_64:ScScene.obj
 0001:00004080       ?computeDenseJacobians@SimulationController@Sc@physx@@UEAAXPEBUPxIndexDataPair@3@IPEAX@Z 0000000180005080 f i SimulationController_static_64:ScScene.obj
 0001:00004080       ?requiresObjects@NpMaterial@physx@@UEAAXAEAVPxProcessPxBaseCallback@2@@Z 0000000180005080 f i NpMaterial.obj
 0001:00004080       ?activateSoftbody@SimulationController@Sc@physx@@UEAAXPEAVSoftBody@Dy@3@@Z 0000000180005080 f i SimulationController_static_64:ScScene.obj
 0001:00004080       ?postActorFlagChange@ActorSim@Sc@physx@@UEAAXII@Z 0000000180005080 f i SimulationController_static_64:ScScene.obj
 0001:00004080       ?updateArticulationTendon@SimulationController@Sc@physx@@UEAAXPEAVFeatherstoneArticulation@Dy@3@AEBVPxNodeIndex@3@@Z 0000000180005080 f i SimulationController_static_64:ScScene.obj
 0001:00004080       ?flushInsertions@SimulationController@Sc@physx@@UEAAXXZ 0000000180005080 f i SimulationController_static_64:ScScene.obj
 0001:00004080       ?activateCloth@SimulationController@Sc@physx@@UEAAXPEAVFEMCloth@Dy@3@@Z 0000000180005080 f i SimulationController_static_64:ScScene.obj
 0001:00004080       ?onMeshFactoryBufferRelease@OmniPvdListener@NpPhysics@physx@@UEAAXPEBVPxBase@3@G@Z 0000000180005080 f i NpPhysics.obj
 0001:00004080       ?serialize@EndSetPropertyValue@pvdsdk@physx@@UEAAXAEAVPvdEventSerializer@23@@Z 0000000180005080 f i PhysXPvdSDK_static_64:PxPvdDataStream.obj
 0001:00004080       ?requiresObjects@NpArticulationJointReducedCoordinate@physx@@UEAAXAEAVPxProcessPxBaseCallback@2@@Z 0000000180005080 f i NpArticulationJointReducedCoordinate.obj
 0001:00004080       ?startNarrowPhaseTasks@PxsNphaseImplementationContext@physx@@UEAAXXZ 0000000180005080 f i LowLevel_static_64:PxsNphaseImplementationContext.obj
 0001:00004080       ?setClothWakeCounter@SimulationController@Sc@physx@@UEAAXPEAVFEMCloth@Dy@3@@Z 0000000180005080 f i SimulationController_static_64:ScScene.obj
 0001:00004080       ?processLostPatches@DynamicsTGSContext@Dy@physx@@UEAAXAEAVSimpleIslandManager@IG@3@PEAPEAVPxsContactManager@3@IPEAUPxsContactManagerOutputCounts@3@@Z 0000000180005080 f i LowLevelDynamics_static_64:DyTGSDynamics.obj
 0001:00004080       ?getDataStreamBase@DynamicsContext@Dy@physx@@UEAAXAEAPEAX00@Z 0000000180005080 f i LowLevelDynamics_static_64:DyDynamics.obj
 0001:00004080       ?registerAggregate@PxsNphaseImplementationContext@physx@@UEAAXI@Z 0000000180005080 f i LowLevel_static_64:PxsNphaseImplementationContext.obj
 0001:00004080       ?registerMaterial@PxsNphaseImplementationContext@physx@@UEAAXAEBV?$MaterialCoreT@UPxsFEMClothMaterialData@physx@@VPxFEMClothMaterial@2@@2@@Z 0000000180005080 f i LowLevel_static_64:PxsNphaseImplementationContext.obj
 0001:00004080       ?serialize@EndPropertyMessageGroup@pvdsdk@physx@@UEAAXAEAVPvdEventSerializer@23@@Z 0000000180005080 f i PhysXPvdSDK_static_64:PxPvdDataStream.obj
 0001:00004080       ?addRigidFilter@SimulationController@Sc@physx@@UEAAXPEAVFEMCloth@Dy@3@AEBVPxNodeIndex@3@I@Z 0000000180005080 f i SimulationController_static_64:ScScene.obj
 0001:00004080       ?updateMaterial@PxsNphaseImplementationContext@physx@@UEAAXAEBV?$MaterialCoreT@UPxsMPMMaterialData@physx@@VPxMPMMaterial@2@@2@@Z 0000000180005080 f i LowLevel_static_64:PxsNphaseImplementationContext.obj
 0001:00004080       ?registerMaterial@PxsNphaseImplementationContext@physx@@UEAAXAEBV?$MaterialCoreT@UPxsPBDMaterialData@physx@@VPxPBDMaterial@2@@2@@Z 0000000180005080 f i LowLevel_static_64:PxsNphaseImplementationContext.obj
 0001:00004080       ?finalizeQuery@?$PxHitCallback@UPxSweepHit@physx@@@physx@@UEAAXXZ 0000000180005080 f i SceneQuery_static_64:SqQuery.obj
 0001:00004080       ?releasePvdInstance@PvdSceneClient@Vd@physx@@QEAAXPEBVNpSoftBody@3@@Z 0000000180005080 f i NpPvdSceneClient.obj
 0001:00004080       ?computeGeneralizedMassMatrices@SimulationController@Sc@physx@@UEAAXPEBUPxIndexDataPair@3@IPEAX@Z 0000000180005080 f i SimulationController_static_64:ScScene.obj
 0001:00004080       _guard_check_icall_nop     0000000180005080 f i LIBCMT:guard_support.obj
 0001:00004080       ?addSoftBody@SimulationController@Sc@physx@@UEAAXPEAVSoftBody@Dy@3@AEBVPxNodeIndex@3@@Z 0000000180005080 f i SimulationController_static_64:ScScene.obj
 0001:00004080       ?sendAllProperties@PvdMetaDataBinding@Vd@physx@@QEAAXAEAVPvdDataStream@pvdsdk@3@AEBVPxFEMSoftBodyMaterial@3@@Z 0000000180005080 f i PvdMetaDataPvdBinding.obj
 0001:00004080       ??1ArticulationCore@Sc@physx@@QEAA@XZ 0000000180005080 f i SimulationController_static_64:ScArticulationCore.obj
 0001:00004080       ?preBroadPhase@BroadPhaseABP@Bp@physx@@UEAAXAEBVBroadPhaseUpdateData@23@@Z 0000000180005080 f i LowLevelAABB_static_64:BpBroadPhaseABP.obj
 0001:00004080       ?__global_delete@@YAXPEAX_K@Z 0000000180005080 f i OmniPvdPxSampler.obj
 0001:00004080       ?createPvdInstance@PvdSceneClient@Vd@physx@@QEAAXPEBVNpArticulationJointReducedCoordinate@3@@Z 0000000180005080 f i NpPvdSceneClient.obj
 0001:00004080       ?fetchBroadPhaseResults@BroadPhaseABP@Bp@physx@@UEAAXXZ 0000000180005080 f i LowLevelAABB_static_64:BpBroadPhaseABP.obj
 0001:00004080       ?releasePvdInstance@PvdSceneClient@Vd@physx@@QEAAXPEBV?$MaterialCoreT@UPxsPBDMaterialData@physx@@VPxPBDMaterial@2@@3@@Z 0000000180005080 f i NpPvdSceneClient.obj
 0001:00004080       ?registerShape@PxsNphaseImplementationContext@physx@@UEAAXAEBVPxNodeIndex@2@AEBUPxsShapeCore@2@IPEAVPxActor@2@_N@Z 0000000180005080 f i LowLevel_static_64:PxsNphaseImplementationContext.obj
 0001:00004080       ?updateArticulationJoint@SimulationController@Sc@physx@@UEAAXPEAVFeatherstoneArticulation@Dy@3@AEBVPxNodeIndex@3@@Z 0000000180005080 f i SimulationController_static_64:ScScene.obj
 0001:00004080       ?removeSoftBodyFilter@SimulationController@Sc@physx@@UEAAXPEAVSoftBody@Dy@3@0II@Z 0000000180005080 f i SimulationController_static_64:ScScene.obj
 0001:00004080       ?computeGeneralizedGravityForces@SimulationController@Sc@physx@@UEAAXPEBUPxIndexDataPair@3@IAEBV?$PxVec3T@M@3@PEAX@Z 0000000180005080 f i SimulationController_static_64:ScScene.obj
 0001:00004080       ?destroyInstance@PvdMetaDataBinding@Vd@physx@@QEAAXAEAVPvdDataStream@pvdsdk@3@AEBVPxSoftBody@3@AEBVPxScene@3@@Z 0000000180005080 f i PvdMetaDataPvdBinding.obj
 0001:00004080       ?registerMaterial@PxsNphaseImplementationContext@physx@@UEAAXAEBV?$MaterialCoreT@UPxsMaterialData@physx@@VPxMaterial@2@@2@@Z 0000000180005080 f i LowLevel_static_64:PxsNphaseImplementationContext.obj
 0001:00004080       ?releaseContext@PxsNphaseImplementationContext@physx@@UEAAXXZ 0000000180005080 f i LowLevel_static_64:PxsNphaseImplementationContext.obj
 0001:00004080       ?removeClothFilter@SimulationController@Sc@physx@@UEAAXPEAVSoftBody@Dy@3@PEAVFEMCloth@53@II@Z 0000000180005080 f i SimulationController_static_64:ScScene.obj
 0001:00004080       ?updateMaterial@PxsNphaseImplementationContext@physx@@UEAAXAEBV?$MaterialCoreT@UPxsPBDMaterialData@physx@@VPxPBDMaterial@2@@2@@Z 0000000180005080 f i LowLevel_static_64:PxsNphaseImplementationContext.obj
 0001:00004080       ?finalizeQuery@?$PxHitCallback@UPxRaycastHit@physx@@@physx@@UEAAXXZ 0000000180005080 f i SceneQuery_static_64:SqQuery.obj
 0001:00004080       ?runInternal@?$DelegateTask@VScene@Sc@physx@@$1?fetchPatchEvents@123@AEAAXPEAVPxBaseTask@3@@Z@Cm@physx@@UEAAXXZ 0000000180005080 f i SimulationController_static_64:ScScene.obj
 0001:00004080       ?unregisterMaterial@PxsNphaseImplementationContext@physx@@UEAAXAEBV?$MaterialCoreT@UPxsFLIPMaterialData@physx@@VPxFLIPMaterial@2@@2@@Z 0000000180005080 f i LowLevel_static_64:PxsNphaseImplementationContext.obj
 0001:00004080       ?createPvdInstance@PvdSceneClient@Vd@physx@@QEAAXPEBV?$MaterialCoreT@UPxsPBDMaterialData@physx@@VPxPBDMaterial@2@@3@@Z 0000000180005080 f i NpPvdSceneClient.obj
 0001:00004080       ?setGlobalPose@NpArticulationLink@physx@@UEAAXAEBV?$PxTransformT@M@2@_N@Z 0000000180005080 f i NpArticulationLink.obj
 0001:00004080       ?PxcClearContactCacheStats@@YAXXZ 0000000180005080 f i LowLevel_static_64:PxcContactCache.obj
 0001:00004080       ?releaseSoftBody@SimulationController@Sc@physx@@UEAAXPEAVSoftBody@Dy@3@@Z 0000000180005080 f i SimulationController_static_64:ScScene.obj
 0001:00004080       ?switchToNoSim@?$NpRigidActorTemplate@VPxRigidStatic@physx@@@physx@@UEAAXXZ 0000000180005080 f i NpRigidStatic.obj
 0001:00004080       ?fetchBroadPhaseResults@BroadPhaseSap@Bp@physx@@UEAAXXZ 0000000180005080 f i LowLevelAABB_static_64:BpBroadPhaseSap.obj
 0001:00004080       ?exportData@?$NpParticleSystem@VPxPBDParticleSystem@physx@@@physx@@UEBAXAEAVPxSerializationContext@2@@Z 0000000180005080 f i NpParticleSystem.obj
 0001:00004080       ?sendAllProperties@PvdMetaDataBinding@Vd@physx@@QEAAXAEAVPvdDataStream@pvdsdk@3@AEBVPxSoftBody@3@@Z 0000000180005080 f i PvdMetaDataPvdBinding.obj
 0001:00004080       ?reinsertShape@SimulationController@Sc@physx@@UEAAXPEAUPxsShapeSim@3@I@Z 0000000180005080 f i SimulationController_static_64:ScScene.obj
 0001:00004080       ?updateMaterial@PxsNphaseImplementationContext@physx@@UEAAXAEBV?$MaterialCoreT@UPxsFEMClothMaterialData@physx@@VPxFEMClothMaterial@2@@2@@Z 0000000180005080 f i LowLevel_static_64:PxsNphaseImplementationContext.obj
 0001:00004080       ?switchFromNoSim@?$NpRigidActorTemplate@VPxRigidDynamic@physx@@@physx@@UEAAXXZ 0000000180005080 f i NpRigidDynamic.obj
 0001:00004080       ?onObjectAdd@MeshFactoryListener@Gu@physx@@UEAAXPEBVPxBase@3@@Z 0000000180005080 f i PvdPhysicsClient.obj
 0001:00004080       ?releaseArticulation@SimulationController@Sc@physx@@UEAAXPEAVFeatherstoneArticulation@Dy@3@AEBVPxNodeIndex@3@@Z 0000000180005080 f i SimulationController_static_64:ScScene.obj
 0001:00004080       ?releasePvdInstance@PvdSceneClient@Vd@physx@@QEAAXPEBVNpPBDParticleSystem@3@@Z 0000000180005080 f i NpPvdSceneClient.obj
 0001:00004080       ?releaseDeferredFEMClothIds@SimulationController@Sc@physx@@UEAAXXZ 0000000180005080 f i SimulationController_static_64:ScScene.obj
 0001:00004080       ?releasePvdInstance@PvdSceneClient@Vd@physx@@QEAAXPEBVNpArticulationSpatialTendon@3@@Z 0000000180005080 f i NpPvdSceneClient.obj
 0001:00004080       ?updateMaterial@PxsNphaseImplementationContext@physx@@UEAAXAEBV?$MaterialCoreT@UPxsFEMSoftBodyMaterialData@physx@@VPxFEMSoftBodyMaterial@2@@2@@Z 0000000180005080 f i LowLevel_static_64:PxsNphaseImplementationContext.obj
 0001:00004080       ?addClothFilter@SimulationController@Sc@physx@@UEAAXPEAVSoftBody@Dy@3@PEAVFEMCloth@53@II@Z 0000000180005080 f i SimulationController_static_64:ScScene.obj
 0001:00004080       ?addDynamic@SimulationController@Sc@physx@@UEAAXPEAVPxsRigidBody@3@AEBVPxNodeIndex@3@@Z 0000000180005080 f i SimulationController_static_64:ScScene.obj
 0001:00004080       ?switchToNoSim@?$NpRigidActorTemplate@VPxRigidDynamic@physx@@@physx@@UEAAXXZ 0000000180005080 f i NpRigidDynamic.obj
 0001:00004080       ?exportExtraData@?$PxSerializerDefaultAdapter@VNpMaterial@physx@@@physx@@UEBAXAEAVPxBase@2@AEAVPxSerializationContext@2@@Z 0000000180005080 f i NpSerializerAdapter.obj
 0001:00004090       ?addSharedMeshIfNotSeen@OmniPvdSamplerInternals@@QEAA_NPEBXW4OmniPvdSharedMeshEnum@@@Z 0000000180005090 f   OmniPvdPxSampler.obj
 0001:000041b0       ?create@?$PxHashBase@V?$PxPair@QEAVPxDeletionListener@physx@@PEAUNpDelListenerEntry@NpPhysics@2@@physx@@PEAVPxDeletionListener@2@U?$PxHash@PEAVPxDeletionListener@physx@@@2@UGetKey@?$PxHashMapBase@PEAVPxDeletionListener@physx@@PEAUNpDelListenerEntry@NpPhysics@2@U?$PxHash@PEAVPxDeletionListener@physx@@@2@VPxAllocator@2@@2@VPxAllocator@2@$00@physx@@QEAAPEAV?$PxPair@QEAVPxDeletionListener@physx@@PEAUNpDelListenerEntry@NpPhysics@2@@2@AEBQEAVPxDeletionListener@2@AEA_N@Z 00000001800051b0 f i NpPhysics.obj
 0001:000041b0       ?create@?$PxHashBase@V?$PxPair@QEBVPxShape@physx@@PEAV?$PxHashSet@PEBVPxRigidActor@physx@@U?$PxHash@PEBVPxRigidActor@physx@@@2@VPxAllocator@2@@2@@physx@@PEBVPxShape@2@U?$PxHash@PEBVPxShape@physx@@@2@UGetKey@?$PxHashMapBase@PEBVPxShape@physx@@PEAV?$PxHashSet@PEBVPxRigidActor@physx@@U?$PxHash@PEBVPxRigidActor@physx@@@2@VPxAllocator@2@@2@U?$PxHash@PEBVPxShape@physx@@@2@VPxAllocator@2@@2@VPxAllocator@2@$00@physx@@QEAAPEAV?$PxPair@QEBVPxShape@physx@@PEAV?$PxHashSet@PEBVPxRigidActor@physx@@U?$PxHash@PEBVPxRigidActor@physx@@@2@VPxAllocator@2@@2@@2@AEBQEBVPxShape@2@AEA_N@Z 00000001800051b0 f i PvdMetaDataPvdBinding.obj
 0001:000041b0       ?create@?$PxHashBase@V?$PxPair@QEAVNpScene@physx@@PEAVOmniPvdPxScene@@@physx@@PEAVNpScene@2@U?$PxHash@PEAVNpScene@physx@@@2@UGetKey@?$PxHashMapBase@PEAVNpScene@physx@@PEAVOmniPvdPxScene@@U?$PxHash@PEAVNpScene@physx@@@2@VPxAllocator@2@@2@VPxAllocator@2@$00@physx@@QEAAPEAV?$PxPair@QEAVNpScene@physx@@PEAVOmniPvdPxScene@@@2@AEBQEAVNpScene@2@AEA_N@Z 00000001800051b0 f i OmniPvdPxSampler.obj
 0001:00004350       ?create@?$PxHashBase@V?$PxPair@QEBXW4OmniPvdSharedMeshEnum@@@physx@@PEBXU?$PxHash@PEBX@2@UGetKey@?$PxHashMapBase@PEBXW4OmniPvdSharedMeshEnum@@U?$PxHash@PEBX@physx@@VPxAllocator@3@@2@VPxAllocator@2@$00@physx@@QEAAPEAV?$PxPair@QEBXW4OmniPvdSharedMeshEnum@@@2@AEBQEBXAEA_N@Z 0000000180005350 f i OmniPvdPxSampler.obj
 0001:000044f0       ?createGeometry@@YAXAEBVPxGeometry@physx@@@Z 00000001800054f0 f   OmniPvdPxSampler.obj
 0001:00004820       ?getInstance@OmniPvdPxSampler@@SAPEAV1@XZ 0000000180005820 f   OmniPvdPxSampler.obj
 0001:00004840       ?getSampledScene@OmniPvdPxSampler@@AEAAPEAVOmniPvdPxScene@@PEAVNpScene@physx@@@Z 0000000180005840 f   OmniPvdPxSampler.obj
 0001:000049c0       ?growAndPushBack@?$PxArray@IV?$PxReflectionAllocator@I@physx@@@physx@@IEAAAEAIAEBI@Z 00000001800059c0 f i OmniPvdPxSampler.obj
 0001:00004b00       ?growAndPushBack@?$PxArray@MV?$PxReflectionAllocator@M@physx@@@physx@@IEAAAEAMAEBM@Z 0000000180005b00 f i OmniPvdPxSampler.obj
 0001:00004c60       ?growAndPushBack@?$PxArray@PEAVPxActor@physx@@V?$PxReflectionAllocator@PEAVPxActor@physx@@@2@@physx@@IEAAAEAPEAVPxActor@2@AEBQEAV32@@Z 0000000180005c60 f i OmniPvdPxSampler.obj
 0001:00004da0       ?growAndPushBack@?$PxArray@PEAVPxShape@physx@@V?$PxReflectionAllocator@PEAVPxShape@physx@@@2@@physx@@IEAAAEAPEAVPxShape@2@AEBQEAV32@@Z 0000000180005da0 f i OmniPvdPxSampler.obj
 0001:00004ee0       ?growAndPushBack@?$PxArray@V?$PxVec3T@M@physx@@V?$PxReflectionAllocator@V?$PxVec3T@M@physx@@@2@@physx@@IEAAAEAV?$PxVec3T@M@2@AEBV32@@Z 0000000180005ee0 f i OmniPvdPxSampler.obj
 0001:000050d0       ?isSampling@OmniPvdPxSampler@@QEAA_NXZ 00000001800060d0 f   OmniPvdPxSampler.obj
 0001:00005120       ?getPxgDynamicsMemoryConfig_IsValid@@YA_NPEBUPxgDynamicsMemoryConfig@physx@@@Z 0000000180006120 f i PxAutoGeneratedMetaDataObjects.obj
 0001:00005120       ?isValid@PxgDynamicsMemoryConfig@physx@@QEBA_NXZ 0000000180006120 f i OmniPvdPxSampler.obj
 0001:00005140       ?onObjectAdd@OmniPvdPxSampler@@QEAAXPEBVPxBase@physx@@@Z 0000000180006140 f   OmniPvdPxSampler.obj
 0001:00005cc0       ?onObjectRemove@OmniPvdPxSampler@@QEAAXPEBVPxBase@physx@@@Z 0000000180006cc0 f   OmniPvdPxSampler.obj
 0001:00006190       ?registerClasses@OmniPvdStreamContainer@@QEAAXXZ 0000000180007190 f   OmniPvdPxSampler.obj
 0001:00008b90       ?reserveInternal@?$PxHashBase@V?$PxPair@QEAVNpScene@physx@@PEAVOmniPvdPxScene@@@physx@@PEAVNpScene@2@U?$PxHash@PEAVNpScene@physx@@@2@UGetKey@?$PxHashMapBase@PEAVNpScene@physx@@PEAVOmniPvdPxScene@@U?$PxHash@PEAVNpScene@physx@@@2@VPxAllocator@2@@2@VPxAllocator@2@$00@physx@@AEAAXI@Z 0000000180009b90 f i OmniPvdPxSampler.obj
 0001:00008b90       ?reserveInternal@?$PxHashBase@V?$PxPair@QEAVPxDeletionListener@physx@@PEAUNpDelListenerEntry@NpPhysics@2@@physx@@PEAVPxDeletionListener@2@U?$PxHash@PEAVPxDeletionListener@physx@@@2@UGetKey@?$PxHashMapBase@PEAVPxDeletionListener@physx@@PEAUNpDelListenerEntry@NpPhysics@2@U?$PxHash@PEAVPxDeletionListener@physx@@@2@VPxAllocator@2@@2@VPxAllocator@2@$00@physx@@AEAAXI@Z 0000000180009b90 f i NpPhysics.obj
 0001:00008b90       ?reserveInternal@?$PxHashBase@V?$PxPair@QEBVPxShape@physx@@PEAV?$PxHashSet@PEBVPxRigidActor@physx@@U?$PxHash@PEBVPxRigidActor@physx@@@2@VPxAllocator@2@@2@@physx@@PEBVPxShape@2@U?$PxHash@PEBVPxShape@physx@@@2@UGetKey@?$PxHashMapBase@PEBVPxShape@physx@@PEAV?$PxHashSet@PEBVPxRigidActor@physx@@U?$PxHash@PEBVPxRigidActor@physx@@@2@VPxAllocator@2@@2@U?$PxHash@PEBVPxShape@physx@@@2@VPxAllocator@2@@2@VPxAllocator@2@$00@physx@@AEAAXI@Z 0000000180009b90 f i PvdMetaDataPvdBinding.obj
 0001:00008d70       ?reserveInternal@?$PxHashBase@V?$PxPair@QEBXW4OmniPvdSharedMeshEnum@@@physx@@PEBXU?$PxHash@PEBX@2@UGetKey@?$PxHashMapBase@PEBXW4OmniPvdSharedMeshEnum@@U?$PxHash@PEBX@physx@@VPxAllocator@3@@2@VPxAllocator@2@$00@physx@@AEAAXI@Z 0000000180009d70 f i OmniPvdPxSampler.obj
 0001:00008f50       ?sampleScene@OmniPvdPxSampler@@QEAAXPEAVNpScene@physx@@@Z 0000000180009f50 f   OmniPvdPxSampler.obj
 0001:00008fe0       ?setOmniPvdWriter@OmniPvdPxSampler@@QEAAXPEAVOmniPvdWriter@@@Z 0000000180009fe0 f   OmniPvdPxSampler.obj
 0001:00008ff0       ?startSampling@OmniPvdPxSampler@@QEAAXXZ 0000000180009ff0 f   OmniPvdPxSampler.obj
 0001:00009100       ?streamActorName@@YAXAEAVPxActor@physx@@PEBD@Z 000000018000a100 f   OmniPvdPxSampler.obj
 0001:00009160       ?streamArticulation@@YAXPEBVPxArticulationReducedCoordinate@physx@@@Z 000000018000a160 f   OmniPvdPxSampler.obj
 0001:00009560       ?streamArticulationJoint@@YAXPEBVPxArticulationJointReducedCoordinate@physx@@@Z 000000018000a560 f   OmniPvdPxSampler.obj
 0001:00009d60       ?streamCapsule@@YAXAEBVPxGeometry@physx@@@Z 000000018000ad60 f   OmniPvdPxSampler.obj
 0001:00009fe0       ?streamConvexMesh@@YAXPEBVPxConvexMesh@physx@@@Z 000000018000afe0 f   OmniPvdPxSampler.obj
 0001:0000a3a0       ?streamConvexMeshGeometry@@YAXAEBVPxGeometry@physx@@@Z 000000018000b3a0 f   OmniPvdPxSampler.obj
 0001:0000a630       ?streamHeightField@@YAXPEBVPxHeightField@physx@@@Z 000000018000b630 f   OmniPvdPxSampler.obj
 0001:0000abe0       ?streamMaterial@@YAXPEBVPxMaterial@physx@@@Z 000000018000bbe0 f   OmniPvdPxSampler.obj
 0001:0000ae40       ?streamRigidDynamic@@YAXPEBVPxRigidDynamic@physx@@@Z 000000018000be40 f   OmniPvdPxSampler.obj
 0001:0000b1e0       ?streamSceneContacts@OmniPvdPxSampler@@QEAAXAEAVNpScene@physx@@@Z 000000018000c1e0 f   OmniPvdPxSampler.obj
 0001:0000b9d0       ?streamShape@@YAXPEBVPxShape@physx@@@Z 000000018000c9d0 f   OmniPvdPxSampler.obj
 0001:0000be50       ?streamShapeMaterials@@YAXPEAVPxShape@physx@@PEAPEAVPxMaterial@2@I@Z 000000018000ce50 f   OmniPvdPxSampler.obj
 0001:0000bea0       ?streamTetMesh@@YAXPEBVPxTetrahedronMesh@physx@@@Z 000000018000cea0 f   OmniPvdPxSampler.obj
 0001:0000c270       ?streamTriMesh@@YAXPEBVPxTriangleMesh@physx@@@Z 000000018000d270 f   OmniPvdPxSampler.obj
 0001:0000c680       ?streamTriMeshGeometry@@YAXAEBVPxGeometry@physx@@@Z 000000018000d680 f   OmniPvdPxSampler.obj
 0001:0000c910       ??0PvdSceneClient@Vd@physx@@QEAA@AEAVNpScene@2@@Z 000000018000d910 f   NpPvdSceneClient.obj
 0001:0000c980       ??1PvdSceneClient@Vd@physx@@UEAA@XZ 000000018000d980 f   NpPvdSceneClient.obj
 0001:0000c9f4       ??_EPvdSceneClient@Vd@physx@@W7EAAPEAXI@Z 000000018000d9f4 f i NpPvdSceneClient.obj
 0001:0000ca00       ??_EPvdSceneClient@Vd@physx@@WBA@EAAPEAXI@Z 000000018000da00 f i NpPvdSceneClient.obj
 0001:0000ca10       ??_GPvdClient@pvdsdk@physx@@MEAAPEAXI@Z 000000018000da10 f i NpPvdSceneClient.obj
 0001:0000ca10       ??_EPvdClient@pvdsdk@physx@@MEAAPEAXI@Z 000000018000da10 f i NpPvdSceneClient.obj
 0001:0000ca70       ??_EPvdSceneClient@Vd@physx@@UEAAPEAXI@Z 000000018000da70 f i NpPvdSceneClient.obj
 0001:0000ca70       ??_GPvdSceneClient@Vd@physx@@UEAAPEAXI@Z 000000018000da70 f i NpPvdSceneClient.obj
 0001:0000cb10       ??_GEndSetPropertyValue@pvdsdk@physx@@UEAAPEAXI@Z 000000018000db10 f i PhysXPvdSDK_static_64:PxPvdDataStream.obj
 0001:0000cb10       ??_EPvdVisualizer@Vd@physx@@MEAAPEAXI@Z 000000018000db10 f i NpPvdSceneClient.obj
 0001:0000cb10       ??_EPxProcessPxBaseCallback@physx@@UEAAPEAXI@Z 000000018000db10 f i NpSerializerAdapter.obj
 0001:0000cb10       ??_GEndPropertyMessageGroup@pvdsdk@physx@@UEAAPEAXI@Z 000000018000db10 f i PhysXPvdSDK_static_64:PxPvdDataStream.obj
 0001:0000cb10       ??_ECompoundPrunerOverlapCallback@Sq@physx@@UEAAPEAXI@Z 000000018000db10 f i SceneQuery_static_64:SqQuery.obj
 0001:0000cb10       ??_GPrunerPayloadRemovalCallback@Gu@physx@@UEAAPEAXI@Z 000000018000db10 f i NpSceneQueries.obj
 0001:0000cb10       ??_GDebugVizCallback@physx@@UEAAPEAXI@Z 000000018000db10 f i SceneQuery_static_64:SqCompoundPruner.obj
 0001:0000cb10       ??_GPxErrorCallback@physx@@UEAAPEAXI@Z 000000018000db10 f i PvdPhysicsClient.obj
 0001:0000cb10       ??_GPrunerRaycastCallback@Gu@physx@@UEAAPEAXI@Z 000000018000db10 f i SceneQuery_static_64:SqQuery.obj
 0001:0000cb10       ??_EPrunerOverlapCallback@Gu@physx@@UEAAPEAXI@Z 000000018000db10 f i SceneQuery_static_64:SqQuery.obj
 0001:0000cb10       ??_EPxErrorCallback@physx@@UEAAPEAXI@Z 000000018000db10 f i PvdPhysicsClient.obj
 0001:0000cb10       ??_EEndSetPropertyValue@pvdsdk@physx@@UEAAPEAXI@Z 000000018000db10 f i PhysXPvdSDK_static_64:PxPvdDataStream.obj
 0001:0000cb10       ??_EEventSerializeable@pvdsdk@physx@@MEAAPEAXI@Z 000000018000db10 f i PhysXPvdSDK_static_64:PxPvdDataStream.obj
 0001:0000cb10       ??_ERendererEventClient@pvdsdk@physx@@UEAAPEAXI@Z 000000018000db10 f i NpPvdSceneClient.obj
 0001:0000cb10       ??_GCompoundPrunerOverlapCallback@Sq@physx@@UEAAPEAXI@Z 000000018000db10 f i SceneQuery_static_64:SqQuery.obj
 0001:0000cb10       ??_EEndPropertyMessageGroup@pvdsdk@physx@@UEAAPEAXI@Z 000000018000db10 f i PhysXPvdSDK_static_64:PxPvdDataStream.obj
 0001:0000cb10       ??_EPrunerPayloadRemovalCallback@Gu@physx@@UEAAPEAXI@Z 000000018000db10 f i NpSceneQueries.obj
 0001:0000cb10       ??_GAdapter@Sq@physx@@UEAAPEAXI@Z 000000018000db10 f i NpSceneQueries.obj
 0001:0000cb10       ??_GPrunerOverlapCallback@Gu@physx@@UEAAPEAXI@Z 000000018000db10 f i SceneQuery_static_64:SqQuery.obj
 0001:0000cb10       ??_GCompoundPrunerRaycastCallback@Sq@physx@@UEAAPEAXI@Z 000000018000db10 f i SceneQuery_static_64:SqQuery.obj
 0001:0000cb10       ??_EAdapter@Sq@physx@@UEAAPEAXI@Z 000000018000db10 f i NpSceneQueries.obj
 0001:0000cb10       ??_EDebugVizCallback@physx@@UEAAPEAXI@Z 000000018000db10 f i SceneQuery_static_64:SqCompoundPruner.obj
 0001:0000cb10       ??_ECompoundPrunerRaycastCallback@Sq@physx@@UEAAPEAXI@Z 000000018000db10 f i SceneQuery_static_64:SqQuery.obj
 0001:0000cb10       ??_GPvdVisualizer@Vd@physx@@MEAAPEAXI@Z 000000018000db10 f i NpPvdSceneClient.obj
 0001:0000cb10       ??_EPrunerRaycastCallback@Gu@physx@@UEAAPEAXI@Z 000000018000db10 f i SceneQuery_static_64:SqQuery.obj
 0001:0000cb10       ??_GPxProcessPxBaseCallback@physx@@UEAAPEAXI@Z 000000018000db10 f i NpSerializerAdapter.obj
 0001:0000cb10       ??_GEventSerializeable@pvdsdk@physx@@MEAAPEAXI@Z 000000018000db10 f i PhysXPvdSDK_static_64:PxPvdDataStream.obj
 0001:0000cb10       ??_GRendererEventClient@pvdsdk@physx@@UEAAPEAXI@Z 000000018000db10 f i NpPvdSceneClient.obj
 0001:0000cb40       ??_EPxConstraintVisualizer@physx@@MEAAPEAXI@Z 000000018000db40 f i NpPvdSceneClient.obj
 0001:0000cb40       ??_GPxConstraintVisualizer@physx@@MEAAPEAXI@Z 000000018000db40 f i NpPvdSceneClient.obj
 0001:0000cb40       ??_EPxBroadPhaseRegions@physx@@MEAAPEAXI@Z 000000018000db40 f i NpImmediateMode.obj
 0001:0000cb40       ??_GPxBroadPhaseRegions@physx@@MEAAPEAXI@Z 000000018000db40 f i NpImmediateMode.obj
 0001:0000cb70       ??_GPxPvdSceneClient@physx@@MEAAPEAXI@Z 000000018000db70 f i NpPvdSceneClient.obj
 0001:0000cb70       ??_EPxPvdSceneClient@physx@@MEAAPEAXI@Z 000000018000db70 f i NpPvdSceneClient.obj
 0001:0000cc30       ?addBodyAndShapesToPvd@PvdSceneClient@Vd@physx@@QEAAXAEAVNpRigidDynamic@3@@Z 000000018000dc30 f   NpPvdSceneClient.obj
 0001:0000ceb0       ?addStaticAndShapesToPvd@PvdSceneClient@Vd@physx@@QEAAXAEAVNpRigidStatic@3@@Z 000000018000deb0 f   NpPvdSceneClient.obj
 0001:0000d010       ?attachAggregateActor@PvdSceneClient@Vd@physx@@QEAAXPEBVNpAggregate@3@PEAVNpActor@3@@Z 000000018000e010 f   NpPvdSceneClient.obj
 0001:0000d070       ?createPvdInstance@PvdSceneClient@Vd@physx@@QEAAXPEBV?$MaterialCoreT@UPxsFEMSoftBodyMaterialData@physx@@VPxFEMSoftBodyMaterial@2@@3@@Z 000000018000e070 f   NpPvdSceneClient.obj
 0001:0000d0e0       ?createPvdInstance@PvdSceneClient@Vd@physx@@QEAAXPEBV?$MaterialCoreT@UPxsMaterialData@physx@@VPxMaterial@2@@3@@Z 000000018000e0e0 f   NpPvdSceneClient.obj
 0001:0000d150       ?createPvdInstance@PvdSceneClient@Vd@physx@@QEAAXPEBVNpAggregate@3@@Z 000000018000e150 f   NpPvdSceneClient.obj
 0001:0000d240       ?createPvdInstance@PvdSceneClient@Vd@physx@@QEAAXPEBVNpRigidDynamic@3@@Z 000000018000e240 f   NpPvdSceneClient.obj
 0001:0000d240       ?createPvdInstance@PvdSceneClient@Vd@physx@@QEAAXPEBVNpArticulationLink@3@@Z 000000018000e240 f   NpPvdSceneClient.obj
 0001:0000d300       ?createPvdInstance@PvdSceneClient@Vd@physx@@QEAAXPEBVNpArticulationReducedCoordinate@3@@Z 000000018000e300 f   NpPvdSceneClient.obj
 0001:0000d360       ?createPvdInstance@PvdSceneClient@Vd@physx@@QEAAXPEBVNpConstraint@3@@Z 000000018000e360 f   NpPvdSceneClient.obj
 0001:0000d3b0       ?createPvdInstance@PvdSceneClient@Vd@physx@@QEAAXPEBVNpRigidStatic@3@@Z 000000018000e3b0 f   NpPvdSceneClient.obj
 0001:0000d410       ?createPvdInstance@PvdSceneClient@Vd@physx@@QEAAXPEBVNpShape@3@AEAVPxActor@3@@Z 000000018000e410 f   NpPvdSceneClient.obj
 0001:0000d520       ?detachAggregateActor@PvdSceneClient@Vd@physx@@QEAAXPEBVNpAggregate@3@PEAVNpActor@3@@Z 000000018000e520 f   NpPvdSceneClient.obj
 0001:0000d580       ?drawLines@PvdSceneClient@Vd@physx@@UEAAXPEBUPxDebugLine@3@I@Z 000000018000e580 f   NpPvdSceneClient.obj
 0001:0000d5a0       ?drawPoints@PvdSceneClient@Vd@physx@@UEAAXPEBUPxDebugPoint@3@I@Z 000000018000e5a0 f   NpPvdSceneClient.obj
 0001:0000d5c0       ?drawText@PvdSceneClient@Vd@physx@@UEAAXAEBUPxDebugText@3@@Z 000000018000e5c0 f   NpPvdSceneClient.obj
 0001:0000d5e0       ?drawTriangles@PvdSceneClient@Vd@physx@@UEAAXPEBUPxDebugTriangle@3@I@Z 000000018000e5e0 f   NpPvdSceneClient.obj
 0001:0000d600       ?frameEnd@PvdSceneClient@Vd@physx@@QEAAXXZ 000000018000e600 f   NpPvdSceneClient.obj
 0001:0000d7f0       ?frameStart@PvdSceneClient@Vd@physx@@QEAAXM@Z 000000018000e7f0 f   NpPvdSceneClient.obj
 0001:0000d8d0       ?getClientInternal@PvdSceneClient@Vd@physx@@UEAAPEAVPvdClient@pvdsdk@3@XZ 000000018000e8d0 f i NpPvdSceneClient.obj
 0001:0000d8e0       ?getLink@NpArticulationSensor@physx@@UEBAPEAVPxArticulationLink@2@XZ 000000018000e8e0 f i NpArticulationSensor.obj
 0001:0000d8e0       ?getPxConvexMeshGeometryConvexMesh@@YAPEAVPxConvexMesh@physx@@PEBVPxConvexMeshGeometry@2@@Z 000000018000e8e0 f i PxAutoGeneratedMetaDataObjects.obj
 0001:0000d8e0       ?getLink@NpArticulationAttachment@physx@@UEBAPEAVPxArticulationLink@2@XZ 000000018000e8e0 f i NpArticulationTendon.obj
 0001:0000d8e0       ?getPxTriangleMeshGeometryTriangleMesh@@YAPEAVPxTriangleMesh@physx@@PEBVPxTriangleMeshGeometry@2@@Z 000000018000e8e0 f i PxAutoGeneratedMetaDataObjects.obj
 0001:0000d8e0       ?getTriangles@RenderBuffer@Cm@physx@@UEBAPEBUPxDebugTriangle@3@XZ 000000018000e8e0 f i NpScene.obj
 0001:0000d8e0       ?getLink@NpArticulationTendonJoint@physx@@UEBAPEAVPxArticulationLink@2@XZ 000000018000e8e0 f i NpArticulationTendon.obj
 0001:0000d8e0       ?getDataStream@PvdSceneClient@Vd@physx@@UEAAPEAVPvdDataStream@pvdsdk@3@XZ 000000018000e8e0 f i NpPvdSceneClient.obj
 0001:0000d8f0       ?getScenePvdFlags@PvdSceneClient@Vd@physx@@UEBA?AV?$PxFlags@W4Enum@PxPvdSceneFlag@physx@@E@3@XZ 000000018000e8f0 f i NpPvdSceneClient.obj
 0001:0000d900       ?growAndPushBack@?$PxArray@UContact@Sc@physx@@V?$PxReflectionAllocator@UContact@Sc@physx@@@3@@physx@@IEAAAEAUContact@Sc@2@AEBU342@@Z 000000018000e900 f i NpPvdSceneClient.obj
 0001:0000dd20       ?isConnected@PvdSceneClient@Vd@physx@@UEBA_NXZ 000000018000ed20 f i NpPvdSceneClient.obj
 0001:0000dd30       ?onPvdConnected@PvdSceneClient@Vd@physx@@UEAAXXZ 000000018000ed30 f   NpPvdSceneClient.obj
 0001:0000de50       ?onPvdDisconnected@PvdSceneClient@Vd@physx@@UEAAXXZ 000000018000ee50 f   NpPvdSceneClient.obj
 0001:0000deb0       ?originShift@PvdSceneClient@Vd@physx@@QEAAXV?$PxVec3T@M@3@@Z 000000018000eeb0 f   NpPvdSceneClient.obj
 0001:0000df00       ?recreate@?$PxArray@PEAVPxActor@physx@@V?$PxReflectionAllocator@PEAVPxActor@physx@@@2@@physx@@IEAAXI@Z 000000018000ef00 f i NpPvdSceneClient.obj
 0001:0000e030       ?recreate@?$PxArray@PEAVPxArticulationReducedCoordinate@physx@@V?$PxReflectionAllocator@PEAVPxArticulationReducedCoordinate@physx@@@2@@physx@@IEAAXI@Z 000000018000f030 f i NpPvdSceneClient.obj
 0001:0000e160       ?releaseAndRecreateGeometry@PvdSceneClient@Vd@physx@@QEAAXPEBVNpShape@3@@Z 000000018000f160 f   NpPvdSceneClient.obj
 0001:0000e1c0       ?releasePvdInstance@PvdSceneClient@Vd@physx@@QEAAXPEBV?$MaterialCoreT@UPxsFEMSoftBodyMaterialData@physx@@VPxFEMSoftBodyMaterial@2@@3@@Z 000000018000f1c0 f   NpPvdSceneClient.obj
 0001:0000e220       ?releasePvdInstance@PvdSceneClient@Vd@physx@@QEAAXPEBV?$MaterialCoreT@UPxsMaterialData@physx@@VPxMaterial@2@@3@@Z 000000018000f220 f   NpPvdSceneClient.obj
 0001:0000e280       ?releasePvdInstance@PvdSceneClient@Vd@physx@@QEAAXPEBVNpAggregate@3@@Z 000000018000f280 f   NpPvdSceneClient.obj
 0001:0000e370       ?releasePvdInstance@PvdSceneClient@Vd@physx@@QEAAXPEBVNpArticulationLink@3@@Z 000000018000f370 f   NpPvdSceneClient.obj
 0001:0000e370       ?releasePvdInstance@PvdSceneClient@Vd@physx@@QEAAXPEBVNpRigidStatic@3@@Z 000000018000f370 f   NpPvdSceneClient.obj
 0001:0000e370       ?releasePvdInstance@PvdSceneClient@Vd@physx@@QEAAXPEBVNpRigidDynamic@3@@Z 000000018000f370 f   NpPvdSceneClient.obj
 0001:0000e3a0       ?releasePvdInstance@PvdSceneClient@Vd@physx@@QEAAXPEBVNpArticulationReducedCoordinate@3@@Z 000000018000f3a0 f   NpPvdSceneClient.obj
 0001:0000e3f0       ?releasePvdInstance@PvdSceneClient@Vd@physx@@QEAAXPEBVNpConstraint@3@@Z 000000018000f3f0 f   NpPvdSceneClient.obj
 0001:0000e470       ?releasePvdInstance@PvdSceneClient@Vd@physx@@QEAAXPEBVNpShape@3@AEAVPxActor@3@@Z 000000018000f470 f   NpPvdSceneClient.obj
 0001:0000e650       ?releasePvdInstance@PvdSceneClient@Vd@physx@@QEAAXPEBVPxActor@3@@Z 000000018000f650 f   NpPvdSceneClient.obj
 0001:0000e730       ?releasePvdInstance@PvdSceneClient@Vd@physx@@QEAAXXZ 000000018000f730 f   NpPvdSceneClient.obj
 0001:0000e790       ?resize@?$PxArray@PEAVPxActor@physx@@V?$PxReflectionAllocator@PEAVPxActor@physx@@@2@@physx@@QEAAXIAEBQEAVPxActor@2@@Z 000000018000f790 f i NpPvdSceneClient.obj
 0001:0000e850       ?resize@?$PxArray@PEAVPxArticulationReducedCoordinate@physx@@V?$PxReflectionAllocator@PEAVPxArticulationReducedCoordinate@physx@@@2@@physx@@QEAAXIAEBQEAVPxArticulationReducedCoordinate@2@@Z 000000018000f850 f i NpPvdSceneClient.obj
 0001:0000e910       ?sendEntireScene@PvdSceneClient@Vd@physx@@AEAAXXZ 000000018000f910 f   NpPvdSceneClient.obj
 0001:0000ecf0       ?setScenePvdFlag@PvdSceneClient@Vd@physx@@UEAAXW4Enum@PxPvdSceneFlag@3@_N@Z 000000018000fcf0 f   NpPvdSceneClient.obj
 0001:0000ed00       ?setScenePvdFlags@PvdSceneClient@Vd@physx@@UEAAXV?$PxFlags@W4Enum@PxPvdSceneFlag@physx@@E@3@@Z 000000018000fd00 f i NpPvdSceneClient.obj
 0001:0000ed10       ?updateBodyPvdProperties@PvdSceneClient@Vd@physx@@QEAAXPEBVNpActor@3@@Z 000000018000fd10 f   NpPvdSceneClient.obj
 0001:0000edc0       ?updateCamera@PvdSceneClient@Vd@physx@@UEAAXPEBDAEBV?$PxVec3T@M@3@11@Z 000000018000fdc0 f   NpPvdSceneClient.obj
 0001:0000ede0       ?updateConstraint@PvdSceneClient@Vd@physx@@AEAAXAEBVConstraintCore@Sc@3@I@Z 000000018000fde0 f   NpPvdSceneClient.obj
 0001:0000ee50       ?updateContacts@PvdSceneClient@Vd@physx@@QEAAXXZ 000000018000fe50 f   NpPvdSceneClient.obj
 0001:0000f120       ?updateJoints@PvdSceneClient@Vd@physx@@QEAAXXZ 0000000180010120 f   NpPvdSceneClient.obj
 0001:0000f520       ?updateKinematicTarget@PvdSceneClient@Vd@physx@@QEAAXPEBVNpActor@3@AEBV?$PxTransformT@M@3@@Z 0000000180010520 f   NpPvdSceneClient.obj
 0001:0000f600       ?updateMaterials@PvdSceneClient@Vd@physx@@QEAAXPEBVNpShape@3@@Z 0000000180010600 f   NpPvdSceneClient.obj
 0001:0000f650       ?updatePvdProperties@PvdSceneClient@Vd@physx@@QEAAXPEBV?$MaterialCoreT@UPxsFEMSoftBodyMaterialData@physx@@VPxFEMSoftBodyMaterial@2@@3@@Z 0000000180010650 f   NpPvdSceneClient.obj
 0001:0000f6a0       ?updatePvdProperties@PvdSceneClient@Vd@physx@@QEAAXPEBV?$MaterialCoreT@UPxsMaterialData@physx@@VPxMaterial@2@@3@@Z 00000001800106a0 f   NpPvdSceneClient.obj
 0001:0000f6f0       ?updatePvdProperties@PvdSceneClient@Vd@physx@@QEAAXPEBVNpActor@3@@Z 00000001800106f0 f   NpPvdSceneClient.obj
 0001:0000f800       ?updatePvdProperties@PvdSceneClient@Vd@physx@@QEAAXPEBVNpAggregate@3@@Z 0000000180010800 f   NpPvdSceneClient.obj
 0001:0000f850       ?updatePvdProperties@PvdSceneClient@Vd@physx@@QEAAXPEBVNpArticulationJointReducedCoordinate@3@@Z 0000000180010850 f   NpPvdSceneClient.obj
 0001:0000f8a0       ?updatePvdProperties@PvdSceneClient@Vd@physx@@QEAAXPEBVNpArticulationReducedCoordinate@3@@Z 00000001800108a0 f   NpPvdSceneClient.obj
 0001:0000f8f0       ?updatePvdProperties@PvdSceneClient@Vd@physx@@QEAAXPEBVNpConstraint@3@@Z 00000001800108f0 f   NpPvdSceneClient.obj
 0001:0000f940       ?updatePvdProperties@PvdSceneClient@Vd@physx@@QEAAXPEBVNpRigidStatic@3@@Z 0000000180010940 f   NpPvdSceneClient.obj
 0001:0000f990       ?updatePvdProperties@PvdSceneClient@Vd@physx@@QEAAXPEBVNpShape@3@@Z 0000000180010990 f   NpPvdSceneClient.obj
 0001:0000f9e0       ?updatePvdProperties@PvdSceneClient@Vd@physx@@QEAAXXZ 00000001800109e0 f   NpPvdSceneClient.obj
 0001:0000fa00       ?updateSceneQueries@PvdSceneClient@Vd@physx@@QEAAXXZ 0000000180010a00 f   NpPvdSceneClient.obj
 0001:0000fa50       ?visualize@PvdSceneClient@Vd@physx@@QEAAXAEBVPxRenderBuffer@3@@Z 0000000180010a50 f   NpPvdSceneClient.obj
 0001:0000fb60       ?visualize@PvdSceneClient@Vd@physx@@UEAAXAEAVPxArticulationLink@3@@Z 0000000180010b60 f   NpPvdSceneClient.obj
 0001:000100e0       ??0PvdSceneQueryCollector@Vd@physx@@QEAA@PEAVPvdSceneClient@12@_N@Z 00000001800110e0 f   NpPvdSceneQueryCollector.obj
 0001:000102d0       ?copy@?$PxArray@UPvdOverlap@Vd@physx@@V?$PxReflectionAllocator@UPvdOverlap@Vd@physx@@@3@@physx@@KAXPEAUPvdOverlap@Vd@2@0PEBU342@@Z 00000001800112d0 f i NpPvdSceneQueryCollector.obj
 0001:000105b0       ?growAndPushBack@?$PxArray@UPvdOverlap@Vd@physx@@V?$PxReflectionAllocator@UPvdOverlap@Vd@physx@@@3@@physx@@IEAAAEAUPvdOverlap@Vd@2@AEBU342@@Z 00000001800115b0 f i NpPvdSceneQueryCollector.obj
 0001:00010740       ?growAndPushBack@?$PxArray@UPvdRaycast@Vd@physx@@V?$PxReflectionAllocator@UPvdRaycast@Vd@physx@@@3@@physx@@IEAAAEAUPvdRaycast@Vd@2@AEBU342@@Z 0000000180011740 f i NpPvdSceneQueryCollector.obj
 0001:00010b40       ?growAndPushBack@?$PxArray@UPvdSqHit@Vd@physx@@V?$PxReflectionAllocator@UPvdSqHit@Vd@physx@@@3@@physx@@IEAAAEAUPvdSqHit@Vd@2@AEBU342@@Z 0000000180011b40 f i NpPvdSceneQueryCollector.obj
 0001:00010ef0       ?growAndPushBack@?$PxArray@UPvdSweep@Vd@physx@@V?$PxReflectionAllocator@UPvdSweep@Vd@physx@@@3@@physx@@IEAAAEAUPvdSweep@Vd@2@AEBU342@@Z 0000000180011ef0 f i NpPvdSceneQueryCollector.obj
 0001:00011280       ?growAndPushBack@?$PxArray@UPxFilterData@physx@@V?$PxReflectionAllocator@UPxFilterData@physx@@@2@@physx@@IEAAAEAUPxFilterData@2@AEBU32@@Z 0000000180012280 f i NpPvdSceneQueryCollector.obj
 0001:000113f0       ?growAndPushBack@?$PxArray@V?$PxTransformT@M@physx@@V?$PxReflectionAllocator@V?$PxTransformT@M@physx@@@2@@physx@@IEAAAEAV?$PxTransformT@M@2@AEBV32@@Z 00000001800123f0 f i NpPvdSceneQueryCollector.obj
 0001:00011690       ?growAndPushBack@?$PxArray@VPxGeometryHolder@physx@@V?$PxReflectionAllocator@VPxGeometryHolder@physx@@@2@@physx@@IEAAAEAVPxGeometryHolder@2@AEBV32@@Z 0000000180012690 f i NpPvdSceneQueryCollector.obj
 0001:00011810       ?overlapMultiple@PvdSceneQueryCollector@Vd@physx@@QEAAXAEBVPxGeometry@3@AEBV?$PxTransformT@M@3@PEBUPxOverlapHit@3@IAEBUPxQueryFilterData@3@@Z 0000000180012810 f   NpPvdSceneQueryCollector.obj
 0001:00011b80       ?raycast@PvdSceneQueryCollector@Vd@physx@@QEAAXAEBV?$PxVec3T@M@3@0MPEBUPxRaycastHit@3@IAEBUPxQueryFilterData@3@_N@Z 0000000180012b80 f   NpPvdSceneQueryCollector.obj
 0001:00011cb0       ?release@PvdSceneQueryCollector@Vd@physx@@QEAAXXZ 0000000180012cb0 f   NpPvdSceneQueryCollector.obj
 0001:00011d60       ?sweep@PvdSceneQueryCollector@Vd@physx@@QEAAXAEBVPxGeometry@3@AEBV?$PxTransformT@M@3@AEBV?$PxVec3T@M@3@MPEBUPxSweepHit@3@IAEBUPxQueryFilterData@3@_N@Z 0000000180012d60 f   NpPvdSceneQueryCollector.obj
 0001:00012360       ??$addPropertyMessage@VPxArticulationJointReducedCoordinate@physx@@UPxArticulationJointUpdateBlock@Vd@2@@PvdPropertyDefinitionHelper@pvdsdk@physx@@QEAAXXZ 0000000180013360 f i PvdMetaDataPvdBinding.obj
 0001:000123b0       ??$addPropertyMessage@VPxArticulationLink@physx@@UPxArticulationLinkUpdateBlock@Vd@2@@PvdPropertyDefinitionHelper@pvdsdk@physx@@QEAAXXZ 00000001800133b0 f i PvdMetaDataPvdBinding.obj
 0001:00012400       ??$addPropertyMessage@VPxRigidDynamic@physx@@UPxRigidDynamicUpdateBlock@Vd@2@@PvdPropertyDefinitionHelper@pvdsdk@physx@@QEAAXXZ 0000000180013400 f i PvdMetaDataPvdBinding.obj
 0001:00012450       ??$addPropertyMessageArg@E@PvdPropertyDefinitionHelper@pvdsdk@physx@@QEAAXI@Z 0000000180013450 f i PvdMetaDataPvdBinding.obj
 0001:00012490       ??$addPropertyMessageArg@I@PvdPropertyDefinitionHelper@pvdsdk@physx@@QEAAXI@Z 0000000180013490 f i PvdMetaDataPvdBinding.obj
 0001:000124d0       ??$addPropertyMessageArg@M@PvdPropertyDefinitionHelper@pvdsdk@physx@@QEAAXI@Z 00000001800134d0 f i PvdMetaDataPvdBinding.obj
 0001:00012510       ??$addPropertyMessageArg@V?$PxTransformT@M@physx@@@PvdPropertyDefinitionHelper@pvdsdk@physx@@QEAAXI@Z 0000000180013510 f i PvdMetaDataPvdBinding.obj
 0001:00012550       ??$addPropertyMessageArg@V?$PxVec3T@M@physx@@@PvdPropertyDefinitionHelper@pvdsdk@physx@@QEAAXI@Z 0000000180013550 f i PvdMetaDataPvdBinding.obj
 0001:00012590       ??$addPropertyMessageArg@_N@PvdPropertyDefinitionHelper@pvdsdk@physx@@QEAAXI@Z 0000000180013590 f i PvdMetaDataPvdBinding.obj
 0001:000125d0       ??$createClass@UPvdOverlap@Vd@physx@@@PvdMetaDataStream@pvdsdk@physx@@QEAA?AW4Enum@PvdErrorType@12@XZ 00000001800135d0 f i PvdMetaDataPvdBinding.obj
 0001:00012e50       ??$createProperty@UPvdContact@Vd@physx@@I@PvdMetaDataStream@pvdsdk@physx@@QEAA?AW4Enum@PvdErrorType@12@PEBD0W43PropertyType@12@V?$DataRef@UNamedValue@pvdsdk@physx@@@12@@Z 0000000180013e50 f i PvdMetaDataPvdBinding.obj
 0001:00012ec0       ??$createProperty@UPvdContact@Vd@physx@@M@PvdMetaDataStream@pvdsdk@physx@@QEAA?AW4Enum@PvdErrorType@12@PEBD0W43PropertyType@12@V?$DataRef@UNamedValue@pvdsdk@physx@@@12@@Z 0000000180013ec0 f i PvdMetaDataPvdBinding.obj
 0001:00012f30       ??$createProperty@UPvdContact@Vd@physx@@UObjectRef@pvdsdk@3@@PvdMetaDataStream@pvdsdk@physx@@QEAA?AW4Enum@PvdErrorType@12@PEBD0W43PropertyType@12@V?$DataRef@UNamedValue@pvdsdk@physx@@@12@@Z 0000000180013f30 f i PvdMetaDataPvdBinding.obj
 0001:00012fa0       ??$createProperty@UPvdContact@Vd@physx@@V?$PxVec3T@M@3@@PvdMetaDataStream@pvdsdk@physx@@QEAA?AW4Enum@PvdErrorType@12@PEBD0W43PropertyType@12@V?$DataRef@UNamedValue@pvdsdk@physx@@@12@@Z 0000000180013fa0 f i PvdMetaDataPvdBinding.obj
 0001:00013010       ??$createProperty@UPvdHullPolygonData@Vd@physx@@G@PvdMetaDataStream@pvdsdk@physx@@QEAA?AW4Enum@PvdErrorType@12@PEBD0W43PropertyType@12@V?$DataRef@UNamedValue@pvdsdk@physx@@@12@@Z 0000000180014010 f i PvdMetaDataPvdBinding.obj
 0001:00013080       ??$createProperty@UPvdOverlap@Vd@physx@@I@PvdMetaDataStream@pvdsdk@physx@@QEAA?AW4Enum@PvdErrorType@12@PEBD0W43PropertyType@12@V?$DataRef@UNamedValue@pvdsdk@physx@@@12@@Z 0000000180014080 f i PvdMetaDataPvdBinding.obj
 0001:000130f0       ??$createProperty@UPvdOverlap@Vd@physx@@PEBD@PvdMetaDataStream@pvdsdk@physx@@QEAA?AW4Enum@PvdErrorType@12@PEBD0W43PropertyType@12@V?$DataRef@UNamedValue@pvdsdk@physx@@@12@@Z 00000001800140f0 f i PvdMetaDataPvdBinding.obj
 0001:00013160       ??$createProperty@UPvdOverlap@Vd@physx@@UPxFilterData@3@@PvdMetaDataStream@pvdsdk@physx@@QEAA?AW4Enum@PvdErrorType@12@PEBD0W43PropertyType@12@V?$DataRef@UNamedValue@pvdsdk@physx@@@12@@Z 0000000180014160 f i PvdMetaDataPvdBinding.obj
 0001:000131d0       ??$createProperty@UPvdOverlap@Vd@physx@@V?$PxTransformT@M@3@@PvdMetaDataStream@pvdsdk@physx@@QEAA?AW4Enum@PvdErrorType@12@PEBD0W43PropertyType@12@V?$DataRef@UNamedValue@pvdsdk@physx@@@12@@Z 00000001800141d0 f i PvdMetaDataPvdBinding.obj
 0001:00013240       ??$createProperty@UPvdRaycast@Vd@physx@@I@PvdMetaDataStream@pvdsdk@physx@@QEAA?AW4Enum@PvdErrorType@12@PEBD0W43PropertyType@12@V?$DataRef@UNamedValue@pvdsdk@physx@@@12@@Z 0000000180014240 f i PvdMetaDataPvdBinding.obj
 0001:000132b0       ??$createProperty@UPvdRaycast@Vd@physx@@M@PvdMetaDataStream@pvdsdk@physx@@QEAA?AW4Enum@PvdErrorType@12@PEBD0W43PropertyType@12@V?$DataRef@UNamedValue@pvdsdk@physx@@@12@@Z 00000001800142b0 f i PvdMetaDataPvdBinding.obj
 0001:00013320       ??$createProperty@UPvdRaycast@Vd@physx@@PEBD@PvdMetaDataStream@pvdsdk@physx@@QEAA?AW4Enum@PvdErrorType@12@PEBD0W43PropertyType@12@V?$DataRef@UNamedValue@pvdsdk@physx@@@12@@Z 0000000180014320 f i PvdMetaDataPvdBinding.obj
 0001:00013390       ??$createProperty@UPvdRaycast@Vd@physx@@UPxFilterData@3@@PvdMetaDataStream@pvdsdk@physx@@QEAA?AW4Enum@PvdErrorType@12@PEBD0W43PropertyType@12@V?$DataRef@UNamedValue@pvdsdk@physx@@@12@@Z 0000000180014390 f i PvdMetaDataPvdBinding.obj
 0001:00013400       ??$createProperty@UPvdRaycast@Vd@physx@@V?$PxVec3T@M@3@@PvdMetaDataStream@pvdsdk@physx@@QEAA?AW4Enum@PvdErrorType@12@PEBD0W43PropertyType@12@V?$DataRef@UNamedValue@pvdsdk@physx@@@12@@Z 0000000180014400 f i PvdMetaDataPvdBinding.obj
 0001:00013470       ??$createProperty@UPvdSqHit@Vd@physx@@I@PvdMetaDataStream@pvdsdk@physx@@QEAA?AW4Enum@PvdErrorType@12@PEBD0W43PropertyType@12@V?$DataRef@UNamedValue@pvdsdk@physx@@@12@@Z 0000000180014470 f i PvdMetaDataPvdBinding.obj
 0001:000134e0       ??$createProperty@UPvdSqHit@Vd@physx@@M@PvdMetaDataStream@pvdsdk@physx@@QEAA?AW4Enum@PvdErrorType@12@PEBD0W43PropertyType@12@V?$DataRef@UNamedValue@pvdsdk@physx@@@12@@Z 00000001800144e0 f i PvdMetaDataPvdBinding.obj
 0001:00013550       ??$createProperty@UPvdSqHit@Vd@physx@@UObjectRef@pvdsdk@3@@PvdMetaDataStream@pvdsdk@physx@@QEAA?AW4Enum@PvdErrorType@12@PEBD0W43PropertyType@12@V?$DataRef@UNamedValue@pvdsdk@physx@@@12@@Z 0000000180014550 f i PvdMetaDataPvdBinding.obj
 0001:000135c0       ??$createProperty@UPvdSqHit@Vd@physx@@V?$PxVec3T@M@3@@PvdMetaDataStream@pvdsdk@physx@@QEAA?AW4Enum@PvdErrorType@12@PEBD0W43PropertyType@12@V?$DataRef@UNamedValue@pvdsdk@physx@@@12@@Z 00000001800145c0 f i PvdMetaDataPvdBinding.obj
 0001:00013630       ??$createProperty@UPvdSweep@Vd@physx@@I@PvdMetaDataStream@pvdsdk@physx@@QEAA?AW4Enum@PvdErrorType@12@PEBD0W43PropertyType@12@V?$DataRef@UNamedValue@pvdsdk@physx@@@12@@Z 0000000180014630 f i PvdMetaDataPvdBinding.obj
 0001:000136a0       ??$createProperty@UPvdSweep@Vd@physx@@M@PvdMetaDataStream@pvdsdk@physx@@QEAA?AW4Enum@PvdErrorType@12@PEBD0W43PropertyType@12@V?$DataRef@UNamedValue@pvdsdk@physx@@@12@@Z 00000001800146a0 f i PvdMetaDataPvdBinding.obj
 0001:00013710       ??$createProperty@UPvdSweep@Vd@physx@@PEBD@PvdMetaDataStream@pvdsdk@physx@@QEAA?AW4Enum@PvdErrorType@12@PEBD0W43PropertyType@12@V?$DataRef@UNamedValue@pvdsdk@physx@@@12@@Z 0000000180014710 f i PvdMetaDataPvdBinding.obj
 0001:00013780       ??$createProperty@UPvdSweep@Vd@physx@@V?$PxVec3T@M@3@@PvdMetaDataStream@pvdsdk@physx@@QEAA?AW4Enum@PvdErrorType@12@PEBD0W43PropertyType@12@V?$DataRef@UNamedValue@pvdsdk@physx@@@12@@Z 0000000180014780 f i PvdMetaDataPvdBinding.obj
 0001:000137f0       ??$createProperty@UPxHeightFieldSample@physx@@E@PvdMetaDataStream@pvdsdk@physx@@QEAA?AW4Enum@PvdErrorType@12@PEBD0W43PropertyType@12@V?$DataRef@UNamedValue@pvdsdk@physx@@@12@@Z 00000001800147f0 f i PvdMetaDataPvdBinding.obj
 0001:00013860       ??$createProperty@VPxActor@physx@@UObjectRef@pvdsdk@2@@PvdMetaDataStream@pvdsdk@physx@@QEAA?AW4Enum@PvdErrorType@12@PEBD0W43PropertyType@12@V?$DataRef@UNamedValue@pvdsdk@physx@@@12@@Z 0000000180014860 f i PvdMetaDataPvdBinding.obj
 0001:000138d0       ??$createProperty@VPxAggregate@physx@@UObjectRef@pvdsdk@2@@PvdMetaDataStream@pvdsdk@physx@@QEAA?AW4Enum@PvdErrorType@12@PEBD0W43PropertyType@12@V?$DataRef@UNamedValue@pvdsdk@physx@@@12@@Z 00000001800148d0 f i PvdMetaDataPvdBinding.obj
 0001:00013940       ??$createProperty@VPxArticulationJointReducedCoordinate@physx@@UObjectRef@pvdsdk@2@@PvdMetaDataStream@pvdsdk@physx@@QEAA?AW4Enum@PvdErrorType@12@PEBD0W43PropertyType@12@V?$DataRef@UNamedValue@pvdsdk@physx@@@12@@Z 0000000180014940 f i PvdMetaDataPvdBinding.obj
 0001:000139b0       ??$createProperty@VPxArticulationLink@physx@@UObjectRef@pvdsdk@2@@PvdMetaDataStream@pvdsdk@physx@@QEAA?AW4Enum@PvdErrorType@12@PEBD0W43PropertyType@12@V?$DataRef@UNamedValue@pvdsdk@physx@@@12@@Z 00000001800149b0 f i PvdMetaDataPvdBinding.obj
 0001:00013a20       ??$createProperty@VPxArticulationReducedCoordinate@physx@@UObjectRef@pvdsdk@2@@PvdMetaDataStream@pvdsdk@physx@@QEAA?AW4Enum@PvdErrorType@12@PEBD0W43PropertyType@12@V?$DataRef@UNamedValue@pvdsdk@physx@@@12@@Z 0000000180014a20 f i PvdMetaDataPvdBinding.obj
 0001:00013a90       ??$createProperty@VPxConvexMesh@physx@@V?$PxVec3T@M@2@@PvdMetaDataStream@pvdsdk@physx@@QEAA?AW4Enum@PvdErrorType@12@PEBD0W43PropertyType@12@V?$DataRef@UNamedValue@pvdsdk@physx@@@12@@Z 0000000180014a90 f i PvdMetaDataPvdBinding.obj
 0001:00013b00       ??$createProperty@VPxRigidActor@physx@@UObjectRef@pvdsdk@2@@PvdMetaDataStream@pvdsdk@physx@@QEAA?AW4Enum@PvdErrorType@12@PEBD0W43PropertyType@12@V?$DataRef@UNamedValue@pvdsdk@physx@@@12@@Z 0000000180014b00 f i PvdMetaDataPvdBinding.obj
 0001:00013b70       ??$createProperty@VPxRigidDynamic@physx@@V?$PxTransformT@M@2@@PvdMetaDataStream@pvdsdk@physx@@QEAA?AW4Enum@PvdErrorType@12@PEBD0W43PropertyType@12@V?$DataRef@UNamedValue@pvdsdk@physx@@@12@@Z 0000000180014b70 f i PvdMetaDataPvdBinding.obj
 0001:00013be0       ??$createProperty@VPxScene@physx@@UObjectRef@pvdsdk@2@@PvdMetaDataStream@pvdsdk@physx@@QEAA?AW4Enum@PvdErrorType@12@PEBD0W43PropertyType@12@V?$DataRef@UNamedValue@pvdsdk@physx@@@12@@Z 0000000180014be0 f i PvdMetaDataPvdBinding.obj
 0001:00013c50       ??$createProperty@VPxScene@physx@@UPvdOverlap@Vd@2@@PvdMetaDataStream@pvdsdk@physx@@QEAA?AW4Enum@PvdErrorType@12@PEBD0W43PropertyType@12@V?$DataRef@UNamedValue@pvdsdk@physx@@@12@@Z 0000000180014c50 f i PvdMetaDataPvdBinding.obj
 0001:00013cc0       ??$createProperty@VPxScene@physx@@UPvdRaycast@Vd@2@@PvdMetaDataStream@pvdsdk@physx@@QEAA?AW4Enum@PvdErrorType@12@PEBD0W43PropertyType@12@V?$DataRef@UNamedValue@pvdsdk@physx@@@12@@Z 0000000180014cc0 f i PvdMetaDataPvdBinding.obj
 0001:00013d30       ??$createProperty@VPxScene@physx@@UPvdSqHit@Vd@2@@PvdMetaDataStream@pvdsdk@physx@@QEAA?AW4Enum@PvdErrorType@12@PEBD0W43PropertyType@12@V?$DataRef@UNamedValue@pvdsdk@physx@@@12@@Z 0000000180014d30 f i PvdMetaDataPvdBinding.obj
 0001:00013da0       ??$createProperty@VPxScene@physx@@UPvdSweep@Vd@2@@PvdMetaDataStream@pvdsdk@physx@@QEAA?AW4Enum@PvdErrorType@12@PEBD0W43PropertyType@12@V?$DataRef@UNamedValue@pvdsdk@physx@@@12@@Z 0000000180014da0 f i PvdMetaDataPvdBinding.obj
 0001:00013e10       ??$createProperty@VPxScene@physx@@UPxFilterData@2@@PvdMetaDataStream@pvdsdk@physx@@QEAA?AW4Enum@PvdErrorType@12@PEBD0W43PropertyType@12@V?$DataRef@UNamedValue@pvdsdk@physx@@@12@@Z 0000000180014e10 f i PvdMetaDataPvdBinding.obj
 0001:00013e80       ??$createProperty@VPxScene@physx@@V?$PxTransformT@M@2@@PvdMetaDataStream@pvdsdk@physx@@QEAA?AW4Enum@PvdErrorType@12@PEBD0W43PropertyType@12@V?$DataRef@UNamedValue@pvdsdk@physx@@@12@@Z 0000000180014e80 f i PvdMetaDataPvdBinding.obj
 0001:00013ef0       ??$createProperty@VPxShape@physx@@UObjectRef@pvdsdk@2@@PvdMetaDataStream@pvdsdk@physx@@QEAA?AW4Enum@PvdErrorType@12@PEBD0W43PropertyType@12@V?$DataRef@UNamedValue@pvdsdk@physx@@@12@@Z 0000000180014ef0 f i PvdMetaDataPvdBinding.obj
 0001:00013f60       ??$createProperty@VPxTetrahedronMesh@physx@@I@PvdMetaDataStream@pvdsdk@physx@@QEAA?AW4Enum@PvdErrorType@12@PEBD0W43PropertyType@12@V?$DataRef@UNamedValue@pvdsdk@physx@@@12@@Z 0000000180014f60 f i PvdMetaDataPvdBinding.obj
 0001:00013fd0       ??$createProperty@VPxTriangleMesh@physx@@I@PvdMetaDataStream@pvdsdk@physx@@QEAA?AW4Enum@PvdErrorType@12@PEBD0W43PropertyType@12@V?$DataRef@UNamedValue@pvdsdk@physx@@@12@@Z 0000000180014fd0 f i PvdMetaDataPvdBinding.obj
 0001:00015500       ??$visitAllProperties@VPxConvexMeshGeometry@physx@@U?$PvdPropertyFilter@UPvdClassInfoValueStructDefine@Vd@physx@@@Vd@2@@physx@@YAIU?$PvdPropertyFilter@UPvdClassInfoValueStructDefine@Vd@physx@@@Vd@0@@Z 0000000180016500 f i PvdMetaDataPvdBinding.obj
 0001:000156b0       ??$visitAllProperties@VPxFEMSoftBodyMaterial@physx@@U?$PvdPropertyFilter@UPvdClassInfoDefine@Vd@physx@@@Vd@2@@physx@@YAIU?$PvdPropertyFilter@UPvdClassInfoDefine@Vd@physx@@@Vd@0@@Z 00000001800166b0 f i PvdMetaDataPvdBinding.obj
 0001:000159c0       ??$visitAllProperties@VPxFEMSoftBodyMaterial@physx@@U?$PvdPropertyFilter@UPvdClassInfoValueStructDefine@Vd@physx@@@Vd@2@@physx@@YAIU?$PvdPropertyFilter@UPvdClassInfoValueStructDefine@Vd@physx@@@Vd@0@@Z 00000001800169c0 f i PvdMetaDataPvdBinding.obj
 0001:00015c90       ??$visitAllProperties@VPxTolerancesScale@physx@@U?$PvdPropertyFilter@UPvdClassInfoValueStructDefine@Vd@physx@@@Vd@2@@physx@@YAIU?$PvdPropertyFilter@UPvdClassInfoValueStructDefine@Vd@physx@@@Vd@0@@Z 0000000180016c90 f i PvdMetaDataPvdBinding.obj
 0001:00015e30       ??$visitAllProperties@VPxTriangleMeshGeometry@physx@@U?$PvdPropertyFilter@UPvdClassInfoValueStructDefine@Vd@physx@@@Vd@2@@physx@@YAIU?$PvdPropertyFilter@UPvdClassInfoValueStructDefine@Vd@physx@@@Vd@0@@Z 0000000180016e30 f i PvdMetaDataPvdBinding.obj
 0001:00015fe0       ??$visitBaseProperties@U?$PvdPropertyFilter@UPvdClassInfoDefine@Vd@physx@@@Vd@physx@@@PxBaseMaterialGeneratedInfo@physx@@QEBAIU?$PvdPropertyFilter@UPvdClassInfoDefine@Vd@physx@@@Vd@1@I@Z 0000000180016fe0 f i PvdMetaDataPvdBinding.obj
 0001:00016020       ??$visitInstanceProperties@U?$PvdPropertyFilter@UPvdClassInfoDefine@Vd@physx@@@Vd@physx@@@PxActorGeneratedInfo@physx@@QEBAIU?$PvdPropertyFilter@UPvdClassInfoDefine@Vd@physx@@@Vd@1@I@Z 0000000180017020 f i PvdMetaDataPvdBinding.obj
 0001:00016220       ??$visitInstanceProperties@U?$PvdPropertyFilter@UPvdClassInfoDefine@Vd@physx@@@Vd@physx@@@PxAggregateGeneratedInfo@physx@@QEBAIU?$PvdPropertyFilter@UPvdClassInfoDefine@Vd@physx@@@Vd@1@I@Z 0000000180017220 f i PvdMetaDataPvdBinding.obj
 0001:000163f0       ??$visitInstanceProperties@U?$PvdPropertyFilter@UPvdClassInfoDefine@Vd@physx@@@Vd@physx@@@PxArticulationDriveGeneratedInfo@physx@@QEBAIU?$PvdPropertyFilter@UPvdClassInfoDefine@Vd@physx@@@Vd@1@I@Z 00000001800173f0 f i PvdMetaDataPvdBinding.obj
 0001:000165f0       ??$visitInstanceProperties@U?$PvdPropertyFilter@UPvdClassInfoDefine@Vd@physx@@@Vd@physx@@@PxArticulationJointReducedCoordinateGeneratedInfo@physx@@QEBAIU?$PvdPropertyFilter@UPvdClassInfoDefine@Vd@physx@@@Vd@1@I@Z 00000001800175f0 f i PvdMetaDataPvdBinding.obj
 0001:00016e70       ??$visitInstanceProperties@U?$PvdPropertyFilter@UPvdClassInfoDefine@Vd@physx@@@Vd@physx@@@PxArticulationLinkGeneratedInfo@physx@@QEBAIU?$PvdPropertyFilter@UPvdClassInfoDefine@Vd@physx@@@Vd@1@I@Z 0000000180017e70 f i PvdMetaDataPvdBinding.obj
 0001:00017100       ??$visitInstanceProperties@U?$PvdPropertyFilter@UPvdClassInfoDefine@Vd@physx@@@Vd@physx@@@PxArticulationReducedCoordinateGeneratedInfo@physx@@QEBAIU?$PvdPropertyFilter@UPvdClassInfoDefine@Vd@physx@@@Vd@1@I@Z 0000000180018100 f i PvdMetaDataPvdBinding.obj
 0001:00017670       ??$visitInstanceProperties@U?$PvdPropertyFilter@UPvdClassInfoDefine@Vd@physx@@@Vd@physx@@@PxConstraintGeneratedInfo@physx@@QEBAIU?$PvdPropertyFilter@UPvdClassInfoDefine@Vd@physx@@@Vd@1@I@Z 0000000180018670 f i PvdMetaDataPvdBinding.obj
 0001:00017a30       ??$visitInstanceProperties@U?$PvdPropertyFilter@UPvdClassInfoDefine@Vd@physx@@@Vd@physx@@@PxConvexMeshGeometryGeneratedInfo@physx@@QEBAIU?$PvdPropertyFilter@UPvdClassInfoDefine@Vd@physx@@@Vd@1@I@Z 0000000180018a30 f i PvdMetaDataPvdBinding.obj
 0001:00017c20       ??$visitInstanceProperties@U?$PvdPropertyFilter@UPvdClassInfoDefine@Vd@physx@@@Vd@physx@@@PxHeightFieldDescGeneratedInfo@physx@@QEBAIU?$PvdPropertyFilter@UPvdClassInfoDefine@Vd@physx@@@Vd@1@I@Z 0000000180018c20 f i PvdMetaDataPvdBinding.obj
 0001:00017ef0       ??$visitInstanceProperties@U?$PvdPropertyFilter@UPvdClassInfoDefine@Vd@physx@@@Vd@physx@@@PxHeightFieldGeometryGeneratedInfo@physx@@QEBAIU?$PvdPropertyFilter@UPvdClassInfoDefine@Vd@physx@@@Vd@1@I@Z 0000000180018ef0 f i PvdMetaDataPvdBinding.obj
 0001:00018150       ??$visitInstanceProperties@U?$PvdPropertyFilter@UPvdClassInfoDefine@Vd@physx@@@Vd@physx@@@PxMaterialGeneratedInfo@physx@@QEBAIU?$PvdPropertyFilter@UPvdClassInfoDefine@Vd@physx@@@Vd@1@I@Z 0000000180019150 f i PvdMetaDataPvdBinding.obj
 0001:00018520       ??$visitInstanceProperties@U?$PvdPropertyFilter@UPvdClassInfoDefine@Vd@physx@@@Vd@physx@@@PxMeshScaleGeneratedInfo@physx@@QEBAIU?$PvdPropertyFilter@UPvdClassInfoDefine@Vd@physx@@@Vd@1@I@Z 0000000180019520 f i PvdMetaDataPvdBinding.obj
 0001:00018630       ??$visitInstanceProperties@U?$PvdPropertyFilter@UPvdClassInfoDefine@Vd@physx@@@Vd@physx@@@PxRefCountedGeneratedInfo@physx@@QEBAIU?$PvdPropertyFilter@UPvdClassInfoDefine@Vd@physx@@@Vd@1@I@Z 0000000180019630 f i PvdMetaDataPvdBinding.obj
 0001:000186c0       ??$visitInstanceProperties@U?$PvdPropertyFilter@UPvdClassInfoDefine@Vd@physx@@@Vd@physx@@@PxRigidBodyGeneratedInfo@physx@@QEBAIU?$PvdPropertyFilter@UPvdClassInfoDefine@Vd@physx@@@Vd@1@I@Z 00000001800196c0 f i PvdMetaDataPvdBinding.obj
 0001:00018c60       ??$visitInstanceProperties@U?$PvdPropertyFilter@UPvdClassInfoDefine@Vd@physx@@@Vd@physx@@@PxRigidDynamicGeneratedInfo@physx@@QEBAIU?$PvdPropertyFilter@UPvdClassInfoDefine@Vd@physx@@@Vd@1@I@Z 0000000180019c60 f i PvdMetaDataPvdBinding.obj
 0001:00019120       ??$visitInstanceProperties@U?$PvdPropertyFilter@UPvdClassInfoDefine@Vd@physx@@@Vd@physx@@@PxSceneDescGeneratedInfo@physx@@QEBAIU?$PvdPropertyFilter@UPvdClassInfoDefine@Vd@physx@@@Vd@1@I@Z 000000018001a120 f i PvdMetaDataPvdBinding.obj
 0001:00019df0       ??$visitInstanceProperties@U?$PvdPropertyFilter@UPvdClassInfoDefine@Vd@physx@@@Vd@physx@@@PxSceneLimitsGeneratedInfo@physx@@QEBAIU?$PvdPropertyFilter@UPvdClassInfoDefine@Vd@physx@@@Vd@1@I@Z 000000018001adf0 f i PvdMetaDataPvdBinding.obj
 0001:0001a110       ??$visitInstanceProperties@U?$PvdPropertyFilter@UPvdClassInfoDefine@Vd@physx@@@Vd@physx@@@PxSceneQueryDescGeneratedInfo@physx@@QEBAIU?$PvdPropertyFilter@UPvdClassInfoDefine@Vd@physx@@@Vd@1@I@Z 000000018001b110 f i PvdMetaDataPvdBinding.obj
 0001:0001a630       ??$visitInstanceProperties@U?$PvdPropertyFilter@UPvdClassInfoDefine@Vd@physx@@@Vd@physx@@@PxShapeGeneratedInfo@physx@@QEBAIU?$PvdPropertyFilter@UPvdClassInfoDefine@Vd@physx@@@Vd@1@I@Z 000000018001b630 f i PvdMetaDataPvdBinding.obj
 0001:0001abb0       ??$visitInstanceProperties@U?$PvdPropertyFilter@UPvdClassInfoDefine@Vd@physx@@@Vd@physx@@@PxSimulationStatisticsGeneratedInfo@physx@@QEBAIU?$PvdPropertyFilter@UPvdClassInfoDefine@Vd@physx@@@Vd@1@I@Z 000000018001bbb0 f i PvdMetaDataPvdBinding.obj
 0001:0001bfc0       ??$visitInstanceProperties@U?$PvdPropertyFilter@UPvdClassInfoDefine@Vd@physx@@@Vd@physx@@@PxTriangleMeshGeometryGeneratedInfo@physx@@QEBAIU?$PvdPropertyFilter@UPvdClassInfoDefine@Vd@physx@@@Vd@1@I@Z 000000018001cfc0 f i PvdMetaDataPvdBinding.obj
 0001:0001c1c0       ??$visitInstanceProperties@U?$PvdPropertyFilter@UPvdClassInfoDefine@Vd@physx@@@Vd@physx@@@PxgDynamicsMemoryConfigGeneratedInfo@physx@@QEBAIU?$PvdPropertyFilter@UPvdClassInfoDefine@Vd@physx@@@Vd@1@I@Z 000000018001d1c0 f i PvdMetaDataPvdBinding.obj
 0001:0001c6b0       ??$visitInstanceProperties@U?$PvdPropertyFilter@UPvdClassInfoValueStructDefine@Vd@physx@@@Vd@physx@@@PxActorGeneratedInfo@physx@@QEBAIU?$PvdPropertyFilter@UPvdClassInfoValueStructDefine@Vd@physx@@@Vd@1@I@Z 000000018001d6b0 f i PvdMetaDataPvdBinding.obj
 0001:0001c860       ??$visitInstanceProperties@U?$PvdPropertyFilter@UPvdClassInfoValueStructDefine@Vd@physx@@@Vd@physx@@@PxAggregateGeneratedInfo@physx@@QEBAIU?$PvdPropertyFilter@UPvdClassInfoValueStructDefine@Vd@physx@@@Vd@1@I@Z 000000018001d860 f i PvdMetaDataPvdBinding.obj
 0001:0001ca30       ??$visitInstanceProperties@U?$PvdPropertyFilter@UPvdClassInfoValueStructDefine@Vd@physx@@@Vd@physx@@@PxArticulationDriveGeneratedInfo@physx@@QEBAIU?$PvdPropertyFilter@UPvdClassInfoValueStructDefine@Vd@physx@@@Vd@1@I@Z 000000018001da30 f i PvdMetaDataPvdBinding.obj
 0001:0001cbf0       ??$visitInstanceProperties@U?$PvdPropertyFilter@UPvdClassInfoValueStructDefine@Vd@physx@@@Vd@physx@@@PxArticulationJointReducedCoordinateGeneratedInfo@physx@@QEBAIU?$PvdPropertyFilter@UPvdClassInfoValueStructDefine@Vd@physx@@@Vd@1@I@Z 000000018001dbf0 f i PvdMetaDataPvdBinding.obj
 0001:0001d3c0       ??$visitInstanceProperties@U?$PvdPropertyFilter@UPvdClassInfoValueStructDefine@Vd@physx@@@Vd@physx@@@PxArticulationLinkGeneratedInfo@physx@@QEBAIU?$PvdPropertyFilter@UPvdClassInfoValueStructDefine@Vd@physx@@@Vd@1@I@Z 000000018001e3c0 f i PvdMetaDataPvdBinding.obj
 0001:0001d660       ??$visitInstanceProperties@U?$PvdPropertyFilter@UPvdClassInfoValueStructDefine@Vd@physx@@@Vd@physx@@@PxArticulationReducedCoordinateGeneratedInfo@physx@@QEBAIU?$PvdPropertyFilter@UPvdClassInfoValueStructDefine@Vd@physx@@@Vd@1@I@Z 000000018001e660 f i PvdMetaDataPvdBinding.obj
 0001:0001db70       ??$visitInstanceProperties@U?$PvdPropertyFilter@UPvdClassInfoValueStructDefine@Vd@physx@@@Vd@physx@@@PxConstraintGeneratedInfo@physx@@QEBAIU?$PvdPropertyFilter@UPvdClassInfoValueStructDefine@Vd@physx@@@Vd@1@I@Z 000000018001eb70 f i PvdMetaDataPvdBinding.obj
 0001:0001dee0       ??$visitInstanceProperties@U?$PvdPropertyFilter@UPvdClassInfoValueStructDefine@Vd@physx@@@Vd@physx@@@PxHeightFieldDescGeneratedInfo@physx@@QEBAIU?$PvdPropertyFilter@UPvdClassInfoValueStructDefine@Vd@physx@@@Vd@1@I@Z 000000018001eee0 f i PvdMetaDataPvdBinding.obj
 0001:0001e130       ??$visitInstanceProperties@U?$PvdPropertyFilter@UPvdClassInfoValueStructDefine@Vd@physx@@@Vd@physx@@@PxHeightFieldGeometryGeneratedInfo@physx@@QEBAIU?$PvdPropertyFilter@UPvdClassInfoValueStructDefine@Vd@physx@@@Vd@1@I@Z 000000018001f130 f i PvdMetaDataPvdBinding.obj
 0001:0001e330       ??$visitInstanceProperties@U?$PvdPropertyFilter@UPvdClassInfoValueStructDefine@Vd@physx@@@Vd@physx@@@PxMaterialGeneratedInfo@physx@@QEBAIU?$PvdPropertyFilter@UPvdClassInfoValueStructDefine@Vd@physx@@@Vd@1@I@Z 000000018001f330 f i PvdMetaDataPvdBinding.obj
 0001:0001e670       ??$visitInstanceProperties@U?$PvdPropertyFilter@UPvdClassInfoValueStructDefine@Vd@physx@@@Vd@physx@@@PxMeshScaleGeneratedInfo@physx@@QEBAIU?$PvdPropertyFilter@UPvdClassInfoValueStructDefine@Vd@physx@@@Vd@1@I@Z 000000018001f670 f i PvdMetaDataPvdBinding.obj
 0001:0001e780       ??$visitInstanceProperties@U?$PvdPropertyFilter@UPvdClassInfoValueStructDefine@Vd@physx@@@Vd@physx@@@PxRefCountedGeneratedInfo@physx@@QEBAIU?$PvdPropertyFilter@UPvdClassInfoValueStructDefine@Vd@physx@@@Vd@1@I@Z 000000018001f780 f i PvdMetaDataPvdBinding.obj
 0001:0001e800       ??$visitInstanceProperties@U?$PvdPropertyFilter@UPvdClassInfoValueStructDefine@Vd@physx@@@Vd@physx@@@PxRigidBodyGeneratedInfo@physx@@QEBAIU?$PvdPropertyFilter@UPvdClassInfoValueStructDefine@Vd@physx@@@Vd@1@I@Z 000000018001f800 f i PvdMetaDataPvdBinding.obj
 0001:0001ed70       ??$visitInstanceProperties@U?$PvdPropertyFilter@UPvdClassInfoValueStructDefine@Vd@physx@@@Vd@physx@@@PxRigidDynamicGeneratedInfo@physx@@QEBAIU?$PvdPropertyFilter@UPvdClassInfoValueStructDefine@Vd@physx@@@Vd@1@I@Z 000000018001fd70 f i PvdMetaDataPvdBinding.obj
 0001:0001f1d0       ??$visitInstanceProperties@U?$PvdPropertyFilter@UPvdClassInfoValueStructDefine@Vd@physx@@@Vd@physx@@@PxSceneDescGeneratedInfo@physx@@QEBAIU?$PvdPropertyFilter@UPvdClassInfoValueStructDefine@Vd@physx@@@Vd@1@I@Z 00000001800201d0 f i PvdMetaDataPvdBinding.obj
 0001:0001fd00       ??$visitInstanceProperties@U?$PvdPropertyFilter@UPvdClassInfoValueStructDefine@Vd@physx@@@Vd@physx@@@PxSceneLimitsGeneratedInfo@physx@@QEBAIU?$PvdPropertyFilter@UPvdClassInfoValueStructDefine@Vd@physx@@@Vd@1@I@Z 0000000180020d00 f i PvdMetaDataPvdBinding.obj
 0001:00020020       ??$visitInstanceProperties@U?$PvdPropertyFilter@UPvdClassInfoValueStructDefine@Vd@physx@@@Vd@physx@@@PxSceneQueryDescGeneratedInfo@physx@@QEBAIU?$PvdPropertyFilter@UPvdClassInfoValueStructDefine@Vd@physx@@@Vd@1@I@Z 0000000180021020 f i PvdMetaDataPvdBinding.obj
 0001:00020400       ??$visitInstanceProperties@U?$PvdPropertyFilter@UPvdClassInfoValueStructDefine@Vd@physx@@@Vd@physx@@@PxShapeGeneratedInfo@physx@@QEBAIU?$PvdPropertyFilter@UPvdClassInfoValueStructDefine@Vd@physx@@@Vd@1@I@Z 0000000180021400 f i PvdMetaDataPvdBinding.obj
 0001:00020900       ??$visitInstanceProperties@U?$PvdPropertyFilter@UPvdClassInfoValueStructDefine@Vd@physx@@@Vd@physx@@@PxSimulationStatisticsGeneratedInfo@physx@@QEBAIU?$PvdPropertyFilter@UPvdClassInfoValueStructDefine@Vd@physx@@@Vd@1@I@Z 0000000180021900 f i PvdMetaDataPvdBinding.obj
 0001:00021cc0       ??$visitInstanceProperties@U?$PvdPropertyFilter@UPvdClassInfoValueStructDefine@Vd@physx@@@Vd@physx@@@PxgDynamicsMemoryConfigGeneratedInfo@physx@@QEBAIU?$PvdPropertyFilter@UPvdClassInfoValueStructDefine@Vd@physx@@@Vd@1@I@Z 0000000180022cc0 f i PvdMetaDataPvdBinding.obj
 0001:000221b0       ??0?$ScopedPropertyValueSender@UPvdOverlap@Vd@physx@@$0CA@U123@U?$NullConverter@UPvdOverlap@Vd@physx@@@23@@Vd@physx@@QEAA@AEAVPvdDataStream@pvdsdk@2@PEBXPEBD@Z 00000001800231b0 f i PvdMetaDataPvdBinding.obj
 0001:000223d0       ??0?$ScopedPropertyValueSender@UPvdRaycast@Vd@physx@@$0CA@U123@U?$NullConverter@UPvdRaycast@Vd@physx@@@23@@Vd@physx@@QEAA@AEAVPvdDataStream@pvdsdk@2@PEBXPEBD@Z 00000001800233d0 f i PvdMetaDataPvdBinding.obj
 0001:000225f0       ??0?$ScopedPropertyValueSender@UPvdSqHit@Vd@physx@@$0CA@U123@U?$NullConverter@UPvdSqHit@Vd@physx@@@23@@Vd@physx@@QEAA@AEAVPvdDataStream@pvdsdk@2@PEBXPEBD@Z 00000001800235f0 f i PvdMetaDataPvdBinding.obj
 0001:00022a00       ??0?$ScopedPropertyValueSender@UPxFilterData@physx@@$0CA@U12@U?$NullConverter@UPxFilterData@physx@@@Vd@2@@Vd@physx@@QEAA@AEAVPvdDataStream@pvdsdk@2@PEBXPEBD@Z 0000000180023a00 f i PvdMetaDataPvdBinding.obj
 0001:00022c00       ??0PvdMetaDataBinding@Vd@physx@@QEAA@XZ 0000000180023c00 f   PvdMetaDataPvdBinding.obj
 0001:00022d30       ??0PxSimulationStatistics@physx@@QEAA@XZ 0000000180023d30 f i PvdMetaDataPvdBinding.obj
 0001:00022ec0       ??1PvdMetaDataBinding@Vd@physx@@QEAA@XZ 0000000180023ec0 f   PvdMetaDataPvdBinding.obj
 0001:00023000       ??_GChangeOjectRefCmd@Vd@physx@@UEAAPEAXI@Z 0000000180024000 f i PvdMetaDataPvdBinding.obj
 0001:00023000       ??_EChangeOjectRefCmd@Vd@physx@@UEAAPEAXI@Z 0000000180024000 f i PvdMetaDataPvdBinding.obj
 0001:00023030       ??_EPvdCommand@PvdInstanceDataStream@pvdsdk@physx@@UEAAPEAXI@Z 0000000180024030 f i PvdMetaDataPvdBinding.obj
 0001:00023030       ??_GPvdCommand@PvdInstanceDataStream@pvdsdk@physx@@UEAAPEAXI@Z 0000000180024030 f i PvdMetaDataPvdBinding.obj
 0001:00023060       ??_GPvdMetaDataBindingData@Vd@physx@@QEAAPEAXI@Z 0000000180024060 f i PvdMetaDataPvdBinding.obj
 0001:000231a0       ?allocate@?$PxArray@PEAVPxShape@physx@@V?$PxInlineAllocator@$0CI@V?$PxReflectionAllocator@PEAVPxShape@physx@@@physx@@@2@@physx@@IEAAPEAPEAVPxShape@2@I@Z 00000001800241a0 f i PvdMetaDataPvdBinding.obj
 0001:00023260       ?append@?$ScopedPropertyValueSender@UPvdSqHit@Vd@physx@@$0CA@U123@U?$NullConverter@UPvdSqHit@Vd@physx@@@23@@Vd@physx@@QEAAXAEBUPvdSqHit@23@@Z 0000000180024260 f i PvdMetaDataPvdBinding.obj
 0001:00023320       ?attachAggregateActor@PvdMetaDataBinding@Vd@physx@@QEAAXAEAVPvdDataStream@pvdsdk@3@AEBVPxAggregate@3@AEBVPxActor@3@@Z 0000000180024320 f   PvdMetaDataPvdBinding.obj
 0001:00023340       ?canRun@ChangeOjectRefCmd@Vd@physx@@UEAA_NAEAVPvdInstanceDataStream@pvdsdk@3@@Z 0000000180024340 f i PvdMetaDataPvdBinding.obj
 0001:00023360       ?isSubordinate@?$PxSerializerDefaultAdapter@VNpArticulationReducedCoordinate@physx@@@physx@@UEBA_NXZ 0000000180024360 f i NpSerializerAdapter.obj
 0001:00023360       ?isSubordinate@?$PxSerializerDefaultAdapter@VRTreeTriangleMesh@Gu@physx@@@physx@@UEBA_NXZ 0000000180024360 f i NpSerializerAdapter.obj
 0001:00023360       ?hasFEMCloth@SimulationController@Sc@physx@@UEBA_NXZ 0000000180024360 f i SimulationController_static_64:ScScene.obj
 0001:00023360       ?isSubordinate@?$PxSerializerDefaultAdapter@VNpArticulationFixedTendon@physx@@@physx@@UEBA_NXZ 0000000180024360 f i NpSerializerAdapter.obj
 0001:00023360       ?isSubordinate@?$PxSerializerDefaultAdapter@VNpAggregate@physx@@@physx@@UEBA_NXZ 0000000180024360 f i NpSerializerAdapter.obj
 0001:00023360       ?isSubordinate@?$PxSerializerDefaultAdapter@VNpShape@physx@@@physx@@UEBA_NXZ 0000000180024360 f i NpSerializerAdapter.obj
 0001:00023360       ?isSubordinate@?$PxSerializerDefaultAdapter@VConvexMesh@Gu@physx@@@physx@@UEBA_NXZ 0000000180024360 f i NpSerializerAdapter.obj
 0001:00023360       ?update@PersistentPairs@Bp@physx@@UEAA_NAEAVAABBManager@23@PEAUBpCacheData@23@@Z 0000000180024360 f i LowLevelAABB_static_64:BpAABBManager.obj
 0001:00023360       ?canRun@PvdCommand@PvdInstanceDataStream@pvdsdk@physx@@UEAA_NAEAV234@@Z 0000000180024360 f i PvdMetaDataPvdBinding.obj
 0001:00023360       ?isSubordinate@?$PxSerializerDefaultAdapter@VNpArticulationAttachment@physx@@@physx@@UEBA_NXZ 0000000180024360 f i NpSerializerAdapter.obj
 0001:00023360       ?isSubordinate@?$PxSerializerDefaultAdapter@VBV4TriangleMesh@Gu@physx@@@physx@@UEBA_NXZ 0000000180024360 f i NpSerializerAdapter.obj
 0001:00023360       ?isSubordinate@?$PxSerializerDefaultAdapter@VNpRigidDynamic@physx@@@physx@@UEBA_NXZ 0000000180024360 f i NpSerializerAdapter.obj
 0001:00023360       ?isSubordinate@?$PxSerializerDefaultAdapter@VNpArticulationTendonJoint@physx@@@physx@@UEBA_NXZ 0000000180024360 f i NpSerializerAdapter.obj
 0001:00023360       ?removeRegion@BroadPhaseBase@Bp@physx@@UEAA_NI@Z 0000000180024360 f i LowLevelAABB_static_64:BpBroadPhaseSap.obj
 0001:00023360       ?isSubordinate@?$PxSerializerDefaultAdapter@VHeightField@Gu@physx@@@physx@@UEBA_NXZ 0000000180024360 f i NpSerializerAdapter.obj
 0001:00023360       ?isSubordinate@?$PxSerializerDefaultAdapter@VPruningStructure@Sq@physx@@@physx@@UEBA_NXZ 0000000180024360 f i NpSerializerAdapter.obj
 0001:00023360       ?isSubordinate@?$PxSerializerDefaultAdapter@VNpRigidStatic@physx@@@physx@@UEBA_NXZ 0000000180024360 f i NpSerializerAdapter.obj
 0001:00023360       ?isSubordinate@?$PxSerializerDefaultAdapter@VNpArticulationSensor@physx@@@physx@@UEBA_NXZ 0000000180024360 f i NpSerializerAdapter.obj
 0001:00023360       ?isSubordinate@?$PxSerializerDefaultAdapter@VNpArticulationSpatialTendon@physx@@@physx@@UEBA_NXZ 0000000180024360 f i NpSerializerAdapter.obj
 0001:00023360       ?hasHairSystems@SimulationController@Sc@physx@@UEBA_NXZ 0000000180024360 f i SimulationController_static_64:ScScene.obj
 0001:00023360       ?hasSoftBodies@SimulationController@Sc@physx@@UEBA_NXZ 0000000180024360 f i SimulationController_static_64:ScScene.obj
 0001:00023360       ?isSubordinate@?$PxSerializerDefaultAdapter@VNpMaterial@physx@@@physx@@UEBA_NXZ 0000000180024360 f i NpSerializerAdapter.obj
 0001:00023360       ?processTouches@?$PxHitBuffer@UPxRaycastHit@physx@@@physx@@MEAA_NPEBUPxRaycastHit@2@I@Z 0000000180024360 f i SceneQuery_static_64:SqQuery.obj
 0001:00023360       ?processTouches@?$PxHitBuffer@UPxSweepHit@physx@@@physx@@MEAA_NPEBUPxSweepHit@2@I@Z 0000000180024360 f i SceneQuery_static_64:SqQuery.obj
 0001:00023470       ?create@?$PxHashBase@PEAVPxActor@physx@@PEAV12@U?$PxHash@PEAVPxActor@physx@@@2@UGetKey@?$PxHashSetBase@PEAVPxActor@physx@@U?$PxHash@PEAVPxActor@physx@@@2@VPxAllocator@2@$0A@@2@VPxAllocator@2@$0A@@physx@@QEAAPEAPEAVPxActor@2@AEBQEAV32@AEA_N@Z 0000000180024470 f i PvdMetaDataPvdBinding.obj
 0001:00023470       ?create@?$PxHashBase@PEAVPxConstraint@physx@@PEAV12@U?$PxHash@PEAVPxConstraint@physx@@@2@UGetKey@?$PxHashSetBase@PEAVPxConstraint@physx@@U?$PxHash@PEAVPxConstraint@physx@@@2@VPxAllocator@2@$0A@@2@VPxAllocator@2@$0A@@physx@@QEAAPEAPEAVPxConstraint@2@AEBQEAV32@AEA_N@Z 0000000180024470 f i NpFactory.obj
 0001:00023470       ?create@?$PxHashBase@PEAVPxParticleBuffer@physx@@PEAV12@U?$PxHash@PEAVPxParticleBuffer@physx@@@2@UGetKey@?$PxHashSetBase@PEAVPxParticleBuffer@physx@@U?$PxHash@PEAVPxParticleBuffer@physx@@@2@VPxAllocator@2@$0A@@2@VPxAllocator@2@$0A@@physx@@QEAAPEAPEAVPxParticleBuffer@2@AEBQEAV32@AEA_N@Z 0000000180024470 f i NpFactory.obj
 0001:00023470       ?create@?$PxHashBase@PEBVPxBase@physx@@PEBV12@U?$PxHash@PEBVPxBase@physx@@@2@UGetKey@?$PxHashSetBase@PEBVPxBase@physx@@U?$PxHash@PEBVPxBase@physx@@@2@VPxAllocator@2@$0A@@2@VPxAllocator@2@$0A@@physx@@QEAAPEAPEBVPxBase@2@AEBQEBV32@AEA_N@Z 0000000180024470 f i NpPhysics.obj
 0001:00023470       ?create@?$PxHashBase@PEAVPxAggregate@physx@@PEAV12@U?$PxHash@PEAVPxAggregate@physx@@@2@UGetKey@?$PxHashSetBase@PEAVPxAggregate@physx@@U?$PxHash@PEAVPxAggregate@physx@@@2@VPxAllocator@2@$0A@@2@VPxAllocator@2@$0A@@physx@@QEAAPEAPEAVPxAggregate@2@AEBQEAV32@AEA_N@Z 0000000180024470 f i NpFactory.obj
 0001:00023470       ?create@?$PxHashBase@PEBVPxRigidActor@physx@@PEBV12@U?$PxHash@PEBVPxRigidActor@physx@@@2@UGetKey@?$PxHashSetBase@PEBVPxRigidActor@physx@@U?$PxHash@PEBVPxRigidActor@physx@@@2@VPxAllocator@2@$0A@@2@VPxAllocator@2@$0A@@physx@@QEAAPEAPEBVPxRigidActor@2@AEBQEBV32@AEA_N@Z 0000000180024470 f i PvdMetaDataPvdBinding.obj
 0001:00023470       ?create@?$PxHashBase@PEAVPxArticulationReducedCoordinate@physx@@PEAV12@U?$PxHash@PEAVPxArticulationReducedCoordinate@physx@@@2@UGetKey@?$PxHashSetBase@PEAVPxArticulationReducedCoordinate@physx@@U?$PxHash@PEAVPxArticulationReducedCoordinate@physx@@@2@VPxAllocator@2@$0A@@2@VPxAllocator@2@$0A@@physx@@QEAAPEAPEAVPxArticulationReducedCoordinate@2@AEBQEAV32@AEA_N@Z 0000000180024470 f i NpFactory.obj
 0001:00023620       ?createInstance@PvdMetaDataBinding@Vd@physx@@QEAAXAEAVPvdDataStream@pvdsdk@3@AEBVPxAggregate@3@AEBVPxScene@3@@Z 0000000180024620 f   PvdMetaDataPvdBinding.obj
 0001:00023730       ?createInstance@PvdMetaDataBinding@Vd@physx@@QEAAXAEAVPvdDataStream@pvdsdk@3@AEBVPxArticulationReducedCoordinate@3@AEBVPxScene@3@AEBVPxPhysics@3@PEAVPsPvd@53@@Z 0000000180024730 f   PvdMetaDataPvdBinding.obj
 0001:00023c60       ?createInstance@PvdMetaDataBinding@Vd@physx@@QEAAXAEAVPvdDataStream@pvdsdk@3@AEBVPxConvexMesh@3@AEBVPxPhysics@3@@Z 0000000180024c60 f   PvdMetaDataPvdBinding.obj
 0001:00023f50       ?createInstance@PvdMetaDataBinding@Vd@physx@@QEAAXAEAVPvdDataStream@pvdsdk@3@AEBVPxFEMSoftBodyMaterial@3@AEBVPxPhysics@3@@Z 0000000180024f50 f   PvdMetaDataPvdBinding.obj
 0001:00024010       ?createInstance@PvdMetaDataBinding@Vd@physx@@QEAAXAEAVPvdDataStream@pvdsdk@3@AEBVPxHeightField@3@AEBVPxPhysics@3@@Z 0000000180025010 f   PvdMetaDataPvdBinding.obj
 0001:000240e0       ?createInstance@PvdMetaDataBinding@Vd@physx@@QEAAXAEAVPvdDataStream@pvdsdk@3@AEBVPxMaterial@3@AEBVPxPhysics@3@@Z 00000001800250e0 f   PvdMetaDataPvdBinding.obj
 0001:00024200       ?createInstance@PvdMetaDataBinding@Vd@physx@@QEAAXAEAVPvdDataStream@pvdsdk@3@AEBVPxRigidDynamic@3@AEBVPxScene@3@AEBVPxPhysics@3@PEAVPsPvd@53@@Z 0000000180025200 f   PvdMetaDataPvdBinding.obj
 0001:00024300       ?createInstance@PvdMetaDataBinding@Vd@physx@@QEAAXAEAVPvdDataStream@pvdsdk@3@AEBVPxRigidStatic@3@AEBVPxScene@3@AEBVPxPhysics@3@PEAVPsPvd@53@@Z 0000000180025300 f   PvdMetaDataPvdBinding.obj
 0001:00024400       ?createInstance@PvdMetaDataBinding@Vd@physx@@QEAAXAEAVPvdDataStream@pvdsdk@3@AEBVPxShape@3@AEBVPxRigidActor@3@AEBVPxPhysics@3@PEAVPsPvd@53@@Z 0000000180025400 f   PvdMetaDataPvdBinding.obj
 0001:000249a0       ?createInstance@PvdMetaDataBinding@Vd@physx@@QEAAXAEAVPvdDataStream@pvdsdk@3@AEBVPxTetrahedronMesh@3@AEBVPxPhysics@3@@Z 00000001800259a0 f   PvdMetaDataPvdBinding.obj
 0001:00024b70       ?createInstance@PvdMetaDataBinding@Vd@physx@@QEAAXAEAVPvdDataStream@pvdsdk@3@AEBVPxTriangleMesh@3@AEBVPxPhysics@3@@Z 0000000180025b70 f   PvdMetaDataPvdBinding.obj
 0001:00024e10       ?destroyInstance@PvdMetaDataBinding@Vd@physx@@QEAAXAEAVPvdDataStream@pvdsdk@3@AEBVPxAggregate@3@AEBVPxScene@3@@Z 0000000180025e10 f   PvdMetaDataPvdBinding.obj
 0001:00024e50       ?destroyInstance@PvdMetaDataBinding@Vd@physx@@QEAAXAEAVPvdDataStream@pvdsdk@3@AEBVPxArticulationLink@3@@Z 0000000180025e50 f   PvdMetaDataPvdBinding.obj
 0001:00024eb0       ?destroyInstance@PvdMetaDataBinding@Vd@physx@@QEAAXAEAVPvdDataStream@pvdsdk@3@AEBVPxArticulationReducedCoordinate@3@AEBVPxScene@3@@Z 0000000180025eb0 f   PvdMetaDataPvdBinding.obj
 0001:00024ef0       ?destroyInstance@PvdMetaDataBinding@Vd@physx@@QEAAXAEAVPvdDataStream@pvdsdk@3@AEBVPxConvexMesh@3@AEBVPxPhysics@3@@Z 0000000180025ef0 f   PvdMetaDataPvdBinding.obj
 0001:00024f30       ?destroyInstance@PvdMetaDataBinding@Vd@physx@@QEAAXAEAVPvdDataStream@pvdsdk@3@AEBVPxHeightField@3@AEBVPxPhysics@3@@Z 0000000180025f30 f   PvdMetaDataPvdBinding.obj
 0001:00024f70       ?destroyInstance@PvdMetaDataBinding@Vd@physx@@QEAAXAEAVPvdDataStream@pvdsdk@3@AEBVPxMaterial@3@AEBVPxPhysics@3@@Z 0000000180025f70 f   PvdMetaDataPvdBinding.obj
 0001:00024fb0       ?destroyInstance@PvdMetaDataBinding@Vd@physx@@QEAAXAEAVPvdDataStream@pvdsdk@3@AEBVPxRigidDynamic@3@AEBVPxScene@3@@Z 0000000180025fb0 f   PvdMetaDataPvdBinding.obj
 0001:00025000       ?destroyInstance@PvdMetaDataBinding@Vd@physx@@QEAAXAEAVPvdDataStream@pvdsdk@3@AEBVPxRigidStatic@3@AEBVPxScene@3@@Z 0000000180026000 f   PvdMetaDataPvdBinding.obj
 0001:00025050       ?destroyInstance@PvdMetaDataBinding@Vd@physx@@QEAAXAEAVPvdDataStream@pvdsdk@3@AEBVPxShape@3@AEBVPxRigidActor@3@@Z 0000000180026050 f   PvdMetaDataPvdBinding.obj
 0001:000253f0       ?destroyInstance@PvdMetaDataBinding@Vd@physx@@QEAAXAEAVPvdDataStream@pvdsdk@3@AEBVPxTetrahedronMesh@3@AEBVPxPhysics@3@@Z 00000001800263f0 f   PvdMetaDataPvdBinding.obj
 0001:00025430       ?destroyInstance@PvdMetaDataBinding@Vd@physx@@QEAAXAEAVPvdDataStream@pvdsdk@3@AEBVPxTriangleMesh@3@AEBVPxPhysics@3@@Z 0000000180026430 f   PvdMetaDataPvdBinding.obj
 0001:00025470       ?detachAggregateActor@PvdMetaDataBinding@Vd@physx@@QEAAXAEAVPvdDataStream@pvdsdk@3@AEBVPxAggregate@3@AEBVPxActor@3@@Z 0000000180026470 f   PvdMetaDataPvdBinding.obj
 0001:00025490       ?erase@?$PxHashBase@V?$PxPair@QEAVPxDeletionListener@physx@@PEAUNpDelListenerEntry@NpPhysics@2@@physx@@PEAVPxDeletionListener@2@U?$PxHash@PEAVPxDeletionListener@physx@@@2@UGetKey@?$PxHashMapBase@PEAVPxDeletionListener@physx@@PEAUNpDelListenerEntry@NpPhysics@2@U?$PxHash@PEAVPxDeletionListener@physx@@@2@VPxAllocator@2@@2@VPxAllocator@2@$00@physx@@QEAA_NAEBQEAVPxDeletionListener@2@@Z 0000000180026490 f i NpPhysics.obj
 0001:00025490       ?erase@?$PxHashBase@V?$PxPair@QEBVPxShape@physx@@PEAV?$PxHashSet@PEBVPxRigidActor@physx@@U?$PxHash@PEBVPxRigidActor@physx@@@2@VPxAllocator@2@@2@@physx@@PEBVPxShape@2@U?$PxHash@PEBVPxShape@physx@@@2@UGetKey@?$PxHashMapBase@PEBVPxShape@physx@@PEAV?$PxHashSet@PEBVPxRigidActor@physx@@U?$PxHash@PEBVPxRigidActor@physx@@@2@VPxAllocator@2@@2@U?$PxHash@PEBVPxShape@physx@@@2@VPxAllocator@2@@2@VPxAllocator@2@$00@physx@@QEAA_NAEBQEBVPxShape@2@@Z 0000000180026490 f i PvdMetaDataPvdBinding.obj
 0001:00025630       ?erase@?$PxHashSetBase@PEAVPxActor@physx@@U?$PxHash@PEAVPxActor@physx@@@2@VPxAllocator@2@$0A@@physx@@QEAA_NAEBQEAVPxActor@2@@Z 0000000180026630 f i PvdMetaDataPvdBinding.obj
 0001:00025700       ?find@?$PxHashMapBase@PEBVPxShape@physx@@PEAV?$PxHashSet@PEBVPxRigidActor@physx@@U?$PxHash@PEBVPxRigidActor@physx@@@2@VPxAllocator@2@@2@U?$PxHash@PEBVPxShape@physx@@@2@VPxAllocator@2@@physx@@QEBAPEBV?$PxPair@QEBVPxShape@physx@@PEAV?$PxHashSet@PEBVPxRigidActor@physx@@U?$PxHash@PEBVPxRigidActor@physx@@@2@VPxAllocator@2@@2@@2@AEBQEBVPxShape@2@@Z 0000000180026700 f i PvdMetaDataPvdBinding.obj
 0001:000257a0       ?originShift@PvdMetaDataBinding@Vd@physx@@QEAAXAEAVPvdDataStream@pvdsdk@3@PEBVPxScene@3@V?$PxVec3T@M@3@@Z 00000001800267a0 f   PvdMetaDataPvdBinding.obj
 0001:000257f0       ?recreate@?$PxArray@EV?$PxReflectionAllocator@E@physx@@@physx@@IEAAXI@Z 00000001800267f0 f i PvdMetaDataPvdBinding.obj
 0001:000258e0       ?recreate@?$PxArray@PEAVPxArticulationLink@physx@@V?$PxReflectionAllocator@PEAVPxArticulationLink@physx@@@2@@physx@@IEAAXI@Z 00000001800268e0 f i PvdMetaDataPvdBinding.obj
 0001:00025a10       ?recreate@?$PxArray@PEAVPxShape@physx@@V?$PxInlineAllocator@$0CI@V?$PxReflectionAllocator@PEAVPxShape@physx@@@physx@@@2@@physx@@IEAAXI@Z 0000000180026a10 f i PvdMetaDataPvdBinding.obj
 0001:00025aa0       ?registerSDKProperties@PvdMetaDataBinding@Vd@physx@@QEAAXAEAVPvdDataStream@pvdsdk@3@@Z 0000000180026aa0 f   PvdMetaDataPvdBinding.obj
 0001:0002a110       ?releaseAndRecreateGeometry@PvdMetaDataBinding@Vd@physx@@QEAAXAEAVPvdDataStream@pvdsdk@3@AEBVPxShape@3@AEAVPxPhysics@3@PEAVPsPvd@53@@Z 000000018002b110 f   PvdMetaDataPvdBinding.obj
 0001:0002a310       ?reserveInternal@?$PxHashBase@PEAVPxConstraint@physx@@PEAV12@U?$PxHash@PEAVPxConstraint@physx@@@2@UGetKey@?$PxHashSetBase@PEAVPxConstraint@physx@@U?$PxHash@PEAVPxConstraint@physx@@@2@VPxAllocator@2@$0A@@2@VPxAllocator@2@$0A@@physx@@AEAAXI@Z 000000018002b310 f i NpFactory.obj
 0001:0002a310       ?reserveInternal@?$PxHashBase@PEAVPxParticleBuffer@physx@@PEAV12@U?$PxHash@PEAVPxParticleBuffer@physx@@@2@UGetKey@?$PxHashSetBase@PEAVPxParticleBuffer@physx@@U?$PxHash@PEAVPxParticleBuffer@physx@@@2@VPxAllocator@2@$0A@@2@VPxAllocator@2@$0A@@physx@@AEAAXI@Z 000000018002b310 f i NpFactory.obj
 0001:0002a310       ?reserveInternal@?$PxHashBase@PEBVPxBase@physx@@PEBV12@U?$PxHash@PEBVPxBase@physx@@@2@UGetKey@?$PxHashSetBase@PEBVPxBase@physx@@U?$PxHash@PEBVPxBase@physx@@@2@VPxAllocator@2@$0A@@2@VPxAllocator@2@$0A@@physx@@AEAAXI@Z 000000018002b310 f i NpPhysics.obj
 0001:0002a310       ?reserveInternal@?$PxHashBase@PEAVPxAggregate@physx@@PEAV12@U?$PxHash@PEAVPxAggregate@physx@@@2@UGetKey@?$PxHashSetBase@PEAVPxAggregate@physx@@U?$PxHash@PEAVPxAggregate@physx@@@2@VPxAllocator@2@$0A@@2@VPxAllocator@2@$0A@@physx@@AEAAXI@Z 000000018002b310 f i NpFactory.obj
 0001:0002a310       ?reserveInternal@?$PxHashBase@PEBVPxRigidActor@physx@@PEBV12@U?$PxHash@PEBVPxRigidActor@physx@@@2@UGetKey@?$PxHashSetBase@PEBVPxRigidActor@physx@@U?$PxHash@PEBVPxRigidActor@physx@@@2@VPxAllocator@2@$0A@@2@VPxAllocator@2@$0A@@physx@@AEAAXI@Z 000000018002b310 f i PvdMetaDataPvdBinding.obj
 0001:0002a310       ?reserveInternal@?$PxHashBase@PEAVPxArticulationReducedCoordinate@physx@@PEAV12@U?$PxHash@PEAVPxArticulationReducedCoordinate@physx@@@2@UGetKey@?$PxHashSetBase@PEAVPxArticulationReducedCoordinate@physx@@U?$PxHash@PEAVPxArticulationReducedCoordinate@physx@@@2@VPxAllocator@2@$0A@@2@VPxAllocator@2@$0A@@physx@@AEAAXI@Z 000000018002b310 f i NpFactory.obj
 0001:0002a310       ?reserveInternal@?$PxHashBase@PEAVPxActor@physx@@PEAV12@U?$PxHash@PEAVPxActor@physx@@@2@UGetKey@?$PxHashSetBase@PEAVPxActor@physx@@U?$PxHash@PEAVPxActor@physx@@@2@VPxAllocator@2@$0A@@2@VPxAllocator@2@$0A@@physx@@AEAAXI@Z 000000018002b310 f i PvdMetaDataPvdBinding.obj
 0001:0002a700       ?resize@?$PxArray@EV?$PxReflectionAllocator@E@physx@@@physx@@QEAAXIAEBE@Z 000000018002b700 f i PvdMetaDataPvdBinding.obj
 0001:0002a7c0       ?resize@?$PxArray@PEAVPxArticulationLink@physx@@V?$PxReflectionAllocator@PEAVPxArticulationLink@physx@@@2@@physx@@QEAAXIAEBQEAVPxArticulationLink@2@@Z 000000018002b7c0 f i PvdMetaDataPvdBinding.obj
 0001:0002a880       ?resize@?$PxArray@PEAVPxShape@physx@@V?$PxInlineAllocator@$0CI@V?$PxReflectionAllocator@PEAVPxShape@physx@@@physx@@@2@@physx@@QEAAXIAEBQEAVPxShape@2@@Z 000000018002b880 f i PvdMetaDataPvdBinding.obj
 0001:0002a940       ?run@ChangeOjectRefCmd@Vd@physx@@UEAAXAEAVPvdInstanceDataStream@pvdsdk@3@@Z 000000018002b940 f i PvdMetaDataPvdBinding.obj
 0001:0002a9c0       ?sendAllProperties@PvdMetaDataBinding@Vd@physx@@QEAAXAEAVPvdDataStream@pvdsdk@3@AEBVPxAggregate@3@@Z 000000018002b9c0 f   PvdMetaDataPvdBinding.obj
 0001:0002aa30       ?sendAllProperties@PvdMetaDataBinding@Vd@physx@@QEAAXAEAVPvdDataStream@pvdsdk@3@AEBVPxArticulationJointReducedCoordinate@3@@Z 000000018002ba30 f   PvdMetaDataPvdBinding.obj
 0001:0002aab0       ?sendAllProperties@PvdMetaDataBinding@Vd@physx@@QEAAXAEAVPvdDataStream@pvdsdk@3@AEBVPxArticulationLink@3@@Z 000000018002bab0 f   PvdMetaDataPvdBinding.obj
 0001:0002ab30       ?sendAllProperties@PvdMetaDataBinding@Vd@physx@@QEAAXAEAVPvdDataStream@pvdsdk@3@AEBVPxArticulationReducedCoordinate@3@@Z 000000018002bb30 f   PvdMetaDataPvdBinding.obj
 0001:0002abb0       ?sendAllProperties@PvdMetaDataBinding@Vd@physx@@QEAAXAEAVPvdDataStream@pvdsdk@3@AEBVPxHeightField@3@@Z 000000018002bbb0 f   PvdMetaDataPvdBinding.obj
 0001:0002ad20       ?sendAllProperties@PvdMetaDataBinding@Vd@physx@@QEAAXAEAVPvdDataStream@pvdsdk@3@AEBVPxMaterial@3@@Z 000000018002bd20 f   PvdMetaDataPvdBinding.obj
 0001:0002ada0       ?sendAllProperties@PvdMetaDataBinding@Vd@physx@@QEAAXAEAVPvdDataStream@pvdsdk@3@AEBVPxPhysics@3@@Z 000000018002bda0 f   PvdMetaDataPvdBinding.obj
 0001:0002af30       ?sendAllProperties@PvdMetaDataBinding@Vd@physx@@QEAAXAEAVPvdDataStream@pvdsdk@3@AEBVPxRigidDynamic@3@@Z 000000018002bf30 f   PvdMetaDataPvdBinding.obj
 0001:0002afb0       ?sendAllProperties@PvdMetaDataBinding@Vd@physx@@QEAAXAEAVPvdDataStream@pvdsdk@3@AEBVPxRigidStatic@3@@Z 000000018002bfb0 f   PvdMetaDataPvdBinding.obj
 0001:0002b030       ?sendAllProperties@PvdMetaDataBinding@Vd@physx@@QEAAXAEAVPvdDataStream@pvdsdk@3@AEBVPxScene@3@@Z 000000018002c030 f   PvdMetaDataPvdBinding.obj
 0001:0002b420       ?sendAllProperties@PvdMetaDataBinding@Vd@physx@@QEAAXAEAVPvdDataStream@pvdsdk@3@AEBVPxShape@3@@Z 000000018002c420 f   PvdMetaDataPvdBinding.obj
 0001:0002b4a0       ?sendBeginFrame@PvdMetaDataBinding@Vd@physx@@QEAAXAEAVPvdDataStream@pvdsdk@3@PEBVPxScene@3@M@Z 000000018002c4a0 f   PvdMetaDataPvdBinding.obj
 0001:0002b590       ?sendContacts@PvdMetaDataBinding@Vd@physx@@QEAAXAEAVPvdDataStream@pvdsdk@3@AEBVPxScene@3@@Z 000000018002c590 f   PvdMetaDataPvdBinding.obj
 0001:0002b5f0       ?sendContacts@PvdMetaDataBinding@Vd@physx@@QEAAXAEAVPvdDataStream@pvdsdk@3@AEBVPxScene@3@AEAV?$PxArray@UContact@Sc@physx@@V?$PxReflectionAllocator@UContact@Sc@physx@@@3@@3@@Z 000000018002c5f0 f   PvdMetaDataPvdBinding.obj
 0001:0002b7a0       ?sendEndFrame@PvdMetaDataBinding@Vd@physx@@QEAAXAEAVPvdDataStream@pvdsdk@3@PEBVPxScene@3@@Z 000000018002c7a0 f   PvdMetaDataPvdBinding.obj
 0001:0002ba00       ?sendSceneQueries@PvdMetaDataBinding@Vd@physx@@QEAAXAEAVPvdDataStream@pvdsdk@3@AEBVPxScene@3@PEAVPsPvd@53@@Z 000000018002ca00 f   PvdMetaDataPvdBinding.obj
 0001:0002c710       ?sendStats@PvdMetaDataBinding@Vd@physx@@QEAAXAEAVPvdDataStream@pvdsdk@3@PEBVPxScene@3@@Z 000000018002d710 f   PvdMetaDataPvdBinding.obj
 0001:0002d420       ?updateDynamicActorsAndArticulations@PvdMetaDataBinding@Vd@physx@@QEAAXAEAVPvdDataStream@pvdsdk@3@PEBVPxScene@3@PEAVPvdVisualizer@23@@Z 000000018002e420 f   PvdMetaDataPvdBinding.obj
 0001:0002d9d0       ?updateMaterials@PvdMetaDataBinding@Vd@physx@@QEAAXAEAVPvdDataStream@pvdsdk@3@AEBVPxShape@3@PEAVPsPvd@53@@Z 000000018002e9d0 f   PvdMetaDataPvdBinding.obj
 0001:0002da60       ??0PvdPhysicsClient@Vd@physx@@QEAA@PEAVPsPvd@pvdsdk@2@@Z 000000018002ea60 f   PvdPhysicsClient.obj
 0001:0002daac       ??_EPvdPhysicsClient@Vd@physx@@W7EAAPEAXI@Z 000000018002eaac f i PvdPhysicsClient.obj
 0001:0002dab8       ??_EPvdPhysicsClient@Vd@physx@@WBA@EAAPEAXI@Z 000000018002eab8 f i PvdPhysicsClient.obj
 0001:0002dad0       ??_GOmniPvdListener@NpPhysics@physx@@UEAAPEAXI@Z 000000018002ead0 f i NpPhysics.obj
 0001:0002dad0       ??_EMeshDeletionListener@NpPhysics@physx@@UEAAPEAXI@Z 000000018002ead0 f i NpPhysics.obj
 0001:0002dad0       ??_EOmniPvdListener@NpPhysics@physx@@UEAAPEAXI@Z 000000018002ead0 f i NpPhysics.obj
 0001:0002dad0       ??_EMeshFactoryListener@Gu@physx@@MEAAPEAXI@Z 000000018002ead0 f i PvdPhysicsClient.obj
 0001:0002dad0       ??_GMeshDeletionListener@NpPhysics@physx@@UEAAPEAXI@Z 000000018002ead0 f i NpPhysics.obj
 0001:0002dad0       ??_GMeshFactoryListener@Gu@physx@@MEAAPEAXI@Z 000000018002ead0 f i PvdPhysicsClient.obj
 0001:0002db00       ??_GPvdPhysicsClient@Vd@physx@@UEAAPEAXI@Z 000000018002eb00 f i PvdPhysicsClient.obj
 0001:0002db00       ??_EPvdPhysicsClient@Vd@physx@@UEAAPEAXI@Z 000000018002eb00 f i PvdPhysicsClient.obj
 0001:0002dbb0       ?destroyPvdInstance@PvdPhysicsClient@Vd@physx@@QEAAXPEBVPxPhysics@3@@Z 000000018002ebb0 f   PvdPhysicsClient.obj
 0001:0002dbd0       ?getName@FanoutTask@Cm@physx@@UEBAPEBDXZ 000000018002ebd0 f   SimulationController_static_64:ScScene.obj
 0001:0002dbd0       ?getDataStream@PvdPhysicsClient@Vd@physx@@UEAAPEAVPvdDataStream@pvdsdk@3@XZ 000000018002ebd0 f   PvdPhysicsClient.obj
 0001:0002dbe0       ?isConnected@PvdPhysicsClient@Vd@physx@@UEBA_NXZ 000000018002ebe0 f   PvdPhysicsClient.obj
 0001:0002dbf0       ?onMeshFactoryBufferRelease@PvdPhysicsClient@Vd@physx@@UEAAXPEBVPxBase@3@G@Z 000000018002ebf0 f   PvdPhysicsClient.obj
 0001:0002dcf0       ?onPvdConnected@PvdPhysicsClient@Vd@physx@@UEAAXXZ 000000018002ecf0 f   PvdPhysicsClient.obj
 0001:0002dd30       ?onPvdDisconnected@PvdPhysicsClient@Vd@physx@@UEAAXXZ 000000018002ed30 f   PvdPhysicsClient.obj
 0001:0002dd60       ?recreate@?$PxArray@PEAVPxConvexMesh@physx@@V?$PxReflectionAllocator@PEAVPxConvexMesh@physx@@@2@@physx@@IEAAXI@Z 000000018002ed60 f i PvdPhysicsClient.obj
 0001:0002de90       ?recreate@?$PxArray@PEAVPxHeightField@physx@@V?$PxReflectionAllocator@PEAVPxHeightField@physx@@@2@@physx@@IEAAXI@Z 000000018002ee90 f i PvdPhysicsClient.obj
 0001:0002dfc0       ?recreate@?$PxArray@PEAVPxMaterial@physx@@V?$PxReflectionAllocator@PEAVPxMaterial@physx@@@2@@physx@@IEAAXI@Z 000000018002efc0 f i PvdPhysicsClient.obj
 0001:0002e0f0       ?recreate@?$PxArray@PEAVPxTetrahedronMesh@physx@@V?$PxReflectionAllocator@PEAVPxTetrahedronMesh@physx@@@2@@physx@@IEAAXI@Z 000000018002f0f0 f i PvdPhysicsClient.obj
 0001:0002e220       ?recreate@?$PxArray@PEAVPxTriangleMesh@physx@@V?$PxReflectionAllocator@PEAVPxTriangleMesh@physx@@@2@@physx@@IEAAXI@Z 000000018002f220 f i PvdPhysicsClient.obj
 0001:0002e350       ?reportError@PvdPhysicsClient@Vd@physx@@UEAAXW4Enum@PxErrorCode@3@PEBD1H@Z 000000018002f350 f   PvdPhysicsClient.obj
 0001:0002e370       ?resize@?$PxArray@PEAVPxConvexMesh@physx@@V?$PxReflectionAllocator@PEAVPxConvexMesh@physx@@@2@@physx@@QEAAXIAEBQEAVPxConvexMesh@2@@Z 000000018002f370 f i PvdPhysicsClient.obj
 0001:0002e430       ?resize@?$PxArray@PEAVPxHeightField@physx@@V?$PxReflectionAllocator@PEAVPxHeightField@physx@@@2@@physx@@QEAAXIAEBQEAVPxHeightField@2@@Z 000000018002f430 f i PvdPhysicsClient.obj
 0001:0002e4f0       ?resize@?$PxArray@PEAVPxMaterial@physx@@V?$PxReflectionAllocator@PEAVPxMaterial@physx@@@2@@physx@@QEAAXIAEBQEAVPxMaterial@2@@Z 000000018002f4f0 f i PvdPhysicsClient.obj
 0001:0002e5b0       ?resize@?$PxArray@PEAVPxTetrahedronMesh@physx@@V?$PxReflectionAllocator@PEAVPxTetrahedronMesh@physx@@@2@@physx@@QEAAXIAEBQEAVPxTetrahedronMesh@2@@Z 000000018002f5b0 f i PvdPhysicsClient.obj
 0001:0002e670       ?resize@?$PxArray@PEAVPxTriangleMesh@physx@@V?$PxReflectionAllocator@PEAVPxTriangleMesh@physx@@@2@@physx@@QEAAXIAEBQEAVPxTriangleMesh@2@@Z 000000018002f670 f i PvdPhysicsClient.obj
 0001:0002e730       ?sendEntireSDK@PvdPhysicsClient@Vd@physx@@QEAAXXZ 000000018002f730 f   PvdPhysicsClient.obj
 0001:0002eb50       ??0PxActorGeneratedInfo@physx@@QEAA@XZ 000000018002fb50 f   PxAutoGeneratedMetaDataObjects.obj
 0001:0002ec80       ??0PxActorGeneratedValues@physx@@QEAA@PEBVPxActor@1@@Z 000000018002fc80 f   PxAutoGeneratedMetaDataObjects.obj
 0001:0002ed00       ??0PxAggregateGeneratedInfo@physx@@QEAA@XZ 000000018002fd00 f   PxAutoGeneratedMetaDataObjects.obj
 0001:0002ede0       ??0PxAggregateGeneratedValues@physx@@QEAA@PEBVPxAggregate@1@@Z 000000018002fde0 f   PxAutoGeneratedMetaDataObjects.obj
 0001:0002ee40       ??0PxArticulationDriveGeneratedInfo@physx@@QEAA@XZ 000000018002fe40 f   PxAutoGeneratedMetaDataObjects.obj
 0001:0002eef0       ??0PxArticulationDriveGeneratedValues@physx@@QEAA@PEBUPxArticulationDrive@1@@Z 000000018002fef0 f   PxAutoGeneratedMetaDataObjects.obj
 0001:0002ef10       ??0PxArticulationJointReducedCoordinateGeneratedInfo@physx@@QEAA@XZ 000000018002ff10 f   PxAutoGeneratedMetaDataObjects.obj
 0001:0002f180       ??0PxArticulationJointReducedCoordinateGeneratedValues@physx@@QEAA@PEBVPxArticulationJointReducedCoordinate@1@@Z 0000000180030180 f   PxAutoGeneratedMetaDataObjects.obj
 0001:0002f340       ??0PxArticulationLimitGeneratedInfo@physx@@QEAA@XZ 0000000180030340 f   PxAutoGeneratedMetaDataObjects.obj
 0001:0002f3a0       ??0PxArticulationLimitGeneratedValues@physx@@QEAA@PEBUPxArticulationLimit@1@@Z 00000001800303a0 f   PxAutoGeneratedMetaDataObjects.obj
 0001:0002f3b0       ??0PxArticulationLinkGeneratedInfo@physx@@QEAA@XZ 00000001800303b0 f   PxAutoGeneratedMetaDataObjects.obj
 0001:0002f520       ??0PxArticulationLinkGeneratedValues@physx@@QEAA@PEBVPxArticulationLink@1@@Z 0000000180030520 f   PxAutoGeneratedMetaDataObjects.obj
 0001:0002f5d0       ??0PxArticulationReducedCoordinateGeneratedInfo@physx@@QEAA@XZ 00000001800305d0 f   PxAutoGeneratedMetaDataObjects.obj
 0001:0002f8e0       ??0PxArticulationReducedCoordinateGeneratedValues@physx@@QEAA@PEBVPxArticulationReducedCoordinate@1@@Z 00000001800308e0 f   PxAutoGeneratedMetaDataObjects.obj
 0001:0002f9e0       ??0PxBaseMaterialGeneratedInfo@physx@@QEAA@XZ 00000001800309e0 f   PxAutoGeneratedMetaDataObjects.obj
 0001:0002fa30       ??0PxBaseMaterialGeneratedValues@physx@@QEAA@PEBVPxBaseMaterial@1@@Z 0000000180030a30 f   PxAutoGeneratedMetaDataObjects.obj
 0001:0002fa70       ??0PxBoxGeometryGeneratedInfo@physx@@QEAA@XZ 0000000180030a70 f   PxAutoGeneratedMetaDataObjects.obj
 0001:0002faa0       ??0PxBoxGeometryGeneratedValues@physx@@QEAA@PEBVPxBoxGeometry@1@@Z 0000000180030aa0 f   PxAutoGeneratedMetaDataObjects.obj
 0001:0002faa0       ?getPxBoxGeometryHalfExtents@@YA?AV?$PxVec3T@M@physx@@PEBVPxBoxGeometry@2@@Z 0000000180030aa0 f   PxAutoGeneratedMetaDataObjects.obj
 0001:0002fac0       ??0PxBroadPhaseDescGeneratedInfo@physx@@QEAA@XZ 0000000180030ac0 f   PxAutoGeneratedMetaDataObjects.obj
 0001:0002fc00       ??0PxBroadPhaseDescGeneratedValues@physx@@QEAA@PEBVPxBroadPhaseDesc@1@@Z 0000000180030c00 f   PxAutoGeneratedMetaDataObjects.obj
 0001:0002fc50       ??0PxCapsuleGeometryGeneratedInfo@physx@@QEAA@XZ 0000000180030c50 f   PxAutoGeneratedMetaDataObjects.obj
 0001:0002fcb0       ??0PxCapsuleGeometryGeneratedValues@physx@@QEAA@PEBVPxCapsuleGeometry@1@@Z 0000000180030cb0 f   PxAutoGeneratedMetaDataObjects.obj
 0001:0002fcc0       ??0PxConstraintGeneratedInfo@physx@@QEAA@XZ 0000000180030cc0 f   PxAutoGeneratedMetaDataObjects.obj
 0001:0002fe50       ??0PxConstraintGeneratedValues@physx@@QEAA@PEBVPxConstraint@1@@Z 0000000180030e50 f   PxAutoGeneratedMetaDataObjects.obj
 0001:0002fee0       ??0PxConvexMeshGeometryGeneratedInfo@physx@@QEAA@XZ 0000000180030ee0 f   PxAutoGeneratedMetaDataObjects.obj
 0001:0002ff60       ??0PxConvexMeshGeometryGeneratedValues@physx@@QEAA@PEBVPxConvexMeshGeometry@1@@Z 0000000180030f60 f   PxAutoGeneratedMetaDataObjects.obj
 0001:0002ffa0       ??0PxCustomGeometryGeneratedInfo@physx@@QEAA@XZ 0000000180030fa0 f   PxAutoGeneratedMetaDataObjects.obj
 0001:0002ffc0       ??0PxCustomGeometryGeneratedValues@physx@@QEAA@PEBVPxCustomGeometry@1@@Z 0000000180030fc0 f   PxAutoGeneratedMetaDataObjects.obj
 0001:0002fff0       ??0PxFEMMaterialGeneratedInfo@physx@@QEAA@XZ 0000000180030ff0 f   PxAutoGeneratedMetaDataObjects.obj
 0001:000300c0       ??0PxFEMMaterialGeneratedValues@physx@@QEAA@PEBVPxFEMMaterial@1@@Z 00000001800310c0 f   PxAutoGeneratedMetaDataObjects.obj
 0001:00030120       ??0PxFEMSoftBodyMaterialGeneratedInfo@physx@@QEAA@XZ 0000000180031120 f   PxAutoGeneratedMetaDataObjects.obj
 0001:000301d0       ??0PxFEMSoftBodyMaterialGeneratedValues@physx@@QEAA@PEBVPxFEMSoftBodyMaterial@1@@Z 00000001800311d0 f   PxAutoGeneratedMetaDataObjects.obj
 0001:00030260       ??0PxHeightFieldDescGeneratedInfo@physx@@QEAA@XZ 0000000180031260 f   PxAutoGeneratedMetaDataObjects.obj
 0001:00030370       ??0PxHeightFieldDescGeneratedValues@physx@@QEAA@PEBVPxHeightFieldDesc@1@@Z 0000000180031370 f   PxAutoGeneratedMetaDataObjects.obj
 0001:000303a0       ??0PxHeightFieldGeometryGeneratedInfo@physx@@QEAA@XZ 00000001800313a0 f   PxAutoGeneratedMetaDataObjects.obj
 0001:00030480       ??0PxHeightFieldGeometryGeneratedValues@physx@@QEAA@PEBVPxHeightFieldGeometry@1@@Z 0000000180031480 f   PxAutoGeneratedMetaDataObjects.obj
 0001:000304b0       ??0PxMaterialGeneratedInfo@physx@@QEAA@XZ 00000001800314b0 f   PxAutoGeneratedMetaDataObjects.obj
 0001:00030670       ??0PxMaterialGeneratedValues@physx@@QEAA@PEBVPxMaterial@1@@Z 0000000180031670 f   PxAutoGeneratedMetaDataObjects.obj
 0001:00030720       ??0PxMeshScaleGeneratedInfo@physx@@QEAA@XZ 0000000180031720 f   PxAutoGeneratedMetaDataObjects.obj
 0001:00030780       ??0PxMeshScaleGeneratedValues@physx@@QEAA@PEBVPxMeshScale@1@@Z 0000000180031780 f   PxAutoGeneratedMetaDataObjects.obj
 0001:000307b0       ??0PxPBDMaterialGeneratedInfo@physx@@QEAA@XZ 00000001800317b0 f   PxAutoGeneratedMetaDataObjects.obj
 0001:000309d0       ??0PxPBDMaterialGeneratedValues@physx@@QEAA@PEBVPxPBDMaterial@1@@Z 00000001800319d0 f   PxAutoGeneratedMetaDataObjects.obj
 0001:00030aa0       ??0PxParticleMaterialGeneratedInfo@physx@@QEAA@XZ 0000000180031aa0 f   PxAutoGeneratedMetaDataObjects.obj
 0001:00030be0       ??0PxParticleMaterialGeneratedValues@physx@@QEAA@PEBVPxParticleMaterial@1@@Z 0000000180031be0 f   PxAutoGeneratedMetaDataObjects.obj
 0001:00030c60       ??0PxPhysicsGeneratedInfo@physx@@QEAA@XZ 0000000180031c60 f   PxAutoGeneratedMetaDataObjects.obj
 0001:00030f70       ?getPxPhysics_TolerancesScale@@YA?BVPxTolerancesScale@physx@@PEBVPxPhysics@2@@Z 0000000180031f70 f   PxAutoGeneratedMetaDataObjects.obj
 0001:00030f70       ??0PxPhysicsGeneratedValues@physx@@QEAA@PEBVPxPhysics@1@@Z 0000000180031f70 f   PxAutoGeneratedMetaDataObjects.obj
 0001:00030fa0       ??0PxPruningStructureGeneratedInfo@physx@@QEAA@XZ 0000000180031fa0 f   PxAutoGeneratedMetaDataObjects.obj
 0001:00031030       ??0PxPruningStructureGeneratedValues@physx@@QEAA@PEBVPxPruningStructure@1@@Z 0000000180032030 f   PxAutoGeneratedMetaDataObjects.obj
 0001:00031080       ??0PxRefCountedGeneratedInfo@physx@@QEAA@XZ 0000000180032080 f   PxAutoGeneratedMetaDataObjects.obj
 0001:000310a0       ??0PxRefCountedGeneratedValues@physx@@QEAA@PEBVPxRefCounted@1@@Z 00000001800320a0 f   PxAutoGeneratedMetaDataObjects.obj
 0001:000310c0       ??0PxRigidActorGeneratedInfo@physx@@QEAA@XZ 00000001800320c0 f   PxAutoGeneratedMetaDataObjects.obj
 0001:00031180       ??0PxRigidActorGeneratedValues@physx@@QEAA@PEBVPxRigidActor@1@@Z 0000000180032180 f   PxAutoGeneratedMetaDataObjects.obj
 0001:000311c0       ??0PxRigidBodyGeneratedInfo@physx@@QEAA@XZ 00000001800321c0 f   PxAutoGeneratedMetaDataObjects.obj
 0001:000314a0       ??0PxRigidBodyGeneratedValues@physx@@QEAA@PEBVPxRigidBody@1@@Z 00000001800324a0 f   PxAutoGeneratedMetaDataObjects.obj
 0001:000315e0       ??0PxRigidDynamicGeneratedInfo@physx@@QEAA@XZ 00000001800325e0 f   PxAutoGeneratedMetaDataObjects.obj
 0001:00031800       ??0PxRigidDynamicGeneratedValues@physx@@QEAA@PEBVPxRigidDynamic@1@@Z 0000000180032800 f   PxAutoGeneratedMetaDataObjects.obj
 0001:000318f0       ??0PxRigidStaticGeneratedInfo@physx@@QEAA@XZ 00000001800328f0 f   PxAutoGeneratedMetaDataObjects.obj
 0001:00031930       ??0PxRigidStaticGeneratedValues@physx@@QEAA@PEBVPxRigidStatic@1@@Z 0000000180032930 f   PxAutoGeneratedMetaDataObjects.obj
 0001:00031970       ??0PxSceneDescGeneratedInfo@physx@@QEAA@XZ 0000000180032970 f   PxAutoGeneratedMetaDataObjects.obj
 0001:00032170       ??0PxSceneDescGeneratedValues@physx@@QEAA@PEBVPxSceneDesc@1@@Z 0000000180033170 f   PxAutoGeneratedMetaDataObjects.obj
 0001:000323d0       ??0PxSceneGeneratedInfo@physx@@QEAA@XZ 00000001800333d0 f   PxAutoGeneratedMetaDataObjects.obj
 0001:00032b50       ??0PxSceneGeneratedValues@physx@@QEAA@PEBVPxScene@1@@Z 0000000180033b50 f   PxAutoGeneratedMetaDataObjects.obj
 0001:00032e00       ??0PxSceneLimitsGeneratedInfo@physx@@QEAA@XZ 0000000180033e00 f   PxAutoGeneratedMetaDataObjects.obj
 0001:00032f80       ??0PxSceneLimitsGeneratedValues@physx@@QEAA@PEBVPxSceneLimits@1@@Z 0000000180033f80 f   PxAutoGeneratedMetaDataObjects.obj
 0001:00032fc0       ??0PxSceneQueryDescGeneratedInfo@physx@@QEAA@XZ 0000000180033fc0 f   PxAutoGeneratedMetaDataObjects.obj
 0001:00033190       ??0PxSceneQueryDescGeneratedValues@physx@@QEAA@PEBVPxSceneQueryDesc@1@@Z 0000000180034190 f   PxAutoGeneratedMetaDataObjects.obj
 0001:000331e0       ??0PxSceneQuerySystemBaseGeneratedInfo@physx@@QEAA@XZ 00000001800341e0 f   PxAutoGeneratedMetaDataObjects.obj
 0001:00033250       ??0PxSceneQuerySystemBaseGeneratedValues@physx@@QEAA@PEBVPxSceneQuerySystemBase@1@@Z 0000000180034250 f   PxAutoGeneratedMetaDataObjects.obj
 0001:000332a0       ??0PxSceneSQSystemGeneratedInfo@physx@@QEAA@XZ 00000001800342a0 f   PxAutoGeneratedMetaDataObjects.obj
 0001:000333b0       ??0PxSceneSQSystemGeneratedValues@physx@@QEAA@PEBVPxSceneSQSystem@1@@Z 00000001800343b0 f   PxAutoGeneratedMetaDataObjects.obj
 0001:00033430       ??0PxShapeGeneratedInfo@physx@@QEAA@XZ 0000000180034430 f   PxAutoGeneratedMetaDataObjects.obj
 0001:00033740       ??0PxShapeGeneratedValues@physx@@QEAA@PEBVPxShape@1@@Z 0000000180034740 f   PxAutoGeneratedMetaDataObjects.obj
 0001:00033a40       ??0PxSimulationStatisticsGeneratedInfo@physx@@QEAA@XZ 0000000180034a40 f   PxAutoGeneratedMetaDataObjects.obj
 0001:000342f0       ??0PxSimulationStatisticsGeneratedValues@physx@@QEAA@PEBVPxSimulationStatistics@1@@Z 00000001800352f0 f   PxAutoGeneratedMetaDataObjects.obj
 0001:00034740       ??0PxSphereGeometryGeneratedInfo@physx@@QEAA@XZ 0000000180035740 f   PxAutoGeneratedMetaDataObjects.obj
 0001:00034770       ??0PxSphereGeometryGeneratedValues@physx@@QEAA@PEBVPxSphereGeometry@1@@Z 0000000180035770 f   PxAutoGeneratedMetaDataObjects.obj
 0001:00034780       ??0PxTetrahedronMeshGeometryGeneratedInfo@physx@@QEAA@XZ 0000000180035780 f   PxAutoGeneratedMetaDataObjects.obj
 0001:000347b0       ??0PxTetrahedronMeshGeometryGeneratedValues@physx@@QEAA@PEBVPxTetrahedronMeshGeometry@1@@Z 00000001800357b0 f   PxAutoGeneratedMetaDataObjects.obj
 0001:000347c0       ??0PxTolerancesScaleGeneratedInfo@physx@@QEAA@XZ 00000001800357c0 f   PxAutoGeneratedMetaDataObjects.obj
 0001:00034830       ??0PxTolerancesScaleGeneratedValues@physx@@QEAA@PEBVPxTolerancesScale@1@@Z 0000000180035830 f   PxAutoGeneratedMetaDataObjects.obj
 0001:00034850       ??0PxTriangleMeshGeometryGeneratedInfo@physx@@QEAA@XZ 0000000180035850 f   PxAutoGeneratedMetaDataObjects.obj
 0001:000348d0       ??0PxTriangleMeshGeometryGeneratedValues@physx@@QEAA@PEBVPxTriangleMeshGeometry@1@@Z 00000001800358d0 f   PxAutoGeneratedMetaDataObjects.obj
 0001:00034910       ??0PxgDynamicsMemoryConfigGeneratedInfo@physx@@QEAA@XZ 0000000180035910 f   PxAutoGeneratedMetaDataObjects.obj
 0001:00034b80       ??0PxgDynamicsMemoryConfigGeneratedValues@physx@@QEAA@PEBUPxgDynamicsMemoryConfig@1@@Z 0000000180035b80 f   PxAutoGeneratedMetaDataObjects.obj
 0001:00034bf0       ?createPxPhysics_BVHs@@YAPEAVPxBVH@physx@@PEAVPxPhysics@2@AEAVPxInputStream@2@@Z 0000000180035bf0 f   PxAutoGeneratedMetaDataObjects.obj
 0001:00034bf0       ?createPxPhysics_BVHStructures@@YAPEAVPxBVH@physx@@PEAVPxPhysics@2@AEAVPxInputStream@2@@Z 0000000180035bf0 f   PxAutoGeneratedMetaDataObjects.obj
 0001:00034bf0       ?setPxScene_Limits@@YAXPEAVPxScene@physx@@AEBVPxSceneLimits@2@@Z 0000000180035bf0 f   PxAutoGeneratedMetaDataObjects.obj
 0001:00034bf0       ?setPxMaterial_FrictionCombineMode@@YAXPEAVPxMaterial@physx@@W4Enum@PxCombineMode@2@@Z 0000000180035bf0 f   PxAutoGeneratedMetaDataObjects.obj
 0001:00034bf0       ?setPxArticulationReducedCoordinate_MaxCOMAngularVelocity@@YAXPEAVPxArticulationReducedCoordinate@physx@@M@Z 0000000180035bf0 f   PxAutoGeneratedMetaDataObjects.obj
 0001:00034bf0       ?getPxPBDMaterial_Viscosity@@YAMPEBVPxPBDMaterial@physx@@@Z 0000000180035bf0 f   PxAutoGeneratedMetaDataObjects.obj
 0001:00034c00       ?setPxFEMSoftBodyMaterial_DampingScale@@YAXPEAVPxFEMSoftBodyMaterial@physx@@M@Z 0000000180035c00 f   PxAutoGeneratedMetaDataObjects.obj
 0001:00034c00       ?getPxActor_OwnerClient@@YAEPEBVPxActor@physx@@@Z 0000000180035c00 f   PxAutoGeneratedMetaDataObjects.obj
 0001:00034c00       ?setPxConstraint_MinResponseThreshold@@YAXPEAVPxConstraint@physx@@M@Z 0000000180035c00 f   PxAutoGeneratedMetaDataObjects.obj
 0001:00034c00       ?setPxParticleMaterial_AdhesionRadiusScale@@YAXPEAVPxParticleMaterial@physx@@M@Z 0000000180035c00 f   PxAutoGeneratedMetaDataObjects.obj
 0001:00034c00       ?createPxPhysics_ConvexMeshes@@YAPEAVPxConvexMesh@physx@@PEAVPxPhysics@2@AEAVPxInputStream@2@@Z 0000000180035c00 f   PxAutoGeneratedMetaDataObjects.obj
 0001:00034c10       ?getPxScene_FilterShaderDataSize@@YAIPEBVPxScene@physx@@@Z 0000000180035c10 f   PxAutoGeneratedMetaDataObjects.obj
 0001:00034c10       ?createPxPhysics_CustomMaterials@@YAPEAVPxCustomMaterial@physx@@PEAVPxPhysics@2@PEAX@Z 0000000180035c10 f   PxAutoGeneratedMetaDataObjects.obj
 0001:00034c10       ?setPxRigidDynamic_SleepThreshold@@YAXPEAVPxRigidDynamic@physx@@M@Z 0000000180035c10 f   PxAutoGeneratedMetaDataObjects.obj
 0001:00034c10       ?getNbPxArticulationLink_Children@@YAIPEBVPxArticulationLink@physx@@@Z 0000000180035c10 f   PxAutoGeneratedMetaDataObjects.obj
 0001:00034c20       ?getPxConstraint_IsValid@@YA_NPEBVPxConstraint@physx@@@Z 0000000180035c20 f   PxAutoGeneratedMetaDataObjects.obj
 0001:00034c20       ?setPxShape_SimulationFilterData@@YAXPEAVPxShape@physx@@AEBUPxFilterData@2@@Z 0000000180035c20 f   PxAutoGeneratedMetaDataObjects.obj
 0001:00034c20       ?getPxParticleMaterial_Adhesion@@YAMPEBVPxParticleMaterial@physx@@@Z 0000000180035c20 f   PxAutoGeneratedMetaDataObjects.obj
 0001:00034c20       ?setPxArticulationReducedCoordinate_WakeCounter@@YAXPEAVPxArticulationReducedCoordinate@physx@@M@Z 0000000180035c20 f   PxAutoGeneratedMetaDataObjects.obj
 0001:00034c20       ?setPxActor_DominanceGroup@@YAXPEAVPxActor@physx@@E@Z 0000000180035c20 f   PxAutoGeneratedMetaDataObjects.obj
 0001:00034c20       ?getPxFEMMaterial_DynamicFriction@@YAMPEBVPxFEMMaterial@physx@@@Z 0000000180035c20 f   PxAutoGeneratedMetaDataObjects.obj
 0001:00034c20       ?setPxArticulationJointReducedCoordinate_Motion@@YAXPEAVPxArticulationJointReducedCoordinate@physx@@W4Enum@PxArticulationAxis@2@W43PxArticulationMotion@2@@Z 0000000180035c20 f   PxAutoGeneratedMetaDataObjects.obj
 0001:00034c20       ?getPxMaterial_Restitution@@YAMPEBVPxMaterial@physx@@@Z 0000000180035c20 f   PxAutoGeneratedMetaDataObjects.obj
 0001:00034c20       ?createPxPhysics_HeightFields@@YAPEAVPxHeightField@physx@@PEAVPxPhysics@2@AEAVPxInputStream@2@@Z 0000000180035c20 f   PxAutoGeneratedMetaDataObjects.obj
 0001:00034c30       ?createPxPhysics_Scenes@@YAPEAVPxScene@physx@@PEAVPxPhysics@2@AEBVPxSceneDesc@2@@Z 0000000180035c30 f   PxAutoGeneratedMetaDataObjects.obj
 0001:00034c30       ?getNbPxArticulationReducedCoordinate_Links@@YAIPEBVPxArticulationReducedCoordinate@physx@@@Z 0000000180035c30 f   PxAutoGeneratedMetaDataObjects.obj
 0001:00034c30       ?getPxMaterial_RestitutionCombineMode@@YA?AW4Enum@PxCombineMode@physx@@PEBVPxMaterial@3@@Z 0000000180035c30 f   PxAutoGeneratedMetaDataObjects.obj
 0001:00034c30       ?setPxPBDMaterial_SurfaceTension@@YAXPEAVPxPBDMaterial@physx@@M@Z 0000000180035c30 f   PxAutoGeneratedMetaDataObjects.obj
 0001:00034c30       ?getPxScene_Timestamp@@YAIPEBVPxScene@physx@@@Z 0000000180035c30 f   PxAutoGeneratedMetaDataObjects.obj
 0001:00034c40       ?createPxPhysics_TetrahedronMeshes@@YAPEAVPxTetrahedronMesh@physx@@PEAVPxPhysics@2@AEAVPxInputStream@2@@Z 0000000180035c40 f   PxAutoGeneratedMetaDataObjects.obj
 0001:00034c40       ?getPxFEMMaterial_YoungsModulus@@YAMPEBVPxFEMMaterial@physx@@@Z 0000000180035c40 f   PxAutoGeneratedMetaDataObjects.obj
 0001:00034c40       ?setPxArticulationJointReducedCoordinate_ChildPose@@YAXPEAVPxArticulationJointReducedCoordinate@physx@@AEBV?$PxTransformT@M@2@@Z 0000000180035c40 f   PxAutoGeneratedMetaDataObjects.obj
 0001:00034c40       ?getNbPxAggregate_Actors@@YAIPEBVPxAggregate@physx@@@Z 0000000180035c40 f   PxAutoGeneratedMetaDataObjects.obj
 0001:00034c40       ?setPxArticulationReducedCoordinate_SleepThreshold@@YAXPEAVPxArticulationReducedCoordinate@physx@@M@Z 0000000180035c40 f   PxAutoGeneratedMetaDataObjects.obj
 0001:00034c40       ?getPxParticleMaterial_Friction@@YAMPEBVPxParticleMaterial@physx@@@Z 0000000180035c40 f   PxAutoGeneratedMetaDataObjects.obj
 0001:00034c40       ?getPxMaterial_DynamicFriction@@YAMPEBVPxMaterial@physx@@@Z 0000000180035c40 f   PxAutoGeneratedMetaDataObjects.obj
 0001:00034c50       ?getNbPxPruningStructure_RigidActors@@YAIPEBVPxPruningStructure@physx@@@Z 0000000180035c50 f   PxAutoGeneratedMetaDataObjects.obj
 0001:00034c50       ?createPxPhysics_TriangleMeshes@@YAPEAVPxTriangleMesh@physx@@PEAVPxPhysics@2@AEAVPxInputStream@2@@Z 0000000180035c50 f   PxAutoGeneratedMetaDataObjects.obj
 0001:00034c50       ?setPxArticulationReducedCoordinate_SolverIterationCounts@@YAXPEAVPxArticulationReducedCoordinate@physx@@II@Z 0000000180035c50 f   PxAutoGeneratedMetaDataObjects.obj
 0001:00034c50       ?getPxActor_Scene@@YAPEAVPxScene@physx@@PEBVPxActor@2@@Z 0000000180035c50 f   PxAutoGeneratedMetaDataObjects.obj
 0001:00034c50       ?getPxSceneQuerySystemBase_StaticTimestamp@@YAIPEBVPxSceneQuerySystemBase@physx@@@Z 0000000180035c50 f   PxAutoGeneratedMetaDataObjects.obj
 0001:00034c50       ?setPxArticulationJointReducedCoordinate_ParentPose@@YAXPEAVPxArticulationJointReducedCoordinate@physx@@AEBV?$PxTransformT@M@2@@Z 0000000180035c50 f   PxAutoGeneratedMetaDataObjects.obj
 0001:00034c50       ?getPxSceneSQSystem_SceneQueryStaticTimestamp@@YAIPEBVPxSceneSQSystem@physx@@@Z 0000000180035c50 f   PxAutoGeneratedMetaDataObjects.obj
 0001:00034c50       ?getPxConstraint_Actors@@YAXPEBVPxConstraint@physx@@AEAPEAVPxRigidActor@2@1@Z 0000000180035c50 f   PxAutoGeneratedMetaDataObjects.obj
 0001:00034c60       ?getPxArticulationReducedCoordinate_MaxCOMAngularVelocity@@YAMPEBVPxArticulationReducedCoordinate@physx@@@Z 0000000180035c60 f   PxAutoGeneratedMetaDataObjects.obj
 0001:00034c60       ?getNbPxPhysics_BVHStructures@@YAIPEBVPxPhysics@physx@@@Z 0000000180035c60 f   PxAutoGeneratedMetaDataObjects.obj
 0001:00034c60       ?getPxMaterial_FrictionCombineMode@@YA?AW4Enum@PxCombineMode@physx@@PEBVPxMaterial@3@@Z 0000000180035c60 f   PxAutoGeneratedMetaDataObjects.obj
 0001:00034c60       ?setPxPBDMaterial_VorticityConfinement@@YAXPEAVPxPBDMaterial@physx@@M@Z 0000000180035c60 f   PxAutoGeneratedMetaDataObjects.obj
 0001:00034c60       ?getNbPxPhysics_BVHs@@YAIPEBVPxPhysics@physx@@@Z 0000000180035c60 f   PxAutoGeneratedMetaDataObjects.obj
 0001:00034c70       ?getNbPxPhysics_ConvexMeshes@@YAIPEBVPxPhysics@physx@@@Z 0000000180035c70 f   PxAutoGeneratedMetaDataObjects.obj
 0001:00034c70       ?getPxParticleMaterial_AdhesionRadiusScale@@YAMPEBVPxParticleMaterial@physx@@@Z 0000000180035c70 f   PxAutoGeneratedMetaDataObjects.obj
 0001:00034c70       ?setPxArticulationReducedCoordinate_MaxCOMLinearVelocity@@YAXPEAVPxArticulationReducedCoordinate@physx@@M@Z 0000000180035c70 f   PxAutoGeneratedMetaDataObjects.obj
 0001:00034c70       ?getPxActor_Aggregate@@YAPEAVPxAggregate@physx@@PEBVPxActor@2@@Z 0000000180035c70 f   PxAutoGeneratedMetaDataObjects.obj
 0001:00034c70       ?getPxFEMSoftBodyMaterial_DampingScale@@YAMPEBVPxFEMSoftBodyMaterial@physx@@@Z 0000000180035c70 f   PxAutoGeneratedMetaDataObjects.obj
 0001:00034c70       ?getPxConstraint_MinResponseThreshold@@YAMPEBVPxConstraint@physx@@@Z 0000000180035c70 f   PxAutoGeneratedMetaDataObjects.obj
 0001:00034c80       ?getPxScene_FilterShader@@YAP6A?AV?$PxFlags@W4Enum@PxFilterFlag@physx@@G@physx@@IUPxFilterData@2@I0AEAV?$PxFlags@W4Enum@PxPairFlag@physx@@G@2@PEBXI@ZPEBVPxScene@2@@Z 0000000180035c80 f   PxAutoGeneratedMetaDataObjects.obj
 0001:00034c80       ?getNbPxPhysics_CustomMaterials@@YAIPEBVPxPhysics@physx@@@Z 0000000180035c80 f   PxAutoGeneratedMetaDataObjects.obj
 0001:00034c80       ?getPxRigidDynamic_SleepThreshold@@YAMPEBVPxRigidDynamic@physx@@@Z 0000000180035c80 f   PxAutoGeneratedMetaDataObjects.obj
 0001:00034c80       ?getPxArticulationLink_LinkIndex@@YAIPEBVPxArticulationLink@physx@@@Z 0000000180035c80 f   PxAutoGeneratedMetaDataObjects.obj
 0001:00034c90       ?getNbPxPhysics_FEMClothMaterials@@YAIPEBVPxPhysics@physx@@@Z 0000000180035c90 f   PxAutoGeneratedMetaDataObjects.obj
 0001:00034c90       ?getPxRigidBody_MinCCDAdvanceCoefficient@@YAMPEBVPxRigidBody@physx@@@Z 0000000180035c90 f   PxAutoGeneratedMetaDataObjects.obj
 0001:00034ca0       ?getNbPxPhysics_FEMSoftBodyMaterials@@YAIPEBVPxPhysics@physx@@@Z 0000000180035ca0 f   PxAutoGeneratedMetaDataObjects.obj
 0001:00034cb0       ?setPxParticleMaterial_GravityScale@@YAXPEAVPxParticleMaterial@physx@@M@Z 0000000180035cb0 f   PxAutoGeneratedMetaDataObjects.obj
 0001:00034cb0       ?getNbPxPhysics_HeightFields@@YAIPEBVPxPhysics@physx@@@Z 0000000180035cb0 f   PxAutoGeneratedMetaDataObjects.obj
 0001:00034cb0       ?getPxArticulationReducedCoordinate_WakeCounter@@YAMPEBVPxArticulationReducedCoordinate@physx@@@Z 0000000180035cb0 f   PxAutoGeneratedMetaDataObjects.obj
 0001:00034cb0       ?getPxActor_DominanceGroup@@YAEPEBVPxActor@physx@@@Z 0000000180035cb0 f   PxAutoGeneratedMetaDataObjects.obj
 0001:00034cb0       ?setPxFEMSoftBodyMaterial_Damping@@YAXPEAVPxFEMSoftBodyMaterial@physx@@M@Z 0000000180035cb0 f   PxAutoGeneratedMetaDataObjects.obj
 0001:00034cb0       ?getPxArticulationJointReducedCoordinate_Motion@@YA?AW4Enum@PxArticulationMotion@physx@@PEBVPxArticulationJointReducedCoordinate@3@W41PxArticulationAxis@3@@Z 0000000180035cb0 f   PxAutoGeneratedMetaDataObjects.obj
 0001:00034cb0       ?getPxAggregate_SelfCollision@@YA_NPEBVPxAggregate@physx@@@Z 0000000180035cb0 f   PxAutoGeneratedMetaDataObjects.obj
 0001:00034cb0       ?setPxMaterial_Damping@@YAXPEAVPxMaterial@physx@@M@Z 0000000180035cb0 f   PxAutoGeneratedMetaDataObjects.obj
 0001:00034cb0       ?setPxConstraint_BreakForce@@YAXPEAVPxConstraint@physx@@MM@Z 0000000180035cb0 f   PxAutoGeneratedMetaDataObjects.obj
 0001:00034cc0       ?getNbPxPhysics_Materials@@YAIPEBVPxPhysics@physx@@@Z 0000000180035cc0 f   PxAutoGeneratedMetaDataObjects.obj
 0001:00034cc0       ?getNbPxScene_Aggregates@@YAIPEBVPxScene@physx@@@Z 0000000180035cc0 f   PxAutoGeneratedMetaDataObjects.obj
 0001:00034cd0       ?getNbPxPhysics_PBDMaterials@@YAIPEBVPxPhysics@physx@@@Z 0000000180035cd0 f   PxAutoGeneratedMetaDataObjects.obj
 0001:00034cd0       ?setPxRigidBody_MaxContactImpulse@@YAXPEAVPxRigidBody@physx@@M@Z 0000000180035cd0 f   PxAutoGeneratedMetaDataObjects.obj
 0001:00034cd0       ?setPxScene_ContactModifyCallback@@YAXPEAVPxScene@physx@@PEAVPxContactModifyCallback@2@@Z 0000000180035cd0 f   PxAutoGeneratedMetaDataObjects.obj
 0001:00034ce0       ?getNbPxRigidActor_Shapes@@YAIPEBVPxRigidActor@physx@@@Z 0000000180035ce0 f   PxAutoGeneratedMetaDataObjects.obj
 0001:00034ce0       ?getPxPBDMaterial_SurfaceTension@@YAMPEBVPxPBDMaterial@physx@@@Z 0000000180035ce0 f   PxAutoGeneratedMetaDataObjects.obj
 0001:00034ce0       ?setPxArticulationJointReducedCoordinate_Armature@@YAXPEAVPxArticulationJointReducedCoordinate@physx@@W4Enum@PxArticulationAxis@2@M@Z 0000000180035ce0 f   PxAutoGeneratedMetaDataObjects.obj
 0001:00034ce0       ?getNbPxPhysics_Scenes@@YAIPEBVPxPhysics@physx@@@Z 0000000180035ce0 f   PxAutoGeneratedMetaDataObjects.obj
 0001:00034cf0       ?getPxPBDMaterial_CFLCoefficient@@YAMPEBVPxPBDMaterial@physx@@@Z 0000000180035cf0 f   PxAutoGeneratedMetaDataObjects.obj
 0001:00034cf0       ?getNbPxPhysics_Shapes@@YAIPEBVPxPhysics@physx@@@Z 0000000180035cf0 f   PxAutoGeneratedMetaDataObjects.obj
 0001:00034cf0       ?getPxRigidBody_InvMass@@YAMPEBVPxRigidBody@physx@@@Z 0000000180035cf0 f   PxAutoGeneratedMetaDataObjects.obj
 0001:00034cf0       ?setPxShape_TorsionalPatchRadius@@YAXPEAVPxShape@physx@@M@Z 0000000180035cf0 f   PxAutoGeneratedMetaDataObjects.obj
 0001:00034cf0       ?setPxArticulationJointReducedCoordinate_JointVelocity@@YAXPEAVPxArticulationJointReducedCoordinate@physx@@W4Enum@PxArticulationAxis@2@M@Z 0000000180035cf0 f   PxAutoGeneratedMetaDataObjects.obj
 0001:00034d00       ?getNbPxPhysics_TetrahedronMeshes@@YAIPEBVPxPhysics@physx@@@Z 0000000180035d00 f   PxAutoGeneratedMetaDataObjects.obj
 0001:00034d00       ?setPxArticulationReducedCoordinate_StabilizationThreshold@@YAXPEAVPxArticulationReducedCoordinate@physx@@M@Z 0000000180035d00 f   PxAutoGeneratedMetaDataObjects.obj
 0001:00034d00       ?getPxFEMMaterial_Poissons@@YAMPEBVPxFEMMaterial@physx@@@Z 0000000180035d00 f   PxAutoGeneratedMetaDataObjects.obj
 0001:00034d00       ?setPxArticulationJointReducedCoordinate_JointType@@YAXPEAVPxArticulationJointReducedCoordinate@physx@@W4Enum@PxArticulationJointType@2@@Z 0000000180035d00 f   PxAutoGeneratedMetaDataObjects.obj
 0001:00034d00       ?getPxMaterial_StaticFriction@@YAMPEBVPxMaterial@physx@@@Z 0000000180035d00 f   PxAutoGeneratedMetaDataObjects.obj
 0001:00034d00       ?getPxAggregate_MaxNbShapes@@YAIPEBVPxAggregate@physx@@@Z 0000000180035d00 f   PxAutoGeneratedMetaDataObjects.obj
 0001:00034d00       ?setPxShape_LocalPose@@YAXPEAVPxShape@physx@@AEBV?$PxTransformT@M@2@@Z 0000000180035d00 f   PxAutoGeneratedMetaDataObjects.obj
 0001:00034d00       ?getPxParticleMaterial_Damping@@YAMPEBVPxParticleMaterial@physx@@@Z 0000000180035d00 f   PxAutoGeneratedMetaDataObjects.obj
 0001:00034d00       ?getPxSceneSQSystem_StaticStructure@@YA?AW4Enum@PxPruningStructureType@physx@@PEBVPxSceneSQSystem@3@@Z 0000000180035d00 f   PxAutoGeneratedMetaDataObjects.obj
 0001:00034d10       ?getPxArticulationReducedCoordinate_SolverIterationCounts@@YAXPEBVPxArticulationReducedCoordinate@physx@@AEAI1@Z 0000000180035d10 f   PxAutoGeneratedMetaDataObjects.obj
 0001:00034d10       ?setPxActor_Name@@YAXPEAVPxActor@physx@@PEBD@Z 0000000180035d10 f   PxAutoGeneratedMetaDataObjects.obj
 0001:00034d10       ?getNbPxPhysics_TriangleMeshes@@YAIPEBVPxPhysics@physx@@@Z 0000000180035d10 f   PxAutoGeneratedMetaDataObjects.obj
 0001:00034d10       ?setPxConstraint_Actors@@YAXPEAVPxConstraint@physx@@PEAVPxRigidActor@2@1@Z 0000000180035d10 f   PxAutoGeneratedMetaDataObjects.obj
 0001:00034d10       ?getPxPruningStructure_StaticMergeData@@YAPEBXPEBVPxPruningStructure@physx@@@Z 0000000180035d10 f   PxAutoGeneratedMetaDataObjects.obj
 0001:00034d20       ?setPxArticulationReducedCoordinate_Name@@YAXPEAVPxArticulationReducedCoordinate@physx@@PEBD@Z 0000000180035d20 f   PxAutoGeneratedMetaDataObjects.obj
 0001:00034d20       ?getNbPxRigidActor_Constraints@@YAIPEBVPxRigidActor@physx@@@Z 0000000180035d20 f   PxAutoGeneratedMetaDataObjects.obj
 0001:00034d20       ?setPxShape_ContactOffset@@YAXPEAVPxShape@physx@@M@Z 0000000180035d20 f   PxAutoGeneratedMetaDataObjects.obj
 0001:00034d20       ?getPxPBDMaterial_Cohesion@@YAMPEBVPxPBDMaterial@physx@@@Z 0000000180035d20 f   PxAutoGeneratedMetaDataObjects.obj
 0001:00034d20       ?setPxArticulationJointReducedCoordinate_FrictionCoefficient@@YAXPEAVPxArticulationJointReducedCoordinate@physx@@M@Z 0000000180035d20 f   PxAutoGeneratedMetaDataObjects.obj
 0001:00034d30       ?getNbPxScene_Actors@@YAIPEBVPxScene@physx@@V?$PxFlags@W4Enum@PxActorTypeFlag@physx@@G@2@@Z 0000000180035d30 f   PxAutoGeneratedMetaDataObjects.obj
 0001:00034d50       ?getNbPxScene_Articulations@@YAIPEBVPxScene@physx@@@Z 0000000180035d50 f   PxAutoGeneratedMetaDataObjects.obj
 0001:00034d50       ?getPxRigidBody_MaxAngularVelocity@@YAMPEBVPxRigidBody@physx@@@Z 0000000180035d50 f   PxAutoGeneratedMetaDataObjects.obj
 0001:00034d60       ?getNbPxScene_BroadPhaseRegions@@YAIPEBVPxScene@physx@@@Z 0000000180035d60 f   PxAutoGeneratedMetaDataObjects.obj
 0001:00034d70       ?getNbPxScene_Constraints@@YAIPEBVPxScene@physx@@@Z 0000000180035d70 f   PxAutoGeneratedMetaDataObjects.obj
 0001:00034d80       ?getNbPxScene_SoftBodies@@YAIPEBVPxScene@physx@@@Z 0000000180035d80 f   PxAutoGeneratedMetaDataObjects.obj
 0001:00034d80       ?getPxRigidBody_LinearDamping@@YAMPEBVPxRigidBody@physx@@@Z 0000000180035d80 f   PxAutoGeneratedMetaDataObjects.obj
 0001:00034d90       ?getNbPxShape_Materials@@YAIPEBVPxShape@physx@@@Z 0000000180035d90 f   PxAutoGeneratedMetaDataObjects.obj
 0001:00034db0       ?getPxBroadPhaseDescMContextManager@@YAPEAVPxCudaContextManager@physx@@PEBVPxBroadPhaseDesc@2@@Z 0000000180035db0 f i PxAutoGeneratedMetaDataObjects.obj
 0001:00034db0       ?getPxArticulationJointReducedCoordinateUserData@@YAPEAXPEBVPxArticulationJointReducedCoordinate@physx@@@Z 0000000180035db0 f i PxAutoGeneratedMetaDataObjects.obj
 0001:00034db0       ?getPxArticulationReducedCoordinateUserData@@YAPEAXPEBVPxArticulationReducedCoordinate@physx@@@Z 0000000180035db0 f i PxAutoGeneratedMetaDataObjects.obj
 0001:00034db0       ?getPxBaseMaterialUserData@@YAPEAXPEBVPxBaseMaterial@physx@@@Z 0000000180035db0 f i PxAutoGeneratedMetaDataObjects.obj
 0001:00034db0       ?getPxAggregateUserData@@YAPEAXPEBVPxAggregate@physx@@@Z 0000000180035db0 f i PxAutoGeneratedMetaDataObjects.obj
 0001:00034db0       ?getPxActorUserData@@YAPEAXPEBVPxActor@physx@@@Z 0000000180035db0 f i PxAutoGeneratedMetaDataObjects.obj
 0001:00034db0       ?getOmniPvd@NpPhysics@physx@@UEAAPEAVPxOmniPvd@2@XZ 0000000180035db0 f i NpPhysics.obj
 0001:00034db0       ?getPxShapeUserData@@YAPEAXPEBVPxShape@physx@@@Z 0000000180035db0 f i PxAutoGeneratedMetaDataObjects.obj
 0001:00034db0       ?getCpuDispatcher@PxTaskMgr@physx@@UEBAPEAVPxCpuDispatcher@2@XZ 0000000180035db0 f i PhysXTask_static_64:TaskManager.obj
 0001:00034db0       ?getPxConstraintUserData@@YAPEAXPEBVPxConstraint@physx@@@Z 0000000180035db0 f i PxAutoGeneratedMetaDataObjects.obj
 0001:00034dc0       ?getPxActor_ActorFlags@@YA?AV?$PxFlags@W4Enum@PxActorFlag@physx@@E@physx@@PEBVPxActor@2@@Z 0000000180035dc0 f   PxAutoGeneratedMetaDataObjects.obj
 0001:00034dc0       ?getPxShape_LocalPose@@YA?AV?$PxTransformT@M@physx@@PEBVPxShape@2@@Z 0000000180035dc0 f   PxAutoGeneratedMetaDataObjects.obj
 0001:00034df0       ?setPxParticleMaterial_Friction@@YAXPEAVPxParticleMaterial@physx@@M@Z 0000000180035df0 f   PxAutoGeneratedMetaDataObjects.obj
 0001:00034df0       ?setPxShape_Geom@PxShapeGeomProperty@physx@@SAXPEAVPxShape@2@AEBVPxGeometry@2@@Z 0000000180035df0 f   PxAutoGeneratedMetaDataObjects.obj
 0001:00034df0       ?setPxFEMMaterial_YoungsModulus@@YAXPEAVPxFEMMaterial@physx@@M@Z 0000000180035df0 f   PxAutoGeneratedMetaDataObjects.obj
 0001:00034df0       ?getPxPruningStructure_DynamicMergeData@@YAPEBXPEBVPxPruningStructure@physx@@@Z 0000000180035df0 f   PxAutoGeneratedMetaDataObjects.obj
 0001:00034df0       ?setPxMaterial_DynamicFriction@@YAXPEAVPxMaterial@physx@@M@Z 0000000180035df0 f   PxAutoGeneratedMetaDataObjects.obj
 0001:00034df0       ?getPxActor_Name@@YAPEBDPEBVPxActor@physx@@@Z 0000000180035df0 f   PxAutoGeneratedMetaDataObjects.obj
 0001:00034df0       ?getPxArticulationReducedCoordinate_IsSleeping@@YA_NPEBVPxArticulationReducedCoordinate@physx@@@Z 0000000180035df0 f   PxAutoGeneratedMetaDataObjects.obj
 0001:00034e00       ?getPxPhysics_TetrahedronMeshes@@YAIPEBVPxPhysics@physx@@PEAPEAVPxTetrahedronMesh@2@I@Z 0000000180035e00 f   PxAutoGeneratedMetaDataObjects.obj
 0001:00034e00       ?getPxAggregate_Actors@@YAIPEBVPxAggregate@physx@@PEAPEAVPxActor@2@I@Z 0000000180035e00 f   PxAutoGeneratedMetaDataObjects.obj
 0001:00034e10       ?setPxSceneQuerySystemBase_DynamicTreeRebuildRateHint@@YAXPEAVPxSceneQuerySystemBase@physx@@I@Z 0000000180035e10 f   PxAutoGeneratedMetaDataObjects.obj
 0001:00034e10       ?getPxPBDMaterial_ConcreteTypeName@@YAPEBDPEBVPxPBDMaterial@physx@@@Z 0000000180035e10 f   PxAutoGeneratedMetaDataObjects.obj
 0001:00034e10       ?getPxRigidDynamic_ConcreteTypeName@@YAPEBDPEBVPxRigidDynamic@physx@@@Z 0000000180035e10 f   PxAutoGeneratedMetaDataObjects.obj
 0001:00034e10       ?getPxFEMSoftBodyMaterial_ConcreteTypeName@@YAPEBDPEBVPxFEMSoftBodyMaterial@physx@@@Z 0000000180035e10 f   PxAutoGeneratedMetaDataObjects.obj
 0001:00034e10       ?getPxPruningStructure_ConcreteTypeName@@YAPEBDPEBVPxPruningStructure@physx@@@Z 0000000180035e10 f   PxAutoGeneratedMetaDataObjects.obj
 0001:00034e10       ?getPxShape_ConcreteTypeName@@YAPEBDPEBVPxShape@physx@@@Z 0000000180035e10 f   PxAutoGeneratedMetaDataObjects.obj
 0001:00034e10       ?getPxArticulationJointReducedCoordinate_ConcreteTypeName@@YAPEBDPEBVPxArticulationJointReducedCoordinate@physx@@@Z 0000000180035e10 f   PxAutoGeneratedMetaDataObjects.obj
 0001:00034e10       ?getPxRigidStatic_ConcreteTypeName@@YAPEBDPEBVPxRigidStatic@physx@@@Z 0000000180035e10 f   PxAutoGeneratedMetaDataObjects.obj
 0001:00034e10       ?getPxAggregate_ConcreteTypeName@@YAPEBDPEBVPxAggregate@physx@@@Z 0000000180035e10 f   PxAutoGeneratedMetaDataObjects.obj
 0001:00034e10       ?getPxArticulationLink_ConcreteTypeName@@YAPEBDPEBVPxArticulationLink@physx@@@Z 0000000180035e10 f   PxAutoGeneratedMetaDataObjects.obj
 0001:00034e10       ?getPxMaterial_ConcreteTypeName@@YAPEBDPEBVPxMaterial@physx@@@Z 0000000180035e10 f   PxAutoGeneratedMetaDataObjects.obj
 0001:00034e10       ?getPxConstraint_ConcreteTypeName@@YAPEBDPEBVPxConstraint@physx@@@Z 0000000180035e10 f   PxAutoGeneratedMetaDataObjects.obj
 0001:00034e20       ?setPxParticleMaterial_Damping@@YAXPEAVPxParticleMaterial@physx@@M@Z 0000000180035e20 f   PxAutoGeneratedMetaDataObjects.obj
 0001:00034e20       ?setPxFEMMaterial_Poissons@@YAXPEAVPxFEMMaterial@physx@@M@Z 0000000180035e20 f   PxAutoGeneratedMetaDataObjects.obj
 0001:00034e20       ?getPxArticulationReducedCoordinate_SleepThreshold@@YAMPEBVPxArticulationReducedCoordinate@physx@@@Z 0000000180035e20 f   PxAutoGeneratedMetaDataObjects.obj
 0001:00034e20       ?setPxMaterial_StaticFriction@@YAXPEAVPxMaterial@physx@@M@Z 0000000180035e20 f   PxAutoGeneratedMetaDataObjects.obj
 0001:00034e20       ?getPxAggregate_MaxNbActors@@YAIPEBVPxAggregate@physx@@@Z 0000000180035e20 f   PxAutoGeneratedMetaDataObjects.obj
 0001:00034e30       ?getDamping@ArticulationFixedTendonCore@Sc@physx@@QEBAMXZ 0000000180035e30 f i SimulationController_static_64:ScArticulationTendonCore.obj
 0001:00034e30       ?getPxArticulationDriveDamping@@YAMPEBUPxArticulationDrive@physx@@@Z 0000000180035e30 f i PxAutoGeneratedMetaDataObjects.obj
 0001:00034e30       ?getDamping@ArticulationSpatialTendonCore@Sc@physx@@QEBAMXZ 0000000180035e30 f i SimulationController_static_64:ScArticulationTendonCore.obj
 0001:00034e30       ?getPxArticulationLimitHigh@@YAMPEBUPxArticulationLimit@physx@@@Z 0000000180035e30 f i PxAutoGeneratedMetaDataObjects.obj
 0001:00034e30       ?getPxTolerancesScaleSpeed@@YAMPEBVPxTolerancesScale@physx@@@Z 0000000180035e30 f i PxAutoGeneratedMetaDataObjects.obj
 0001:00034e40       ?getReferenceCount@NpFEMSoftBodyMaterial@physx@@UEBAIXZ 0000000180035e40 f i NpFEMSoftBodyMaterial.obj
 0001:00034e40       ?getPxArticulationDriveDriveType@@YA?AW4Enum@PxArticulationDriveType@physx@@PEBUPxArticulationDrive@3@@Z 0000000180035e40 f i PxAutoGeneratedMetaDataObjects.obj
 0001:00034e40       ?getReferenceCount@NpMaterial@physx@@UEBAIXZ 0000000180035e40 f i NpMaterial.obj
 0001:00034e40       ?getPxSceneQueryDescDynamicTreeSecondaryPruner@@YA?AW4Enum@PxDynamicTreeSecondaryPruner@physx@@PEBVPxSceneQueryDesc@3@@Z 0000000180035e40 f i PxAutoGeneratedMetaDataObjects.obj
 0001:00034e40       ?getPxSimulationStatisticsNbStaticBodies@@YAIPEBVPxSimulationStatistics@physx@@@Z 0000000180035e40 f i PxAutoGeneratedMetaDataObjects.obj
 0001:00034e40       ?length@DNameStatusNode@@UEBAHXZ 0000000180035e40 f i libvcruntime:undname.obj
 0001:00034e40       ?getReferenceCount@NpShape@physx@@UEBAIXZ 0000000180035e40 f i NpShape.obj
 0001:00034e40       ?getPxSceneLimitsMaxNbDynamicShapes@@YAIPEBVPxSceneLimits@physx@@@Z 0000000180035e40 f i PxAutoGeneratedMetaDataObjects.obj
 0001:00034e40       ?getPxgDynamicsMemoryConfigHeapCapacity@@YAIPEBUPxgDynamicsMemoryConfig@physx@@@Z 0000000180035e40 f i PxAutoGeneratedMetaDataObjects.obj
 0001:00034e40       ?raw_length@DNameStatusNode@@UEBAHXZ 0000000180035e40 f i libvcruntime:undname.obj
 0001:00034e40       ?getReferenceCount@NpPBDMaterial@physx@@UEBAIXZ 0000000180035e40 f i NpPBDMaterial.obj
 0001:00034e50       ?getPxCapsuleGeometryRadius@@YAMPEBVPxCapsuleGeometry@physx@@@Z 0000000180035e50 f i PxAutoGeneratedMetaDataObjects.obj
 0001:00034e50       ?getOffset@ArticulationFixedTendonCore@Sc@physx@@QEBAMXZ 0000000180035e50 f i SimulationController_static_64:ScArticulationTendonCore.obj
 0001:00034e50       ?getPxArticulationDriveMaxForce@@YAMPEBUPxArticulationDrive@physx@@@Z 0000000180035e50 f i PxAutoGeneratedMetaDataObjects.obj
 0001:00034e50       ?getPxSphereGeometryRadius@@YAMPEBVPxSphereGeometry@physx@@@Z 0000000180035e50 f i PxAutoGeneratedMetaDataObjects.obj
 0001:00034e50       ?getOffset@ArticulationSpatialTendonCore@Sc@physx@@QEBAMXZ 0000000180035e50 f i SimulationController_static_64:ScArticulationTendonCore.obj
 0001:00034e60       ?getPxTolerancesScaleLength@@YAMPEBVPxTolerancesScale@physx@@@Z 0000000180035e60 f i PxAutoGeneratedMetaDataObjects.obj
 0001:00034e60       ?getStiffness@ArticulationSpatialTendonCore@Sc@physx@@QEBAMXZ 0000000180035e60 f i SimulationController_static_64:ScArticulationTendonCore.obj
 0001:00034e60       ?getPxArticulationDriveStiffness@@YAMPEBUPxArticulationDrive@physx@@@Z 0000000180035e60 f i PxAutoGeneratedMetaDataObjects.obj
 0001:00034e60       ?getPxArticulationLimitLow@@YAMPEBUPxArticulationLimit@physx@@@Z 0000000180035e60 f i PxAutoGeneratedMetaDataObjects.obj
 0001:00034e60       ?getStiffness@ArticulationFixedTendonCore@Sc@physx@@QEBAMXZ 0000000180035e60 f i SimulationController_static_64:ScArticulationTendonCore.obj
 0001:00034e70       ?setPxPBDMaterial_Cohesion@@YAXPEAVPxPBDMaterial@physx@@M@Z 0000000180035e70 f   PxAutoGeneratedMetaDataObjects.obj
 0001:00034e70       ?getPxArticulationJointReducedCoordinate_Armature@@YAMPEBVPxArticulationJointReducedCoordinate@physx@@W4Enum@PxArticulationAxis@2@@Z 0000000180035e70 f   PxAutoGeneratedMetaDataObjects.obj
 0001:00034e80       ?getPxArticulationJointReducedCoordinate_ChildPose@@YA?AV?$PxTransformT@M@physx@@PEBVPxArticulationJointReducedCoordinate@2@@Z 0000000180035e80 f   PxAutoGeneratedMetaDataObjects.obj
 0001:00034eb0       ?getPxArticulationJointReducedCoordinate_DriveParams@@YA?AUPxArticulationDrive@physx@@PEBVPxArticulationJointReducedCoordinate@2@W4Enum@PxArticulationAxis@2@@Z 0000000180035eb0 f   PxAutoGeneratedMetaDataObjects.obj
 0001:00034ee0       ?getPxArticulationJointReducedCoordinate_FrictionCoefficient@@YAMPEBVPxArticulationJointReducedCoordinate@physx@@@Z 0000000180035ee0 f   PxAutoGeneratedMetaDataObjects.obj
 0001:00034ee0       ?getPxShape_ContactOffset@@YAMPEBVPxShape@physx@@@Z 0000000180035ee0 f   PxAutoGeneratedMetaDataObjects.obj
 0001:00034ee0       ?setPxPBDMaterial_Lift@@YAXPEAVPxPBDMaterial@physx@@M@Z 0000000180035ee0 f   PxAutoGeneratedMetaDataObjects.obj
 0001:00034ee0       ?getPxArticulationReducedCoordinate_Name@@YAPEBDPEBVPxArticulationReducedCoordinate@physx@@@Z 0000000180035ee0 f   PxAutoGeneratedMetaDataObjects.obj
 0001:00034ef0       ?setPxPBDMaterial_CFLCoefficient@@YAXPEAVPxPBDMaterial@physx@@M@Z 0000000180035ef0 f   PxAutoGeneratedMetaDataObjects.obj
 0001:00034ef0       ?getPxShape_DensityForFluid@@YAMPEBVPxShape@physx@@@Z 0000000180035ef0 f   PxAutoGeneratedMetaDataObjects.obj
 0001:00034ef0       ?getPxRigidBody_Mass@@YAMPEBVPxRigidBody@physx@@@Z 0000000180035ef0 f   PxAutoGeneratedMetaDataObjects.obj
 0001:00034ef0       ?getPxArticulationJointReducedCoordinate_JointPosition@@YAMPEBVPxArticulationJointReducedCoordinate@physx@@W4Enum@PxArticulationAxis@2@@Z 0000000180035ef0 f   PxAutoGeneratedMetaDataObjects.obj
 0001:00034f00       ?setPxParticleMaterial_Adhesion@@YAXPEAVPxParticleMaterial@physx@@M@Z 0000000180035f00 f   PxAutoGeneratedMetaDataObjects.obj
 0001:00034f00       ?setPxFEMMaterial_DynamicFriction@@YAXPEAVPxFEMMaterial@physx@@M@Z 0000000180035f00 f   PxAutoGeneratedMetaDataObjects.obj
 0001:00034f00       ?setPxMaterial_Restitution@@YAXPEAVPxMaterial@physx@@M@Z 0000000180035f00 f   PxAutoGeneratedMetaDataObjects.obj
 0001:00034f00       ?getPxArticulationReducedCoordinate_StabilizationThreshold@@YAMPEBVPxArticulationReducedCoordinate@physx@@@Z 0000000180035f00 f   PxAutoGeneratedMetaDataObjects.obj
 0001:00034f00       ?getPxArticulationJointReducedCoordinate_JointType@@YA?AW4Enum@PxArticulationJointType@physx@@PEBVPxArticulationJointReducedCoordinate@3@@Z 0000000180035f00 f   PxAutoGeneratedMetaDataObjects.obj
 0001:00034f00       ?getPxSceneSQSystem_DynamicStructure@@YA?AW4Enum@PxPruningStructureType@physx@@PEBVPxSceneSQSystem@3@@Z 0000000180035f00 f   PxAutoGeneratedMetaDataObjects.obj
 0001:00034f10       ?setPxPBDMaterial_ParticleFrictionScale@@YAXPEAVPxPBDMaterial@physx@@M@Z 0000000180035f10 f   PxAutoGeneratedMetaDataObjects.obj
 0001:00034f10       ?setPxRigidBody_MassSpaceInertiaTensor@@YAXPEAVPxRigidBody@physx@@AEBV?$PxVec3T@M@2@@Z 0000000180035f10 f   PxAutoGeneratedMetaDataObjects.obj
 0001:00034f10       ?getPxArticulationJointReducedCoordinate_JointVelocity@@YAMPEBVPxArticulationJointReducedCoordinate@physx@@W4Enum@PxArticulationAxis@2@@Z 0000000180035f10 f   PxAutoGeneratedMetaDataObjects.obj
 0001:00034f10       ?getPxShape_TorsionalPatchRadius@@YAMPEBVPxShape@physx@@@Z 0000000180035f10 f   PxAutoGeneratedMetaDataObjects.obj
 0001:00034f20       ?getPxArticulationJointReducedCoordinate_LimitParams@@YA?AUPxArticulationLimit@physx@@PEBVPxArticulationJointReducedCoordinate@2@W4Enum@PxArticulationAxis@2@@Z 0000000180035f20 f   PxAutoGeneratedMetaDataObjects.obj
 0001:00034f50       ?getPxArticulationReducedCoordinate_Aggregate@@YAPEAVPxAggregate@physx@@PEBVPxArticulationReducedCoordinate@2@@Z 0000000180035f50 f   PxAutoGeneratedMetaDataObjects.obj
 0001:00034f50       ?getPxArticulationJointReducedCoordinate_MaxJointVelocity@@YAMPEBVPxArticulationJointReducedCoordinate@physx@@@Z 0000000180035f50 f   PxAutoGeneratedMetaDataObjects.obj
 0001:00034f50       ?getPxShape_RestOffset@@YAMPEBVPxShape@physx@@@Z 0000000180035f50 f   PxAutoGeneratedMetaDataObjects.obj
 0001:00034f50       ?setPxPBDMaterial_Drag@@YAXPEAVPxPBDMaterial@physx@@M@Z 0000000180035f50 f   PxAutoGeneratedMetaDataObjects.obj
 0001:00034f60       ?getPxArticulationJointReducedCoordinate_ParentPose@@YA?AV?$PxTransformT@M@physx@@PEBVPxArticulationJointReducedCoordinate@2@@Z 0000000180035f60 f   PxAutoGeneratedMetaDataObjects.obj
 0001:00034f90       ?getPxRigidDynamic_AngularVelocity@@YA?AV?$PxVec3T@M@physx@@PEBVPxRigidDynamic@2@@Z 0000000180035f90 f   PxAutoGeneratedMetaDataObjects.obj
 0001:00034f90       ?getPxArticulationLink_AngularVelocity@@YA?AV?$PxVec3T@M@physx@@PEBVPxArticulationLink@2@@Z 0000000180035f90 f   PxAutoGeneratedMetaDataObjects.obj
 0001:00034fc0       ?getPxArticulationLink_CfmScale@@YAMPEBVPxArticulationLink@physx@@@Z 0000000180035fc0 f   PxAutoGeneratedMetaDataObjects.obj
 0001:00034fd0       ?getPxPhysics_CustomMaterials@@YAIPEBVPxPhysics@physx@@PEAPEAVPxCustomMaterial@2@I@Z 0000000180035fd0 f   PxAutoGeneratedMetaDataObjects.obj
 0001:00034fd0       ?getPxArticulationLink_Children@@YAIPEBVPxArticulationLink@physx@@PEAPEAV12@I@Z 0000000180035fd0 f   PxAutoGeneratedMetaDataObjects.obj
 0001:00034fe0       ?getPxArticulationLink_InboundJoint@@YAPEAVPxArticulationJointReducedCoordinate@physx@@PEBVPxArticulationLink@2@@Z 0000000180035fe0 f   PxAutoGeneratedMetaDataObjects.obj
 0001:00034ff0       ?getPxRigidDynamic_IsSleeping@@YA_NPEBVPxRigidDynamic@physx@@@Z 0000000180035ff0 f   PxAutoGeneratedMetaDataObjects.obj
 0001:00034ff0       ?getPxArticulationLink_InboundJointDof@@YAIPEBVPxArticulationLink@physx@@@Z 0000000180035ff0 f   PxAutoGeneratedMetaDataObjects.obj
 0001:00035000       ?getPxRigidDynamic_LinearVelocity@@YA?AV?$PxVec3T@M@physx@@PEBVPxRigidDynamic@2@@Z 0000000180036000 f   PxAutoGeneratedMetaDataObjects.obj
 0001:00035000       ?getPxArticulationLink_LinearVelocity@@YA?AV?$PxVec3T@M@physx@@PEBVPxArticulationLink@2@@Z 0000000180036000 f   PxAutoGeneratedMetaDataObjects.obj
 0001:00035030       ?getPxArticulationReducedCoordinate_ArticulationFlags@@YA?AV?$PxFlags@W4Enum@PxArticulationFlag@physx@@E@physx@@PEBVPxArticulationReducedCoordinate@2@@Z 0000000180036030 f   PxAutoGeneratedMetaDataObjects.obj
 0001:00035060       ?getPxArticulationReducedCoordinate_Links@@YAIPEBVPxArticulationReducedCoordinate@physx@@PEAPEAVPxArticulationLink@2@I@Z 0000000180036060 f   PxAutoGeneratedMetaDataObjects.obj
 0001:00035070       ?getPxArticulationReducedCoordinate_MaxCOMLinearVelocity@@YAMPEBVPxArticulationReducedCoordinate@physx@@@Z 0000000180036070 f   PxAutoGeneratedMetaDataObjects.obj
 0001:00035070       ?setPxPBDMaterial_Viscosity@@YAXPEAVPxPBDMaterial@physx@@M@Z 0000000180036070 f   PxAutoGeneratedMetaDataObjects.obj
 0001:00035080       ?getPxArticulationReducedCoordinate_RootAngularVelocity@@YA?AV?$PxVec3T@M@physx@@PEBVPxArticulationReducedCoordinate@2@@Z 0000000180036080 f   PxAutoGeneratedMetaDataObjects.obj
 0001:000350b0       ?getPxArticulationReducedCoordinate_RootGlobalPose@@YA?AV?$PxTransformT@M@physx@@PEBVPxArticulationReducedCoordinate@2@@Z 00000001800360b0 f   PxAutoGeneratedMetaDataObjects.obj
 0001:000350e0       ?getPxArticulationReducedCoordinate_RootLinearVelocity@@YA?AV?$PxVec3T@M@physx@@PEBVPxArticulationReducedCoordinate@2@@Z 00000001800360e0 f   PxAutoGeneratedMetaDataObjects.obj
 0001:00035110       ?getPxSceneQuerySystemBase_UpdateMode@@YA?AW4Enum@PxSceneQueryUpdateMode@physx@@PEBVPxSceneQuerySystemBase@3@@Z 0000000180036110 f   PxAutoGeneratedMetaDataObjects.obj
 0001:00035110       ?getPxConstraint_Scene@@YAPEAVPxScene@physx@@PEBVPxConstraint@2@@Z 0000000180036110 f   PxAutoGeneratedMetaDataObjects.obj
 0001:00035110       ?getPxArticulationReducedCoordinate_Scene@@YAPEAVPxScene@physx@@PEBVPxArticulationReducedCoordinate@2@@Z 0000000180036110 f   PxAutoGeneratedMetaDataObjects.obj
 0001:00035110       ?getPxRefCounted_ReferenceCount@@YAIPEBVPxRefCounted@physx@@@Z 0000000180036110 f   PxAutoGeneratedMetaDataObjects.obj
 0001:00035110       ?getPxSceneSQSystem_SceneQueryUpdateMode@@YA?AW4Enum@PxSceneQueryUpdateMode@physx@@PEBVPxSceneSQSystem@3@@Z 0000000180036110 f   PxAutoGeneratedMetaDataObjects.obj
 0001:00035120       ?getPxBroadPhaseDescMContextID@@YA_KPEBVPxBroadPhaseDesc@physx@@@Z 0000000180036120 f i PxAutoGeneratedMetaDataObjects.obj
 0001:00035120       ?getConcreteTypeName@?$PxSerializerDefaultAdapter@VNpArticulationSensor@physx@@@physx@@UEBAPEBDXZ 0000000180036120 f i NpSerializerAdapter.obj
 0001:00035120       ?getPoints@RenderBuffer@Cm@physx@@UEBAPEBUPxDebugPoint@3@XZ 0000000180036120 f i NpScene.obj
 0001:00035120       ?getConcreteTypeName@?$PxSerializerDefaultAdapter@VNpArticulationFixedTendon@physx@@@physx@@UEBAPEBDXZ 0000000180036120 f i NpSerializerAdapter.obj
 0001:00035120       ?getConcreteTypeName@?$PxSerializerDefaultAdapter@VBV4TriangleMesh@Gu@physx@@@physx@@UEBAPEBDXZ 0000000180036120 f i NpSerializerAdapter.obj
 0001:00035120       ?getConcreteTypeName@?$PxSerializerDefaultAdapter@VNpArticulationTendonJoint@physx@@@physx@@UEBAPEBDXZ 0000000180036120 f i NpSerializerAdapter.obj
 0001:00035120       ?getConcreteTypeName@?$PxSerializerDefaultAdapter@VNpConstraint@physx@@@physx@@UEBAPEBDXZ 0000000180036120 f i NpSerializerAdapter.obj
 0001:00035120       ?getPxSceneUserData@@YAPEAXPEBVPxScene@physx@@@Z 0000000180036120 f i PxAutoGeneratedMetaDataObjects.obj
 0001:00035120       ?getConcreteTypeName@?$PxSerializerDefaultAdapter@VNpArticulationReducedCoordinate@physx@@@physx@@UEBAPEBDXZ 0000000180036120 f i NpSerializerAdapter.obj
 0001:00035120       ?getConcreteTypeName@?$PxSerializerDefaultAdapter@VNpArticulationSpatialTendon@physx@@@physx@@UEBAPEBDXZ 0000000180036120 f i NpSerializerAdapter.obj
 0001:00035120       ?getConcreteTypeName@?$PxSerializerDefaultAdapter@VRTreeTriangleMesh@Gu@physx@@@physx@@UEBAPEBDXZ 0000000180036120 f i NpSerializerAdapter.obj
 0001:00035120       ?getPxTetrahedronMeshGeometryTetrahedronMesh@@YAPEAVPxTetrahedronMesh@physx@@PEBVPxTetrahedronMeshGeometry@2@@Z 0000000180036120 f i PxAutoGeneratedMetaDataObjects.obj
 0001:00035120       ?getConcreteTypeName@?$PxSerializerDefaultAdapter@VPruningStructure@Sq@physx@@@physx@@UEBAPEBDXZ 0000000180036120 f i NpSerializerAdapter.obj
 0001:00035120       ?getConcreteTypeName@?$PxSerializerDefaultAdapter@VHeightField@Gu@physx@@@physx@@UEBAPEBDXZ 0000000180036120 f i NpSerializerAdapter.obj
 0001:00035120       ?getConcreteTypeName@?$PxSerializerDefaultAdapter@VNpArticulationLink@physx@@@physx@@UEBAPEBDXZ 0000000180036120 f i NpSerializerAdapter.obj
 0001:00035120       ?getConcreteTypeName@?$PxSerializerDefaultAdapter@VNpShape@physx@@@physx@@UEBAPEBDXZ 0000000180036120 f i NpSerializerAdapter.obj
 0001:00035120       ?getConcreteTypeName@?$PxSerializerDefaultAdapter@VNpArticulationJointReducedCoordinate@physx@@@physx@@UEBAPEBDXZ 0000000180036120 f i NpSerializerAdapter.obj
 0001:00035120       ?getConcreteTypeName@?$PxSerializerDefaultAdapter@VNpArticulationAttachment@physx@@@physx@@UEBAPEBDXZ 0000000180036120 f i NpSerializerAdapter.obj
 0001:00035120       ?getConcreteTypeName@?$PxSerializerDefaultAdapter@VConvexMesh@Gu@physx@@@physx@@UEBAPEBDXZ 0000000180036120 f i NpSerializerAdapter.obj
 0001:00035120       ?getConcreteTypeName@?$PxSerializerDefaultAdapter@VNpRigidStatic@physx@@@physx@@UEBAPEBDXZ 0000000180036120 f i NpSerializerAdapter.obj
 0001:00035120       ?getConcreteTypeName@?$PxSerializerDefaultAdapter@VNpMaterial@physx@@@physx@@UEBAPEBDXZ 0000000180036120 f i NpSerializerAdapter.obj
 0001:00035120       ?getPxHeightFieldGeometryHeightField@@YAPEAVPxHeightField@physx@@PEBVPxHeightFieldGeometry@2@@Z 0000000180036120 f i PxAutoGeneratedMetaDataObjects.obj
 0001:00035120       ?getConcreteTypeName@?$PxSerializerDefaultAdapter@VNpAggregate@physx@@@physx@@UEBAPEBDXZ 0000000180036120 f i NpSerializerAdapter.obj
 0001:00035120       ?getConcreteTypeName@?$PxSerializerDefaultAdapter@VNpRigidDynamic@physx@@@physx@@UEBAPEBDXZ 0000000180036120 f i NpSerializerAdapter.obj
 0001:00035130       ?getPxBroadPhaseDescMDiscardKinematicVsKinematic@@YA_NPEBVPxBroadPhaseDesc@physx@@@Z 0000000180036130 f i PxAutoGeneratedMetaDataObjects.obj
 0001:00035140       ?getPxBroadPhaseDescMDiscardStaticVsKinematic@@YA_NPEBVPxBroadPhaseDesc@physx@@@Z 0000000180036140 f i PxAutoGeneratedMetaDataObjects.obj
 0001:00035150       ?getPxBroadPhaseDescMFoundLostPairsCapacity@@YAIPEBVPxBroadPhaseDesc@physx@@@Z 0000000180036150 f i PxAutoGeneratedMetaDataObjects.obj
 0001:00035150       ?getPxgDynamicsMemoryConfigTotalAggregatePairsCapacity@@YAIPEBUPxgDynamicsMemoryConfig@physx@@@Z 0000000180036150 f i PxAutoGeneratedMetaDataObjects.obj
 0001:00035150       ?getPxSceneQueryDescStaticNbObjectsPerNode@@YAIPEBVPxSceneQueryDesc@physx@@@Z 0000000180036150 f i PxAutoGeneratedMetaDataObjects.obj
 0001:00035150       ?getPxSceneLimitsMaxNbRegions@@YAIPEBVPxSceneLimits@physx@@@Z 0000000180036150 f i PxAutoGeneratedMetaDataObjects.obj
 0001:00035150       ?getReference@FanoutTask@Cm@physx@@UEBAHXZ 0000000180036150 f i SimulationController_static_64:ScScene.obj
 0001:00035150       ?raw_length@pairNode@@UEBAHXZ 0000000180036150 f i libvcruntime:undname.obj
 0001:00035160       ?getPxgDynamicsMemoryConfigTempBufferCapacity@@YAIPEBUPxgDynamicsMemoryConfig@physx@@@Z 0000000180036160 f i PxAutoGeneratedMetaDataObjects.obj
 0001:00035160       ?getPxSceneLimitsMaxNbActors@@YAIPEBVPxSceneLimits@physx@@@Z 0000000180036160 f i PxAutoGeneratedMetaDataObjects.obj
 0001:00035160       ?getPxSceneQueryDescStaticStructure@@YA?AW4Enum@PxPruningStructureType@physx@@PEBVPxSceneQueryDesc@3@@Z 0000000180036160 f i PxAutoGeneratedMetaDataObjects.obj
 0001:00035160       ?getPxBroadPhaseDescMType@@YA?AW4Enum@PxBroadPhaseType@physx@@PEBVPxBroadPhaseDesc@3@@Z 0000000180036160 f i PxAutoGeneratedMetaDataObjects.obj
 0001:00035160       ?getPxHeightFieldDescNbRows@@YAIPEBVPxHeightFieldDesc@physx@@@Z 0000000180036160 f i PxAutoGeneratedMetaDataObjects.obj
 0001:00035160       ?getPxSimulationStatisticsNbActiveConstraints@@YAIPEBVPxSimulationStatistics@physx@@@Z 0000000180036160 f i PxAutoGeneratedMetaDataObjects.obj
 0001:00035170       ?getPxBroadPhaseDesc_IsValid@@YA_NPEBVPxBroadPhaseDesc@physx@@@Z 0000000180036170 f   PxAutoGeneratedMetaDataObjects.obj
 0001:00035190       ?getLimitStiffness@ArticulationSpatialTendonCore@Sc@physx@@QEBAMXZ 0000000180036190 f i SimulationController_static_64:ScArticulationTendonCore.obj
 0001:00035190       ?getLimitStiffness@ArticulationFixedTendonCore@Sc@physx@@QEBAMXZ 0000000180036190 f i SimulationController_static_64:ScArticulationTendonCore.obj
 0001:00035190       ?getPxCapsuleGeometryHalfHeight@@YAMPEBVPxCapsuleGeometry@physx@@@Z 0000000180036190 f i PxAutoGeneratedMetaDataObjects.obj
 0001:000351a0       ?getPxParticleMaterial_GravityScale@@YAMPEBVPxParticleMaterial@physx@@@Z 00000001800361a0 f   PxAutoGeneratedMetaDataObjects.obj
 0001:000351a0       ?setPxShape_QueryFilterData@@YAXPEAVPxShape@physx@@AEBUPxFilterData@2@@Z 00000001800361a0 f   PxAutoGeneratedMetaDataObjects.obj
 0001:000351a0       ?getPxFEMSoftBodyMaterial_Damping@@YAMPEBVPxFEMSoftBodyMaterial@physx@@@Z 00000001800361a0 f   PxAutoGeneratedMetaDataObjects.obj
 0001:000351a0       ?setPxActor_OwnerClient@@YAXPEAVPxActor@physx@@E@Z 00000001800361a0 f   PxAutoGeneratedMetaDataObjects.obj
 0001:000351a0       ?getPxMaterial_Damping@@YAMPEBVPxMaterial@physx@@@Z 00000001800361a0 f   PxAutoGeneratedMetaDataObjects.obj
 0001:000351a0       ?getPxConstraint_BreakForce@@YAXPEBVPxConstraint@physx@@AEAM1@Z 00000001800361a0 f   PxAutoGeneratedMetaDataObjects.obj
 0001:000351b0       ?getPxConstraint_Flags@@YA?AV?$PxFlags@W4Enum@PxConstraintFlag@physx@@G@physx@@PEBVPxConstraint@2@@Z 00000001800361b0 f   PxAutoGeneratedMetaDataObjects.obj
 0001:000351e0       ?getPxConvexMeshGeometryMeshFlags@@YA?AV?$PxFlags@W4Enum@PxConvexMeshGeometryFlag@physx@@E@physx@@PEBVPxConvexMeshGeometry@2@@Z 00000001800361e0 f i PxAutoGeneratedMetaDataObjects.obj
 0001:000351f0       ?getPxTriangleMeshGeometryScale@@YA?AVPxMeshScale@physx@@PEBVPxTriangleMeshGeometry@2@@Z 00000001800361f0 f i PxAutoGeneratedMetaDataObjects.obj
 0001:000351f0       ?getPxConvexMeshGeometryScale@@YA?AVPxMeshScale@physx@@PEBVPxConvexMeshGeometry@2@@Z 00000001800361f0 f i PxAutoGeneratedMetaDataObjects.obj
 0001:00035220       ?getRestitution@NpMaterial@physx@@UEBAMXZ 0000000180036220 f i NpMaterial.obj
 0001:00035220       ?getPxHeightFieldDescConvexEdgeThreshold@@YAMPEBVPxHeightFieldDesc@physx@@@Z 0000000180036220 f i PxAutoGeneratedMetaDataObjects.obj
 0001:00035220       ?getYoungsModulus@NpFEMSoftBodyMaterial@physx@@UEBAMXZ 0000000180036220 f i NpFEMSoftBodyMaterial.obj
 0001:00035220       ?getAdhesion@NpPBDMaterial@physx@@UEBAMXZ 0000000180036220 f i NpPBDMaterial.obj
 0001:00035230       ?getPxHeightFieldDescFlags@@YA?AV?$PxFlags@W4Enum@PxHeightFieldFlag@physx@@G@physx@@PEBVPxHeightFieldDesc@2@@Z 0000000180036230 f i PxAutoGeneratedMetaDataObjects.obj
 0001:00035240       ?getPxgDynamicsMemoryConfigMaxRigidPatchCount@@YAIPEBUPxgDynamicsMemoryConfig@physx@@@Z 0000000180036240 f i PxAutoGeneratedMetaDataObjects.obj
 0001:00035240       ?getPxSceneQueryDescDynamicTreeRebuildRateHint@@YAIPEBVPxSceneQueryDesc@physx@@@Z 0000000180036240 f i PxAutoGeneratedMetaDataObjects.obj
 0001:00035240       ?getPxSimulationStatisticsNbActiveKinematicBodies@@YAIPEBVPxSimulationStatistics@physx@@@Z 0000000180036240 f i PxAutoGeneratedMetaDataObjects.obj
 0001:00035240       ?getPxHeightFieldDescFormat@@YA?AW4Enum@PxHeightFieldFormat@physx@@PEBVPxHeightFieldDesc@3@@Z 0000000180036240 f i PxAutoGeneratedMetaDataObjects.obj
 0001:00035240       ?getPxSceneLimitsMaxNbStaticShapes@@YAIPEBVPxSceneLimits@physx@@@Z 0000000180036240 f i PxAutoGeneratedMetaDataObjects.obj
 0001:00035250       ?getPxSimulationStatisticsNbActiveDynamicBodies@@YAIPEBVPxSimulationStatistics@physx@@@Z 0000000180036250 f i PxAutoGeneratedMetaDataObjects.obj
 0001:00035250       ?getPxHeightFieldDescNbColumns@@YAIPEBVPxHeightFieldDesc@physx@@@Z 0000000180036250 f i PxAutoGeneratedMetaDataObjects.obj
 0001:00035250       ?getPxgDynamicsMemoryConfigMaxRigidContactCount@@YAIPEBUPxgDynamicsMemoryConfig@physx@@@Z 0000000180036250 f i PxAutoGeneratedMetaDataObjects.obj
 0001:00035250       ?getPxSceneLimitsMaxNbBodies@@YAIPEBVPxSceneLimits@physx@@@Z 0000000180036250 f i PxAutoGeneratedMetaDataObjects.obj
 0001:00035250       ?getPxSceneQueryDescDynamicStructure@@YA?AW4Enum@PxPruningStructureType@physx@@PEBVPxSceneQueryDesc@3@@Z 0000000180036250 f i PxAutoGeneratedMetaDataObjects.obj
 0001:00035260       ?getPxHeightFieldDescSamples@@YA?AUPxStridedData@physx@@PEBVPxHeightFieldDesc@2@@Z 0000000180036260 f i PxAutoGeneratedMetaDataObjects.obj
 0001:00035270       ?getFriction@NpPBDMaterial@physx@@UEBAMXZ 0000000180036270 f i NpPBDMaterial.obj
 0001:00035270       ?getPxHeightFieldGeometryColumnScale@@YAMPEBVPxHeightFieldGeometry@physx@@@Z 0000000180036270 f i PxAutoGeneratedMetaDataObjects.obj
 0001:00035270       ?getDynamicFriction@NpMaterial@physx@@UEBAMXZ 0000000180036270 f i NpMaterial.obj
 0001:00035270       ?getSpringRestLength@ArticulationFixedTendonCore@Sc@physx@@QEBAMXZ 0000000180036270 f i SimulationController_static_64:ScArticulationTendonCore.obj
 0001:00035280       ?getPxHeightFieldGeometryHeightFieldFlags@@YA?AV?$PxFlags@W4Enum@PxMeshGeometryFlag@physx@@E@physx@@PEBVPxHeightFieldGeometry@2@@Z 0000000180036280 f i PxAutoGeneratedMetaDataObjects.obj
 0001:00035290       ?getPxHeightFieldGeometryHeightScale@@YAMPEBVPxHeightFieldGeometry@physx@@@Z 0000000180036290 f i PxAutoGeneratedMetaDataObjects.obj
 0001:000352a0       ?getPxHeightFieldGeometryRowScale@@YAMPEBVPxHeightFieldGeometry@physx@@@Z 00000001800362a0 f i PxAutoGeneratedMetaDataObjects.obj
 0001:000352b0       ?getPxMaterial_Flags@@YA?AV?$PxFlags@W4Enum@PxMaterialFlag@physx@@G@physx@@PEBVPxMaterial@2@@Z 00000001800362b0 f   PxAutoGeneratedMetaDataObjects.obj
 0001:000352b0       ?getPxScene_Flags@@YA?AV?$PxFlags@W4Enum@PxSceneFlag@physx@@I@physx@@PEBVPxScene@2@@Z 00000001800362b0 f   PxAutoGeneratedMetaDataObjects.obj
 0001:000352e0       ?getPxMeshScaleRotation@@YA?AV?$PxQuatT@M@physx@@PEBVPxMeshScale@2@@Z 00000001800362e0 f i PxAutoGeneratedMetaDataObjects.obj
 0001:00035300       ?getPxMeshScaleScale@@YA?AV?$PxVec3T@M@physx@@PEBVPxMeshScale@2@@Z 0000000180036300 f i PxAutoGeneratedMetaDataObjects.obj
 0001:00035320       ?getPxPBDMaterial_Drag@@YAMPEBVPxPBDMaterial@physx@@@Z 0000000180036320 f   PxAutoGeneratedMetaDataObjects.obj
 0001:00035320       ?setPxArticulationJointReducedCoordinate_JointPosition@@YAXPEAVPxArticulationJointReducedCoordinate@physx@@W4Enum@PxArticulationAxis@2@M@Z 0000000180036320 f   PxAutoGeneratedMetaDataObjects.obj
 0001:00035320       ?setPxShape_DensityForFluid@@YAXPEAVPxShape@physx@@M@Z 0000000180036320 f   PxAutoGeneratedMetaDataObjects.obj
 0001:00035320       ?setPxRigidBody_Mass@@YAXPEAVPxRigidBody@physx@@M@Z 0000000180036320 f   PxAutoGeneratedMetaDataObjects.obj
 0001:00035330       ?setPxRigidBody_CMassLocalPose@@YAXPEAVPxRigidBody@physx@@AEBV?$PxTransformT@M@2@@Z 0000000180036330 f   PxAutoGeneratedMetaDataObjects.obj
 0001:00035330       ?getPxPBDMaterial_Lift@@YAMPEBVPxPBDMaterial@physx@@@Z 0000000180036330 f   PxAutoGeneratedMetaDataObjects.obj
 0001:00035330       ?setPxArticulationJointReducedCoordinate_MaxJointVelocity@@YAXPEAVPxArticulationJointReducedCoordinate@physx@@M@Z 0000000180036330 f   PxAutoGeneratedMetaDataObjects.obj
 0001:00035330       ?setPxShape_RestOffset@@YAXPEAVPxShape@physx@@M@Z 0000000180036330 f   PxAutoGeneratedMetaDataObjects.obj
 0001:00035340       ?setPxRigidBody_LinearDamping@@YAXPEAVPxRigidBody@physx@@M@Z 0000000180036340 f   PxAutoGeneratedMetaDataObjects.obj
 0001:00035340       ?getPxPBDMaterial_ParticleAdhesionScale@@YAMPEBVPxPBDMaterial@physx@@@Z 0000000180036340 f   PxAutoGeneratedMetaDataObjects.obj
 0001:00035350       ?setPxShape_MinTorsionalPatchRadius@@YAXPEAVPxShape@physx@@M@Z 0000000180036350 f   PxAutoGeneratedMetaDataObjects.obj
 0001:00035350       ?getPxPBDMaterial_ParticleFrictionScale@@YAMPEBVPxPBDMaterial@physx@@@Z 0000000180036350 f   PxAutoGeneratedMetaDataObjects.obj
 0001:00035360       ?setPxMaterial_RestitutionCombineMode@@YAXPEAVPxMaterial@physx@@W4Enum@PxCombineMode@2@@Z 0000000180036360 f   PxAutoGeneratedMetaDataObjects.obj
 0001:00035360       ?getPxPBDMaterial_VorticityConfinement@@YAMPEBVPxPBDMaterial@physx@@@Z 0000000180036360 f   PxAutoGeneratedMetaDataObjects.obj
 0001:00035370       ?getPxShape_Materials@@YAIPEBVPxShape@physx@@PEAPEAVPxMaterial@2@I@Z 0000000180036370 f   PxAutoGeneratedMetaDataObjects.obj
 0001:00035370       ?getPxPhysics_BVHs@@YAIPEBVPxPhysics@physx@@PEAPEAVPxBVH@2@I@Z 0000000180036370 f   PxAutoGeneratedMetaDataObjects.obj
 0001:00035370       ?getPxPhysics_BVHStructures@@YAIPEBVPxPhysics@physx@@PEAPEAVPxBVH@2@I@Z 0000000180036370 f   PxAutoGeneratedMetaDataObjects.obj
 0001:00035380       ?getPxPhysics_ConvexMeshes@@YAIPEBVPxPhysics@physx@@PEAPEAVPxConvexMesh@2@I@Z 0000000180036380 f   PxAutoGeneratedMetaDataObjects.obj
 0001:00035390       ?getPxPhysics_FEMClothMaterials@@YAIPEBVPxPhysics@physx@@PEAPEAVPxFEMClothMaterial@2@I@Z 0000000180036390 f   PxAutoGeneratedMetaDataObjects.obj
 0001:000353a0       ?getPxPhysics_FEMSoftBodyMaterials@@YAIPEBVPxPhysics@physx@@PEAPEAVPxFEMSoftBodyMaterial@2@I@Z 00000001800363a0 f   PxAutoGeneratedMetaDataObjects.obj
 0001:000353b0       ?getPxPhysics_HeightFields@@YAIPEBVPxPhysics@physx@@PEAPEAVPxHeightField@2@I@Z 00000001800363b0 f   PxAutoGeneratedMetaDataObjects.obj
 0001:000353c0       ?getPxScene_Aggregates@@YAIPEBVPxScene@physx@@PEAPEAVPxAggregate@2@I@Z 00000001800363c0 f   PxAutoGeneratedMetaDataObjects.obj
 0001:000353c0       ?getPxPhysics_Materials@@YAIPEBVPxPhysics@physx@@PEAPEAVPxMaterial@2@I@Z 00000001800363c0 f   PxAutoGeneratedMetaDataObjects.obj
 0001:000353d0       ?getPxPhysics_PBDMaterials@@YAIPEBVPxPhysics@physx@@PEAPEAVPxPBDMaterial@2@I@Z 00000001800363d0 f   PxAutoGeneratedMetaDataObjects.obj
 0001:000353e0       ?getPxRigidActor_Shapes@@YAIPEBVPxRigidActor@physx@@PEAPEAVPxShape@2@I@Z 00000001800363e0 f   PxAutoGeneratedMetaDataObjects.obj
 0001:000353e0       ?getPxPhysics_Scenes@@YAIPEBVPxPhysics@physx@@PEAPEAVPxScene@2@I@Z 00000001800363e0 f   PxAutoGeneratedMetaDataObjects.obj
 0001:000353f0       ?getPxPhysics_Shapes@@YAIPEBVPxPhysics@physx@@PEAPEAVPxShape@2@I@Z 00000001800363f0 f   PxAutoGeneratedMetaDataObjects.obj
 0001:00035400       ?getPxPhysics_TriangleMeshes@@YAIPEBVPxPhysics@physx@@PEAPEAVPxTriangleMesh@2@I@Z 0000000180036400 f   PxAutoGeneratedMetaDataObjects.obj
 0001:00035410       ?getPxPruningStructure_RigidActors@@YAIPEBVPxPruningStructure@physx@@PEAPEAVPxRigidActor@2@I@Z 0000000180036410 f   PxAutoGeneratedMetaDataObjects.obj
 0001:00035420       ?getPxRigidActor_Constraints@@YAIPEBVPxRigidActor@physx@@PEAPEAVPxConstraint@2@I@Z 0000000180036420 f   PxAutoGeneratedMetaDataObjects.obj
 0001:00035430       ?getPxRigidActor_GlobalPose@@YA?AV?$PxTransformT@M@physx@@PEBVPxRigidActor@2@@Z 0000000180036430 f   PxAutoGeneratedMetaDataObjects.obj
 0001:00035460       ?getPxShape_IsExclusive@@YA_NPEBVPxShape@physx@@@Z 0000000180036460 f   PxAutoGeneratedMetaDataObjects.obj
 0001:00035460       ?getPxRigidBody_AngularDamping@@YAMPEBVPxRigidBody@physx@@@Z 0000000180036460 f   PxAutoGeneratedMetaDataObjects.obj
 0001:00035470       ?getPxRigidBody_CMassLocalPose@@YA?AV?$PxTransformT@M@physx@@PEBVPxRigidBody@2@@Z 0000000180036470 f   PxAutoGeneratedMetaDataObjects.obj
 0001:000354a0       ?getPxRigidBody_ContactSlopCoefficient@@YAMPEBVPxRigidBody@physx@@@Z 00000001800364a0 f   PxAutoGeneratedMetaDataObjects.obj
 0001:000354a0       ?getPxScene_CCDContactModifyCallback@@YAPEAVPxCCDContactModifyCallback@physx@@PEBVPxScene@2@@Z 00000001800364a0 f   PxAutoGeneratedMetaDataObjects.obj
 0001:000354b0       ?getPxRigidBody_MassSpaceInertiaTensor@@YA?AV?$PxVec3T@M@physx@@PEBVPxRigidBody@2@@Z 00000001800364b0 f   PxAutoGeneratedMetaDataObjects.obj
 0001:000354e0       ?getPxRigidBody_MassSpaceInvInertiaTensor@@YA?AV?$PxVec3T@M@physx@@PEBVPxRigidBody@2@@Z 00000001800364e0 f   PxAutoGeneratedMetaDataObjects.obj
 0001:00035510       ?setPxScene_CCDContactModifyCallback@@YAXPEAVPxScene@physx@@PEAVPxCCDContactModifyCallback@2@@Z 0000000180036510 f   PxAutoGeneratedMetaDataObjects.obj
 0001:00035510       ?getPxRigidBody_MaxContactImpulse@@YAMPEBVPxRigidBody@physx@@@Z 0000000180036510 f   PxAutoGeneratedMetaDataObjects.obj
 0001:00035520       ?getPxRigidBody_MaxDepenetrationVelocity@@YAMPEBVPxRigidBody@physx@@@Z 0000000180036520 f   PxAutoGeneratedMetaDataObjects.obj
 0001:00035520       ?getPxScene_SimulationEventCallback@@YAPEAVPxSimulationEventCallback@physx@@PEBVPxScene@2@@Z 0000000180036520 f   PxAutoGeneratedMetaDataObjects.obj
 0001:00035530       ?getPxRigidBody_MaxLinearVelocity@@YAMPEBVPxRigidBody@physx@@@Z 0000000180036530 f   PxAutoGeneratedMetaDataObjects.obj
 0001:00035540       ?getPxRigidBody_RigidBodyFlags@@YA?AV?$PxFlags@W4Enum@PxRigidBodyFlag@physx@@G@physx@@PEBVPxRigidBody@2@@Z 0000000180036540 f   PxAutoGeneratedMetaDataObjects.obj
 0001:00035570       ?getPxRigidDynamic_ContactReportThreshold@@YAMPEBVPxRigidDynamic@physx@@@Z 0000000180036570 f   PxAutoGeneratedMetaDataObjects.obj
 0001:00035580       ?getPxRigidDynamic_RigidDynamicLockFlags@@YA?AV?$PxFlags@W4Enum@PxRigidDynamicLockFlag@physx@@E@physx@@PEBVPxRigidDynamic@2@@Z 0000000180036580 f   PxAutoGeneratedMetaDataObjects.obj
 0001:000355b0       ?getPxRigidDynamic_SolverIterationCounts@@YAXPEBVPxRigidDynamic@physx@@AEAI1@Z 00000001800365b0 f   PxAutoGeneratedMetaDataObjects.obj
 0001:000355c0       ?getPxRigidDynamic_StabilizationThreshold@@YAMPEBVPxRigidDynamic@physx@@@Z 00000001800365c0 f   PxAutoGeneratedMetaDataObjects.obj
 0001:000355c0       ?setPxArticulationLink_CfmScale@@YAXPEAVPxArticulationLink@physx@@M@Z 00000001800365c0 f   PxAutoGeneratedMetaDataObjects.obj
 0001:000355d0       ?getPxRigidDynamic_WakeCounter@@YAMPEBVPxRigidDynamic@physx@@@Z 00000001800365d0 f   PxAutoGeneratedMetaDataObjects.obj
 0001:000355e0       ?getPxSceneDescBounceThresholdVelocity@@YAMPEBVPxSceneDesc@physx@@@Z 00000001800365e0 f i PxAutoGeneratedMetaDataObjects.obj
 0001:000355f0       ?getPxSceneDescBroadPhaseCallback@@YAPEAVPxBroadPhaseCallback@physx@@PEBVPxSceneDesc@2@@Z 00000001800365f0 f i PxAutoGeneratedMetaDataObjects.obj
 0001:000355f0       ?getTendon@NpArticulationAttachment@physx@@UEBAPEAVPxArticulationSpatialTendon@2@XZ 00000001800365f0 f i NpArticulationTendon.obj
 0001:00035600       ?getPxSimulationStatisticsNbNewTouches@@YAIPEBVPxSimulationStatistics@physx@@@Z 0000000180036600 f i PxAutoGeneratedMetaDataObjects.obj
 0001:00035600       ?getPxSceneDescBroadPhaseType@@YA?AW4Enum@PxBroadPhaseType@physx@@PEBVPxSceneDesc@3@@Z 0000000180036600 f i PxAutoGeneratedMetaDataObjects.obj
 0001:00035610       ?getPxSceneDescCcdContactModifyCallback@@YAPEAVPxCCDContactModifyCallback@physx@@PEBVPxSceneDesc@2@@Z 0000000180036610 f i PxAutoGeneratedMetaDataObjects.obj
 0001:00035610       ?getSimulationMesh@NpSoftBody@physx@@UEAAPEAVPxTetrahedronMesh@2@XZ 0000000180036610 f i NpSoftBody.obj
 0001:00035620       ?getPeakConstraintBlockCount@PxcNpMemBlockPool@physx@@QEBAIXZ 0000000180036620 f i LowLevel_static_64:PxcNpMemBlockPool.obj
 0001:00035620       ?getPxSceneDescCcdMaxPasses@@YAIPEBVPxSceneDesc@physx@@@Z 0000000180036620 f i PxAutoGeneratedMetaDataObjects.obj
 0001:00035630       ?getPxSceneDescCcdMaxSeparation@@YAMPEBVPxSceneDesc@physx@@@Z 0000000180036630 f i PxAutoGeneratedMetaDataObjects.obj
 0001:00035630       ?getMaxVelocity@ParticleSystemCore@Sc@physx@@QEBAMXZ 0000000180036630 f i SimulationController_static_64:ScParticleSystemCore.obj
 0001:00035640       ?getMaxDepenetrationVelocity@ParticleSystemCore@Sc@physx@@QEBAMXZ 0000000180036640 f i SimulationController_static_64:ScParticleSystemCore.obj
 0001:00035640       ?getPxSceneDescCcdThreshold@@YAMPEBVPxSceneDesc@physx@@@Z 0000000180036640 f i PxAutoGeneratedMetaDataObjects.obj
 0001:00035650       ?getShape@NpSoftBody@physx@@UEAAPEAVPxShape@2@XZ 0000000180036650 f i NpSoftBody.obj
 0001:00035650       ?getPxSceneDescContactModifyCallback@@YAPEAVPxContactModifyCallback@physx@@PEBVPxSceneDesc@2@@Z 0000000180036650 f i PxAutoGeneratedMetaDataObjects.obj
 0001:00035660       ?getPxSceneDescContactPairSlabSize@@YAIPEBVPxSceneDesc@physx@@@Z 0000000180036660 f i PxAutoGeneratedMetaDataObjects.obj
 0001:00035660       ?getDynamicStructure@NpScene@physx@@UEBA?AW4Enum@PxPruningStructureType@2@XZ 0000000180036660 f i NpSceneQueries.obj
 0001:00035670       ?getPxSceneDescContactReportStreamBufferSize@@YAIPEBVPxSceneDesc@physx@@@Z 0000000180036670 f i PxAutoGeneratedMetaDataObjects.obj
 0001:00035680       ?getPxSimulationStatisticsGpuMemHeapSolver@@YA_KPEBVPxSimulationStatistics@physx@@@Z 0000000180036680 f i PxAutoGeneratedMetaDataObjects.obj
 0001:00035680       ?getPxSceneDescCpuDispatcher@@YAPEAVPxCpuDispatcher@physx@@PEBVPxSceneDesc@2@@Z 0000000180036680 f i PxAutoGeneratedMetaDataObjects.obj
 0001:00035680       ?getPositionInvMassCPU@NpSoftBody@physx@@UEAAPEAVPxBuffer@2@XZ 0000000180036680 f i NpSoftBody.obj
 0001:00035690       ?getPxSceneDescCudaContextManager@@YAPEAVPxCudaContextManager@physx@@PEBVPxSceneDesc@2@@Z 0000000180036690 f i PxAutoGeneratedMetaDataObjects.obj
 0001:00035690       ?getPxSimulationStatisticsGpuMemHeapArticulation@@YA_KPEBVPxSimulationStatistics@physx@@@Z 0000000180036690 f i PxAutoGeneratedMetaDataObjects.obj
 0001:00035690       ?getRestPositionInvMassCPU@NpSoftBody@physx@@UEAAPEAVPxBuffer@2@XZ 0000000180036690 f i NpSoftBody.obj
 0001:000356a0       ?getArticulation@NpArticulationFixedTendon@physx@@UEBAPEAVPxArticulationReducedCoordinate@2@XZ 00000001800366a0 f i NpArticulationTendon.obj
 0001:000356a0       ?getShapeInteractions@PxsNphaseImplementationContext@physx@@UEAAPEAPEAVShapeInteraction@Sc@2@XZ 00000001800366a0 f i LowLevel_static_64:PxsNphaseImplementationContext.obj
 0001:000356a0       ?getPxSceneDescFilterCallback@@YAPEAVPxSimulationFilterCallback@physx@@PEBVPxSceneDesc@2@@Z 00000001800366a0 f i PxAutoGeneratedMetaDataObjects.obj
 0001:000356a0       ?getArticulation@NpArticulationSpatialTendon@physx@@UEBAPEAVPxArticulationReducedCoordinate@2@XZ 00000001800366a0 f i NpArticulationTendon.obj
 0001:000356b0       ?getPxSceneDescFilterShader@@YAP6A?AV?$PxFlags@W4Enum@PxFilterFlag@physx@@G@physx@@IUPxFilterData@2@I0AEAV?$PxFlags@W4Enum@PxPairFlag@physx@@G@2@PEBXI@ZPEBVPxSceneDesc@2@@Z 00000001800366b0 f i PxAutoGeneratedMetaDataObjects.obj
 0001:000356c0       ?getPxSceneDescFilterShaderData@@YAPEBXPEBVPxSceneDesc@physx@@@Z 00000001800366c0 f i PxAutoGeneratedMetaDataObjects.obj
 0001:000356c0       ?getSoftBodyAuxData@NpSoftBody@physx@@UEAAPEAVPxSoftBodyAuxData@2@XZ 00000001800366c0 f i NpSoftBody.obj
 0001:000356d0       ?getPxSimulationStatisticsCompressedContactSize@@YAIPEBVPxSimulationStatistics@physx@@@Z 00000001800366d0 f i PxAutoGeneratedMetaDataObjects.obj
 0001:000356d0       ?getNbRigidActors@PruningStructure@Sq@physx@@UEBAIXZ 00000001800366d0 f i NpPruningStructure.obj
 0001:000356d0       ?getPxSceneDescFilterShaderDataSize@@YAIPEBVPxSceneDesc@physx@@@Z 00000001800366d0 f i PxAutoGeneratedMetaDataObjects.obj
 0001:000356d0       ?getDefaultContactReportStreamBufferSize@NPhaseCore@Sc@physx@@QEBAIXZ 00000001800366d0 f i SimulationController_static_64:ScNPhaseCore.obj
 0001:000356e0       ?getPxSceneDescFlags@@YA?AV?$PxFlags@W4Enum@PxSceneFlag@physx@@I@physx@@PEBVPxSceneDesc@2@@Z 00000001800366e0 f i PxAutoGeneratedMetaDataObjects.obj
 0001:000356f0       ?getPxSceneDescFrictionCorrelationDistance@@YAMPEBVPxSceneDesc@physx@@@Z 00000001800366f0 f i PxAutoGeneratedMetaDataObjects.obj
 0001:00035700       ?getPxSceneDescFrictionOffsetThreshold@@YAMPEBVPxSceneDesc@physx@@@Z 0000000180036700 f i PxAutoGeneratedMetaDataObjects.obj
 0001:00035710       ?getPxSceneDescFrictionType@@YA?AW4Enum@PxFrictionType@physx@@PEBVPxSceneDesc@3@@Z 0000000180036710 f i PxAutoGeneratedMetaDataObjects.obj
 0001:00035720       ?getPxSceneDescGpuComputeVersion@@YAIPEBVPxSceneDesc@physx@@@Z 0000000180036720 f i PxAutoGeneratedMetaDataObjects.obj
 0001:00035720       ?getStaticStructure@NpScene@physx@@UEBA?AW4Enum@PxPruningStructureType@2@XZ 0000000180036720 f i NpSceneQueries.obj
 0001:00035730       ?getPxSceneDescGpuDynamicsConfig@@YA?AUPxgDynamicsMemoryConfig@physx@@PEBVPxSceneDesc@2@@Z 0000000180036730 f i PxAutoGeneratedMetaDataObjects.obj
 0001:00035760       ?getPxSceneDescGpuMaxNumPartitions@@YAIPEBVPxSceneDesc@physx@@@Z 0000000180036760 f i PxAutoGeneratedMetaDataObjects.obj
 0001:00035770       ?getPxSceneDescGpuMaxNumStaticPartitions@@YAIPEBVPxSceneDesc@physx@@@Z 0000000180036770 f i PxAutoGeneratedMetaDataObjects.obj
 0001:00035780       ?getPxSceneDescGravity@@YA?AV?$PxVec3T@M@physx@@PEBVPxSceneDesc@2@@Z 0000000180036780 f i PxAutoGeneratedMetaDataObjects.obj
 0001:000357a0       ?getPxSimulationStatisticsNbNewPairs@@YAIPEBVPxSimulationStatistics@physx@@@Z 00000001800367a0 f i PxAutoGeneratedMetaDataObjects.obj
 0001:000357a0       ?getPxSceneDescKineKineFilteringMode@@YA?AW4Enum@PxPairFilteringMode@physx@@PEBVPxSceneDesc@3@@Z 00000001800367a0 f i PxAutoGeneratedMetaDataObjects.obj
 0001:000357b0       ?getPxSceneDescLimits@@YA?AVPxSceneLimits@physx@@PEBVPxSceneDesc@2@@Z 00000001800367b0 f i PxAutoGeneratedMetaDataObjects.obj
 0001:000357d0       ?getFluidRestOffset@ParticleSystemCore@Sc@physx@@QEBAMXZ 00000001800367d0 f i SimulationController_static_64:ScParticleSystemCore.obj
 0001:000357d0       ?getPxSceneDescMaxBiasCoefficient@@YAMPEBVPxSceneDesc@physx@@@Z 00000001800367d0 f i PxAutoGeneratedMetaDataObjects.obj
 0001:000357e0       ?getPxSceneDescMaxNbContactDataBlocks@@YAIPEBVPxSceneDesc@physx@@@Z 00000001800367e0 f i PxAutoGeneratedMetaDataObjects.obj
 0001:000357f0       ?getPxSceneDescNbContactDataBlocks@@YAIPEBVPxSceneDesc@physx@@@Z 00000001800367f0 f i PxAutoGeneratedMetaDataObjects.obj
 0001:00035800       ?getPxSceneDescSanityBounds@@YA?AVPxBounds3@physx@@PEBVPxSceneDesc@2@@Z 0000000180036800 f i PxAutoGeneratedMetaDataObjects.obj
 0001:00035840       ?getName@?$DelegateTask@VScene@Sc@physx@@$1?postSolver@123@AEAAXPEAVPxBaseTask@3@@Z@Cm@physx@@UEBAPEBDXZ 0000000180036840 f i SimulationController_static_64:ScScene.obj
 0001:00035840       ?getPxSceneDescSimulationEventCallback@@YAPEAVPxSimulationEventCallback@physx@@PEBVPxSceneDesc@2@@Z 0000000180036840 f i PxAutoGeneratedMetaDataObjects.obj
 0001:00035840       ?getName@?$DelegateTask@VPxsCCDContext@physx@@$1?postCCDDepenetrate@12@AEAAXPEAVPxBaseTask@2@@Z@Cm@physx@@UEBAPEBDXZ 0000000180036840 f i LowLevel_static_64:PxsCCD.obj
 0001:00035840       ?getName@?$DelegateTask@VScene@Sc@physx@@$1?preRigidBodyNarrowPhase@123@AEAAXPEAVPxBaseTask@3@@Z@Cm@physx@@UEBAPEBDXZ 0000000180036840 f i SimulationController_static_64:ScScene.obj
 0001:00035840       ?getName@?$DelegateTask@VScene@Sc@physx@@$1?islandInsertion@123@QEAAXPEAVPxBaseTask@3@@Z@Cm@physx@@UEBAPEBDXZ 0000000180036840 f i SimulationController_static_64:ScScene.obj
 0001:00035840       ?getName@?$DelegateTask@VScene@Sc@physx@@$1?registerInteractions@123@QEAAXPEAVPxBaseTask@3@@Z@Cm@physx@@UEBAPEBDXZ 0000000180036840 f i SimulationController_static_64:ScScene.obj
 0001:00035840       ?getName@?$DelegateTask@VScene@Sc@physx@@$1?postBroadPhaseContinuation@123@AEAAXPEAVPxBaseTask@3@@Z@Cm@physx@@UEBAPEBDXZ 0000000180036840 f i SimulationController_static_64:ScScene.obj
 0001:00035840       ?getName@?$DelegateTask@VScene@Sc@physx@@$1?registerContactManagers@123@QEAAXPEAVPxBaseTask@3@@Z@Cm@physx@@UEBAPEBDXZ 0000000180036840 f i SimulationController_static_64:ScScene.obj
 0001:00035840       ?getName@?$DelegateTask@VScene@Sc@physx@@$1?secondPassNarrowPhase@123@QEAAXPEAVPxBaseTask@3@@Z@Cm@physx@@UEBAPEBDXZ 0000000180036840 f i SimulationController_static_64:ScScene.obj
 0001:00035840       ?getName@?$DelegateTask@VPxsCCDContext@physx@@$1?postCCDAdvance@12@AEAAXPEAVPxBaseTask@2@@Z@Cm@physx@@UEBAPEBDXZ 0000000180036840 f i LowLevel_static_64:PxsCCD.obj
 0001:00035840       ?getName@?$DelegateTask@VScene@Sc@physx@@$1?constraintProjection@123@AEAAXPEAVPxBaseTask@3@@Z@Cm@physx@@UEBAPEBDXZ 0000000180036840 f i SimulationController_static_64:ScScene.obj
 0001:00035840       ?getName@?$DelegateTask@VScene@Sc@physx@@$1?postThirdPassIslandGen@123@AEAAXPEAVPxBaseTask@3@@Z@Cm@physx@@UEBAPEBDXZ 0000000180036840 f i SimulationController_static_64:ScScene.obj
 0001:00035840       ?getName@?$DelegateTask@VScene@Sc@physx@@$1?processLostContacts3@123@AEAAXPEAVPxBaseTask@3@@Z@Cm@physx@@UEBAPEBDXZ 0000000180036840 f i SimulationController_static_64:ScScene.obj
 0001:00035840       ?getName@?$DelegateTask@VScene@Sc@physx@@$1?postCCDPass@123@AEAAXPEAVPxBaseTask@3@@Z@Cm@physx@@UEBAPEBDXZ 0000000180036840 f i SimulationController_static_64:ScScene.obj
 0001:00035840       ?getName@?$DelegateTask@VScene@Sc@physx@@$1?fetchPatchEvents@123@AEAAXPEAVPxBaseTask@3@@Z@Cm@physx@@UEBAPEBDXZ 0000000180036840 f i SimulationController_static_64:ScScene.obj
 0001:00035840       ?getName@?$DelegateTask@VScene@Sc@physx@@$1?processLostContacts2@123@AEAAXPEAVPxBaseTask@3@@Z@Cm@physx@@UEBAPEBDXZ 0000000180036840 f i SimulationController_static_64:ScScene.obj
 0001:00035840       ?getName@?$DelegateTask@VScene@Sc@physx@@$1?unregisterInteractions@123@AEAAXPEAVPxBaseTask@3@@Z@Cm@physx@@UEBAPEBDXZ 0000000180036840 f i SimulationController_static_64:ScScene.obj
 0001:00035840       ?getName@?$DelegateTask@VScene@Sc@physx@@$1?postIslandGen@123@AEAAXPEAVPxBaseTask@3@@Z@Cm@physx@@UEBAPEBDXZ 0000000180036840 f i SimulationController_static_64:ScScene.obj
 0001:00035840       ?getName@?$DelegateTask@VScene@Sc@physx@@$1?ccdBroadPhaseAABB@123@AEAAXPEAVPxBaseTask@3@@Z@Cm@physx@@UEBAPEBDXZ 0000000180036840 f i SimulationController_static_64:ScScene.obj
 0001:00035840       ?getName@?$DelegateTask@VPxsCCDContext@physx@@$1?postCCDSweep@12@AEAAXPEAVPxBaseTask@2@@Z@Cm@physx@@UEBAPEBDXZ 0000000180036840 f i LowLevel_static_64:PxsCCD.obj
 0001:00035840       ?getName@?$DelegateTask@VScene@Sc@physx@@$1?processLostContacts@123@AEAAXPEAVPxBaseTask@3@@Z@Cm@physx@@UEBAPEBDXZ 0000000180036840 f i SimulationController_static_64:ScScene.obj
 0001:00035840       ?getName@?$DelegateTask@VNPhaseCore@Sc@physx@@$1?mergeProcessedTriggerInteractions@123@QEAAXPEAVPxBaseTask@3@@Z@Cm@physx@@UEBAPEBDXZ 0000000180036840 f i SimulationController_static_64:ScNPhaseCore.obj
 0001:00035840       ?getName@?$DelegateTask@VScene@Sc@physx@@$1?updateCCDSinglePass@123@AEAAXPEAVPxBaseTask@3@@Z@Cm@physx@@UEBAPEBDXZ 0000000180036840 f i SimulationController_static_64:ScScene.obj
 0001:00035840       ?getName@?$DelegateTask@VAABBManager@Bp@physx@@$H?postBpStage3@123@AEAAXPEAVPxBaseTask@3@@ZA@@Cm@physx@@UEBAPEBDXZ 0000000180036840 f i LowLevelAABB_static_64:BpAABBManager.obj
 0001:00035840       ?getName@?$DelegateTask@VNpScene@physx@@$H?sceneQueriesStaticPrunerUpdate@12@AEAAXPEAVPxBaseTask@2@@ZA@@Cm@physx@@UEBAPEBDXZ 0000000180036840 f i NpScene.obj
 0001:00035840       ?getParent@NpArticulationAttachment@physx@@UEBAPEAVPxArticulationAttachment@2@XZ 0000000180036840 f i NpArticulationTendon.obj
 0001:00035840       ?getName@?$DelegateTask@VScene@Sc@physx@@$1?collideStep@123@AEAAXPEAVPxBaseTask@3@@Z@Cm@physx@@UEBAPEBDXZ 0000000180036840 f i SimulationController_static_64:ScScene.obj
 0001:00035840       ?getName@?$DelegateTask@VScene@Sc@physx@@$1?preIntegrate@123@AEAAXPEAVPxBaseTask@3@@Z@Cm@physx@@UEBAPEBDXZ 0000000180036840 f i SimulationController_static_64:ScScene.obj
 0001:00035840       ?getName@?$DelegateTask@VScene@Sc@physx@@$1?registerSceneInteractions@123@QEAAXPEAVPxBaseTask@3@@Z@Cm@physx@@UEBAPEBDXZ 0000000180036840 f i SimulationController_static_64:ScScene.obj
 0001:00035840       ?getName@?$DelegateTask@VScene@Sc@physx@@$1?solver@123@AEAAXPEAVPxBaseTask@3@@Z@Cm@physx@@UEBAPEBDXZ 0000000180036840 f i SimulationController_static_64:ScScene.obj
 0001:00035840       ?getName@?$DelegateTask@VScene@Sc@physx@@$1?processFoundSolverPatches@123@AEAAXPEAVPxBaseTask@3@@Z@Cm@physx@@UEBAPEBDXZ 0000000180036840 f i SimulationController_static_64:ScScene.obj
 0001:00035840       ?getName@?$DelegateTask@VScene@Sc@physx@@$1?updateCCDMultiPass@123@AEAAXPEAVPxBaseTask@3@@Z@Cm@physx@@UEBAPEBDXZ 0000000180036840 f i SimulationController_static_64:ScScene.obj
 0001:00035840       ?getName@?$DelegateTask@VNpScene@physx@@$H?executeScene@12@QEAAXPEAVPxBaseTask@2@@ZA@@Cm@physx@@UEBAPEBDXZ 0000000180036840 f i NpScene.obj
 0001:00035840       ?getName@?$DelegateTask@VScene@Sc@physx@@$1?afterIntegration@123@AEAAXPEAVPxBaseTask@3@@Z@Cm@physx@@UEBAPEBDXZ 0000000180036840 f i SimulationController_static_64:ScScene.obj
 0001:00035840       ?getName@?$DelegateTask@VScene@Sc@physx@@$1?updateCCDSinglePassStage3@123@AEAAXPEAVPxBaseTask@3@@Z@Cm@physx@@UEBAPEBDXZ 0000000180036840 f i SimulationController_static_64:ScScene.obj
 0001:00035840       ?getName@?$DelegateTask@VScene@Sc@physx@@$1?preallocateContactManagers@123@QEAAXPEAVPxBaseTask@3@@Z@Cm@physx@@UEBAPEBDXZ 0000000180036840 f i SimulationController_static_64:ScScene.obj
 0001:00035840       ?getName@?$DelegateTask@VScene@Sc@physx@@$1?updateCCDSinglePassStage2@123@AEAAXPEAVPxBaseTask@3@@Z@Cm@physx@@UEBAPEBDXZ 0000000180036840 f i SimulationController_static_64:ScScene.obj
 0001:00035840       ?getName@?$DelegateTask@VScene@Sc@physx@@$1?postBroadPhase@123@AEAAXPEAVPxBaseTask@3@@Z@Cm@physx@@UEBAPEBDXZ 0000000180036840 f i SimulationController_static_64:ScScene.obj
 0001:00035840       ?getName@?$DelegateTask@VScene@Sc@physx@@$1?processLostSolverPatches@123@AEAAXPEAVPxBaseTask@3@@Z@Cm@physx@@UEBAPEBDXZ 0000000180036840 f i SimulationController_static_64:ScScene.obj
 0001:00035840       ?getName@?$DelegateTask@VScene@Sc@physx@@$1?processNarrowPhaseLostTouchEvents@123@AEAAXPEAVPxBaseTask@3@@Z@Cm@physx@@UEBAPEBDXZ 0000000180036840 f i SimulationController_static_64:ScScene.obj
 0001:00035840       ?getName@?$DelegateTask@VNpScene@physx@@$H?executeAdvance@12@QEAAXPEAVPxBaseTask@2@@ZA@@Cm@physx@@UEBAPEBDXZ 0000000180036840 f i NpScene.obj
 0001:00035840       ?getName@?$DelegateTask@VScene@Sc@physx@@$1?rigidBodyNarrowPhase@123@AEAAXPEAVPxBaseTask@3@@Z@Cm@physx@@UEBAPEBDXZ 0000000180036840 f i SimulationController_static_64:ScScene.obj
 0001:00035840       ?getName@?$DelegateTask@VScene@Sc@physx@@$1?updateShapes@123@AEAAXPEAVPxBaseTask@3@@Z@Cm@physx@@UEBAPEBDXZ 0000000180036840 f i SimulationController_static_64:ScScene.obj
 0001:00035840       ?getName@?$DelegateTask@VScene@Sc@physx@@$1?broadPhaseSecondPass@123@AEAAXPEAVPxBaseTask@3@@Z@Cm@physx@@UEBAPEBDXZ 0000000180036840 f i SimulationController_static_64:ScScene.obj
 0001:00035840       ?getName@?$DelegateTask@VScene@Sc@physx@@$1?postBroadPhaseStage2@123@AEAAXPEAVPxBaseTask@3@@Z@Cm@physx@@UEBAPEBDXZ 0000000180036840 f i SimulationController_static_64:ScScene.obj
 0001:00035840       ?getName@?$DelegateTask@VScene@Sc@physx@@$1?destroyManagers@123@AEAAXPEAVPxBaseTask@3@@Z@Cm@physx@@UEBAPEBDXZ 0000000180036840 f i SimulationController_static_64:ScScene.obj
 0001:00035840       ?getName@?$DelegateTask@VScene@Sc@physx@@$1?ccdBroadPhase@123@AEAAXPEAVPxBaseTask@3@@Z@Cm@physx@@UEBAPEBDXZ 0000000180036840 f i SimulationController_static_64:ScScene.obj
 0001:00035840       ?getName@?$DelegateTask@VNpScene@physx@@$H?sceneQueriesDynamicPrunerUpdate@12@AEAAXPEAVPxBaseTask@2@@ZA@@Cm@physx@@UEBAPEBDXZ 0000000180036840 f i NpScene.obj
 0001:00035840       ?getName@?$DelegateTask@VScene@Sc@physx@@$1?broadPhase@123@AEAAXPEAVPxBaseTask@3@@Z@Cm@physx@@UEBAPEBDXZ 0000000180036840 f i SimulationController_static_64:ScScene.obj
 0001:00035840       ?getName@?$DelegateTask@VScene@Sc@physx@@$1?updateSimulationController@123@AEAAXPEAVPxBaseTask@3@@Z@Cm@physx@@UEBAPEBDXZ 0000000180036840 f i SimulationController_static_64:ScScene.obj
 0001:00035840       ?getName@?$DelegateTask@VScene@Sc@physx@@$1?updateBroadPhase@123@AEAAXPEAVPxBaseTask@3@@Z@Cm@physx@@UEBAPEBDXZ 0000000180036840 f i SimulationController_static_64:ScScene.obj
 0001:00035840       ?getName@?$DelegateTask@VScene@Sc@physx@@$1?advanceStep@123@AEAAXPEAVPxBaseTask@3@@Z@Cm@physx@@UEBAPEBDXZ 0000000180036840 f i SimulationController_static_64:ScScene.obj
 0001:00035840       ?getName@?$DelegateTask@VScene@Sc@physx@@$1?broadPhaseFirstPass@123@AEAAXPEAVPxBaseTask@3@@Z@Cm@physx@@UEBAPEBDXZ 0000000180036840 f i SimulationController_static_64:ScScene.obj
 0001:00035840       ?getName@?$DelegateTask@VNpScene@physx@@$H?executeCollide@12@QEAAXPEAVPxBaseTask@2@@ZA@@Cm@physx@@UEBAPEBDXZ 0000000180036840 f i NpScene.obj
 0001:00035840       ?getParent@NpArticulationTendonJoint@physx@@UEBAPEAVPxArticulationTendonJoint@2@XZ 0000000180036840 f i NpArticulationTendon.obj
 0001:00035840       ?getName@?$DelegateTask@VScene@Sc@physx@@$1?updateBodies@123@AEAAXPEAVPxBaseTask@3@@Z@Cm@physx@@UEBAPEBDXZ 0000000180036840 f i SimulationController_static_64:ScScene.obj
 0001:00035840       ?getName@?$DelegateTask@VScene@Sc@physx@@$1?updateDynamics@123@AEAAXPEAVPxBaseTask@3@@Z@Cm@physx@@UEBAPEBDXZ 0000000180036840 f i SimulationController_static_64:ScScene.obj
 0001:00035840       ?getName@?$DelegateTask@VScene@Sc@physx@@$1?unblockNarrowPhase@123@AEAAXPEAVPxBaseTask@3@@Z@Cm@physx@@UEBAPEBDXZ 0000000180036840 f i SimulationController_static_64:ScScene.obj
 0001:00035840       ?getName@?$DelegateTask@VScene@Sc@physx@@$1?setEdgesConnected@123@AEAAXPEAVPxBaseTask@3@@Z@Cm@physx@@UEBAPEBDXZ 0000000180036840 f i SimulationController_static_64:ScScene.obj
 0001:00035840       ?getName@?$DelegateTask@VScene@Sc@physx@@$1?processNarrowPhaseLostTouchEventsIslands@123@AEAAXPEAVPxBaseTask@3@@Z@Cm@physx@@UEBAPEBDXZ 0000000180036840 f i SimulationController_static_64:ScScene.obj
 0001:00035840       ?getName@?$DelegateTask@VScene@Sc@physx@@$1?lostTouchReports@123@AEAAXPEAVPxBaseTask@3@@Z@Cm@physx@@UEBAPEBDXZ 0000000180036840 f i SimulationController_static_64:ScScene.obj
 0001:00035840       ?getName@?$DelegateTask@VScene@Sc@physx@@$1?islandGen@123@AEAAXPEAVPxBaseTask@3@@Z@Cm@physx@@UEBAPEBDXZ 0000000180036840 f i SimulationController_static_64:ScScene.obj
 0001:00035850       ?getPxSceneDescSolverArticulationBatchSize@@YAIPEBVPxSceneDesc@physx@@@Z 0000000180036850 f i PxAutoGeneratedMetaDataObjects.obj
 0001:00035860       ?getNumCountedInteractions@SoftBodySim@Sc@physx@@UEBAIXZ 0000000180036860 f i SimulationController_static_64:ScSoftBodySim.obj
 0001:00035860       ?getPxSceneDescSolverBatchSize@@YAIPEBVPxSceneDesc@physx@@@Z 0000000180036860 f i PxAutoGeneratedMetaDataObjects.obj
 0001:00035860       ?getNbFixedTendons@NpArticulationReducedCoordinate@physx@@UEAAIXZ 0000000180036860 f i NpArticulationReducedCoordinate.obj
 0001:00035870       ?getPxSceneDescSolverType@@YA?AW4Enum@PxSolverType@physx@@PEBVPxSceneDesc@3@@Z 0000000180036870 f i PxAutoGeneratedMetaDataObjects.obj
 0001:00035880       ?getPxSimulationStatisticsNbLostPairs@@YAIPEBVPxSimulationStatistics@physx@@@Z 0000000180036880 f i PxAutoGeneratedMetaDataObjects.obj
 0001:00035880       ?getPxSceneDescStaticKineFilteringMode@@YA?AW4Enum@PxPairFilteringMode@physx@@PEBVPxSceneDesc@3@@Z 0000000180036880 f i PxAutoGeneratedMetaDataObjects.obj
 0001:00035890       ?getPxSimulationStatisticsGpuMemHeapSimulation@@YA_KPEBVPxSimulationStatistics@physx@@@Z 0000000180036890 f i PxAutoGeneratedMetaDataObjects.obj
 0001:00035890       ?getPxSceneDescUserData@@YAPEAXPEBVPxSceneDesc@physx@@@Z 0000000180036890 f i PxAutoGeneratedMetaDataObjects.obj
 0001:000358a0       ?getPxSceneDescWakeCounterResetValue@@YAMPEBVPxSceneDesc@physx@@@Z 00000001800368a0 f i PxAutoGeneratedMetaDataObjects.obj
 0001:000358b0       ?getPxSceneLimitsMaxNbAggregates@@YAIPEBVPxSceneLimits@physx@@@Z 00000001800368b0 f i PxAutoGeneratedMetaDataObjects.obj
 0001:000358b0       ?getPxSceneQueryDescStaticBVHBuildStrategy@@YA?AW4Enum@PxBVHBuildStrategy@physx@@PEBVPxSceneQueryDesc@3@@Z 00000001800368b0 f i PxAutoGeneratedMetaDataObjects.obj
 0001:000358b0       ?getNbCcdBodies@PxgSimulationControllerCallback@@UEAAIXZ 00000001800368b0 f i SimulationController_static_64:ScScene.obj
 0001:000358b0       ?raw_length@pcharNode@@UEBAHXZ 00000001800368b0 f i libvcruntime:undname.obj
 0001:000358b0       ?getPxSimulationStatisticsNbDynamicBodies@@YAIPEBVPxSimulationStatistics@physx@@@Z 00000001800368b0 f i PxAutoGeneratedMetaDataObjects.obj
 0001:000358b0       ?getNbPoints@RenderBuffer@Cm@physx@@UEBAIXZ 00000001800368b0 f i NpScene.obj
 0001:000358b0       ?length@pcharNode@@UEBAHXZ 00000001800368b0 f i libvcruntime:undname.obj
 0001:000358b0       ?getPxgDynamicsMemoryConfigFoundLostPairsCapacity@@YAIPEBUPxgDynamicsMemoryConfig@physx@@@Z 00000001800368b0 f i PxAutoGeneratedMetaDataObjects.obj
 0001:000358c0       ?getPxgDynamicsMemoryConfigMaxSoftBodyContacts@@YAIPEBUPxgDynamicsMemoryConfig@physx@@@Z 00000001800368c0 f i PxAutoGeneratedMetaDataObjects.obj
 0001:000358c0       ?getPxSceneQueryDescDynamicNbObjectsPerNode@@YAIPEBVPxSceneQueryDesc@physx@@@Z 00000001800368c0 f i PxAutoGeneratedMetaDataObjects.obj
 0001:000358c0       ?getPxSceneLimitsMaxNbBroadPhaseOverlaps@@YAIPEBVPxSceneLimits@physx@@@Z 00000001800368c0 f i PxAutoGeneratedMetaDataObjects.obj
 0001:000358d0       ?getPxSceneLimitsMaxNbConstraints@@YAIPEBVPxSceneLimits@physx@@@Z 00000001800368d0 f i PxAutoGeneratedMetaDataObjects.obj
 0001:000358d0       ?getPxSceneQueryDescDynamicBVHBuildStrategy@@YA?AW4Enum@PxBVHBuildStrategy@physx@@PEBVPxSceneQueryDesc@3@@Z 00000001800368d0 f i PxAutoGeneratedMetaDataObjects.obj
 0001:000358d0       ?getPxSimulationStatisticsNbKinematicBodies@@YAIPEBVPxSimulationStatistics@physx@@@Z 00000001800368d0 f i PxAutoGeneratedMetaDataObjects.obj
 0001:000358d0       ?getPxgDynamicsMemoryConfigFoundLostAggregatePairsCapacity@@YAIPEBUPxgDynamicsMemoryConfig@physx@@@Z 00000001800368d0 f i PxAutoGeneratedMetaDataObjects.obj
 0001:000358e0       ?getPxgDynamicsMemoryConfigMaxFemClothContacts@@YAIPEBUPxgDynamicsMemoryConfig@physx@@@Z 00000001800368e0 f i PxAutoGeneratedMetaDataObjects.obj
 0001:000358e0       ?getPxSceneQueryDescSceneQueryUpdateMode@@YA?AW4Enum@PxSceneQueryUpdateMode@physx@@PEBVPxSceneQueryDesc@3@@Z 00000001800368e0 f i PxAutoGeneratedMetaDataObjects.obj
 0001:000358e0       ?getNbLines@RenderBuffer@Cm@physx@@UEBAIXZ 00000001800368e0 f i NpScene.obj
 0001:000358e0       ?getReference@PxLightCpuTask@physx@@UEBAHXZ 00000001800368e0 f i NpScene.obj
 0001:000358f0       ?getPxSceneQueryDesc_IsValid@@YA_NPEBVPxSceneQueryDesc@physx@@@Z 00000001800368f0 f   PxAutoGeneratedMetaDataObjects.obj
 0001:00035910       ?getPxSceneQuerySystemBase_DynamicTreeRebuildRateHint@@YAIPEBVPxSceneQuerySystemBase@physx@@@Z 0000000180036910 f   PxAutoGeneratedMetaDataObjects.obj
 0001:00035920       ?getPxScene_Actors@@YAIPEBVPxScene@physx@@V?$PxFlags@W4Enum@PxActorTypeFlag@physx@@G@2@PEAPEAVPxActor@2@I@Z 0000000180036920 f   PxAutoGeneratedMetaDataObjects.obj
 0001:00035950       ?getPxScene_Articulations@@YAIPEBVPxScene@physx@@PEAPEAVPxArticulationReducedCoordinate@2@I@Z 0000000180036950 f   PxAutoGeneratedMetaDataObjects.obj
 0001:00035960       ?getPxScene_BounceThresholdVelocity@@YAMPEBVPxScene@physx@@@Z 0000000180036960 f   PxAutoGeneratedMetaDataObjects.obj
 0001:00035970       ?getPxScene_BroadPhaseCallback@@YAPEAVPxBroadPhaseCallback@physx@@PEBVPxScene@2@@Z 0000000180036970 f   PxAutoGeneratedMetaDataObjects.obj
 0001:00035980       ?getPxScene_BroadPhaseRegions@@YAIPEBVPxScene@physx@@PEAUPxBroadPhaseRegionInfo@2@I@Z 0000000180036980 f   PxAutoGeneratedMetaDataObjects.obj
 0001:00035990       ?getPxScene_BroadPhaseType@@YA?AW4Enum@PxBroadPhaseType@physx@@PEBVPxScene@3@@Z 0000000180036990 f   PxAutoGeneratedMetaDataObjects.obj
 0001:000359a0       ?getPxScene_CCDMaxPasses@@YAIPEBVPxScene@physx@@@Z 00000001800369a0 f   PxAutoGeneratedMetaDataObjects.obj
 0001:000359b0       ?getPxScene_CCDMaxSeparation@@YAMPEBVPxScene@physx@@@Z 00000001800369b0 f   PxAutoGeneratedMetaDataObjects.obj
 0001:000359c0       ?getPxScene_CCDThreshold@@YAMPEBVPxScene@physx@@@Z 00000001800369c0 f   PxAutoGeneratedMetaDataObjects.obj
 0001:000359d0       ?getPxScene_Constraints@@YAIPEBVPxScene@physx@@PEAPEAVPxConstraint@2@I@Z 00000001800369d0 f   PxAutoGeneratedMetaDataObjects.obj
 0001:000359e0       ?getPxScene_ContactModifyCallback@@YAPEAVPxContactModifyCallback@physx@@PEBVPxScene@2@@Z 00000001800369e0 f   PxAutoGeneratedMetaDataObjects.obj
 0001:000359e0       ?setPxRigidBody_ContactSlopCoefficient@@YAXPEAVPxRigidBody@physx@@M@Z 00000001800369e0 f   PxAutoGeneratedMetaDataObjects.obj
 0001:000359f0       ?getPxScene_ContactReportStreamBufferSize@@YAIPEBVPxScene@physx@@@Z 00000001800369f0 f   PxAutoGeneratedMetaDataObjects.obj
 0001:00035a00       ?getPxScene_CpuDispatcher@@YAPEAVPxCpuDispatcher@physx@@PEBVPxScene@2@@Z 0000000180036a00 f   PxAutoGeneratedMetaDataObjects.obj
 0001:00035a10       ?setPxRigidBody_MinCCDAdvanceCoefficient@@YAXPEAVPxRigidBody@physx@@M@Z 0000000180036a10 f   PxAutoGeneratedMetaDataObjects.obj
 0001:00035a10       ?getPxScene_CudaContextManager@@YAPEAVPxCudaContextManager@physx@@PEBVPxScene@2@@Z 0000000180036a10 f   PxAutoGeneratedMetaDataObjects.obj
 0001:00035a20       ?getPxScene_FilterCallback@@YAPEAVPxSimulationFilterCallback@physx@@PEBVPxScene@2@@Z 0000000180036a20 f   PxAutoGeneratedMetaDataObjects.obj
 0001:00035a20       ?setPxRigidDynamic_StabilizationThreshold@@YAXPEAVPxRigidDynamic@physx@@M@Z 0000000180036a20 f   PxAutoGeneratedMetaDataObjects.obj
 0001:00035a30       ?getPxScene_FrictionCorrelationDistance@@YAMPEBVPxScene@physx@@@Z 0000000180036a30 f   PxAutoGeneratedMetaDataObjects.obj
 0001:00035a40       ?getPxScene_FrictionOffsetThreshold@@YAMPEBVPxScene@physx@@@Z 0000000180036a40 f   PxAutoGeneratedMetaDataObjects.obj
 0001:00035a50       ?getPxScene_FrictionType@@YA?AW4Enum@PxFrictionType@physx@@PEBVPxScene@3@@Z 0000000180036a50 f   PxAutoGeneratedMetaDataObjects.obj
 0001:00035a60       ?getPxScene_GpuDynamicsConfig@@YA?AUPxgDynamicsMemoryConfig@physx@@PEBVPxScene@2@@Z 0000000180036a60 f   PxAutoGeneratedMetaDataObjects.obj
 0001:00035a90       ?getPxScene_Gravity@@YA?AV?$PxVec3T@M@physx@@PEBVPxScene@2@@Z 0000000180036a90 f   PxAutoGeneratedMetaDataObjects.obj
 0001:00035ac0       ?getPxScene_KinematicKinematicFilteringMode@@YA?AW4Enum@PxPairFilteringMode@physx@@PEBVPxScene@3@@Z 0000000180036ac0 f   PxAutoGeneratedMetaDataObjects.obj
 0001:00035ad0       ?getPxScene_Limits@@YA?AVPxSceneLimits@physx@@PEBVPxScene@2@@Z 0000000180036ad0 f   PxAutoGeneratedMetaDataObjects.obj
 0001:00035b00       ?getPxScene_MaxBiasCoefficient@@YAMPEBVPxScene@physx@@@Z 0000000180036b00 f   PxAutoGeneratedMetaDataObjects.obj
 0001:00035b10       ?getPxScene_MaxNbContactDataBlocksUsed@@YAIPEBVPxScene@physx@@@Z 0000000180036b10 f   PxAutoGeneratedMetaDataObjects.obj
 0001:00035b20       ?getPxScene_SoftBodies@@YAIPEBVPxScene@physx@@PEAPEAVPxSoftBody@2@I@Z 0000000180036b20 f   PxAutoGeneratedMetaDataObjects.obj
 0001:00035b30       ?getPxScene_SolverArticulationBatchSize@@YAIPEBVPxScene@physx@@@Z 0000000180036b30 f   PxAutoGeneratedMetaDataObjects.obj
 0001:00035b40       ?getPxScene_SolverBatchSize@@YAIPEBVPxScene@physx@@@Z 0000000180036b40 f   PxAutoGeneratedMetaDataObjects.obj
 0001:00035b50       ?getPxScene_SolverType@@YA?AW4Enum@PxSolverType@physx@@PEBVPxScene@3@@Z 0000000180036b50 f   PxAutoGeneratedMetaDataObjects.obj
 0001:00035b60       ?getPxScene_StaticKinematicFilteringMode@@YA?AW4Enum@PxPairFilteringMode@physx@@PEBVPxScene@3@@Z 0000000180036b60 f   PxAutoGeneratedMetaDataObjects.obj
 0001:00035b70       ?getPxScene_TaskManager@@YAPEAVPxTaskManager@physx@@PEBVPxScene@2@@Z 0000000180036b70 f   PxAutoGeneratedMetaDataObjects.obj
 0001:00035b80       ?getPxScene_VisualizationCullingBox@@YA?AVPxBounds3@physx@@PEBVPxScene@2@@Z 0000000180036b80 f   PxAutoGeneratedMetaDataObjects.obj
 0001:00035bb0       ?getPxScene_WakeCounterResetValue@@YAMPEBVPxScene@physx@@@Z 0000000180036bb0 f   PxAutoGeneratedMetaDataObjects.obj
 0001:00035bc0       ?getPxShape_Flags@@YA?AV?$PxFlags@W4Enum@PxShapeFlag@physx@@E@physx@@PEBVPxShape@2@@Z 0000000180036bc0 f   PxAutoGeneratedMetaDataObjects.obj
 0001:00035bf0       ?getPxShape_GeometryType@@YA?AW4Enum@PxGeometryType@physx@@PEBVPxShape@3@@Z 0000000180036bf0 f   PxAutoGeneratedMetaDataObjects.obj
 0001:00035c10       ?getPxShape_MinTorsionalPatchRadius@@YAMPEBVPxShape@physx@@@Z 0000000180036c10 f   PxAutoGeneratedMetaDataObjects.obj
 0001:00035c10       ?setPxPBDMaterial_ParticleAdhesionScale@@YAXPEAVPxPBDMaterial@physx@@M@Z 0000000180036c10 f   PxAutoGeneratedMetaDataObjects.obj
 0001:00035c20       ?getPxShape_Name@@YAPEBDPEBVPxShape@physx@@@Z 0000000180036c20 f   PxAutoGeneratedMetaDataObjects.obj
 0001:00035c30       ?getPxShape_QueryFilterData@@YA?AUPxFilterData@physx@@PEBVPxShape@2@@Z 0000000180036c30 f   PxAutoGeneratedMetaDataObjects.obj
 0001:00035c60       ?getPxShape_SimulationFilterData@@YA?AUPxFilterData@physx@@PEBVPxShape@2@@Z 0000000180036c60 f   PxAutoGeneratedMetaDataObjects.obj
 0001:00035c90       ?getPxSimulationStatisticsGpuMemFEMCloths@@YA_KPEBVPxSimulationStatistics@physx@@@Z 0000000180036c90 f i PxAutoGeneratedMetaDataObjects.obj
 0001:00035ca0       ?getPxSimulationStatisticsGpuMemHairSystems@@YA_KPEBVPxSimulationStatistics@physx@@@Z 0000000180036ca0 f i PxAutoGeneratedMetaDataObjects.obj
 0001:00035cb0       ?getTorsionalData@PxsNphaseImplementationContext@physx@@UEAAPEAUPxsTorsionalFrictionData@2@XZ 0000000180036cb0 f i LowLevel_static_64:PxsNphaseImplementationContext.obj
 0001:00035cb0       ?getPxSimulationStatisticsGpuMemHeap@@YA_KPEBVPxSimulationStatistics@physx@@@Z 0000000180036cb0 f i PxAutoGeneratedMetaDataObjects.obj
 0001:00035cc0       ?getPxSimulationStatisticsGpuMemHeapBroadPhase@@YA_KPEBVPxSimulationStatistics@physx@@@Z 0000000180036cc0 f i PxAutoGeneratedMetaDataObjects.obj
 0001:00035cd0       ?getPxSimulationStatisticsGpuMemHeapFEMCloths@@YA_KPEBVPxSimulationStatistics@physx@@@Z 0000000180036cd0 f i PxAutoGeneratedMetaDataObjects.obj
 0001:00035cd0       ?getFoundation@NpPhysics@physx@@UEAAAEAVPxFoundation@2@XZ 0000000180036cd0 f i NpPhysics.obj
 0001:00035ce0       ?getCudaContextManager@NpSoftBody@physx@@UEBAPEAVPxCudaContextManager@2@XZ 0000000180036ce0 f i NpSoftBody.obj
 0001:00035ce0       ?getPxSimulationStatisticsGpuMemHeapHairSystems@@YA_KPEBVPxSimulationStatistics@physx@@@Z 0000000180036ce0 f i PxAutoGeneratedMetaDataObjects.obj
 0001:00035cf0       ?getPxSimulationStatisticsGpuMemHeapNarrowPhase@@YA_KPEBVPxSimulationStatistics@physx@@@Z 0000000180036cf0 f i PxAutoGeneratedMetaDataObjects.obj
 0001:00035d00       ?getPxSimulationStatisticsGpuMemHeapOther@@YA_KPEBVPxSimulationStatistics@physx@@@Z 0000000180036d00 f i PxAutoGeneratedMetaDataObjects.obj
 0001:00035d10       ?getPxSimulationStatisticsGpuMemHeapParticles@@YA_KPEBVPxSimulationStatistics@physx@@@Z 0000000180036d10 f i PxAutoGeneratedMetaDataObjects.obj
 0001:00035d20       ?getPxSimulationStatisticsGpuMemHeapSimulationArticulation@@YA_KPEBVPxSimulationStatistics@physx@@@Z 0000000180036d20 f i PxAutoGeneratedMetaDataObjects.obj
 0001:00035d30       ?getPxSimulationStatisticsGpuMemHeapSimulationFEMCloth@@YA_KPEBVPxSimulationStatistics@physx@@@Z 0000000180036d30 f i PxAutoGeneratedMetaDataObjects.obj
 0001:00035d30       ?getSimVelocityInvMassCPU@NpSoftBody@physx@@UEAAPEAVPxBuffer@2@XZ 0000000180036d30 f i NpSoftBody.obj
 0001:00035d40       ?getKinematicTargetCPU@NpSoftBody@physx@@UEAAPEAVPxBuffer@2@XZ 0000000180036d40 f i NpSoftBody.obj
 0001:00035d40       ?getPxSimulationStatisticsGpuMemHeapSimulationHairSystem@@YA_KPEBVPxSimulationStatistics@physx@@@Z 0000000180036d40 f i PxAutoGeneratedMetaDataObjects.obj
 0001:00035d50       ?getPxSimulationStatisticsGpuMemHeapSimulationParticles@@YA_KPEBVPxSimulationStatistics@physx@@@Z 0000000180036d50 f i PxAutoGeneratedMetaDataObjects.obj
 0001:00035d60       ?getPxSimulationStatisticsGpuMemHeapSimulationSoftBody@@YA_KPEBVPxSimulationStatistics@physx@@@Z 0000000180036d60 f i PxAutoGeneratedMetaDataObjects.obj
 0001:00035d60       ?getSimPositionInvMassCPU@NpSoftBody@physx@@UEAAPEAVPxBuffer@2@XZ 0000000180036d60 f i NpSoftBody.obj
 0001:00035d70       ?getPxSimulationStatisticsGpuMemHeapSoftBodies@@YA_KPEBVPxSimulationStatistics@physx@@@Z 0000000180036d70 f i PxAutoGeneratedMetaDataObjects.obj
 0001:00035d80       ?getPxSimulationStatisticsGpuMemParticles@@YA_KPEBVPxSimulationStatistics@physx@@@Z 0000000180036d80 f i PxAutoGeneratedMetaDataObjects.obj
 0001:00035d80       ?getRestDistances@PxsNphaseImplementationContext@physx@@UEAAPEAMXZ 0000000180036d80 f i LowLevel_static_64:PxsNphaseImplementationContext.obj
 0001:00035d90       ?getPxSimulationStatisticsGpuMemSoftBodies@@YA_KPEBVPxSimulationStatistics@physx@@@Z 0000000180036d90 f i PxAutoGeneratedMetaDataObjects.obj
 0001:00035da0       ?getPxSimulationStatisticsNbAggregates@@YAIPEBVPxSimulationStatistics@physx@@@Z 0000000180036da0 f i PxAutoGeneratedMetaDataObjects.obj
 0001:00035db0       ?getPxSimulationStatisticsNbArticulations@@YAIPEBVPxSimulationStatistics@physx@@@Z 0000000180036db0 f i PxAutoGeneratedMetaDataObjects.obj
 0001:00035dc0       ?getPxSimulationStatisticsNbAxisSolverConstraints@@YAIPEBVPxSimulationStatistics@physx@@@Z 0000000180036dc0 f i PxAutoGeneratedMetaDataObjects.obj
 0001:00035dd0       ?getPxSimulationStatisticsNbBroadPhaseAdds@@YAIPEBVPxSimulationStatistics@physx@@@Z 0000000180036dd0 f i PxAutoGeneratedMetaDataObjects.obj
 0001:00035de0       ?getPxSimulationStatisticsNbBroadPhaseRemoves@@YAIPEBVPxSimulationStatistics@physx@@@Z 0000000180036de0 f i PxAutoGeneratedMetaDataObjects.obj
 0001:00035df0       ?getPxSimulationStatisticsNbDiscreteContactPairsTotal@@YAIPEBVPxSimulationStatistics@physx@@@Z 0000000180036df0 f i PxAutoGeneratedMetaDataObjects.obj
 0001:00035e00       ?getPxSimulationStatisticsNbDiscreteContactPairsWithCacheHits@@YAIPEBVPxSimulationStatistics@physx@@@Z 0000000180036e00 f i PxAutoGeneratedMetaDataObjects.obj
 0001:00035e10       ?getPxSimulationStatisticsNbDiscreteContactPairsWithContacts@@YAIPEBVPxSimulationStatistics@physx@@@Z 0000000180036e10 f i PxAutoGeneratedMetaDataObjects.obj
 0001:00035e20       ?getPxSimulationStatisticsNbLostTouches@@YAIPEBVPxSimulationStatistics@physx@@@Z 0000000180036e20 f i PxAutoGeneratedMetaDataObjects.obj
 0001:00035e30       ?getPxSimulationStatisticsNbPartitions@@YAIPEBVPxSimulationStatistics@physx@@@Z 0000000180036e30 f i PxAutoGeneratedMetaDataObjects.obj
 0001:00035e40       ?getNbTendonJoints@NpArticulationFixedTendon@physx@@UEBAIXZ 0000000180036e40 f i NpArticulationTendon.obj
 0001:00035e40       ?getNbAttachments@NpArticulationSpatialTendon@physx@@UEBAIXZ 0000000180036e40 f i NpArticulationTendon.obj
 0001:00035e40       ?getPxSimulationStatisticsPeakConstraintMemory@@YAIPEBVPxSimulationStatistics@physx@@@Z 0000000180036e40 f i PxAutoGeneratedMetaDataObjects.obj
 0001:00035e50       ?getPxSimulationStatisticsRequiredContactConstraintMemory@@YAIPEBVPxSimulationStatistics@physx@@@Z 0000000180036e50 f i PxAutoGeneratedMetaDataObjects.obj
 0001:00035e60       ?getPxTolerancesScale_IsValid@@YA_NPEBVPxTolerancesScale@physx@@@Z 0000000180036e60 f   PxAutoGeneratedMetaDataObjects.obj
 0001:00035e70       ?getPxTriangleMeshGeometryMeshFlags@@YA?AV?$PxFlags@W4Enum@PxMeshGeometryFlag@physx@@E@physx@@PEBVPxTriangleMeshGeometry@2@@Z 0000000180036e70 f i PxAutoGeneratedMetaDataObjects.obj
 0001:00035e80       ?getPxgDynamicsMemoryConfigCollisionStackSize@@YAIPEBUPxgDynamicsMemoryConfig@physx@@@Z 0000000180036e80 f i PxAutoGeneratedMetaDataObjects.obj
 0001:00035e90       ?getPxgDynamicsMemoryConfigMaxHairContacts@@YAIPEBUPxgDynamicsMemoryConfig@physx@@@Z 0000000180036e90 f i PxAutoGeneratedMetaDataObjects.obj
 0001:00035ea0       ?getPxgDynamicsMemoryConfigMaxParticleContacts@@YAIPEBUPxgDynamicsMemoryConfig@physx@@@Z 0000000180036ea0 f i PxAutoGeneratedMetaDataObjects.obj
 0001:00035eb0       ?setPxArticulationJointReducedCoordinateUserData@@YAXPEAVPxArticulationJointReducedCoordinate@physx@@PEAX@Z 0000000180036eb0 f i PxAutoGeneratedMetaDataObjects.obj
 0001:00035eb0       ?setPxConstraintUserData@@YAXPEAVPxConstraint@physx@@PEAX@Z 0000000180036eb0 f i PxAutoGeneratedMetaDataObjects.obj
 0001:00035eb0       ?setPxShapeUserData@@YAXPEAVPxShape@physx@@PEAX@Z 0000000180036eb0 f i PxAutoGeneratedMetaDataObjects.obj
 0001:00035eb0       ?setPxBaseMaterialUserData@@YAXPEAVPxBaseMaterial@physx@@PEAX@Z 0000000180036eb0 f i PxAutoGeneratedMetaDataObjects.obj
 0001:00035eb0       ?setPxArticulationReducedCoordinateUserData@@YAXPEAVPxArticulationReducedCoordinate@physx@@PEAX@Z 0000000180036eb0 f i PxAutoGeneratedMetaDataObjects.obj
 0001:00035eb0       ?setCpuDispatcher@PxTaskMgr@physx@@UEAAXAEAVPxCpuDispatcher@2@@Z 0000000180036eb0 f i PhysXTask_static_64:TaskManager.obj
 0001:00035eb0       ?setPxAggregateUserData@@YAXPEAVPxAggregate@physx@@PEAX@Z 0000000180036eb0 f i PxAutoGeneratedMetaDataObjects.obj
 0001:00035eb0       ?setPxActorUserData@@YAXPEAVPxActor@physx@@PEAX@Z 0000000180036eb0 f i PxAutoGeneratedMetaDataObjects.obj
 0001:00035eb0       ?setPxBroadPhaseDescMContextManager@@YAXPEAVPxBroadPhaseDesc@physx@@PEAVPxCudaContextManager@2@@Z 0000000180036eb0 f i PxAutoGeneratedMetaDataObjects.obj
 0001:00035ec0       ?setPxActor_ActorFlags@@YAXPEAVPxActor@physx@@V?$PxFlags@W4Enum@PxActorFlag@physx@@E@2@@Z 0000000180036ec0 f   PxAutoGeneratedMetaDataObjects.obj
 0001:00035ee0       ?setPxTolerancesScaleSpeed@@YAXPEAVPxTolerancesScale@physx@@M@Z 0000000180036ee0 f i PxAutoGeneratedMetaDataObjects.obj
 0001:00035ee0       ?setPxArticulationLimitHigh@@YAXPEAUPxArticulationLimit@physx@@M@Z 0000000180036ee0 f i PxAutoGeneratedMetaDataObjects.obj
 0001:00035ee0       ?setPxArticulationDriveDamping@@YAXPEAUPxArticulationDrive@physx@@M@Z 0000000180036ee0 f i PxAutoGeneratedMetaDataObjects.obj
 0001:00035ef0       ?setPxgDynamicsMemoryConfigHeapCapacity@@YAXPEAUPxgDynamicsMemoryConfig@physx@@I@Z 0000000180036ef0 f i PxAutoGeneratedMetaDataObjects.obj
 0001:00035ef0       ?setPxSimulationStatisticsNbStaticBodies@@YAXPEAVPxSimulationStatistics@physx@@I@Z 0000000180036ef0 f i PxAutoGeneratedMetaDataObjects.obj
 0001:00035ef0       ?setPxArticulationDriveDriveType@@YAXPEAUPxArticulationDrive@physx@@W4Enum@PxArticulationDriveType@2@@Z 0000000180036ef0 f i PxAutoGeneratedMetaDataObjects.obj
 0001:00035ef0       ?setPxSceneQueryDescDynamicTreeSecondaryPruner@@YAXPEAVPxSceneQueryDesc@physx@@W4Enum@PxDynamicTreeSecondaryPruner@2@@Z 0000000180036ef0 f i PxAutoGeneratedMetaDataObjects.obj
 0001:00035ef0       ?setPxSceneLimitsMaxNbDynamicShapes@@YAXPEAVPxSceneLimits@physx@@I@Z 0000000180036ef0 f i PxAutoGeneratedMetaDataObjects.obj
 0001:00035f00       ?setPxSphereGeometryRadius@@YAXPEAVPxSphereGeometry@physx@@M@Z 0000000180036f00 f i PxAutoGeneratedMetaDataObjects.obj
 0001:00035f00       ?setPxArticulationDriveMaxForce@@YAXPEAUPxArticulationDrive@physx@@M@Z 0000000180036f00 f i PxAutoGeneratedMetaDataObjects.obj
 0001:00035f00       ?setPxCapsuleGeometryRadius@@YAXPEAVPxCapsuleGeometry@physx@@M@Z 0000000180036f00 f i PxAutoGeneratedMetaDataObjects.obj
 0001:00035f10       ?setPxArticulationLimitLow@@YAXPEAUPxArticulationLimit@physx@@M@Z 0000000180036f10 f i PxAutoGeneratedMetaDataObjects.obj
 0001:00035f10       ?setPxTolerancesScaleLength@@YAXPEAVPxTolerancesScale@physx@@M@Z 0000000180036f10 f i PxAutoGeneratedMetaDataObjects.obj
 0001:00035f10       ?setPxArticulationDriveStiffness@@YAXPEAUPxArticulationDrive@physx@@M@Z 0000000180036f10 f i PxAutoGeneratedMetaDataObjects.obj
 0001:00035f20       ?setPxArticulationJointReducedCoordinate_DriveParams@@YAXPEAVPxArticulationJointReducedCoordinate@physx@@W4Enum@PxArticulationAxis@2@UPxArticulationDrive@2@@Z 0000000180036f20 f   PxAutoGeneratedMetaDataObjects.obj
 0001:00035f40       ?setPxArticulationJointReducedCoordinate_LimitParams@@YAXPEAVPxArticulationJointReducedCoordinate@physx@@W4Enum@PxArticulationAxis@2@UPxArticulationLimit@2@@Z 0000000180036f40 f   PxAutoGeneratedMetaDataObjects.obj
 0001:00035f60       ?setPxArticulationReducedCoordinate_ArticulationFlags@@YAXPEAVPxArticulationReducedCoordinate@physx@@V?$PxFlags@W4Enum@PxArticulationFlag@physx@@E@2@@Z 0000000180036f60 f   PxAutoGeneratedMetaDataObjects.obj
 0001:00035f80       ?setPxArticulationReducedCoordinate_RootAngularVelocity@@YAXPEAVPxArticulationReducedCoordinate@physx@@AEBV?$PxVec3T@M@2@@Z 0000000180036f80 f   PxAutoGeneratedMetaDataObjects.obj
 0001:00035f90       ?setPxArticulationReducedCoordinate_RootGlobalPose@@YAXPEAVPxArticulationReducedCoordinate@physx@@AEBV?$PxTransformT@M@2@@Z 0000000180036f90 f   PxAutoGeneratedMetaDataObjects.obj
 0001:00035fa0       ?setPxArticulationReducedCoordinate_RootLinearVelocity@@YAXPEAVPxArticulationReducedCoordinate@physx@@AEBV?$PxVec3T@M@2@@Z 0000000180036fa0 f   PxAutoGeneratedMetaDataObjects.obj
 0001:00035fb0       ?setPxBoxGeometryHalfExtents@@YAXPEAVPxBoxGeometry@physx@@V?$PxVec3T@M@2@@Z 0000000180036fb0 f i PxAutoGeneratedMetaDataObjects.obj
 0001:00035fd0       ?setPxTetrahedronMeshGeometryTetrahedronMesh@@YAXPEAVPxTetrahedronMeshGeometry@physx@@PEAVPxTetrahedronMesh@2@@Z 0000000180036fd0 f i PxAutoGeneratedMetaDataObjects.obj
 0001:00035fd0       ?setPxHeightFieldGeometryHeightField@@YAXPEAVPxHeightFieldGeometry@physx@@PEAVPxHeightField@2@@Z 0000000180036fd0 f i PxAutoGeneratedMetaDataObjects.obj
 0001:00035fd0       ?setPxSceneUserData@@YAXPEAVPxScene@physx@@PEAX@Z 0000000180036fd0 f i PxAutoGeneratedMetaDataObjects.obj
 0001:00035fd0       ?setPxBroadPhaseDescMContextID@@YAXPEAVPxBroadPhaseDesc@physx@@_K@Z 0000000180036fd0 f i PxAutoGeneratedMetaDataObjects.obj
 0001:00035fe0       ?setPxBroadPhaseDescMDiscardKinematicVsKinematic@@YAXPEAVPxBroadPhaseDesc@physx@@_N@Z 0000000180036fe0 f i PxAutoGeneratedMetaDataObjects.obj
 0001:00035ff0       ?setPxBroadPhaseDescMDiscardStaticVsKinematic@@YAXPEAVPxBroadPhaseDesc@physx@@_N@Z 0000000180036ff0 f i PxAutoGeneratedMetaDataObjects.obj
 0001:00036000       ?setPxSceneLimitsMaxNbRegions@@YAXPEAVPxSceneLimits@physx@@I@Z 0000000180037000 f i PxAutoGeneratedMetaDataObjects.obj
 0001:00036000       ?setPxBroadPhaseDescMFoundLostPairsCapacity@@YAXPEAVPxBroadPhaseDesc@physx@@I@Z 0000000180037000 f i PxAutoGeneratedMetaDataObjects.obj
 0001:00036000       ?setPxSceneQueryDescStaticNbObjectsPerNode@@YAXPEAVPxSceneQueryDesc@physx@@I@Z 0000000180037000 f i PxAutoGeneratedMetaDataObjects.obj
 0001:00036000       ?setPxgDynamicsMemoryConfigTotalAggregatePairsCapacity@@YAXPEAUPxgDynamicsMemoryConfig@physx@@I@Z 0000000180037000 f i PxAutoGeneratedMetaDataObjects.obj
 0001:00036010       ?setPxHeightFieldDescNbRows@@YAXPEAVPxHeightFieldDesc@physx@@I@Z 0000000180037010 f i PxAutoGeneratedMetaDataObjects.obj
 0001:00036010       ?setPxgDynamicsMemoryConfigTempBufferCapacity@@YAXPEAUPxgDynamicsMemoryConfig@physx@@I@Z 0000000180037010 f i PxAutoGeneratedMetaDataObjects.obj
 0001:00036010       ?setPxSceneQueryDescStaticStructure@@YAXPEAVPxSceneQueryDesc@physx@@W4Enum@PxPruningStructureType@2@@Z 0000000180037010 f i PxAutoGeneratedMetaDataObjects.obj
 0001:00036010       ?setPxBroadPhaseDescMType@@YAXPEAVPxBroadPhaseDesc@physx@@W4Enum@PxBroadPhaseType@2@@Z 0000000180037010 f i PxAutoGeneratedMetaDataObjects.obj
 0001:00036010       ?setPxSceneLimitsMaxNbActors@@YAXPEAVPxSceneLimits@physx@@I@Z 0000000180037010 f i PxAutoGeneratedMetaDataObjects.obj
 0001:00036010       ?setPxSimulationStatisticsNbActiveConstraints@@YAXPEAVPxSimulationStatistics@physx@@I@Z 0000000180037010 f i PxAutoGeneratedMetaDataObjects.obj
 0001:00036020       ?setPxCapsuleGeometryHalfHeight@@YAXPEAVPxCapsuleGeometry@physx@@M@Z 0000000180037020 f i PxAutoGeneratedMetaDataObjects.obj
 0001:00036030       ?setPxConstraint_Flags@@YAXPEAVPxConstraint@physx@@V?$PxFlags@W4Enum@PxConstraintFlag@physx@@G@2@@Z 0000000180037030 f   PxAutoGeneratedMetaDataObjects.obj
 0001:00036050       ?setPxConvexMeshGeometryConvexMesh@@YAXPEAVPxConvexMeshGeometry@physx@@PEAVPxConvexMesh@2@@Z 0000000180037050 f i PxAutoGeneratedMetaDataObjects.obj
 0001:00036050       ?setPxTriangleMeshGeometryTriangleMesh@@YAXPEAVPxTriangleMeshGeometry@physx@@PEAVPxTriangleMesh@2@@Z 0000000180037050 f i PxAutoGeneratedMetaDataObjects.obj
 0001:00036060       ?setPxConvexMeshGeometryMeshFlags@@YAXPEAVPxConvexMeshGeometry@physx@@V?$PxFlags@W4Enum@PxConvexMeshGeometryFlag@physx@@E@2@@Z 0000000180037060 f i PxAutoGeneratedMetaDataObjects.obj
 0001:00036070       ?setPxTriangleMeshGeometryScale@@YAXPEAVPxTriangleMeshGeometry@physx@@VPxMeshScale@2@@Z 0000000180037070 f i PxAutoGeneratedMetaDataObjects.obj
 0001:00036070       ?setPxConvexMeshGeometryScale@@YAXPEAVPxConvexMeshGeometry@physx@@VPxMeshScale@2@@Z 0000000180037070 f i PxAutoGeneratedMetaDataObjects.obj
 0001:000360a0       ?setPxHeightFieldDescConvexEdgeThreshold@@YAXPEAVPxHeightFieldDesc@physx@@M@Z 00000001800370a0 f i PxAutoGeneratedMetaDataObjects.obj
 0001:000360b0       ?setPxHeightFieldDescFlags@@YAXPEAVPxHeightFieldDesc@physx@@V?$PxFlags@W4Enum@PxHeightFieldFlag@physx@@G@2@@Z 00000001800370b0 f i PxAutoGeneratedMetaDataObjects.obj
 0001:000360c0       ?setPxHeightFieldDescFormat@@YAXPEAVPxHeightFieldDesc@physx@@W4Enum@PxHeightFieldFormat@2@@Z 00000001800370c0 f i PxAutoGeneratedMetaDataObjects.obj
 0001:000360c0       ?setPxSimulationStatisticsNbActiveKinematicBodies@@YAXPEAVPxSimulationStatistics@physx@@I@Z 00000001800370c0 f i PxAutoGeneratedMetaDataObjects.obj
 0001:000360c0       ?setPxgDynamicsMemoryConfigMaxRigidPatchCount@@YAXPEAUPxgDynamicsMemoryConfig@physx@@I@Z 00000001800370c0 f i PxAutoGeneratedMetaDataObjects.obj
 0001:000360c0       ?setPxSceneLimitsMaxNbStaticShapes@@YAXPEAVPxSceneLimits@physx@@I@Z 00000001800370c0 f i PxAutoGeneratedMetaDataObjects.obj
 0001:000360c0       ?setPxSceneQueryDescDynamicTreeRebuildRateHint@@YAXPEAVPxSceneQueryDesc@physx@@I@Z 00000001800370c0 f i PxAutoGeneratedMetaDataObjects.obj
 0001:000360d0       ?setPxgDynamicsMemoryConfigMaxRigidContactCount@@YAXPEAUPxgDynamicsMemoryConfig@physx@@I@Z 00000001800370d0 f i PxAutoGeneratedMetaDataObjects.obj
 0001:000360d0       ?setPxSimulationStatisticsNbActiveDynamicBodies@@YAXPEAVPxSimulationStatistics@physx@@I@Z 00000001800370d0 f i PxAutoGeneratedMetaDataObjects.obj
 0001:000360d0       ?setPxSceneLimitsMaxNbBodies@@YAXPEAVPxSceneLimits@physx@@I@Z 00000001800370d0 f i PxAutoGeneratedMetaDataObjects.obj
 0001:000360d0       ?setPxHeightFieldDescNbColumns@@YAXPEAVPxHeightFieldDesc@physx@@I@Z 00000001800370d0 f i PxAutoGeneratedMetaDataObjects.obj
 0001:000360d0       ?setPxSceneQueryDescDynamicStructure@@YAXPEAVPxSceneQueryDesc@physx@@W4Enum@PxPruningStructureType@2@@Z 00000001800370d0 f i PxAutoGeneratedMetaDataObjects.obj
 0001:000360e0       ?setPxHeightFieldDescSamples@@YAXPEAVPxHeightFieldDesc@physx@@UPxStridedData@2@@Z 00000001800370e0 f i PxAutoGeneratedMetaDataObjects.obj
 0001:000360f0       ?setPxHeightFieldGeometryColumnScale@@YAXPEAVPxHeightFieldGeometry@physx@@M@Z 00000001800370f0 f i PxAutoGeneratedMetaDataObjects.obj
 0001:00036100       ?setPxHeightFieldGeometryHeightFieldFlags@@YAXPEAVPxHeightFieldGeometry@physx@@V?$PxFlags@W4Enum@PxMeshGeometryFlag@physx@@E@2@@Z 0000000180037100 f i PxAutoGeneratedMetaDataObjects.obj
 0001:00036110       ?setPxHeightFieldGeometryHeightScale@@YAXPEAVPxHeightFieldGeometry@physx@@M@Z 0000000180037110 f i PxAutoGeneratedMetaDataObjects.obj
 0001:00036120       ?setPxHeightFieldGeometryRowScale@@YAXPEAVPxHeightFieldGeometry@physx@@M@Z 0000000180037120 f i PxAutoGeneratedMetaDataObjects.obj
 0001:00036130       ?setPxMaterial_Flags@@YAXPEAVPxMaterial@physx@@V?$PxFlags@W4Enum@PxMaterialFlag@physx@@G@2@@Z 0000000180037130 f   PxAutoGeneratedMetaDataObjects.obj
 0001:00036150       ?setPxMeshScaleRotation@@YAXPEAVPxMeshScale@physx@@V?$PxQuatT@M@2@@Z 0000000180037150 f i PxAutoGeneratedMetaDataObjects.obj
 0001:00036170       ?setPxMeshScaleScale@@YAXPEAVPxMeshScale@physx@@V?$PxVec3T@M@2@@Z 0000000180037170 f i PxAutoGeneratedMetaDataObjects.obj
 0001:00036190       ?setPxRigidActor_GlobalPose@@YAXPEAVPxRigidActor@physx@@AEBV?$PxTransformT@M@2@@Z 0000000180037190 f   PxAutoGeneratedMetaDataObjects.obj
 0001:000361a0       ?setPxRigidBody_AngularDamping@@YAXPEAVPxRigidBody@physx@@M@Z 00000001800371a0 f   PxAutoGeneratedMetaDataObjects.obj
 0001:000361b0       ?setPxRigidBody_MaxAngularVelocity@@YAXPEAVPxRigidBody@physx@@M@Z 00000001800371b0 f   PxAutoGeneratedMetaDataObjects.obj
 0001:000361c0       ?setPxScene_SimulationEventCallback@@YAXPEAVPxScene@physx@@PEAVPxSimulationEventCallback@2@@Z 00000001800371c0 f   PxAutoGeneratedMetaDataObjects.obj
 0001:000361c0       ?setPxRigidBody_MaxDepenetrationVelocity@@YAXPEAVPxRigidBody@physx@@M@Z 00000001800371c0 f   PxAutoGeneratedMetaDataObjects.obj
 0001:000361d0       ?setPxRigidBody_MaxLinearVelocity@@YAXPEAVPxRigidBody@physx@@M@Z 00000001800371d0 f   PxAutoGeneratedMetaDataObjects.obj
 0001:000361e0       ?setPxRigidBody_RigidBodyFlags@@YAXPEAVPxRigidBody@physx@@V?$PxFlags@W4Enum@PxRigidBodyFlag@physx@@G@2@@Z 00000001800371e0 f   PxAutoGeneratedMetaDataObjects.obj
 0001:00036200       ?setPxRigidDynamic_AngularVelocity@@YAXPEAVPxRigidDynamic@physx@@AEBV?$PxVec3T@M@2@@Z 0000000180037200 f   PxAutoGeneratedMetaDataObjects.obj
 0001:00036210       ?setPxRigidDynamic_ContactReportThreshold@@YAXPEAVPxRigidDynamic@physx@@M@Z 0000000180037210 f   PxAutoGeneratedMetaDataObjects.obj
 0001:00036220       ?setPxRigidDynamic_LinearVelocity@@YAXPEAVPxRigidDynamic@physx@@AEBV?$PxVec3T@M@2@@Z 0000000180037220 f   PxAutoGeneratedMetaDataObjects.obj
 0001:00036230       ?setPxRigidDynamic_RigidDynamicLockFlags@@YAXPEAVPxRigidDynamic@physx@@V?$PxFlags@W4Enum@PxRigidDynamicLockFlag@physx@@E@2@@Z 0000000180037230 f   PxAutoGeneratedMetaDataObjects.obj
 0001:00036250       ?setPxRigidDynamic_SolverIterationCounts@@YAXPEAVPxRigidDynamic@physx@@II@Z 0000000180037250 f   PxAutoGeneratedMetaDataObjects.obj
 0001:00036260       ?setPxRigidDynamic_WakeCounter@@YAXPEAVPxRigidDynamic@physx@@M@Z 0000000180037260 f   PxAutoGeneratedMetaDataObjects.obj
 0001:00036270       ?setPxSceneDescBounceThresholdVelocity@@YAXPEAVPxSceneDesc@physx@@M@Z 0000000180037270 f i PxAutoGeneratedMetaDataObjects.obj
 0001:00036280       ?setPxSceneDescBroadPhaseCallback@@YAXPEAVPxSceneDesc@physx@@PEAVPxBroadPhaseCallback@2@@Z 0000000180037280 f i PxAutoGeneratedMetaDataObjects.obj
 0001:00036290       ?setPxSimulationStatisticsNbNewTouches@@YAXPEAVPxSimulationStatistics@physx@@I@Z 0000000180037290 f i PxAutoGeneratedMetaDataObjects.obj
 0001:00036290       ?setPxSceneDescBroadPhaseType@@YAXPEAVPxSceneDesc@physx@@W4Enum@PxBroadPhaseType@2@@Z 0000000180037290 f i PxAutoGeneratedMetaDataObjects.obj
 0001:000362a0       ?setPxSceneDescCcdContactModifyCallback@@YAXPEAVPxSceneDesc@physx@@PEAVPxCCDContactModifyCallback@2@@Z 00000001800372a0 f i PxAutoGeneratedMetaDataObjects.obj
 0001:000362b0       ?setPxSceneDescCcdMaxPasses@@YAXPEAVPxSceneDesc@physx@@I@Z 00000001800372b0 f i PxAutoGeneratedMetaDataObjects.obj
 0001:000362c0       ?setPxSceneDescCcdMaxSeparation@@YAXPEAVPxSceneDesc@physx@@M@Z 00000001800372c0 f i PxAutoGeneratedMetaDataObjects.obj
 0001:000362c0       ?setMaxVelocity@ParticleSystemCore@Sc@physx@@QEAAXM@Z 00000001800372c0 f i SimulationController_static_64:ScParticleSystemCore.obj
 0001:000362d0       ?setMaxDepenetrationVelocity@ParticleSystemCore@Sc@physx@@QEAAXM@Z 00000001800372d0 f i SimulationController_static_64:ScParticleSystemCore.obj
 0001:000362d0       ?setPxSceneDescCcdThreshold@@YAXPEAVPxSceneDesc@physx@@M@Z 00000001800372d0 f i PxAutoGeneratedMetaDataObjects.obj
 0001:000362e0       ?setPxSceneDescContactModifyCallback@@YAXPEAVPxSceneDesc@physx@@PEAVPxContactModifyCallback@2@@Z 00000001800372e0 f i PxAutoGeneratedMetaDataObjects.obj
 0001:000362f0       ?setPxSceneDescContactPairSlabSize@@YAXPEAVPxSceneDesc@physx@@I@Z 00000001800372f0 f i PxAutoGeneratedMetaDataObjects.obj
 0001:00036300       ?setPxSceneDescContactReportStreamBufferSize@@YAXPEAVPxSceneDesc@physx@@I@Z 0000000180037300 f i PxAutoGeneratedMetaDataObjects.obj
 0001:00036310       ?setPxSceneDescCpuDispatcher@@YAXPEAVPxSceneDesc@physx@@PEAVPxCpuDispatcher@2@@Z 0000000180037310 f i PxAutoGeneratedMetaDataObjects.obj
 0001:00036310       ?setPxSimulationStatisticsGpuMemHeapSolver@@YAXPEAVPxSimulationStatistics@physx@@_K@Z 0000000180037310 f i PxAutoGeneratedMetaDataObjects.obj
 0001:00036320       ?setPxSimulationStatisticsGpuMemHeapArticulation@@YAXPEAVPxSimulationStatistics@physx@@_K@Z 0000000180037320 f i PxAutoGeneratedMetaDataObjects.obj
 0001:00036320       ?setPxSceneDescCudaContextManager@@YAXPEAVPxSceneDesc@physx@@PEAVPxCudaContextManager@2@@Z 0000000180037320 f i PxAutoGeneratedMetaDataObjects.obj
 0001:00036330       ?setPxSceneDescFilterCallback@@YAXPEAVPxSceneDesc@physx@@PEAVPxSimulationFilterCallback@2@@Z 0000000180037330 f i PxAutoGeneratedMetaDataObjects.obj
 0001:00036340       ?setPxSceneDescFilterShader@@YAXPEAVPxSceneDesc@physx@@P6A?AV?$PxFlags@W4Enum@PxFilterFlag@physx@@G@2@IUPxFilterData@2@I1AEAV?$PxFlags@W4Enum@PxPairFlag@physx@@G@2@PEBXI@Z@Z 0000000180037340 f i PxAutoGeneratedMetaDataObjects.obj
 0001:00036350       ?setPxSceneDescFilterShaderData@@YAXPEAVPxSceneDesc@physx@@PEBX@Z 0000000180037350 f i PxAutoGeneratedMetaDataObjects.obj
 0001:00036360       ?setPxSimulationStatisticsCompressedContactSize@@YAXPEAVPxSimulationStatistics@physx@@I@Z 0000000180037360 f i PxAutoGeneratedMetaDataObjects.obj
 0001:00036360       ?setPxSceneDescFilterShaderDataSize@@YAXPEAVPxSceneDesc@physx@@I@Z 0000000180037360 f i PxAutoGeneratedMetaDataObjects.obj
 0001:00036370       ?setPxSceneDescFlags@@YAXPEAVPxSceneDesc@physx@@V?$PxFlags@W4Enum@PxSceneFlag@physx@@I@2@@Z 0000000180037370 f i PxAutoGeneratedMetaDataObjects.obj
 0001:00036380       ?setPxSceneDescFrictionCorrelationDistance@@YAXPEAVPxSceneDesc@physx@@M@Z 0000000180037380 f i PxAutoGeneratedMetaDataObjects.obj
 0001:00036390       ?setPxSceneDescFrictionOffsetThreshold@@YAXPEAVPxSceneDesc@physx@@M@Z 0000000180037390 f i PxAutoGeneratedMetaDataObjects.obj
 0001:000363a0       ?setPxSceneDescFrictionType@@YAXPEAVPxSceneDesc@physx@@W4Enum@PxFrictionType@2@@Z 00000001800373a0 f i PxAutoGeneratedMetaDataObjects.obj
 0001:000363b0       ?setPxSceneDescGpuComputeVersion@@YAXPEAVPxSceneDesc@physx@@I@Z 00000001800373b0 f i PxAutoGeneratedMetaDataObjects.obj
 0001:000363c0       ?setPxSceneDescGpuDynamicsConfig@@YAXPEAVPxSceneDesc@physx@@UPxgDynamicsMemoryConfig@2@@Z 00000001800373c0 f i PxAutoGeneratedMetaDataObjects.obj
 0001:000363f0       ?setPxSceneDescGpuMaxNumPartitions@@YAXPEAVPxSceneDesc@physx@@I@Z 00000001800373f0 f i PxAutoGeneratedMetaDataObjects.obj
 0001:00036400       ?setPxSceneDescGpuMaxNumStaticPartitions@@YAXPEAVPxSceneDesc@physx@@I@Z 0000000180037400 f i PxAutoGeneratedMetaDataObjects.obj
 0001:00036410       ?setPxSceneDescGravity@@YAXPEAVPxSceneDesc@physx@@V?$PxVec3T@M@2@@Z 0000000180037410 f i PxAutoGeneratedMetaDataObjects.obj
 0001:00036430       ?setPxSceneDescKineKineFilteringMode@@YAXPEAVPxSceneDesc@physx@@W4Enum@PxPairFilteringMode@2@@Z 0000000180037430 f i PxAutoGeneratedMetaDataObjects.obj
 0001:00036430       ?setPxSimulationStatisticsNbNewPairs@@YAXPEAVPxSimulationStatistics@physx@@I@Z 0000000180037430 f i PxAutoGeneratedMetaDataObjects.obj
 0001:00036440       ?setPxSceneDescLimits@@YAXPEAVPxSceneDesc@physx@@VPxSceneLimits@2@@Z 0000000180037440 f i PxAutoGeneratedMetaDataObjects.obj
 0001:00036460       ?setPxSceneDescMaxBiasCoefficient@@YAXPEAVPxSceneDesc@physx@@M@Z 0000000180037460 f i PxAutoGeneratedMetaDataObjects.obj
 0001:00036460       ?setFluidRestOffset@ParticleSystemCore@Sc@physx@@QEAAXM@Z 0000000180037460 f i SimulationController_static_64:ScParticleSystemCore.obj
 0001:00036470       ?setPxSceneDescMaxNbContactDataBlocks@@YAXPEAVPxSceneDesc@physx@@I@Z 0000000180037470 f i PxAutoGeneratedMetaDataObjects.obj
 0001:00036480       ?setPxSceneDescNbContactDataBlocks@@YAXPEAVPxSceneDesc@physx@@I@Z 0000000180037480 f i PxAutoGeneratedMetaDataObjects.obj
 0001:00036490       ?setPxSceneDescSanityBounds@@YAXPEAVPxSceneDesc@physx@@VPxBounds3@2@@Z 0000000180037490 f i PxAutoGeneratedMetaDataObjects.obj
 0001:000364d0       ?setPxSceneDescSimulationEventCallback@@YAXPEAVPxSceneDesc@physx@@PEAVPxSimulationEventCallback@2@@Z 00000001800374d0 f i PxAutoGeneratedMetaDataObjects.obj
 0001:000364e0       ?setPxSceneDescSolverArticulationBatchSize@@YAXPEAVPxSceneDesc@physx@@I@Z 00000001800374e0 f i PxAutoGeneratedMetaDataObjects.obj
 0001:000364f0       ?setPxSceneDescSolverBatchSize@@YAXPEAVPxSceneDesc@physx@@I@Z 00000001800374f0 f i PxAutoGeneratedMetaDataObjects.obj
 0001:00036500       ?setPxSceneDescSolverType@@YAXPEAVPxSceneDesc@physx@@W4Enum@PxSolverType@2@@Z 0000000180037500 f i PxAutoGeneratedMetaDataObjects.obj
 0001:00036510       ?setPxSceneDescStaticKineFilteringMode@@YAXPEAVPxSceneDesc@physx@@W4Enum@PxPairFilteringMode@2@@Z 0000000180037510 f i PxAutoGeneratedMetaDataObjects.obj
 0001:00036510       ?setPxSimulationStatisticsNbLostPairs@@YAXPEAVPxSimulationStatistics@physx@@I@Z 0000000180037510 f i PxAutoGeneratedMetaDataObjects.obj
 0001:00036520       ?setPxSceneDescUserData@@YAXPEAVPxSceneDesc@physx@@PEAX@Z 0000000180037520 f i PxAutoGeneratedMetaDataObjects.obj
 0001:00036520       ?setPxSimulationStatisticsGpuMemHeapSimulation@@YAXPEAVPxSimulationStatistics@physx@@_K@Z 0000000180037520 f i PxAutoGeneratedMetaDataObjects.obj
 0001:00036530       ?setPxSceneDescWakeCounterResetValue@@YAXPEAVPxSceneDesc@physx@@M@Z 0000000180037530 f i PxAutoGeneratedMetaDataObjects.obj
 0001:00036540       ?setPxSceneDesc_ToDefault@@YAXPEAVPxSceneDesc@physx@@AEBVPxTolerancesScale@2@@Z 0000000180037540 f   PxAutoGeneratedMetaDataObjects.obj
 0001:000367b0       ?setPxgDynamicsMemoryConfigFoundLostPairsCapacity@@YAXPEAUPxgDynamicsMemoryConfig@physx@@I@Z 00000001800377b0 f i PxAutoGeneratedMetaDataObjects.obj
 0001:000367b0       ?setPxSceneLimitsMaxNbAggregates@@YAXPEAVPxSceneLimits@physx@@I@Z 00000001800377b0 f i PxAutoGeneratedMetaDataObjects.obj
 0001:000367b0       ?setPxSimulationStatisticsNbDynamicBodies@@YAXPEAVPxSimulationStatistics@physx@@I@Z 00000001800377b0 f i PxAutoGeneratedMetaDataObjects.obj
 0001:000367b0       ?setPxSceneQueryDescStaticBVHBuildStrategy@@YAXPEAVPxSceneQueryDesc@physx@@W4Enum@PxBVHBuildStrategy@2@@Z 00000001800377b0 f i PxAutoGeneratedMetaDataObjects.obj
 0001:000367c0       ?setPxSceneLimitsMaxNbBroadPhaseOverlaps@@YAXPEAVPxSceneLimits@physx@@I@Z 00000001800377c0 f i PxAutoGeneratedMetaDataObjects.obj
 0001:000367c0       ?setPxSceneQueryDescDynamicNbObjectsPerNode@@YAXPEAVPxSceneQueryDesc@physx@@I@Z 00000001800377c0 f i PxAutoGeneratedMetaDataObjects.obj
 0001:000367c0       ?setPxgDynamicsMemoryConfigMaxSoftBodyContacts@@YAXPEAUPxgDynamicsMemoryConfig@physx@@I@Z 00000001800377c0 f i PxAutoGeneratedMetaDataObjects.obj
 0001:000367d0       ?setPxSceneLimitsMaxNbConstraints@@YAXPEAVPxSceneLimits@physx@@I@Z 00000001800377d0 f i PxAutoGeneratedMetaDataObjects.obj
 0001:000367d0       ?setPxSimulationStatisticsNbKinematicBodies@@YAXPEAVPxSimulationStatistics@physx@@I@Z 00000001800377d0 f i PxAutoGeneratedMetaDataObjects.obj
 0001:000367d0       ?setPxSceneQueryDescDynamicBVHBuildStrategy@@YAXPEAVPxSceneQueryDesc@physx@@W4Enum@PxBVHBuildStrategy@2@@Z 00000001800377d0 f i PxAutoGeneratedMetaDataObjects.obj
 0001:000367d0       ?setPxgDynamicsMemoryConfigFoundLostAggregatePairsCapacity@@YAXPEAUPxgDynamicsMemoryConfig@physx@@I@Z 00000001800377d0 f i PxAutoGeneratedMetaDataObjects.obj
 0001:000367e0       ?setPxSceneQueryDescSceneQueryUpdateMode@@YAXPEAVPxSceneQueryDesc@physx@@W4Enum@PxSceneQueryUpdateMode@2@@Z 00000001800377e0 f i PxAutoGeneratedMetaDataObjects.obj
 0001:000367e0       ?setPxgDynamicsMemoryConfigMaxFemClothContacts@@YAXPEAUPxgDynamicsMemoryConfig@physx@@I@Z 00000001800377e0 f i PxAutoGeneratedMetaDataObjects.obj
 0001:000367f0       ?setPxSceneQuerySystemBase_UpdateMode@@YAXPEAVPxSceneQuerySystemBase@physx@@W4Enum@PxSceneQueryUpdateMode@2@@Z 00000001800377f0 f   PxAutoGeneratedMetaDataObjects.obj
 0001:000367f0       ?setPxSceneSQSystem_SceneQueryUpdateMode@@YAXPEAVPxSceneSQSystem@physx@@W4Enum@PxSceneQueryUpdateMode@2@@Z 00000001800377f0 f   PxAutoGeneratedMetaDataObjects.obj
 0001:00036800       ?setPxScene_BounceThresholdVelocity@@YAXPEAVPxScene@physx@@M@Z 0000000180037800 f   PxAutoGeneratedMetaDataObjects.obj
 0001:00036810       ?setPxScene_BroadPhaseCallback@@YAXPEAVPxScene@physx@@PEAVPxBroadPhaseCallback@2@@Z 0000000180037810 f   PxAutoGeneratedMetaDataObjects.obj
 0001:00036820       ?setPxScene_CCDMaxPasses@@YAXPEAVPxScene@physx@@I@Z 0000000180037820 f   PxAutoGeneratedMetaDataObjects.obj
 0001:00036830       ?setPxScene_CCDMaxSeparation@@YAXPEAVPxScene@physx@@M@Z 0000000180037830 f   PxAutoGeneratedMetaDataObjects.obj
 0001:00036840       ?setPxScene_CCDThreshold@@YAXPEAVPxScene@physx@@M@Z 0000000180037840 f   PxAutoGeneratedMetaDataObjects.obj
 0001:00036850       ?setPxScene_FrictionCorrelationDistance@@YAXPEAVPxScene@physx@@M@Z 0000000180037850 f   PxAutoGeneratedMetaDataObjects.obj
 0001:00036860       ?setPxScene_FrictionOffsetThreshold@@YAXPEAVPxScene@physx@@M@Z 0000000180037860 f   PxAutoGeneratedMetaDataObjects.obj
 0001:00036870       ?setPxScene_Gravity@@YAXPEAVPxScene@physx@@AEBV?$PxVec3T@M@2@@Z 0000000180037870 f   PxAutoGeneratedMetaDataObjects.obj
 0001:00036880       ?setPxScene_MaxBiasCoefficient@@YAXPEAVPxScene@physx@@M@Z 0000000180037880 f   PxAutoGeneratedMetaDataObjects.obj
 0001:00036890       ?setPxScene_NbContactDataBlocks@@YAXPEAVPxScene@physx@@I@Z 0000000180037890 f   PxAutoGeneratedMetaDataObjects.obj
 0001:000368a0       ?setPxScene_SolverArticulationBatchSize@@YAXPEAVPxScene@physx@@I@Z 00000001800378a0 f   PxAutoGeneratedMetaDataObjects.obj
 0001:000368b0       ?setPxScene_SolverBatchSize@@YAXPEAVPxScene@physx@@I@Z 00000001800378b0 f   PxAutoGeneratedMetaDataObjects.obj
 0001:000368c0       ?setPxScene_VisualizationCullingBox@@YAXPEAVPxScene@physx@@AEBVPxBounds3@2@@Z 00000001800378c0 f   PxAutoGeneratedMetaDataObjects.obj
 0001:000368d0       ?setPxShape_Flags@@YAXPEAVPxShape@physx@@V?$PxFlags@W4Enum@PxShapeFlag@physx@@E@2@@Z 00000001800378d0 f   PxAutoGeneratedMetaDataObjects.obj
 0001:000368f0       ?setPxShape_Name@@YAXPEAVPxShape@physx@@PEBD@Z 00000001800378f0 f   PxAutoGeneratedMetaDataObjects.obj
 0001:00036900       ?setAggregate@NpArticulationReducedCoordinate@physx@@QEAAXPEAVPxAggregate@2@@Z 0000000180037900 f i NpArticulationReducedCoordinate.obj
 0001:00036900       ?setPxSimulationStatisticsGpuMemFEMCloths@@YAXPEAVPxSimulationStatistics@physx@@_K@Z 0000000180037900 f i PxAutoGeneratedMetaDataObjects.obj
 0001:00036910       ?setPxSimulationStatisticsGpuMemHairSystems@@YAXPEAVPxSimulationStatistics@physx@@_K@Z 0000000180037910 f i PxAutoGeneratedMetaDataObjects.obj
 0001:00036920       ?setPxSimulationStatisticsGpuMemHeap@@YAXPEAVPxSimulationStatistics@physx@@_K@Z 0000000180037920 f i PxAutoGeneratedMetaDataObjects.obj
 0001:00036930       ?setPxSimulationStatisticsGpuMemHeapBroadPhase@@YAXPEAVPxSimulationStatistics@physx@@_K@Z 0000000180037930 f i PxAutoGeneratedMetaDataObjects.obj
 0001:00036940       ?setPxSimulationStatisticsGpuMemHeapFEMCloths@@YAXPEAVPxSimulationStatistics@physx@@_K@Z 0000000180037940 f i PxAutoGeneratedMetaDataObjects.obj
 0001:00036950       ?setPxSimulationStatisticsGpuMemHeapHairSystems@@YAXPEAVPxSimulationStatistics@physx@@_K@Z 0000000180037950 f i PxAutoGeneratedMetaDataObjects.obj
 0001:00036960       ?setPxSimulationStatisticsGpuMemHeapNarrowPhase@@YAXPEAVPxSimulationStatistics@physx@@_K@Z 0000000180037960 f i PxAutoGeneratedMetaDataObjects.obj
 0001:00036970       ?setPxSimulationStatisticsGpuMemHeapOther@@YAXPEAVPxSimulationStatistics@physx@@_K@Z 0000000180037970 f i PxAutoGeneratedMetaDataObjects.obj
 0001:00036980       ?setPxSimulationStatisticsGpuMemHeapParticles@@YAXPEAVPxSimulationStatistics@physx@@_K@Z 0000000180037980 f i PxAutoGeneratedMetaDataObjects.obj
 0001:00036990       ?setPxSimulationStatisticsGpuMemHeapSimulationArticulation@@YAXPEAVPxSimulationStatistics@physx@@_K@Z 0000000180037990 f i PxAutoGeneratedMetaDataObjects.obj
 0001:000369a0       ?setPxSimulationStatisticsGpuMemHeapSimulationFEMCloth@@YAXPEAVPxSimulationStatistics@physx@@_K@Z 00000001800379a0 f i PxAutoGeneratedMetaDataObjects.obj
 0001:000369b0       ?setPxSimulationStatisticsGpuMemHeapSimulationHairSystem@@YAXPEAVPxSimulationStatistics@physx@@_K@Z 00000001800379b0 f i PxAutoGeneratedMetaDataObjects.obj
 0001:000369c0       ?setPxSimulationStatisticsGpuMemHeapSimulationParticles@@YAXPEAVPxSimulationStatistics@physx@@_K@Z 00000001800379c0 f i PxAutoGeneratedMetaDataObjects.obj
 0001:000369d0       ?setPxSimulationStatisticsGpuMemHeapSimulationSoftBody@@YAXPEAVPxSimulationStatistics@physx@@_K@Z 00000001800379d0 f i PxAutoGeneratedMetaDataObjects.obj
 0001:000369e0       ?setPxSimulationStatisticsGpuMemHeapSoftBodies@@YAXPEAVPxSimulationStatistics@physx@@_K@Z 00000001800379e0 f i PxAutoGeneratedMetaDataObjects.obj
 0001:000369f0       ?setPxSimulationStatisticsGpuMemParticles@@YAXPEAVPxSimulationStatistics@physx@@_K@Z 00000001800379f0 f i PxAutoGeneratedMetaDataObjects.obj
 0001:00036a00       ?setPxSimulationStatisticsGpuMemSoftBodies@@YAXPEAVPxSimulationStatistics@physx@@_K@Z 0000000180037a00 f i PxAutoGeneratedMetaDataObjects.obj
 0001:00036a10       ?setPxSimulationStatisticsNbAggregates@@YAXPEAVPxSimulationStatistics@physx@@I@Z 0000000180037a10 f i PxAutoGeneratedMetaDataObjects.obj
 0001:00036a20       ?setPxSimulationStatisticsNbArticulations@@YAXPEAVPxSimulationStatistics@physx@@I@Z 0000000180037a20 f i PxAutoGeneratedMetaDataObjects.obj
 0001:00036a30       ?setPxSimulationStatisticsNbAxisSolverConstraints@@YAXPEAVPxSimulationStatistics@physx@@I@Z 0000000180037a30 f i PxAutoGeneratedMetaDataObjects.obj
 0001:00036a40       ?setPxSimulationStatisticsNbBroadPhaseAdds@@YAXPEAVPxSimulationStatistics@physx@@I@Z 0000000180037a40 f i PxAutoGeneratedMetaDataObjects.obj
 0001:00036a50       ?setPxSimulationStatisticsNbBroadPhaseRemoves@@YAXPEAVPxSimulationStatistics@physx@@I@Z 0000000180037a50 f i PxAutoGeneratedMetaDataObjects.obj
 0001:00036a60       ?setPxSimulationStatisticsNbDiscreteContactPairsTotal@@YAXPEAVPxSimulationStatistics@physx@@I@Z 0000000180037a60 f i PxAutoGeneratedMetaDataObjects.obj
 0001:00036a70       ?setPxSimulationStatisticsNbDiscreteContactPairsWithCacheHits@@YAXPEAVPxSimulationStatistics@physx@@I@Z 0000000180037a70 f i PxAutoGeneratedMetaDataObjects.obj
 0001:00036a80       ?setPxSimulationStatisticsNbDiscreteContactPairsWithContacts@@YAXPEAVPxSimulationStatistics@physx@@I@Z 0000000180037a80 f i PxAutoGeneratedMetaDataObjects.obj
 0001:00036a90       ?setPxSimulationStatisticsNbLostTouches@@YAXPEAVPxSimulationStatistics@physx@@I@Z 0000000180037a90 f i PxAutoGeneratedMetaDataObjects.obj
 0001:00036aa0       ?setPxSimulationStatisticsNbPartitions@@YAXPEAVPxSimulationStatistics@physx@@I@Z 0000000180037aa0 f i PxAutoGeneratedMetaDataObjects.obj
 0001:00036ab0       ?setPxSimulationStatisticsPeakConstraintMemory@@YAXPEAVPxSimulationStatistics@physx@@I@Z 0000000180037ab0 f i PxAutoGeneratedMetaDataObjects.obj
 0001:00036ac0       ?setPxSimulationStatisticsRequiredContactConstraintMemory@@YAXPEAVPxSimulationStatistics@physx@@I@Z 0000000180037ac0 f i PxAutoGeneratedMetaDataObjects.obj
 0001:00036ad0       ?setPxTriangleMeshGeometryMeshFlags@@YAXPEAVPxTriangleMeshGeometry@physx@@V?$PxFlags@W4Enum@PxMeshGeometryFlag@physx@@E@2@@Z 0000000180037ad0 f i PxAutoGeneratedMetaDataObjects.obj
 0001:00036ae0       ?setPxgDynamicsMemoryConfigCollisionStackSize@@YAXPEAUPxgDynamicsMemoryConfig@physx@@I@Z 0000000180037ae0 f i PxAutoGeneratedMetaDataObjects.obj
 0001:00036af0       ?setPxgDynamicsMemoryConfigMaxHairContacts@@YAXPEAUPxgDynamicsMemoryConfig@physx@@I@Z 0000000180037af0 f i PxAutoGeneratedMetaDataObjects.obj
 0001:00036b00       ?setPxgDynamicsMemoryConfigMaxParticleContacts@@YAXPEAUPxgDynamicsMemoryConfig@physx@@I@Z 0000000180037b00 f i PxAutoGeneratedMetaDataObjects.obj
 0001:00036b10       ??0NbCCDPairsProperty@physx@@QEAA@XZ 0000000180037b10 f   PxMetaDataObjects.obj
 0001:00036b40       ??0NbDiscreteContactPairsProperty@physx@@QEAA@XZ 0000000180037b40 f   PxMetaDataObjects.obj
 0001:00036b70       ??0NbModifiedContactPairsProperty@physx@@QEAA@XZ 0000000180037b70 f   PxMetaDataObjects.obj
 0001:00036ba0       ??0NbShapesProperty@physx@@QEAA@XZ 0000000180037ba0 f   PxMetaDataObjects.obj
 0001:00036bd0       ??0NbTriggerPairsProperty@physx@@QEAA@XZ 0000000180037bd0 f   PxMetaDataObjects.obj
 0001:00036c00       ??0PxCustomGeometryCustomTypeProperty@physx@@QEAA@XZ 0000000180037c00 f   PxMetaDataObjects.obj
 0001:00036c20       ??0SimulationStatisticsProperty@physx@@QEAA@XZ 0000000180037c20 f   PxMetaDataObjects.obj
 0001:00036c40       ?GetCustomType@@YAIPEBVPxCustomGeometry@physx@@@Z 0000000180037c40 f i PxMetaDataObjects.obj
 0001:00036c60       ?GetNbCCDPairs@@YAIPEBVPxSimulationStatistics@physx@@W4Enum@PxGeometryType@2@1@Z 0000000180037c60 f i PxMetaDataObjects.obj
 0001:00036c80       ?GetNbDiscreteContactPairs@@YAIPEBVPxSimulationStatistics@physx@@W4Enum@PxGeometryType@2@1@Z 0000000180037c80 f i PxMetaDataObjects.obj
 0001:00036ca0       ?GetNbModifiedContactPairs@@YAIPEBVPxSimulationStatistics@physx@@W4Enum@PxGeometryType@2@1@Z 0000000180037ca0 f i PxMetaDataObjects.obj
 0001:00036cc0       ?GetNbShape@@YAIPEBVPxSimulationStatistics@physx@@W4Enum@PxGeometryType@2@@Z 0000000180037cc0 f i PxMetaDataObjects.obj
 0001:00036cd0       ?GetNbTriggerPairs@@YAIPEBVPxSimulationStatistics@physx@@W4Enum@PxGeometryType@2@1@Z 0000000180037cd0 f i PxMetaDataObjects.obj
 0001:00036cf0       ?GetStats@@YA?AVPxSimulationStatistics@physx@@PEBVPxScene@2@@Z 0000000180037cf0 f i PxMetaDataObjects.obj
 0001:00036d30       ?SetNbCCDPairs@@YAXPEAVPxSimulationStatistics@physx@@W4Enum@PxGeometryType@2@1I@Z 0000000180037d30 f i PxMetaDataObjects.obj
 0001:00036d50       ?SetNbDiscreteContactPairs@@YAXPEAVPxSimulationStatistics@physx@@W4Enum@PxGeometryType@2@1I@Z 0000000180037d50 f i PxMetaDataObjects.obj
 0001:00036d70       ?SetNbModifiedContactPairs@@YAXPEAVPxSimulationStatistics@physx@@W4Enum@PxGeometryType@2@1I@Z 0000000180037d70 f i PxMetaDataObjects.obj
 0001:00036d90       ?SetNbShape@@YAXPEAVPxSimulationStatistics@physx@@W4Enum@PxGeometryType@2@I@Z 0000000180037d90 f i PxMetaDataObjects.obj
 0001:00036da0       ?SetNbTriggerPairs@@YAXPEAVPxSimulationStatistics@physx@@W4Enum@PxGeometryType@2@1I@Z 0000000180037da0 f i PxMetaDataObjects.obj
 0001:00036dc0       ?createLink@PxArticulationReducedCoordinateLinkCollectionPropHelper@physx@@QEBAPEAVPxArticulationLink@2@PEAVPxArticulationReducedCoordinate@2@PEAV32@AEBV?$PxTransformT@M@2@@Z 0000000180037dc0 f   PxMetaDataObjects.obj
 0001:00036ef0       ?createShape@PxRigidActorShapeCollectionHelper@physx@@QEBAPEAVPxShape@2@PEAVPxRigidActor@2@AEBVPxGeometry@2@AEAVPxMaterial@2@V?$PxFlags@W4Enum@PxShapeFlag@physx@@E@2@@Z 0000000180037ef0 f   PxMetaDataObjects.obj
 0001:00036f70       ?createShape@PxRigidActorShapeCollectionHelper@physx@@QEBAPEAVPxShape@2@PEAVPxRigidActor@2@AEBVPxGeometry@2@PEBQEAVPxMaterial@2@GV?$PxFlags@W4Enum@PxShapeFlag@physx@@E@2@@Z 0000000180037f70 f   PxMetaDataObjects.obj
 0001:00037000       ?getGeometry@PxShapeGeomPropertyHelper@physx@@QEBA_NPEBVPxShape@2@AEAVPxBoxGeometry@2@@Z 0000000180038000 f   PxMetaDataObjects.obj
 0001:00037060       ?getGeometry@PxShapeGeomPropertyHelper@physx@@QEBA_NPEBVPxShape@2@AEAVPxCapsuleGeometry@2@@Z 0000000180038060 f   PxMetaDataObjects.obj
 0001:000370c0       ?getGeometry@PxShapeGeomPropertyHelper@physx@@QEBA_NPEBVPxShape@2@AEAVPxConvexMeshGeometry@2@@Z 00000001800380c0 f   PxMetaDataObjects.obj
 0001:00037150       ?getGeometry@PxShapeGeomPropertyHelper@physx@@QEBA_NPEBVPxShape@2@AEAVPxHeightFieldGeometry@2@@Z 0000000180038150 f   PxMetaDataObjects.obj
 0001:000371c0       ?getGeometry@PxShapeGeomPropertyHelper@physx@@QEBA_NPEBVPxShape@2@AEAVPxParticleSystemGeometry@2@@Z 00000001800381c0 f   PxMetaDataObjects.obj
 0001:00037210       ?getGeometry@PxShapeGeomPropertyHelper@physx@@QEBA_NPEBVPxShape@2@AEAVPxPlaneGeometry@2@@Z 0000000180038210 f   PxMetaDataObjects.obj
 0001:00037260       ?getGeometry@PxShapeGeomPropertyHelper@physx@@QEBA_NPEBVPxShape@2@AEAVPxSphereGeometry@2@@Z 0000000180038260 f   PxMetaDataObjects.obj
 0001:000372b0       ?getGeometry@PxShapeGeomPropertyHelper@physx@@QEBA_NPEBVPxShape@2@AEAVPxTetrahedronMeshGeometry@2@@Z 00000001800382b0 f   PxMetaDataObjects.obj
 0001:00037300       ?getGeometry@PxShapeGeomPropertyHelper@physx@@QEBA_NPEBVPxShape@2@AEAVPxTriangleMeshGeometry@2@@Z 0000000180038300 f   PxMetaDataObjects.obj
 0001:00037390       ?getGeometryType@PxShapeGeomPropertyHelper@physx@@QEBA?AW4Enum@PxGeometryType@2@PEBVPxShape@2@@Z 0000000180038390 f   PxMetaDataObjects.obj
 0001:000373b0       ?isFinite@?$PxQuatT@M@physx@@QEBA_NXZ 00000001800383b0 f i PxMetaDataObjects.obj
 0001:00037420       ?setMaterials@PxShapeMaterialsPropertyHelper@physx@@QEBAXPEAVPxShape@2@PEBQEAVPxMaterial@2@G@Z 0000000180038420 f   PxMetaDataObjects.obj
 0001:00037440       ??0NpActor@physx@@QEAA@W4Enum@NpType@1@@Z 0000000180038440 f   NpActor.obj
 0001:00037460       ??4PxPartitionedParticleCloth@physx@@QEAAAEAU01@AEBU01@@Z 0000000180038460 f i NpActor.obj
 0001:00037490       ?addConnector@NpActor@physx@@QEAAXW4Enum@NpConnectorType@2@PEAVPxBase@2@PEBD@Z 0000000180038490 f   NpActor.obj
 0001:00037670       ?addConstraintsToSceneInternal@NpActor@physx@@AEAAXXZ 0000000180038670 f   NpActor.obj
 0001:00037710       ?allocate@?$PxArray@VNpConnector@physx@@V?$PxInlineAllocator@$0EA@V?$PxReflectionAllocator@VNpConnector@physx@@@physx@@@2@@physx@@IEAAPEAVNpConnector@2@I@Z 0000000180038710 f i NpActor.obj
 0001:000377d0       ?exportExtraData@NpActor@physx@@QEAAXAEAVPxSerializationContext@2@@Z 00000001800387d0 f   NpActor.obj
 0001:00037990       ?findConnector@NpActor@physx@@QEBAIW4Enum@NpConnectorType@2@PEAVPxBase@2@@Z 0000000180038990 f   NpActor.obj
 0001:000379e0       ?getAggregate@NpActor@physx@@QEBAPEAVPxAggregate@2@XZ 00000001800389e0 f   NpActor.obj
 0001:00037a20       ?getBodyCore@physx@@YAPEAVBodyCore@Sc@1@PEAVPxRigidActor@1@@Z 0000000180038a20 f   NpActor.obj
 0001:00037a40       ?getNbConnectors@NpActor@physx@@QEBAIW4Enum@NpConnectorType@2@@Z 0000000180038a40 f   NpActor.obj
 0001:00037a80       ?getNpAggregate@NpActor@physx@@QEBAPEAVNpAggregate@2@AEAI@Z 0000000180038a80 f   NpActor.obj
 0001:00037ac0       ?getPxActor@NpActor@physx@@QEBAPEBVPxActor@2@XZ 0000000180038ac0 f   NpActor.obj
 0001:00037af0       ?getShapeManager_@NpActor@physx@@SAPEAVNpShapeManager@2@AEAVPxRigidActor@2@@Z 0000000180038af0 f   NpActor.obj
 0001:00037b10       ?growAndPushBack@?$PxArray@VNpConnector@physx@@V?$PxInlineAllocator@$0EA@V?$PxReflectionAllocator@VNpConnector@physx@@@physx@@@2@@physx@@IEAAAEAVNpConnector@2@AEBV32@@Z 0000000180038b10 f i NpActor.obj
 0001:00037c10       ?importExtraData@NpActor@physx@@QEAAXAEAVPxDeserializationContext@2@@Z 0000000180038c10 f   NpActor.obj
 0001:00037cb0       ?onActorRelease@NpActor@physx@@SAXPEAVPxActor@2@@Z 0000000180038cb0 f   NpActor.obj
 0001:00037cc0       ?recreate@?$PxArray@VNpConnector@physx@@V?$PxInlineAllocator@$0EA@V?$PxReflectionAllocator@VNpConnector@physx@@@physx@@@2@@physx@@IEAAXI@Z 0000000180038cc0 f i NpActor.obj
 0001:00037d80       ?removeConnector@NpActor@physx@@AEAAXAEAVPxActor@2@I@Z 0000000180038d80 f   NpActor.obj
 0001:00037de0       ?removeConnector@NpActor@physx@@QEAAXAEAVPxActor@2@W4Enum@NpConnectorType@2@PEAVPxBase@2@PEBD@Z 0000000180038de0 f   NpActor.obj
 0001:00037f20       ?removeConstraints@NpActor@physx@@QEAAXAEAVPxRigidActor@2@@Z 0000000180038f20 f   NpActor.obj
 0001:00038010       ?removeConstraintsFromScene@NpActor@physx@@QEAAXXZ 0000000180039010 f   NpActor.obj
 0001:00038080       ?removeFromAggregate@NpActor@physx@@QEAAXAEAVPxActor@2@@Z 0000000180039080 f   NpActor.obj
 0001:000380a0       ?resizeUninitialized@?$PxArray@VNpConnector@physx@@V?$PxInlineAllocator@$0EA@V?$PxReflectionAllocator@VNpConnector@physx@@@physx@@@2@@physx@@QEAAXI@Z 00000001800390a0 f i NpActor.obj
 0001:000380e0       ?resolveReferences@NpActor@physx@@QEAAXAEAVPxDeserializationContext@2@@Z 00000001800390e0 f   NpActor.obj
 0001:00038170       ?scSetDominanceGroup@NpActor@physx@@QEAAXE@Z 0000000180039170 f   NpActor.obj
 0001:00038210       ?scSetOwnerClient@NpActor@physx@@QEAAXE@Z 0000000180039210 f   NpActor.obj
 0001:000382c0       ?setAggregate@NpActor@physx@@QEAAXPEAVNpAggregate@2@AEAVPxActor@2@@Z 00000001800392c0 f   NpActor.obj
 0001:00038390       ??0NpAggregate@physx@@QEAA@III@Z 0000000180039390 f   NpAggregate.obj
 0001:00038440       ??_GNpAggregate@physx@@UEAAPEAXI@Z 0000000180039440 f i NpAggregate.obj
 0001:00038440       ??_ENpAggregate@physx@@UEAAPEAXI@Z 0000000180039440 f i NpAggregate.obj
 0001:000384f0       ??_GPxBase@physx@@MEAAPEAXI@Z 00000001800394f0 f i NpAggregate.obj
 0001:000384f0       ??_EPxBase@physx@@MEAAPEAXI@Z 00000001800394f0 f i NpAggregate.obj
 0001:00038520       ?addActor@NpAggregate@physx@@UEAA_NAEAVPxActor@2@PEBVPxBVH@2@@Z 0000000180039520 f   NpAggregate.obj
 0001:00038900       ?addActorInternal@NpAggregate@physx@@QEAAXAEAVPxActor@2@AEAVNpScene@2@PEBVPxBVH@2@@Z 0000000180039900 f   NpAggregate.obj
 0001:00038a40       ?addArticulation@NpAggregate@physx@@UEAA_NAEAVPxArticulationReducedCoordinate@2@@Z 0000000180039a40 f   NpAggregate.obj
 0001:00038c80       ?createObject@NpAggregate@physx@@SAPEAV12@AEAPEAEAEAVPxDeserializationContext@2@@Z 0000000180039c80 f   NpAggregate.obj
 0001:00038de0       ?decShapeCount@NpAggregate@physx@@QEAAXXZ 0000000180039de0 f   NpAggregate.obj
 0001:00038df0       ?erase@?$PxHashBase@PEAVPxAggregate@physx@@PEAV12@U?$PxHash@PEAVPxAggregate@physx@@@2@UGetKey@?$PxHashSetBase@PEAVPxAggregate@physx@@U?$PxHash@PEAVPxAggregate@physx@@@2@VPxAllocator@2@$00@2@VPxAllocator@2@$00@physx@@QEAA_NAEBQEAVPxAggregate@2@@Z 0000000180039df0 f i NpAggregate.obj
 0001:00038df0       ?erase@?$PxHashBase@PEAVParticleSystemCore@Sc@physx@@PEAV123@U?$PxHash@PEAVParticleSystemCore@Sc@physx@@@3@UGetKey@?$PxHashSetBase@PEAVParticleSystemCore@Sc@physx@@U?$PxHash@PEAVParticleSystemCore@Sc@physx@@@3@VPxAllocator@3@$00@3@VPxAllocator@3@$00@physx@@QEAA_NAEBQEAVParticleSystemCore@Sc@2@@Z 0000000180039df0 f i SimulationController_static_64:ScScene.obj
 0001:00038df0       ?erase@?$PxHashBase@PEBVBodySim@Sc@physx@@PEBV123@U?$PxHash@PEBVBodySim@Sc@physx@@@3@UGetKey@?$PxHashSetBase@PEBVBodySim@Sc@physx@@U?$PxHash@PEBVBodySim@Sc@physx@@@3@VPxAllocator@3@$00@3@VPxAllocator@3@$00@physx@@QEAA_NAEBQEBVBodySim@Sc@2@@Z 0000000180039df0 f i SimulationController_static_64:ScScene.obj
 0001:00038df0       ?erase@?$PxHashBase@PEAUConstraintGroupNode@Sc@physx@@PEAU123@U?$PxHash@PEAUConstraintGroupNode@Sc@physx@@@3@UGetKey@?$PxHashSetBase@PEAUConstraintGroupNode@Sc@physx@@U?$PxHash@PEAUConstraintGroupNode@Sc@physx@@@3@VPxAllocator@3@$00@3@VPxAllocator@3@$00@physx@@QEAA_NAEBQEAUConstraintGroupNode@Sc@2@@Z 0000000180039df0 f i SimulationController_static_64:ScConstraintProjectionManager.obj
 0001:00038df0       ?erase@?$PxHashBase@PEAVPxShape@physx@@PEAV12@U?$PxHash@PEAVPxShape@physx@@@2@UGetKey@?$PxHashSetBase@PEAVPxShape@physx@@U?$PxHash@PEAVPxShape@physx@@@2@VPxAllocator@2@$00@2@VPxAllocator@2@$00@physx@@QEAA_NAEBQEAVPxShape@2@@Z 0000000180039df0 f i NpFactory.obj
 0001:00038df0       ?erase@?$PxHashBase@PEAVPxArticulationReducedCoordinate@physx@@PEAV12@U?$PxHash@PEAVPxArticulationReducedCoordinate@physx@@@2@UGetKey@?$PxHashSetBase@PEAVPxArticulationReducedCoordinate@physx@@U?$PxHash@PEAVPxArticulationReducedCoordinate@physx@@@2@VPxAllocator@2@$00@2@VPxAllocator@2@$00@physx@@QEAA_NAEBQEAVPxArticulationReducedCoordinate@2@@Z 0000000180039df0 f i NpScene.obj
 0001:00038df0       ?erase@?$PxHashBase@PEAVArticulationCore@Sc@physx@@PEAV123@U?$PxHash@PEAVArticulationCore@Sc@physx@@@3@UGetKey@?$PxHashSetBase@PEAVArticulationCore@Sc@physx@@U?$PxHash@PEAVArticulationCore@Sc@physx@@@3@VPxAllocator@3@$00@3@VPxAllocator@3@$00@physx@@QEAA_NAEBQEAVArticulationCore@Sc@2@@Z 0000000180039df0 f i SimulationController_static_64:ScScene.obj
 0001:00038df0       ?erase@?$PxHashBase@PEAVHairSystemCore@Sc@physx@@PEAV123@U?$PxHash@PEAVHairSystemCore@Sc@physx@@@3@UGetKey@?$PxHashSetBase@PEAVHairSystemCore@Sc@physx@@U?$PxHash@PEAVHairSystemCore@Sc@physx@@@3@VPxAllocator@3@$00@3@VPxAllocator@3@$00@physx@@QEAA_NAEBQEAVHairSystemCore@Sc@2@@Z 0000000180039df0 f i SimulationController_static_64:ScScene.obj
 0001:00038df0       ?erase@?$PxHashBase@PEAVArticulationSim@Sc@physx@@PEAV123@U?$PxHash@PEAVArticulationSim@Sc@physx@@@3@UGetKey@?$PxHashSetBase@PEAVArticulationSim@Sc@physx@@U?$PxHash@PEAVArticulationSim@Sc@physx@@@3@VPxAllocator@3@$00@3@VPxAllocator@3@$00@physx@@QEAA_NAEBQEAVArticulationSim@Sc@2@@Z 0000000180039df0 f i SimulationController_static_64:ScScene.obj
 0001:00038df0       ?erase@?$PxHashBase@PEAVSoftBodyCore@Sc@physx@@PEAV123@U?$PxHash@PEAVSoftBodyCore@Sc@physx@@@3@UGetKey@?$PxHashSetBase@PEAVSoftBodyCore@Sc@physx@@U?$PxHash@PEAVSoftBodyCore@Sc@physx@@@3@VPxAllocator@3@$00@3@VPxAllocator@3@$00@physx@@QEAA_NAEBQEAVSoftBodyCore@Sc@2@@Z 0000000180039df0 f i SimulationController_static_64:ScScene.obj
 0001:00038df0       ?erase@?$PxHashBase@PEAVPxPBDParticleSystem@physx@@PEAV12@U?$PxHash@PEAVPxPBDParticleSystem@physx@@@2@UGetKey@?$PxHashSetBase@PEAVPxPBDParticleSystem@physx@@U?$PxHash@PEAVPxPBDParticleSystem@physx@@@2@VPxAllocator@2@$00@2@VPxAllocator@2@$00@physx@@QEAA_NAEBQEAVPxPBDParticleSystem@2@@Z 0000000180039df0 f i NpParticleSystem.obj
 0001:00038df0       ?erase@?$PxHashBase@PEAVBodyCore@Sc@physx@@PEAV123@U?$PxHash@PEAVBodyCore@Sc@physx@@@3@UGetKey@?$PxHashSetBase@PEAVBodyCore@Sc@physx@@U?$PxHash@PEAVBodyCore@Sc@physx@@@3@VPxAllocator@3@$00@3@VPxAllocator@3@$00@physx@@QEAA_NAEBQEAVBodyCore@Sc@2@@Z 0000000180039df0 f i SimulationController_static_64:ScScene.obj
 0001:00038df0       ?erase@?$PxHashBase@PEAVConstraintCore@Sc@physx@@PEAV123@U?$PxHash@PEAVConstraintCore@Sc@physx@@@3@UGetKey@?$PxHashSetBase@PEAVConstraintCore@Sc@physx@@U?$PxHash@PEAVConstraintCore@Sc@physx@@@3@VPxAllocator@3@$00@3@VPxAllocator@3@$00@physx@@QEAA_NAEBQEAVConstraintCore@Sc@2@@Z 0000000180039df0 f i SimulationController_static_64:ScScene.obj
 0001:00038df0       ?erase@?$PxHashBase@PEAVPxSoftBody@physx@@PEAV12@U?$PxHash@PEAVPxSoftBody@physx@@@2@UGetKey@?$PxHashSetBase@PEAVPxSoftBody@physx@@U?$PxHash@PEAVPxSoftBody@physx@@@2@VPxAllocator@2@$00@2@VPxAllocator@2@$00@physx@@QEAA_NAEBQEAVPxSoftBody@2@@Z 0000000180039df0 f i NpSoftBody.obj
 0001:00038df0       ?erase@?$PxHashBase@PEAVConstraintSim@Sc@physx@@PEAV123@U?$PxHash@PEAVConstraintSim@Sc@physx@@@3@UGetKey@?$PxHashSetBase@PEAVConstraintSim@Sc@physx@@U?$PxHash@PEAVConstraintSim@Sc@physx@@@3@VPxAllocator@3@$00@3@VPxAllocator@3@$00@physx@@QEAA_NAEBQEAVConstraintSim@Sc@2@@Z 0000000180039df0 f i SimulationController_static_64:ScScene.obj
 0001:00038df0       ?erase@?$PxHashBase@PEAVInteraction@Sc@physx@@PEAV123@U?$PxHash@PEAVInteraction@Sc@physx@@@3@UGetKey@?$PxHashSetBase@PEAVInteraction@Sc@physx@@U?$PxHash@PEAVInteraction@Sc@physx@@@3@VPxAllocator@3@$00@3@VPxAllocator@3@$00@physx@@QEAA_NAEBQEAVInteraction@Sc@2@@Z 0000000180039df0 f i SimulationController_static_64:ScNPhaseCore.obj
 0001:00038f60       ?exportExtraData@NpAggregate@physx@@UEAAXAEAVPxSerializationContext@2@@Z 0000000180039f60 f   NpAggregate.obj
 0001:00038fb0       ?getActors@NpAggregate@physx@@UEBAIPEAPEAVPxActor@2@II@Z 0000000180039fb0 f   NpAggregate.obj
 0001:00039050       ?getConcreteTypeName@PxAggregate@physx@@UEBAPEBDXZ 000000018003a050 f i NpAggregate.obj
 0001:00039060       ?getMaxNbActors@NpAggregate@physx@@UEBAIXZ 000000018003a060 f   NpAggregate.obj
 0001:000390a0       ?getMaxNbShapes@NpAggregate@physx@@UEBAIXZ 000000018003a0a0 f   NpAggregate.obj
 0001:000390e0       ?getNbActors@NpAggregate@physx@@UEBAIXZ 000000018003a0e0 f   NpAggregate.obj
 0001:00039120       ?getScene@?$NpActorTemplate@VPxArticulationLink@physx@@@physx@@UEBAPEAVPxScene@2@XZ 000000018003a120 f   NpArticulationLink.obj
 0001:00039120       ?getScene@?$NpActorTemplate@VPxSoftBody@physx@@@physx@@UEBAPEAVPxScene@2@XZ 000000018003a120 f   NpSoftBody.obj
 0001:00039120       ?getScene@?$NpActorTemplate@VPxPBDParticleSystem@physx@@@physx@@UEBAPEAVPxScene@2@XZ 000000018003a120 f   NpParticleSystem.obj
 0001:00039120       ?getScene@?$NpActorTemplate@VPxRigidStatic@physx@@@physx@@UEBAPEAVPxScene@2@XZ 000000018003a120 f   NpRigidStatic.obj
 0001:00039120       ?getLines@RenderBuffer@Cm@physx@@UEBAPEBUPxDebugLine@3@XZ 000000018003a120 f   NpScene.obj
 0001:00039120       ?getScene@?$NpActorTemplate@VPxRigidDynamic@physx@@@physx@@UEBAPEAVPxScene@2@XZ 000000018003a120 f   NpRigidDynamic.obj
 0001:00039120       ?getScene@NpConstraint@physx@@UEBAPEAVPxScene@2@XZ 000000018003a120 f   NpConstraint.obj
 0001:00039120       ?getScene@NpAggregate@physx@@UEAAPEAVPxScene@2@XZ 000000018003a120 f   NpAggregate.obj
 0001:00039120       ?getScene@NpArticulationReducedCoordinate@physx@@UEBAPEAVPxScene@2@XZ 000000018003a120 f   NpArticulationReducedCoordinate.obj
 0001:00039130       ?getSelfCollision@NpAggregate@physx@@UEBA_NXZ 000000018003a130 f   NpAggregate.obj
 0001:00039170       ?incShapeCount@NpAggregate@physx@@QEAAXXZ 000000018003a170 f   NpAggregate.obj
 0001:000391b0       ?isKindOf@PxAggregate@physx@@MEBA_NPEBD@Z 000000018003a1b0 f i NpAggregate.obj
 0001:00039200       ?isKindOf@PxBase@physx@@MEBA_NPEBD@Z 000000018003a200 f i NpAggregate.obj
 0001:00039230       ?isReleasable@PxBase@physx@@UEBA_NXZ 000000018003a230 f i NpAggregate.obj
 0001:00039240       ?preExportDataReset@NpAggregate@physx@@QEAAXXZ 000000018003a240 f   NpAggregate.obj
 0001:00039250       ?release@NpAggregate@physx@@UEAAXXZ 000000018003a250 f   NpAggregate.obj
 0001:00039470       ?removeActor@NpAggregate@physx@@UEAA_NAEAVPxActor@2@@Z 000000018003a470 f   NpAggregate.obj
 0001:00039750       ?removeActorAndReinsert@NpAggregate@physx@@QEAA_NAEAVPxActor@2@_N@Z 000000018003a750 f   NpAggregate.obj
 0001:00039810       ?removeAndReinsert@NpAggregate@physx@@QEAAXAEAVPxActor@2@_N@Z 000000018003a810 f   NpAggregate.obj
 0001:000398d0       ?removeArticulation@NpAggregate@physx@@UEAA_NAEAVPxArticulationReducedCoordinate@2@@Z 000000018003a8d0 f   NpAggregate.obj
 0001:00039a60       ?removeArticulationAndReinsert@NpAggregate@physx@@QEAA_NAEAVPxArticulationReducedCoordinate@2@_N@Z 000000018003aa60 f   NpAggregate.obj
 0001:00039b50       ?requiresObjects@NpAggregate@physx@@UEAAXAEAVPxProcessPxBaseCallback@2@@Z 000000018003ab50 f   NpAggregate.obj
 0001:00039bc0       ?scAddActor@NpAggregate@physx@@QEAAXAEAVNpActor@2@@Z 000000018003abc0 f   NpAggregate.obj
 0001:00039c30       ?scRemoveActor@NpAggregate@physx@@QEAAXAEAVNpActor@2@_N@Z 000000018003ac30 f   NpAggregate.obj
 0001:00039cc0       ??0NpSoftBody@physx@@QEAA@AEAVPxCudaContextManager@1@@Z 000000018003acc0 f   NpSoftBody.obj
 0001:00039d30       ??_G?$NpActorTemplate@VPxSoftBody@physx@@@physx@@UEAAPEAXI@Z 000000018003ad30 f i NpSoftBody.obj
 0001:00039d30       ??_E?$NpActorTemplate@VPxSoftBody@physx@@@physx@@UEAAPEAXI@Z 000000018003ad30 f i NpSoftBody.obj
 0001:00039da0       ??_ENpSoftBody@physx@@UEAAPEAXI@Z 000000018003ada0 f i NpSoftBody.obj
 0001:00039da0       ??_GNpSoftBody@physx@@UEAAPEAXI@Z 000000018003ada0 f i NpSoftBody.obj
 0001:00039e30       ??_GPxRigidDynamic@physx@@MEAAPEAXI@Z 000000018003ae30 f i NpRigidDynamic.obj
 0001:00039e30       ??_EPxPBDParticleSystem@physx@@UEAAPEAXI@Z 000000018003ae30 f i NpParticleSystem.obj
 0001:00039e30       ??_EPxSoftBody@physx@@UEAAPEAXI@Z 000000018003ae30 f i NpSoftBody.obj
 0001:00039e30       ??_GPxPBDParticleSystem@physx@@UEAAPEAXI@Z 000000018003ae30 f i NpParticleSystem.obj
 0001:00039e30       ??_EPxRigidStatic@physx@@MEAAPEAXI@Z 000000018003ae30 f i NpRigidStatic.obj
 0001:00039e30       ??_EPxRigidDynamic@physx@@MEAAPEAXI@Z 000000018003ae30 f i NpRigidDynamic.obj
 0001:00039e30       ??_GPxSoftBody@physx@@UEAAPEAXI@Z 000000018003ae30 f i NpSoftBody.obj
 0001:00039e30       ??_GPxRigidStatic@physx@@MEAAPEAXI@Z 000000018003ae30 f i NpRigidStatic.obj
 0001:00039e30       ??_EPxArticulationLink@physx@@MEAAPEAXI@Z 000000018003ae30 f i NpArticulationLink.obj
 0001:00039e30       ??_GPxArticulationLink@physx@@MEAAPEAXI@Z 000000018003ae30 f i NpArticulationLink.obj
 0001:00039e60       ?getNbFEMClothMaterials@NpPhysics@physx@@UEBAIXZ 000000018003ae60 f   NpPhysics.obj
 0001:00039e60       ?getDeactivatedSoftbodies@SimulationController@Sc@physx@@UEBAPEAPEAVSoftBody@Dy@3@XZ 000000018003ae60 f   SimulationController_static_64:ScScene.obj
 0001:00039e60       ?getFrozenShapes@SimulationController@Sc@physx@@UEAAPEAIXZ 000000018003ae60 f   SimulationController_static_64:ScScene.obj
 0001:00039e60       ?getNbDeactivatedHairSystems@SimulationController@Sc@physx@@UEBAIXZ 000000018003ae60 f   SimulationController_static_64:ScScene.obj
 0001:00039e60       ?getNbFEMCloths@NpScene@physx@@UEBAIXZ 000000018003ae60 f   NpScene.obj
 0001:00039e60       ?getGPURestDistances@PxsNphaseImplementationContext@physx@@UEAAPEAMXZ 000000018003ae60 f   LowLevel_static_64:PxsNphaseImplementationContext.obj
 0001:00039e60       ?createCustomParticleSystem@NpPhysics@physx@@UEAAPEAVPxCustomParticleSystem@2@AEAVPxCudaContextManager@2@I@Z 000000018003ae60 f   NpPhysics.obj
 0001:00039e60       ?createFLIPParticleSystem@NpPhysics@physx@@UEAAPEAVPxFLIPParticleSystem@2@AEAVPxCudaContextManager@2@@Z 000000018003ae60 f   NpPhysics.obj
 0001:00039e60       ?getActiveBodies@SimulationController@Sc@physx@@UEAAPEAIXZ 000000018003ae60 f   SimulationController_static_64:ScScene.obj
 0001:00039e60       ?getNbOutOfBoundsObjects@BroadPhaseBase@Bp@physx@@UEBAIXZ 000000018003ae60 f   LowLevelAABB_static_64:BpBroadPhaseSap.obj
 0001:00039e60       ?getSparseGridDataPointer@SimulationController@Sc@physx@@UEAAPEAXAEBVParticleSystem@Dy@3@W4Enum@PxSparseGridDataFlag@@W46PxParticleSolverType@3@@Z 000000018003ae60 f   SimulationController_static_64:ScScene.obj
 0001:00039e60       ?getFEMCloths@NpScene@physx@@UEBAIPEAPEAVPxFEMCloth@2@II@Z 000000018003ae60 f   NpScene.obj
 0001:00039e60       ?getActivatedHairSystems@SimulationController@Sc@physx@@UEBAPEAPEAVHairSystem@Dy@3@XZ 000000018003ae60 f   SimulationController_static_64:ScScene.obj
 0001:00039e60       ?getNbRegions@BroadPhaseBase@Bp@physx@@UEBAIXZ 000000018003ae60 f   LowLevelAABB_static_64:BpBroadPhaseSap.obj
 0001:00039e60       ?getNbCustomMaterials@NpPhysics@physx@@UEBAIXZ 000000018003ae60 f   NpPhysics.obj
 0001:00039e60       ?getType@NpRigidStatic@physx@@UEBA?AW4Enum@PxActorType@2@XZ 000000018003ae60 f   NpRigidStatic.obj
 0001:00039e60       ?addClothAttachment@NpSoftBody@physx@@UEAAIPEAVPxFEMCloth@2@IAEBV?$PxVec4T@M@2@I1PEAUPxConeLimitedConstraint@2@@Z 000000018003ae60 f   NpSoftBody.obj
 0001:00039e60       ?getNbHairSystems@NpScene@physx@@UEBAIXZ 000000018003ae60 f   NpScene.obj
 0001:00039e60       ?getActivatedFEMCloths@SimulationController@Sc@physx@@UEBAPEAPEAVFEMCloth@Dy@3@XZ 000000018003ae60 f   SimulationController_static_64:ScScene.obj
 0001:00039e60       ?getRegions@BroadPhaseBase@Bp@physx@@UEBAIPEAUPxBroadPhaseRegionInfo@3@II@Z 000000018003ae60 f   LowLevelAABB_static_64:BpBroadPhaseSap.obj
 0001:00039e60       ?getHairSystems@NpScene@physx@@UEBAIPEAPEAVPxHairSystem@2@II@Z 000000018003ae60 f   NpScene.obj
 0001:00039e60       ?getNumCountedInteractions@ActorSim@Sc@physx@@UEBAIXZ 000000018003ae60 f   SimulationController_static_64:ScScene.obj
 0001:00039e60       ?getDeactivatedFEMCloths@SimulationController@Sc@physx@@UEBAPEAPEAVFEMCloth@Dy@3@XZ 000000018003ae60 f   SimulationController_static_64:ScScene.obj
 0001:00039e60       ?createMPMParticleSystem@NpPhysics@physx@@UEAAPEAVPxMPMParticleSystem@2@AEAVPxCudaContextManager@2@@Z 000000018003ae60 f   NpPhysics.obj
 0001:00039e60       ?getFEMClothMaterials@NpPhysics@physx@@UEBAIPEAPEAVPxFEMClothMaterial@2@II@Z 000000018003ae60 f   NpPhysics.obj
 0001:00039e60       ?createHairSystem@NpPhysics@physx@@UEAAPEAVPxHairSystem@2@AEAVPxCudaContextManager@2@@Z 000000018003ae60 f   NpPhysics.obj
 0001:00039e60       ?createCustomMaterial@NpPhysics@physx@@UEAAPEAVPxCustomMaterial@2@PEAX@Z 000000018003ae60 f   NpPhysics.obj
 0001:00039e60       ?getNbMPMMaterials@NpPhysics@physx@@UEBAIXZ 000000018003ae60 f   NpPhysics.obj
 0001:00039e60       ?getDeactivatedHairSystems@SimulationController@Sc@physx@@UEBAPEAPEAVHairSystem@Dy@3@XZ 000000018003ae60 f   SimulationController_static_64:ScScene.obj
 0001:00039e60       ?getNbFrozenShapes@SimulationController@Sc@physx@@UEAAIXZ 000000018003ae60 f   SimulationController_static_64:ScScene.obj
 0001:00039e60       ?createFEMCloth@NpPhysics@physx@@UEAAPEAVPxFEMCloth@2@AEAVPxCudaContextManager@2@@Z 000000018003ae60 f   NpPhysics.obj
 0001:00039e60       ?getNbShapes@SimulationController@Sc@physx@@UEAAIXZ 000000018003ae60 f   SimulationController_static_64:ScScene.obj
 0001:00039e60       ?getNbUnfrozenShapes@SimulationController@Sc@physx@@UEAAIXZ 000000018003ae60 f   SimulationController_static_64:ScScene.obj
 0001:00039e60       ?getNbFLIPMaterials@NpPhysics@physx@@UEBAIXZ 000000018003ae60 f   NpPhysics.obj
 0001:00039e60       ?getNbActivatedHairSystems@SimulationController@Sc@physx@@UEBAIXZ 000000018003ae60 f   SimulationController_static_64:ScScene.obj
 0001:00039e60       ?getRigidBodies@SimulationController@Sc@physx@@UEAAPEAPEAXXZ 000000018003ae60 f   SimulationController_static_64:ScScene.obj
 0001:00039e60       ?getNbActivatedFEMCloth@SimulationController@Sc@physx@@UEBAIXZ 000000018003ae60 f   SimulationController_static_64:ScScene.obj
 0001:00039e60       ?getOutOfBoundsObjects@BroadPhaseBase@Bp@physx@@UEBAPEBIXZ 000000018003ae60 f   LowLevelAABB_static_64:BpBroadPhaseSap.obj
 0001:00039e60       ?getMPMDataPointer@SimulationController@Sc@physx@@UEAAPEAXAEBVParticleSystem@Dy@3@W4Enum@PxMPMParticleDataFlag@@@Z 000000018003ae60 f   SimulationController_static_64:ScScene.obj
 0001:00039e60       ?getSoftBodyWakeCounters@SimulationController@Sc@physx@@UEBAPEBMXZ 000000018003ae60 f   SimulationController_static_64:ScScene.obj
 0001:00039e60       ?getShapeSims@SimulationController@Sc@physx@@UEAAPEAPEAUPxsShapeSim@3@XZ 000000018003ae60 f   SimulationController_static_64:ScScene.obj
 0001:00039e60       ?getMPMMaterials@NpPhysics@physx@@UEBAIPEAPEAVPxMPMMaterial@2@II@Z 000000018003ae60 f   NpPhysics.obj
 0001:00039e60       ?getFLIPMaterials@NpPhysics@physx@@UEBAIPEAPEAVPxFLIPMaterial@2@II@Z 000000018003ae60 f   NpPhysics.obj
 0001:00039e60       ?getActivatedSoftbodies@SimulationController@Sc@physx@@UEBAPEAPEAVSoftBody@Dy@3@XZ 000000018003ae60 f   SimulationController_static_64:ScScene.obj
 0001:00039e60       ?createFEMClothMaterial@NpPhysics@physx@@UEAAPEAVPxFEMClothMaterial@2@MMM@Z 000000018003ae60 f   NpPhysics.obj
 0001:00039e60       ?getNbDeactivatedSoftbodies@SimulationController@Sc@physx@@UEBAIXZ 000000018003ae60 f   SimulationController_static_64:ScScene.obj
 0001:00039e60       ?getNbActivatedSoftbodies@SimulationController@Sc@physx@@UEBAIXZ 000000018003ae60 f   SimulationController_static_64:ScScene.obj
 0001:00039e60       ?getCustomMaterials@NpPhysics@physx@@UEBAIPEAPEAVPxCustomMaterial@2@II@Z 000000018003ae60 f   NpPhysics.obj
 0001:00039e60       ?createShape@NpPhysics@physx@@UEAAPEAVPxShape@2@AEBVPxGeometry@2@PEBQEAVPxFEMClothMaterial@2@G_NV?$PxFlags@W4Enum@PxShapeFlag@physx@@E@2@@Z 000000018003ae60 f   NpPhysics.obj
 0001:00039e60       ?getGPUTorsionalData@PxsNphaseImplementationContext@physx@@UEAAPEAUPxsTorsionalFrictionData@2@XZ 000000018003ae60 f   LowLevel_static_64:PxsNphaseImplementationContext.obj
 0001:00039e60       PxGetBroadPhaseStaticFilterGroup 000000018003ae60 f   NpImmediateMode.obj
 0001:00039e60       ?getSolverType@DynamicsContext@Dy@physx@@UEBA?AW4Enum@PxSolverType@3@XZ 000000018003ae60 f   LowLevelDynamics_static_64:DyDynamics.obj
 0001:00039e60       ?getDeactiveBodies@SimulationController@Sc@physx@@UEAAPEAIXZ 000000018003ae60 f   SimulationController_static_64:ScScene.obj
 0001:00039e60       ?getUnfrozenShapes@SimulationController@Sc@physx@@UEAAPEAIXZ 000000018003ae60 f   SimulationController_static_64:ScScene.obj
 0001:00039e60       ?createMPMMaterial@NpPhysics@physx@@UEAAPEAVPxMPMMaterial@2@MMM_NMMMMMMMMM@Z 000000018003ae60 f   NpPhysics.obj
 0001:00039e60       ?getNbBodies@SimulationController@Sc@physx@@UEAAIXZ 000000018003ae60 f   SimulationController_static_64:ScScene.obj
 0001:00039e60       ?getClothMaterials@NpShape@physx@@UEBAIPEAPEAVPxFEMClothMaterial@2@II@Z 000000018003ae60 f   NpShape.obj
 0001:00039e60       ?getGPUShapeInteractions@PxsNphaseImplementationContext@physx@@UEAAPEAPEAVShapeInteraction@Sc@2@XZ 000000018003ae60 f   LowLevel_static_64:PxsNphaseImplementationContext.obj
 0001:00039e60       ?getType@BroadPhaseSap@Bp@physx@@UEBA?AW4Enum@PxBroadPhaseType@3@XZ 000000018003ae60 f   LowLevelAABB_static_64:BpBroadPhaseSap.obj
 0001:00039e60       ?getNbDeactivatedFEMCloth@SimulationController@Sc@physx@@UEBAIXZ 000000018003ae60 f   SimulationController_static_64:ScScene.obj
 0001:00039e60       ?createFLIPMaterial@NpPhysics@physx@@UEAAPEAVPxFLIPMaterial@2@MMMMM@Z 000000018003ae60 f   NpPhysics.obj
 0001:00039e60       ?getGPUContactManagerOutputBase@PxsNphaseImplementationContext@physx@@UEAAPEAUPxsContactManagerOutput@2@XZ 000000018003ae60 f   LowLevel_static_64:PxsNphaseImplementationContext.obj
 0001:00039e70       ?addParticleAttachment@NpSoftBody@physx@@UEAAIPEAVPxPBDParticleSystem@2@PEBVPxParticleBuffer@2@IIAEBV?$PxVec4T@M@2@@Z 000000018003ae70 f   NpSoftBody.obj
 0001:00039fa0       ?addParticleFilter@NpSoftBody@physx@@UEAAXPEAVPxPBDParticleSystem@2@PEBVPxParticleBuffer@2@II@Z 000000018003afa0 f   NpSoftBody.obj
 0001:0003a0d0       ?addRigidAttachment@NpSoftBody@physx@@UEAAIPEAVPxRigidActor@2@IAEBV?$PxVec3T@M@2@PEAUPxConeLimitedConstraint@2@@Z 000000018003b0d0 f   NpSoftBody.obj
 0001:0003a3f0       ?addRigidFilter@NpSoftBody@physx@@UEAAXPEAVPxRigidActor@2@I@Z 000000018003b3f0 f   NpSoftBody.obj
 0001:0003a4f0       ?addSoftBodyAttachment@NpSoftBody@physx@@UEAAIPEAVPxSoftBody@2@IAEBV?$PxVec4T@M@2@I1PEAUPxConeLimitedConstraint@2@@Z 000000018003b4f0 f   NpSoftBody.obj
 0001:0003a630       ?addSoftBodyFilter@NpSoftBody@physx@@UEAAXPEAVPxSoftBody@2@II@Z 000000018003b630 f   NpSoftBody.obj
 0001:0003a750       ?addSoftBodyFilters@NpSoftBody@physx@@UEAAXPEAVPxSoftBody@2@PEAI1I@Z 000000018003b750 f   NpSoftBody.obj
 0001:0003a870       ?addTetRigidAttachment@NpSoftBody@physx@@UEAAIPEAVPxRigidActor@2@IAEBV?$PxVec4T@M@2@AEBV?$PxVec3T@M@2@PEAUPxConeLimitedConstraint@2@@Z 000000018003b870 f   NpSoftBody.obj
 0001:0003aba0       ?addTetRigidFilter@NpSoftBody@physx@@UEAAXPEAVPxRigidActor@2@I@Z 000000018003bba0 f   NpSoftBody.obj
 0001:0003aca0       ?attachShape@NpSoftBody@physx@@UEAA_NAEAVPxShape@2@@Z 000000018003bca0 f   NpSoftBody.obj
 0001:0003b1b0       ?attachSimulationMesh@NpSoftBody@physx@@UEAA_NAEAVPxTetrahedronMesh@2@AEAVPxSoftBodyAuxData@2@@Z 000000018003c1b0 f   NpSoftBody.obj
 0001:0003b6f0       ?detachShape@NpSoftBody@physx@@UEAAXXZ 000000018003c6f0 f   NpSoftBody.obj
 0001:0003b7e0       ?detachSimulationMesh@NpSoftBody@physx@@UEAAXXZ 000000018003c7e0 f   NpSoftBody.obj
 0001:0003b8a0       ?exportExtraData@?$NpActorTemplate@VPxArticulationLink@physx@@@physx@@UEAAXAEAVPxSerializationContext@2@@Z 000000018003c8a0 f i NpArticulationLink.obj
 0001:0003b8a0       ?exportExtraData@?$NpActorTemplate@VPxRigidStatic@physx@@@physx@@UEAAXAEAVPxSerializationContext@2@@Z 000000018003c8a0 f i NpRigidStatic.obj
 0001:0003b8a0       ?exportExtraData@?$NpActorTemplate@VPxSoftBody@physx@@@physx@@UEAAXAEAVPxSerializationContext@2@@Z 000000018003c8a0 f i NpSoftBody.obj
 0001:0003b8a0       ?exportExtraData@?$NpActorTemplate@VPxPBDParticleSystem@physx@@@physx@@UEAAXAEAVPxSerializationContext@2@@Z 000000018003c8a0 f i NpParticleSystem.obj
 0001:0003b8a0       ?exportExtraData@?$NpActorTemplate@VPxRigidDynamic@physx@@@physx@@UEAAXAEAVPxSerializationContext@2@@Z 000000018003c8a0 f i NpRigidDynamic.obj
 0001:0003b8b0       ?getActorFlags@?$NpActorTemplate@VPxSoftBody@physx@@@physx@@UEBA?AV?$PxFlags@W4Enum@PxActorFlag@physx@@E@2@XZ 000000018003c8b0 f i NpSoftBody.obj
 0001:0003b910       ?getAggregate@?$NpActorTemplate@VPxArticulationLink@physx@@@physx@@UEBAPEAVPxAggregate@2@XZ 000000018003c910 f i NpArticulationLink.obj
 0001:0003b910       ?getAggregate@?$NpActorTemplate@VPxSoftBody@physx@@@physx@@UEBAPEAVPxAggregate@2@XZ 000000018003c910 f i NpSoftBody.obj
 0001:0003b910       ?getAggregate@?$NpActorTemplate@VPxRigidDynamic@physx@@@physx@@UEBAPEAVPxAggregate@2@XZ 000000018003c910 f i NpRigidDynamic.obj
 0001:0003b910       ?getAggregate@?$NpActorTemplate@VPxPBDParticleSystem@physx@@@physx@@UEBAPEAVPxAggregate@2@XZ 000000018003c910 f i NpParticleSystem.obj
 0001:0003b910       ?getAggregate@?$NpActorTemplate@VPxRigidStatic@physx@@@physx@@UEBAPEAVPxAggregate@2@XZ 000000018003c910 f i NpRigidStatic.obj
 0001:0003b920       ?getCollisionMesh@NpSoftBody@physx@@UEAAPEAVPxTetrahedronMesh@2@XZ 000000018003c920 f   NpSoftBody.obj
 0001:0003b960       ?getConcreteTypeName@PxSoftBody@physx@@UEBAPEBDXZ 000000018003c960 f i NpSoftBody.obj
 0001:0003b970       ?getDominanceGroup@?$NpActorTemplate@VPxSoftBody@physx@@@physx@@UEBAEXZ 000000018003c970 f i NpSoftBody.obj
 0001:0003b9c0       ?getGpuSoftBodyIndex@NpSoftBody@physx@@UEAAIXZ 000000018003c9c0 f   NpSoftBody.obj
 0001:0003ba50       ?getName@?$NpActorTemplate@VPxSoftBody@physx@@@physx@@UEBAPEBDXZ 000000018003ca50 f i NpSoftBody.obj
 0001:0003ba90       ?getName@NpSoftBody@physx@@UEBAPEBDXZ 000000018003ca90 f   NpSoftBody.obj
 0001:0003bad0       ?getOwnerClient@?$NpActorTemplate@VPxSoftBody@physx@@@physx@@UEBAEXZ 000000018003cad0 f i NpSoftBody.obj
 0001:0003bad0       ?getOwnerClient@?$NpActorTemplate@VPxArticulationLink@physx@@@physx@@UEBAEXZ 000000018003cad0 f i NpArticulationLink.obj
 0001:0003bad0       ?getOwnerClient@?$NpActorTemplate@VPxRigidStatic@physx@@@physx@@UEBAEXZ 000000018003cad0 f i NpRigidStatic.obj
 0001:0003bad0       ?getOwnerClient@?$NpActorTemplate@VPxPBDParticleSystem@physx@@@physx@@UEBAEXZ 000000018003cad0 f i NpParticleSystem.obj
 0001:0003bad0       ?getOwnerClient@?$NpActorTemplate@VPxRigidDynamic@physx@@@physx@@UEBAEXZ 000000018003cad0 f i NpRigidDynamic.obj
 0001:0003baf0       ?getParameter@NpSoftBody@physx@@UEBA?AUPxFEMParameters@2@XZ 000000018003caf0 f   NpSoftBody.obj
 0001:0003bb40       ?getSoftBodyFlag@NpSoftBody@physx@@UEBA?AV?$PxFlags@W4Enum@PxSoftBodyFlag@physx@@I@2@XZ 000000018003cb40 f   NpSoftBody.obj
 0001:0003bb50       ?getSolverIterationCounts@NpSoftBody@physx@@UEBAXAEAI0@Z 000000018003cb50 f   NpSoftBody.obj
 0001:0003bbb0       ?getType@NpSoftBody@physx@@UEBA?AW4Enum@PxActorType@2@XZ 000000018003cbb0 f i NpSoftBody.obj
 0001:0003bbc0       ?getWakeCounter@NpSoftBody@physx@@UEBAMXZ 000000018003cbc0 f   NpSoftBody.obj
 0001:0003bc10       ?getWorldBounds@NpSoftBody@physx@@UEBA?AVPxBounds3@2@M@Z 000000018003cc10 f   NpSoftBody.obj
 0001:0003be30       ?growAndPushBack@?$PxArray@GV?$PxReflectionAllocator@G@physx@@@physx@@IEAAAEAGAEBG@Z 000000018003ce30 f i NpSoftBody.obj
 0001:0003bf60       ?importExtraData@?$NpActorTemplate@VPxSoftBody@physx@@@physx@@UEAAXAEAVPxDeserializationContext@2@@Z 000000018003cf60 f i NpSoftBody.obj
 0001:0003bf60       ?importExtraData@?$NpActorTemplate@VPxArticulationLink@physx@@@physx@@UEAAXAEAVPxDeserializationContext@2@@Z 000000018003cf60 f i NpArticulationLink.obj
 0001:0003bf60       ?importExtraData@?$NpActorTemplate@VPxRigidStatic@physx@@@physx@@UEAAXAEAVPxDeserializationContext@2@@Z 000000018003cf60 f i NpRigidStatic.obj
 0001:0003bf60       ?importExtraData@?$NpActorTemplate@VPxRigidDynamic@physx@@@physx@@UEAAXAEAVPxDeserializationContext@2@@Z 000000018003cf60 f i NpRigidDynamic.obj
 0001:0003bf60       ?importExtraData@?$NpActorTemplate@VPxPBDParticleSystem@physx@@@physx@@UEAAXAEAVPxDeserializationContext@2@@Z 000000018003cf60 f i NpParticleSystem.obj
 0001:0003bf70       ?isKindOf@PxSoftBody@physx@@MEBA_NPEBD@Z 000000018003cf70 f i NpSoftBody.obj
 0001:0003c000       ?isSleeping@NpSoftBody@physx@@UEBA_NXZ 000000018003d000 f   NpSoftBody.obj
 0001:0003c040       ?readData@NpSoftBody@physx@@UEAAXW4Enum@PxSoftBodyData@2@AEAVPxBuffer@2@_N@Z 000000018003d040 f   NpSoftBody.obj
 0001:0003c100       ?readData@NpSoftBody@physx@@UEAAXW4Enum@PxSoftBodyData@2@_N@Z 000000018003d100 f   NpSoftBody.obj
 0001:0003c180       ?release@NpSoftBody@physx@@UEAAXXZ 000000018003d180 f   NpSoftBody.obj
 0001:0003c200       ?removeParticleAttachment@NpSoftBody@physx@@UEAAXPEAVPxPBDParticleSystem@2@I@Z 000000018003d200 f   NpSoftBody.obj
 0001:0003c300       ?removeParticleFilter@NpSoftBody@physx@@UEAAXPEAVPxPBDParticleSystem@2@PEBVPxParticleBuffer@2@II@Z 000000018003d300 f   NpSoftBody.obj
 0001:0003c430       ?removeRigidAttachment@NpSoftBody@physx@@UEAAXPEAVPxRigidActor@2@I@Z 000000018003d430 f   NpSoftBody.obj
 0001:0003c530       ?removeRigidFilter@NpSoftBody@physx@@UEAAXPEAVPxRigidActor@2@I@Z 000000018003d530 f   NpSoftBody.obj
 0001:0003c630       ?removeSoftBodyAttachment@NpSoftBody@physx@@UEAAXPEAVPxSoftBody@2@I@Z 000000018003d630 f   NpSoftBody.obj
 0001:0003c740       ?removeSoftBodyFilter@NpSoftBody@physx@@UEAAXPEAVPxSoftBody@2@II@Z 000000018003d740 f   NpSoftBody.obj
 0001:0003c860       ?removeSoftBodyFilters@NpSoftBody@physx@@UEAAXPEAVPxSoftBody@2@PEAI1I@Z 000000018003d860 f   NpSoftBody.obj
 0001:0003c980       ?removeTetRigidFilter@NpSoftBody@physx@@UEAAXPEAVPxRigidActor@2@I@Z 000000018003d980 f   NpSoftBody.obj
 0001:0003ca80       ?resolveReferences@?$NpActorTemplate@VPxPBDParticleSystem@physx@@@physx@@UEAAXAEAVPxDeserializationContext@2@@Z 000000018003da80 f i NpParticleSystem.obj
 0001:0003ca80       ?resolveReferences@?$NpActorTemplate@VPxRigidDynamic@physx@@@physx@@UEAAXAEAVPxDeserializationContext@2@@Z 000000018003da80 f i NpRigidDynamic.obj
 0001:0003ca80       ?resolveReferences@?$NpActorTemplate@VPxArticulationLink@physx@@@physx@@UEAAXAEAVPxDeserializationContext@2@@Z 000000018003da80 f i NpArticulationLink.obj
 0001:0003ca80       ?resolveReferences@?$NpActorTemplate@VPxSoftBody@physx@@@physx@@UEAAXAEAVPxDeserializationContext@2@@Z 000000018003da80 f i NpSoftBody.obj
 0001:0003ca80       ?resolveReferences@?$NpActorTemplate@VPxRigidStatic@physx@@@physx@@UEAAXAEAVPxDeserializationContext@2@@Z 000000018003da80 f i NpRigidStatic.obj
 0001:0003ca90       ?scSetActorFlags@NpActor@physx@@QEAAXV?$PxFlags@W4Enum@PxActorFlag@physx@@E@2@@Z 000000018003da90 f i NpSoftBody.obj
 0001:0003cb50       ?setActorFlag@?$NpActorTemplate@VPxSoftBody@physx@@@physx@@UEAAXW4Enum@PxActorFlag@2@_N@Z 000000018003db50 f i NpSoftBody.obj
 0001:0003cc30       ?setActorFlags@?$NpActorTemplate@VPxSoftBody@physx@@@physx@@UEAAXV?$PxFlags@W4Enum@PxActorFlag@physx@@E@2@@Z 000000018003dc30 f i NpSoftBody.obj
 0001:0003ccd0       ?setDominanceGroup@?$NpActorTemplate@VPxSoftBody@physx@@@physx@@UEAAXE@Z 000000018003dcd0 f i NpSoftBody.obj
 0001:0003cd70       ?setName@?$NpActorTemplate@VPxSoftBody@physx@@@physx@@UEAAXPEBD@Z 000000018003dd70 f i NpSoftBody.obj
 0001:0003ce30       ?setName@NpSoftBody@physx@@UEAAXPEBD@Z 000000018003de30 f   NpSoftBody.obj
 0001:0003ce80       ?setOwnerClient@?$NpActorTemplate@VPxSoftBody@physx@@@physx@@UEAAXE@Z 000000018003de80 f i NpSoftBody.obj
 0001:0003ce80       ?setOwnerClient@?$NpActorTemplate@VPxRigidStatic@physx@@@physx@@UEAAXE@Z 000000018003de80 f i NpRigidStatic.obj
 0001:0003ce80       ?setOwnerClient@?$NpActorTemplate@VPxRigidDynamic@physx@@@physx@@UEAAXE@Z 000000018003de80 f i NpRigidDynamic.obj
 0001:0003ce80       ?setOwnerClient@?$NpActorTemplate@VPxArticulationLink@physx@@@physx@@UEAAXE@Z 000000018003de80 f i NpArticulationLink.obj
 0001:0003ce80       ?setOwnerClient@?$NpActorTemplate@VPxPBDParticleSystem@physx@@@physx@@UEAAXE@Z 000000018003de80 f i NpParticleSystem.obj
 0001:0003ced0       ?setParameter@NpSoftBody@physx@@UEAAXUPxFEMParameters@2@@Z 000000018003ded0 f   NpSoftBody.obj
 0001:0003cfa0       ?setSoftBodyFlag@NpSoftBody@physx@@UEAAXW4Enum@PxSoftBodyFlag@2@_N@Z 000000018003dfa0 f   NpSoftBody.obj
 0001:0003cfd0       ?setSoftBodyFlags@NpSoftBody@physx@@UEAAXV?$PxFlags@W4Enum@PxSoftBodyFlag@physx@@I@2@@Z 000000018003dfd0 f   NpSoftBody.obj
 0001:0003cff0       ?setSolverIterationCounts@NpSoftBody@physx@@UEAAXII@Z 000000018003dff0 f   NpSoftBody.obj
 0001:0003d110       ?setWakeCounter@NpSoftBody@physx@@UEAAXM@Z 000000018003e110 f   NpSoftBody.obj
 0001:0003d1b0       ?updateMaterials@NpSoftBody@physx@@QEAAXXZ 000000018003e1b0 f   NpSoftBody.obj
 0001:0003d260       ?writeData@NpSoftBody@physx@@UEAAXW4Enum@PxSoftBodyData@2@AEAVPxBuffer@2@_N@Z 000000018003e260 f   NpSoftBody.obj
 0001:0003d390       ?writeData@NpSoftBody@physx@@UEAAXW4Enum@PxSoftBodyData@2@_N@Z 000000018003e390 f   NpSoftBody.obj
 0001:0003d410       ??$PxSort@UPxParticleCloth@physx@@U?$PxLess@UPxParticleCloth@physx@@@2@V?$PxReflectionAllocator@UPxParticleCloth@physx@@@2@@physx@@YAXPEAUPxParticleCloth@0@IAEBU?$PxLess@UPxParticleCloth@physx@@@0@AEBV?$PxReflectionAllocator@UPxParticleCloth@physx@@@0@I@Z 000000018003e410 f i NpParticleSystem.obj
 0001:0003d9a0       ??0NpPBDParticleSystem@physx@@QEAA@IAEAVPxCudaContextManager@1@@Z 000000018003e9a0 f   NpParticleSystem.obj
 0001:0003daa0       ??0PxPartitionedParticleCloth@physx@@QEAA@XZ 000000018003eaa0 f   NpParticleSystem.obj
 0001:0003dac0       ??1PxPartitionedParticleCloth@physx@@QEAA@XZ 000000018003eac0 f   NpParticleSystem.obj
 0001:0003db90       ??_G?$NpActorTemplate@VPxPBDParticleSystem@physx@@@physx@@UEAAPEAXI@Z 000000018003eb90 f i NpParticleSystem.obj
 0001:0003db90       ??_E?$NpActorTemplate@VPxPBDParticleSystem@physx@@@physx@@UEAAPEAXI@Z 000000018003eb90 f i NpParticleSystem.obj
 0001:0003dc00       ??_GNpPBDParticleSystem@physx@@UEAAPEAXI@Z 000000018003ec00 f i NpParticleSystem.obj
 0001:0003dc00       ??_G?$NpParticleSystem@VPxPBDParticleSystem@physx@@@physx@@UEAAPEAXI@Z 000000018003ec00 f i NpParticleSystem.obj
 0001:0003dc00       ??_E?$NpParticleSystem@VPxPBDParticleSystem@physx@@@physx@@UEAAPEAXI@Z 000000018003ec00 f i NpParticleSystem.obj
 0001:0003dc00       ??_ENpPBDParticleSystem@physx@@UEAAPEAXI@Z 000000018003ec00 f i NpParticleSystem.obj
 0001:0003dc90       ??_GNpParticleClothPreProcessor@physx@@UEAAPEAXI@Z 000000018003ec90 f i NpParticleSystem.obj
 0001:0003dc90       ??_ENpParticleClothPreProcessor@physx@@UEAAPEAXI@Z 000000018003ec90 f i NpParticleSystem.obj
 0001:0003dce0       ??_EPxConstraintAllocator@physx@@UEAAPEAXI@Z 000000018003ece0 f i LowLevelDynamics_static_64:DyFeatherstoneArticulation.obj
 0001:0003dce0       ??_GPxConstraintAllocator@physx@@UEAAPEAXI@Z 000000018003ece0 f i LowLevelDynamics_static_64:DyFeatherstoneArticulation.obj
 0001:0003dce0       ??_EPxParticleClothPreProcessor@physx@@MEAAPEAXI@Z 000000018003ece0 f i NpParticleSystem.obj
 0001:0003dce0       ??_GPxParticleClothPreProcessor@physx@@MEAAPEAXI@Z 000000018003ece0 f i NpParticleSystem.obj
 0001:0003dd10       ?addParticleBuffer@NpPBDParticleSystem@physx@@UEAAXPEAVPxParticleBuffer@2@@Z 000000018003ed10 f   NpParticleSystem.obj
 0001:0003dd90       ?addRigidAttachment@NpPBDParticleSystem@physx@@UEAAXPEAVPxRigidActor@2@@Z 000000018003ed90 f   NpParticleSystem.obj
 0001:0003de80       ?allocate@?$PxArray@IV?$PxReflectionAllocator@I@physx@@@physx@@IEAAPEAII@Z 000000018003ee80 f i NpParticleSystem.obj
 0001:0003df30       ?allocateBuffers@PxPartitionedParticleCloth@physx@@QEAAXIPEAVPxCudaContextManager@2@@Z 000000018003ef30 f   NpParticleSystem.obj
 0001:0003e070       ?classifySprings@NpParticleClothPreProcessor@physx@@AEAAXPEBUPxParticleSpring@2@PEAI1AEAV?$PxArray@IV?$PxReflectionAllocator@I@physx@@@2@@Z 000000018003f070 f   NpParticleSystem.obj
 0001:0003e250       ?combinePartitions@NpParticleClothPreProcessor@physx@@AEAAIPEBUPxParticleSpring@2@PEBI1PEAIPEAU32@22@Z 000000018003f250 f   NpParticleSystem.obj
 0001:0003e820       ?createPhase@NpPBDParticleSystem@physx@@UEAAIPEAVPxParticleMaterial@2@V?$PxFlags@W4Enum@PxParticlePhaseFlag@physx@@I@2@@Z 000000018003f820 f   NpParticleSystem.obj
 0001:0003e900       ?enableCCD@?$NpParticleSystem@VPxPBDParticleSystem@physx@@@physx@@UEAAX_N@Z 000000018003f900 f i NpParticleSystem.obj
 0001:0003e960       ?getActorFlags@?$NpActorTemplate@VPxPBDParticleSystem@physx@@@physx@@UEBA?AV?$PxFlags@W4Enum@PxActorFlag@physx@@E@2@XZ 000000018003f960 f i NpParticleSystem.obj
 0001:0003e9c0       ?getConcreteTypeName@PxPBDParticleSystem@physx@@UEBAPEBDXZ 000000018003f9c0 f i NpParticleSystem.obj
 0001:0003e9d0       ?getContactOffset@?$NpParticleSystem@VPxPBDParticleSystem@physx@@@physx@@UEBAMXZ 000000018003f9d0 f i NpParticleSystem.obj
 0001:0003e9e0       ?getCudaContextManager@?$NpParticleSystem@VPxPBDParticleSystem@physx@@@physx@@UEBAPEAVPxCudaContextManager@2@XZ 000000018003f9e0 f i NpParticleSystem.obj
 0001:0003e9f0       ?getDominanceGroup@?$NpActorTemplate@VPxPBDParticleSystem@physx@@@physx@@UEBAEXZ 000000018003f9f0 f i NpParticleSystem.obj
 0001:0003ea40       ?getFluidBoundaryDensityScale@NpPBDParticleSystem@physx@@UEBAMXZ 000000018003fa40 f i NpParticleSystem.obj
 0001:0003ea50       ?getFluidRestOffset@NpPBDParticleSystem@physx@@UEBAMXZ 000000018003fa50 f i NpParticleSystem.obj
 0001:0003ea60       ?getGpuParticleSystemIndex@?$NpParticleSystem@VPxPBDParticleSystem@physx@@@physx@@UEAAIXZ 000000018003fa60 f i NpParticleSystem.obj
 0001:0003eb10       ?getMaxDepenetrationVelocity@?$NpParticleSystem@VPxPBDParticleSystem@physx@@@physx@@UEAAMXZ 000000018003fb10 f i NpParticleSystem.obj
 0001:0003eb20       ?getMaxVelocity@?$NpParticleSystem@VPxPBDParticleSystem@physx@@@physx@@UEAAMXZ 000000018003fb20 f i NpParticleSystem.obj
 0001:0003eb30       ?getName@?$NpActorTemplate@VPxPBDParticleSystem@physx@@@physx@@UEBAPEBDXZ 000000018003fb30 f i NpParticleSystem.obj
 0001:0003eb70       ?getName@?$NpParticleSystem@VPxPBDParticleSystem@physx@@@physx@@UEBAPEBDXZ 000000018003fb70 f i NpParticleSystem.obj
 0001:0003ebb0       ?getNbParticleMaterials@?$NpParticleSystem@VPxPBDParticleSystem@physx@@@physx@@UEBAIXZ 000000018003fbb0 f i NpParticleSystem.obj
 0001:0003ebd0       ?getParticleContactOffset@?$NpParticleSystem@VPxPBDParticleSystem@physx@@@physx@@UEBAMXZ 000000018003fbd0 f i NpParticleSystem.obj
 0001:0003ebe0       ?getParticleFlags@?$NpParticleSystem@VPxPBDParticleSystem@physx@@@physx@@UEBA?AV?$PxFlags@W4Enum@PxParticleFlag@physx@@I@2@XZ 000000018003fbe0 f i NpParticleSystem.obj
 0001:0003ebf0       ?getParticleSystemCallback@?$NpParticleSystem@VPxPBDParticleSystem@physx@@@physx@@UEBAPEAVPxParticleSystemCallback@2@XZ 000000018003fbf0 f i NpParticleSystem.obj
 0001:0003ec00       ?getPeriodicBoundary@?$NpParticleSystem@VPxPBDParticleSystem@physx@@@physx@@UEBA?AV?$PxVec3T@M@2@XZ 000000018003fc00 f i NpParticleSystem.obj
 0001:0003ec20       ?getRestOffset@?$NpParticleSystem@VPxPBDParticleSystem@physx@@@physx@@UEBAMXZ 000000018003fc20 f i NpParticleSystem.obj
 0001:0003ec30       ?getSimulationFilterData@?$NpParticleSystem@VPxPBDParticleSystem@physx@@@physx@@UEBA?AUPxFilterData@2@XZ 000000018003fc30 f i NpParticleSystem.obj
 0001:0003ec50       ?getSolidRestOffset@?$NpParticleSystem@VPxPBDParticleSystem@physx@@@physx@@UEBAMXZ 000000018003fc50 f i NpParticleSystem.obj
 0001:0003ec60       ?getSolverIterationCounts@?$NpParticleSystem@VPxPBDParticleSystem@physx@@@physx@@UEBAXAEAI0@Z 000000018003fc60 f i NpParticleSystem.obj
 0001:0003ecc0       ?getSolverType@?$NpParticleSystem@VPxPBDParticleSystem@physx@@@physx@@UEBA?AW4Enum@PxParticleSolverType@2@XZ 000000018003fcc0 f i NpParticleSystem.obj
 0001:0003ecd0       ?getType@NpPBDParticleSystem@physx@@UEBA?AW4Enum@PxActorType@2@XZ 000000018003fcd0 f i NpParticleSystem.obj
 0001:0003ece0       ?getWind@NpPBDParticleSystem@physx@@UEBA?AV?$PxVec3T@M@2@XZ 000000018003fce0 f i NpParticleSystem.obj
 0001:0003ed00       ?getWorldBounds@?$NpParticleSystem@VPxPBDParticleSystem@physx@@@physx@@UEBA?AVPxBounds3@2@M@Z 000000018003fd00 f i NpParticleSystem.obj
 0001:0003ef20       ?isKindOf@PxPBDParticleSystem@physx@@MEBA_NPEBD@Z 000000018003ff20 f i NpParticleSystem.obj
 0001:0003efb0       ?partitionSprings@NpParticleClothPreProcessor@physx@@UEAAXAEBUPxParticleClothDesc@2@AEAUPxPartitionedParticleCloth@2@@Z 000000018003ffb0 f   NpParticleSystem.obj
 0001:0003f1e0       ?partitions@NpParticleClothPreProcessor@physx@@AEAAPEAIPEBUPxParticleSpring@2@PEAI@Z 00000001800401e0 f   NpParticleSystem.obj
 0001:0003f410       ?recreate@?$PxArray@IV?$PxReflectionAllocator@I@physx@@@physx@@IEAAXI@Z 0000000180040410 f i NpParticleSystem.obj
 0001:0003f4b0       ?release@NpPBDParticleSystem@physx@@UEAAXXZ 00000001800404b0 f   NpParticleSystem.obj
 0001:0003f520       ?release@NpParticleClothPreProcessor@physx@@UEAAXXZ 0000000180040520 f   NpParticleSystem.obj
 0001:0003f540       ?removeParticleBuffer@NpPBDParticleSystem@physx@@UEAAXPEAVPxParticleBuffer@2@@Z 0000000180040540 f   NpParticleSystem.obj
 0001:0003f550       ?removeRigidAttachment@NpPBDParticleSystem@physx@@UEAAXPEAVPxRigidActor@2@@Z 0000000180040550 f   NpParticleSystem.obj
 0001:0003f640       ?resize@?$PxArray@IV?$PxReflectionAllocator@I@physx@@@physx@@QEAAXIAEBI@Z 0000000180040640 f i NpParticleSystem.obj
 0001:0003f700       ?setActorFlag@?$NpActorTemplate@VPxPBDParticleSystem@physx@@@physx@@UEAAXW4Enum@PxActorFlag@2@_N@Z 0000000180040700 f i NpParticleSystem.obj
 0001:0003f7e0       ?setActorFlags@?$NpActorTemplate@VPxPBDParticleSystem@physx@@@physx@@UEAAXV?$PxFlags@W4Enum@PxActorFlag@physx@@E@2@@Z 00000001800407e0 f i NpParticleSystem.obj
 0001:0003f880       ?setContactOffset@?$NpParticleSystem@VPxPBDParticleSystem@physx@@@physx@@UEAAXM@Z 0000000180040880 f i NpParticleSystem.obj
 0001:0003f8e0       ?setDominanceGroup@?$NpActorTemplate@VPxPBDParticleSystem@physx@@@physx@@UEAAXE@Z 00000001800408e0 f i NpParticleSystem.obj
 0001:0003f980       ?setFluidBoundaryDensityScale@NpPBDParticleSystem@physx@@UEAAXM@Z 0000000180040980 f i NpParticleSystem.obj
 0001:0003f9e0       ?setFluidRestOffset@NpPBDParticleSystem@physx@@UEAAXM@Z 00000001800409e0 f i NpParticleSystem.obj
 0001:0003fa40       ?setGridSizeX@?$NpParticleSystem@VPxPBDParticleSystem@physx@@@physx@@UEAAXI@Z 0000000180040a40 f i NpParticleSystem.obj
 0001:0003fa50       ?setGridSizeY@?$NpParticleSystem@VPxPBDParticleSystem@physx@@@physx@@UEAAXI@Z 0000000180040a50 f i NpParticleSystem.obj
 0001:0003fa60       ?setGridSizeZ@?$NpParticleSystem@VPxPBDParticleSystem@physx@@@physx@@UEAAXI@Z 0000000180040a60 f i NpParticleSystem.obj
 0001:0003fa70       ?setMaxDepenetrationVelocity@?$NpParticleSystem@VPxPBDParticleSystem@physx@@@physx@@UEAAXM@Z 0000000180040a70 f i NpParticleSystem.obj
 0001:0003fb10       ?setMaxVelocity@?$NpParticleSystem@VPxPBDParticleSystem@physx@@@physx@@UEAAXM@Z 0000000180040b10 f i NpParticleSystem.obj
 0001:0003fbb0       ?setName@?$NpActorTemplate@VPxPBDParticleSystem@physx@@@physx@@UEAAXPEBD@Z 0000000180040bb0 f i NpParticleSystem.obj
 0001:0003fc70       ?setName@?$NpParticleSystem@VPxPBDParticleSystem@physx@@@physx@@UEAAXPEBD@Z 0000000180040c70 f i NpParticleSystem.obj
 0001:0003fcc0       ?setParticleContactOffset@?$NpParticleSystem@VPxPBDParticleSystem@physx@@@physx@@UEAAXM@Z 0000000180040cc0 f i NpParticleSystem.obj
 0001:0003fd20       ?setParticleFlag@?$NpParticleSystem@VPxPBDParticleSystem@physx@@@physx@@UEAAXW4Enum@PxParticleFlag@2@_N@Z 0000000180040d20 f i NpParticleSystem.obj
 0001:0003fd50       ?setParticleFlags@?$NpParticleSystem@VPxPBDParticleSystem@physx@@@physx@@UEAAXV?$PxFlags@W4Enum@PxParticleFlag@physx@@I@2@@Z 0000000180040d50 f i NpParticleSystem.obj
 0001:0003fd70       ?setParticleSystemCallback@?$NpParticleSystem@VPxPBDParticleSystem@physx@@@physx@@UEAAXPEAVPxParticleSystemCallback@2@@Z 0000000180040d70 f i NpParticleSystem.obj
 0001:0003fd80       ?setPeriodicBoundary@?$NpParticleSystem@VPxPBDParticleSystem@physx@@@physx@@UEAAXAEBV?$PxVec3T@M@2@@Z 0000000180040d80 f i NpParticleSystem.obj
 0001:0003fde0       ?setRestOffset@?$NpParticleSystem@VPxPBDParticleSystem@physx@@@physx@@UEAAXM@Z 0000000180040de0 f i NpParticleSystem.obj
 0001:0003fe40       ?setSimulationFilterData@?$NpParticleSystem@VPxPBDParticleSystem@physx@@@physx@@UEAAXAEBUPxFilterData@2@@Z 0000000180040e40 f i NpParticleSystem.obj
 0001:0003fe60       ?setSolidRestOffset@?$NpParticleSystem@VPxPBDParticleSystem@physx@@@physx@@UEAAXM@Z 0000000180040e60 f i NpParticleSystem.obj
 0001:0003fec0       ?setSolverIterationCounts@?$NpParticleSystem@VPxPBDParticleSystem@physx@@@physx@@UEAAXII@Z 0000000180040ec0 f i NpParticleSystem.obj
 0001:0003ffe0       ?setWind@NpPBDParticleSystem@physx@@UEAAXAEBV?$PxVec3T@M@2@@Z 0000000180040fe0 f i NpParticleSystem.obj
 0001:00040040       ?visualize@NpPBDParticleSystem@physx@@UEBAXAEAVPxRenderOutput@2@AEAVNpScene@2@@Z 0000000180041040 f   NpParticleSystem.obj
 0001:000400f0       ?writeSprings@NpParticleClothPreProcessor@physx@@AEAAXPEBUPxParticleSpring@2@PEAI111@Z 00000001800410f0 f   NpParticleSystem.obj
 0001:000402b0       PxCreateParticleClothPreProcessor 00000001800412b0 f   NpParticleSystem.obj
 0001:000403d0       ??0NpConstraint@physx@@QEAA@PEAVPxRigidActor@1@0AEAVPxConstraintConnector@1@AEBUPxConstraintShaderTable@1@I@Z 00000001800413d0 f   NpConstraint.obj
 0001:000405b0       ??_ENpConstraint@physx@@UEAAPEAXI@Z 00000001800415b0 f i NpConstraint.obj
 0001:000405b0       ??_GNpConstraint@physx@@UEAAPEAXI@Z 00000001800415b0 f i NpConstraint.obj
 0001:00040640       ?actorDeleted@NpConstraint@physx@@QEAAXPEAVPxRigidActor@2@@Z 0000000180041640 f   NpConstraint.obj
 0001:00040660       ?comShift@NpConstraint@physx@@QEAAXPEAVPxRigidActor@2@@Z 0000000180041660 f   NpConstraint.obj
 0001:000406b0       ?createObject@NpConstraint@physx@@SAPEAV12@AEAPEAEAEAVPxDeserializationContext@2@@Z 00000001800416b0 f   NpConstraint.obj
 0001:00040750       ?getActors@NpConstraint@physx@@UEBAXAEAPEAVPxRigidActor@2@0@Z 0000000180041750 f   NpConstraint.obj
 0001:000407b0       ?getBreakForce@NpConstraint@physx@@UEBAXAEAM0@Z 00000001800417b0 f   NpConstraint.obj
 0001:00040810       ?getConcreteTypeName@PxConstraint@physx@@UEBAPEBDXZ 0000000180041810 f i NpConstraint.obj
 0001:00040820       ?getExternalReference@NpConstraint@physx@@UEAAPEAXAEAI@Z 0000000180041820 f   NpConstraint.obj
 0001:00040870       ?getFlags@NpConstraint@physx@@UEBA?AV?$PxFlags@W4Enum@PxConstraintFlag@physx@@G@2@XZ 0000000180041870 f   NpConstraint.obj
 0001:000408c0       ?getForce@NpConstraint@physx@@UEBAXAEAV?$PxVec3T@M@2@0@Z 00000001800418c0 f   NpConstraint.obj
 0001:00040960       ?getMinResponseThreshold@NpConstraint@physx@@UEBAMXZ 0000000180041960 f   NpConstraint.obj
 0001:000409b0       ?getSceneFromActors@NpConstraint@physx@@QEBAPEAVNpScene@2@XZ 00000001800419b0 f   NpConstraint.obj
 0001:00040a70       ?isKindOf@PxConstraint@physx@@MEBA_NPEBD@Z 0000000180041a70 f i NpConstraint.obj
 0001:00040ac0       __acrt_uninitialize_command_line 0000000180041ac0 f i libucrt:argv_data.obj
 0001:00040ac0       ?isSubordinate@NpArticulationLink@physx@@UEBA_NXZ 0000000180041ac0 f i NpArticulationLink.obj
 0001:00040ac0       ?isSubordinate@NpArticulationTendonJoint@physx@@UEBA_NXZ 0000000180041ac0 f i NpArticulationTendon.obj
 0001:00040ac0       ?isSubordinate@?$PxSerializerDefaultAdapter@VNpArticulationJointReducedCoordinate@physx@@@physx@@UEBA_NXZ 0000000180041ac0 f i NpSerializerAdapter.obj
 0001:00040ac0       ?isSubordinate@?$PxSerializerDefaultAdapter@VNpArticulationLink@physx@@@physx@@UEBA_NXZ 0000000180041ac0 f i NpSerializerAdapter.obj
 0001:00040ac0       ?isSubordinate@NpArticulationSpatialTendon@physx@@UEBA_NXZ 0000000180041ac0 f i NpArticulationTendon.obj
 0001:00040ac0       ?isSubordinate@NpArticulationSensor@physx@@UEBA_NXZ 0000000180041ac0 f i NpArticulationSensor.obj
 0001:00040ac0       ?isSubordinate@NpConstraint@physx@@UEBA_NXZ 0000000180041ac0 f i NpConstraint.obj
 0001:00040ac0       ?isSubordinate@NpArticulationJointReducedCoordinate@physx@@UEBA_NXZ 0000000180041ac0 f i NpArticulationJointReducedCoordinate.obj
 0001:00040ac0       ?isSubordinate@NpArticulationAttachment@physx@@UEBA_NXZ 0000000180041ac0 f i NpArticulationTendon.obj
 0001:00040ac0       ?isSubordinate@?$PxSerializerDefaultAdapter@VNpConstraint@physx@@@physx@@UEBA_NXZ 0000000180041ac0 f i NpSerializerAdapter.obj
 0001:00040ac0       ?isSubordinate@NpArticulationFixedTendon@physx@@UEBA_NXZ 0000000180041ac0 f i NpArticulationTendon.obj
 0001:00040ad0       ?isValid@NpConstraint@physx@@UEBA_NXZ 0000000180041ad0 f   NpConstraint.obj
 0001:00040b50       ?markDirty@NpConstraint@physx@@UEAAXXZ 0000000180041b50 f   NpConstraint.obj
 0001:00040b90       ?release@NpConstraint@physx@@UEAAXXZ 0000000180041b90 f   NpConstraint.obj
 0001:00040c50       ?removeConnectors@NpConstraint@physx@@AEAAXPEBD0@Z 0000000180041c50 f   NpConstraint.obj
 0001:00040cd0       ?setActors@NpConstraint@physx@@UEAAXPEAVPxRigidActor@2@0@Z 0000000180041cd0 f   NpConstraint.obj
 0001:00040fa0       ?setBreakForce@NpConstraint@physx@@UEAAXMM@Z 0000000180041fa0 f   NpConstraint.obj
 0001:00041070       ?setConstraintFunctions@NpConstraint@physx@@UEAAXAEAVPxConstraintConnector@2@AEBUPxConstraintShaderTable@2@@Z 0000000180042070 f   NpConstraint.obj
 0001:00041210       ?setFlag@NpConstraint@physx@@UEAAXW4Enum@PxConstraintFlag@2@_N@Z 0000000180042210 f   NpConstraint.obj
 0001:00041350       ?setFlags@NpConstraint@physx@@UEAAXV?$PxFlags@W4Enum@PxConstraintFlag@physx@@G@2@@Z 0000000180042350 f   NpConstraint.obj
 0001:00041460       ?setMinResponseThreshold@NpConstraint@physx@@UEAAXM@Z 0000000180042460 f   NpConstraint.obj
 0001:00041540       ?updateConstants@NpConstraint@physx@@QEAAXAEAVPxsSimulationController@2@@Z 0000000180042540 f   NpConstraint.obj
 0001:000415e0       ??$PxSort@PEAXU?$PxLess@PEAX@physx@@V?$PxReflectionAllocator@V?$PtrBlock@$03@NpPtrTableStorageManager@physx@@@2@@physx@@YAXPEAPEAXIAEBU?$PxLess@PEAX@0@AEBV?$PxReflectionAllocator@V?$PtrBlock@$03@NpPtrTableStorageManager@physx@@@0@I@Z 00000001800425e0 f i NpFactory.obj
 0001:00041a40       ??$PxSort@PEAXU?$PxLess@PEAX@physx@@V?$PxReflectionAllocator@V?$PtrBlock@$0BA@@NpPtrTableStorageManager@physx@@@2@@physx@@YAXPEAPEAXIAEBU?$PxLess@PEAX@0@AEBV?$PxReflectionAllocator@V?$PtrBlock@$0BA@@NpPtrTableStorageManager@physx@@@0@I@Z 0000000180042a40 f i NpFactory.obj
 0001:00041ea0       ??$PxSort@PEAXU?$PxLess@PEAX@physx@@V?$PxReflectionAllocator@V?$PtrBlock@$0EA@@NpPtrTableStorageManager@physx@@@2@@physx@@YAXPEAPEAXIAEBU?$PxLess@PEAX@0@AEBV?$PxReflectionAllocator@V?$PtrBlock@$0EA@@NpPtrTableStorageManager@physx@@@0@I@Z 0000000180042ea0 f i NpFactory.obj
 0001:00042300       ??$PxSort@PEAXU?$PxLess@PEAX@physx@@V?$PxReflectionAllocator@VNpAggregate@physx@@@2@@physx@@YAXPEAPEAXIAEBU?$PxLess@PEAX@0@AEBV?$PxReflectionAllocator@VNpAggregate@physx@@@0@I@Z 0000000180043300 f i NpFactory.obj
 0001:00042760       ??$PxSort@PEAXU?$PxLess@PEAX@physx@@V?$PxReflectionAllocator@VNpArticulationJointReducedCoordinate@physx@@@2@@physx@@YAXPEAPEAXIAEBU?$PxLess@PEAX@0@AEBV?$PxReflectionAllocator@VNpArticulationJointReducedCoordinate@physx@@@0@I@Z 0000000180043760 f i NpFactory.obj
 0001:00042bc0       ??$PxSort@PEAXU?$PxLess@PEAX@physx@@V?$PxReflectionAllocator@VNpArticulationLink@physx@@@2@@physx@@YAXPEAPEAXIAEBU?$PxLess@PEAX@0@AEBV?$PxReflectionAllocator@VNpArticulationLink@physx@@@0@I@Z 0000000180043bc0 f i NpFactory.obj
 0001:00043020       ??$PxSort@PEAXU?$PxLess@PEAX@physx@@V?$PxReflectionAllocator@VNpArticulationReducedCoordinate@physx@@@2@@physx@@YAXPEAPEAXIAEBU?$PxLess@PEAX@0@AEBV?$PxReflectionAllocator@VNpArticulationReducedCoordinate@physx@@@0@I@Z 0000000180044020 f i NpFactory.obj
 0001:00043480       ??$PxSort@PEAXU?$PxLess@PEAX@physx@@V?$PxReflectionAllocator@VNpConnectorArray@physx@@@2@@physx@@YAXPEAPEAXIAEBU?$PxLess@PEAX@0@AEBV?$PxReflectionAllocator@VNpConnectorArray@physx@@@0@I@Z 0000000180044480 f i NpFactory.obj
 0001:000438e0       ??$PxSort@PEAXU?$PxLess@PEAX@physx@@V?$PxReflectionAllocator@VNpConstraint@physx@@@2@@physx@@YAXPEAPEAXIAEBU?$PxLess@PEAX@0@AEBV?$PxReflectionAllocator@VNpConstraint@physx@@@0@I@Z 00000001800448e0 f i NpFactory.obj
 0001:00043d40       ??$PxSort@PEAXU?$PxLess@PEAX@physx@@V?$PxReflectionAllocator@VNpFEMSoftBodyMaterial@physx@@@2@@physx@@YAXPEAPEAXIAEBU?$PxLess@PEAX@0@AEBV?$PxReflectionAllocator@VNpFEMSoftBodyMaterial@physx@@@0@I@Z 0000000180044d40 f i NpFactory.obj
 0001:000441a0       ??$PxSort@PEAXU?$PxLess@PEAX@physx@@V?$PxReflectionAllocator@VNpMaterial@physx@@@2@@physx@@YAXPEAPEAXIAEBU?$PxLess@PEAX@0@AEBV?$PxReflectionAllocator@VNpMaterial@physx@@@0@I@Z 00000001800451a0 f i NpFactory.obj
 0001:00044600       ??$PxSort@PEAXU?$PxLess@PEAX@physx@@V?$PxReflectionAllocator@VNpPBDMaterial@physx@@@2@@physx@@YAXPEAPEAXIAEBU?$PxLess@PEAX@0@AEBV?$PxReflectionAllocator@VNpPBDMaterial@physx@@@0@I@Z 0000000180045600 f i NpFactory.obj
 0001:00044a60       ??$PxSort@PEAXU?$PxLess@PEAX@physx@@V?$PxReflectionAllocator@VNpPBDParticleSystem@physx@@@2@@physx@@YAXPEAPEAXIAEBU?$PxLess@PEAX@0@AEBV?$PxReflectionAllocator@VNpPBDParticleSystem@physx@@@0@I@Z 0000000180045a60 f i NpFactory.obj
 0001:00044ec0       ??$PxSort@PEAXU?$PxLess@PEAX@physx@@V?$PxReflectionAllocator@VNpRigidDynamic@physx@@@2@@physx@@YAXPEAPEAXIAEBU?$PxLess@PEAX@0@AEBV?$PxReflectionAllocator@VNpRigidDynamic@physx@@@0@I@Z 0000000180045ec0 f i NpFactory.obj
 0001:00045320       ??$PxSort@PEAXU?$PxLess@PEAX@physx@@V?$PxReflectionAllocator@VNpRigidStatic@physx@@@2@@physx@@YAXPEAPEAXIAEBU?$PxLess@PEAX@0@AEBV?$PxReflectionAllocator@VNpRigidStatic@physx@@@0@I@Z 0000000180046320 f i NpFactory.obj
 0001:00045780       ??$PxSort@PEAXU?$PxLess@PEAX@physx@@V?$PxReflectionAllocator@VNpShape@physx@@@2@@physx@@YAXPEAPEAXIAEBU?$PxLess@PEAX@0@AEBV?$PxReflectionAllocator@VNpShape@physx@@@0@I@Z 0000000180046780 f i NpFactory.obj
 0001:00045be0       ??$PxSort@PEAXU?$PxLess@PEAX@physx@@V?$PxReflectionAllocator@VNpSoftBody@physx@@@2@@physx@@YAXPEAPEAXIAEBU?$PxLess@PEAX@0@AEBV?$PxReflectionAllocator@VNpSoftBody@physx@@@0@I@Z 0000000180046be0 f i NpFactory.obj
 0001:00046040       ??$checkMaterialSetup@VPxFEMSoftBodyMaterial@physx@@@NpShape@physx@@SA_NAEBVPxGeometry@1@PEBDPEBQEAVPxFEMSoftBodyMaterial@1@G@Z 0000000180047040 f i NpFactory.obj
 0001:00046040       ??$checkMaterialSetup@VPxMaterial@physx@@@NpShape@physx@@SA_NAEBVPxGeometry@1@PEBDPEBQEAVPxMaterial@1@G@Z 0000000180047040 f i NpFactory.obj
 0001:00046290       ??$construct@$$CBVPxGeometry@physx@@V?$PxFlags@W4Enum@PxShapeFlag@physx@@E@2@PEAGG_NW4Enum@PxShapeCoreFlag@2@@?$PxPoolBase@VNpShape@physx@@V?$PxReflectionAllocator@VNpShape@physx@@@2@@physx@@QEAAPEAVNpShape@1@AEBVPxGeometry@1@AEAV?$PxFlags@W4Enum@PxShapeFlag@physx@@E@1@AEAPEAGAEAGAEA_NAEAW4Enum@PxShapeCoreFlag@1@@Z 0000000180047290 f i NpFactory.obj
 0001:00046420       ??$createShapeInternal@VPxFEMSoftBodyMaterial@physx@@VNpFEMSoftBodyMaterial@2@@NpFactory@physx@@AEAAPEAVNpShape@1@AEBVPxGeometry@1@V?$PxFlags@W4Enum@PxShapeFlag@physx@@E@1@PEBQEAVPxFEMSoftBodyMaterial@1@G_NW4Enum@PxShapeCoreFlag@1@@Z 0000000180047420 f i NpFactory.obj
 0001:00046670       ??$createShapeInternal@VPxMaterial@physx@@VNpMaterial@2@@NpFactory@physx@@AEAAPEAVNpShape@1@AEBVPxGeometry@1@V?$PxFlags@W4Enum@PxShapeFlag@physx@@E@1@PEBQEAVPxMaterial@1@G_NW4Enum@PxShapeCoreFlag@1@@Z 0000000180047670 f i NpFactory.obj
 0001:00046fa0       ??0NpFactory@physx@@QEAA@XZ 0000000180047fa0 f   NpFactory.obj
 0001:00047ba0       ??1?$PxPoolBase@V?$PtrBlock@$03@NpPtrTableStorageManager@physx@@V?$PxReflectionAllocator@V?$PtrBlock@$03@NpPtrTableStorageManager@physx@@@3@@physx@@QEAA@XZ 0000000180048ba0 f i NpFactory.obj
 0001:00047d00       ??1?$PxPoolBase@V?$PtrBlock@$0BA@@NpPtrTableStorageManager@physx@@V?$PxReflectionAllocator@V?$PtrBlock@$0BA@@NpPtrTableStorageManager@physx@@@3@@physx@@QEAA@XZ 0000000180048d00 f i NpFactory.obj
 0001:00047e60       ??1?$PxPoolBase@V?$PtrBlock@$0EA@@NpPtrTableStorageManager@physx@@V?$PxReflectionAllocator@V?$PtrBlock@$0EA@@NpPtrTableStorageManager@physx@@@3@@physx@@QEAA@XZ 0000000180048e60 f i NpFactory.obj
 0001:00047fc0       ??1?$PxPoolBase@VNpAggregate@physx@@V?$PxReflectionAllocator@VNpAggregate@physx@@@2@@physx@@QEAA@XZ 0000000180048fc0 f i NpFactory.obj
 0001:000481d0       ??1?$PxPoolBase@VNpArticulationJointReducedCoordinate@physx@@V?$PxReflectionAllocator@VNpArticulationJointReducedCoordinate@physx@@@2@@physx@@QEAA@XZ 00000001800491d0 f i NpFactory.obj
 0001:000483e0       ??1?$PxPoolBase@VNpArticulationLink@physx@@V?$PxReflectionAllocator@VNpArticulationLink@physx@@@2@@physx@@QEAA@XZ 00000001800493e0 f i NpFactory.obj
 0001:000485f0       ??1?$PxPoolBase@VNpArticulationReducedCoordinate@physx@@V?$PxReflectionAllocator@VNpArticulationReducedCoordinate@physx@@@2@@physx@@QEAA@XZ 00000001800495f0 f i NpFactory.obj
 0001:00048800       ??1?$PxPoolBase@VNpConnectorArray@physx@@V?$PxReflectionAllocator@VNpConnectorArray@physx@@@2@@physx@@QEAA@XZ 0000000180049800 f i NpFactory.obj
 0001:000488a0       ??1?$PxPoolBase@VNpConstraint@physx@@V?$PxReflectionAllocator@VNpConstraint@physx@@@2@@physx@@QEAA@XZ 00000001800498a0 f i NpFactory.obj
 0001:00048ab0       ??1?$PxPoolBase@VNpFEMSoftBodyMaterial@physx@@V?$PxReflectionAllocator@VNpFEMSoftBodyMaterial@physx@@@2@@physx@@QEAA@XZ 0000000180049ab0 f i NpFactory.obj
 0001:00048cc0       ??1?$PxPoolBase@VNpMaterial@physx@@V?$PxReflectionAllocator@VNpMaterial@physx@@@2@@physx@@QEAA@XZ 0000000180049cc0 f i NpFactory.obj
 0001:00048ed0       ??1?$PxPoolBase@VNpPBDMaterial@physx@@V?$PxReflectionAllocator@VNpPBDMaterial@physx@@@2@@physx@@QEAA@XZ 0000000180049ed0 f i NpFactory.obj
 0001:000490e0       ??1?$PxPoolBase@VNpPBDParticleSystem@physx@@V?$PxReflectionAllocator@VNpPBDParticleSystem@physx@@@2@@physx@@QEAA@XZ 000000018004a0e0 f i NpFactory.obj
 0001:000492f0       ??1?$PxPoolBase@VNpRigidDynamic@physx@@V?$PxReflectionAllocator@VNpRigidDynamic@physx@@@2@@physx@@QEAA@XZ 000000018004a2f0 f i NpFactory.obj
 0001:00049500       ??1?$PxPoolBase@VNpRigidStatic@physx@@V?$PxReflectionAllocator@VNpRigidStatic@physx@@@2@@physx@@QEAA@XZ 000000018004a500 f i NpFactory.obj
 0001:00049710       ??1?$PxPoolBase@VNpShape@physx@@V?$PxReflectionAllocator@VNpShape@physx@@@2@@physx@@QEAA@XZ 000000018004a710 f i NpFactory.obj
 0001:00049920       ??1?$PxPoolBase@VNpSoftBody@physx@@V?$PxReflectionAllocator@VNpSoftBody@physx@@@2@@physx@@QEAA@XZ 000000018004a920 f i NpFactory.obj
 0001:00049b30       ??1NpFactory@physx@@EEAA@XZ 000000018004ab30 f   NpFactory.obj
 0001:00049f30       ??_ENpFactory@physx@@EEAAPEAXI@Z 000000018004af30 f i NpFactory.obj
 0001:00049f30       ??_GNpFactory@physx@@EEAAPEAXI@Z 000000018004af30 f i NpFactory.obj
 0001:00049f90       ??_GNpPtrTableStorageManager@physx@@UEAAPEAXI@Z 000000018004af90 f i NpFactory.obj
 0001:00049f90       ??_ENpPtrTableStorageManager@physx@@UEAAPEAXI@Z 000000018004af90 f i NpFactory.obj
 0001:0004a050       ??_GPtrTableStorageManager@Cm@physx@@MEAAPEAXI@Z 000000018004b050 f i NpFactory.obj
 0001:0004a050       ??_EPtrTableStorageManager@Cm@physx@@MEAAPEAXI@Z 000000018004b050 f i NpFactory.obj
 0001:0004a080       ?NpDestroyAggregate@physx@@YAXPEAVNpAggregate@1@@Z 000000018004b080 f   NpFactory.obj
 0001:0004a110       ?NpDestroyArticulation@physx@@YAXPEAVPxArticulationReducedCoordinate@1@@Z 000000018004b110 f   NpFactory.obj
 0001:0004a1a0       ?NpDestroyArticulationJoint@physx@@YAXPEAVPxArticulationJointReducedCoordinate@1@@Z 000000018004b1a0 f   NpFactory.obj
 0001:0004a240       ?NpDestroyArticulationLink@physx@@YAXPEAVNpArticulationLink@1@@Z 000000018004b240 f   NpFactory.obj
 0001:0004a2e0       ?NpDestroyConstraint@physx@@YAXPEAVNpConstraint@1@@Z 000000018004b2e0 f   NpFactory.obj
 0001:0004a370       ?NpDestroyParticleSystem@physx@@YAXPEAVNpPBDParticleSystem@1@@Z 000000018004b370 f   NpFactory.obj
 0001:0004a400       ?NpDestroyRigidActor@physx@@YAXPEAVNpRigidStatic@1@@Z 000000018004b400 f   NpFactory.obj
 0001:0004a490       ?NpDestroyRigidDynamic@physx@@YAXPEAVNpRigidDynamic@1@@Z 000000018004b490 f   NpFactory.obj
 0001:0004a520       ?NpDestroyShape@physx@@YAXPEAVNpShape@1@@Z 000000018004b520 f   NpFactory.obj
 0001:0004a5b0       ?NpDestroySoftBody@physx@@YAXPEAVNpSoftBody@1@@Z 000000018004b5b0 f   NpFactory.obj
 0001:0004a650       ?acquireConnectorArray@NpFactory@physx@@QEAAPEAVNpConnectorArray@2@XZ 000000018004b650 f   NpFactory.obj
 0001:0004a7d0       ?addCollection@NpFactory@physx@@QEAAXAEBVCollection@Cm@2@@Z 000000018004b7d0 f   NpFactory.obj
 0001:0004aa50       ?allocate@?$PxArray@GV?$PxInlineAllocator@$07V?$PxReflectionAllocator@G@physx@@@physx@@@physx@@IEAAPEAGI@Z 000000018004ba50 f i NpFactory.obj
 0001:0004ab10       ?allocate@?$PxArray@PEAVPxAggregate@physx@@V?$PxReflectionAllocator@PEAVPxAggregate@physx@@@2@@physx@@IEAAPEAPEAVPxAggregate@2@I@Z 000000018004bb10 f i NpFactory.obj
 0001:0004abc0       ?allocate@?$PxArray@PEAVPxArticulationReducedCoordinate@physx@@V?$PxReflectionAllocator@PEAVPxArticulationReducedCoordinate@physx@@@2@@physx@@IEAAPEAPEAVPxArticulationReducedCoordinate@2@I@Z 000000018004bbc0 f i NpFactory.obj
 0001:0004ac70       ?allocate@?$PxArray@PEAVPxConstraint@physx@@V?$PxReflectionAllocator@PEAVPxConstraint@physx@@@2@@physx@@IEAAPEAPEAVPxConstraint@2@I@Z 000000018004bc70 f i NpFactory.obj
 0001:0004ad20       ?allocate@?$PxArray@PEAVPxParticleBuffer@physx@@V?$PxReflectionAllocator@PEAVPxParticleBuffer@physx@@@2@@physx@@IEAAPEAPEAVPxParticleBuffer@2@I@Z 000000018004bd20 f i NpFactory.obj
 0001:0004add0       ?allocate@?$PxArray@PEAXV?$PxReflectionAllocator@V?$PtrBlock@$03@NpPtrTableStorageManager@physx@@@physx@@@physx@@IEAAPEAPEAXI@Z 000000018004bdd0 f i NpFactory.obj
 0001:0004ae80       ?allocate@?$PxArray@PEAXV?$PxReflectionAllocator@V?$PtrBlock@$0BA@@NpPtrTableStorageManager@physx@@@physx@@@physx@@IEAAPEAPEAXI@Z 000000018004be80 f i NpFactory.obj
 0001:0004af30       ?allocate@?$PxArray@PEAXV?$PxReflectionAllocator@V?$PtrBlock@$0EA@@NpPtrTableStorageManager@physx@@@physx@@@physx@@IEAAPEAPEAXI@Z 000000018004bf30 f i NpFactory.obj
 0001:0004afe0       ?allocate@?$PxArray@PEAXV?$PxReflectionAllocator@VNpAggregate@physx@@@physx@@@physx@@IEAAPEAPEAXI@Z 000000018004bfe0 f i NpFactory.obj
 0001:0004b090       ?allocate@?$PxArray@PEAXV?$PxReflectionAllocator@VNpArticulationJointReducedCoordinate@physx@@@physx@@@physx@@IEAAPEAPEAXI@Z 000000018004c090 f i NpFactory.obj
 0001:0004b140       ?allocate@?$PxArray@PEAXV?$PxReflectionAllocator@VNpArticulationLink@physx@@@physx@@@physx@@IEAAPEAPEAXI@Z 000000018004c140 f i NpFactory.obj
 0001:0004b1f0       ?allocate@?$PxArray@PEAXV?$PxReflectionAllocator@VNpArticulationReducedCoordinate@physx@@@physx@@@physx@@IEAAPEAPEAXI@Z 000000018004c1f0 f i NpFactory.obj
 0001:0004b2a0       ?allocate@?$PxArray@PEAXV?$PxReflectionAllocator@VNpConnectorArray@physx@@@physx@@@physx@@IEAAPEAPEAXI@Z 000000018004c2a0 f i NpFactory.obj
 0001:0004b350       ?allocate@?$PxArray@PEAXV?$PxReflectionAllocator@VNpConstraint@physx@@@physx@@@physx@@IEAAPEAPEAXI@Z 000000018004c350 f i NpFactory.obj
 0001:0004b400       ?allocate@?$PxArray@PEAXV?$PxReflectionAllocator@VNpFEMSoftBodyMaterial@physx@@@physx@@@physx@@IEAAPEAPEAXI@Z 000000018004c400 f i NpFactory.obj
 0001:0004b4b0       ?allocate@?$PxArray@PEAXV?$PxReflectionAllocator@VNpMaterial@physx@@@physx@@@physx@@IEAAPEAPEAXI@Z 000000018004c4b0 f i NpFactory.obj
 0001:0004b560       ?allocate@?$PxArray@PEAXV?$PxReflectionAllocator@VNpPBDMaterial@physx@@@physx@@@physx@@IEAAPEAPEAXI@Z 000000018004c560 f i NpFactory.obj
 0001:0004b610       ?allocate@?$PxArray@PEAXV?$PxReflectionAllocator@VNpPBDParticleSystem@physx@@@physx@@@physx@@IEAAPEAPEAXI@Z 000000018004c610 f i NpFactory.obj
 0001:0004b6c0       ?allocate@?$PxArray@PEAXV?$PxReflectionAllocator@VNpRigidDynamic@physx@@@physx@@@physx@@IEAAPEAPEAXI@Z 000000018004c6c0 f i NpFactory.obj
 0001:0004b770       ?allocate@?$PxArray@PEAXV?$PxReflectionAllocator@VNpRigidStatic@physx@@@physx@@@physx@@IEAAPEAPEAXI@Z 000000018004c770 f i NpFactory.obj
 0001:0004b820       ?allocate@?$PxArray@PEAXV?$PxReflectionAllocator@VNpShape@physx@@@physx@@@physx@@IEAAPEAPEAXI@Z 000000018004c820 f i NpFactory.obj
 0001:0004b8d0       ?allocate@?$PxArray@PEAXV?$PxReflectionAllocator@VNpSoftBody@physx@@@physx@@@physx@@IEAAPEAPEAXI@Z 000000018004c8d0 f i NpFactory.obj
 0001:0004b980       ?allocate@NpPtrTableStorageManager@physx@@UEAAPEAPEAXI@Z 000000018004c980 f i NpFactory.obj
 0001:0004bd50       ?canReuse@NpPtrTableStorageManager@physx@@UEAA_NII@Z 000000018004cd50 f i NpFactory.obj
 0001:0004bda0       ?checkShape@@YA_NAEBVPxGeometry@physx@@PEBD@Z 000000018004cda0 f   NpFactory.obj
 0001:0004bdf0       ?create@?$PxHashBase@PEAVPxSoftBody@physx@@PEAV12@U?$PxHash@PEAVPxSoftBody@physx@@@2@UGetKey@?$PxHashSetBase@PEAVPxSoftBody@physx@@U?$PxHash@PEAVPxSoftBody@physx@@@2@VPxAllocator@2@$00@2@VPxAllocator@2@$00@physx@@QEAAPEAPEAVPxSoftBody@2@AEBQEAV32@AEA_N@Z 000000018004cdf0 f i NpScene.obj
 0001:0004bdf0       ?create@?$PxHashBase@PEAVPxArticulationReducedCoordinate@physx@@PEAV12@U?$PxHash@PEAVPxArticulationReducedCoordinate@physx@@@2@UGetKey@?$PxHashSetBase@PEAVPxArticulationReducedCoordinate@physx@@U?$PxHash@PEAVPxArticulationReducedCoordinate@physx@@@2@VPxAllocator@2@$00@2@VPxAllocator@2@$00@physx@@QEAAPEAPEAVPxArticulationReducedCoordinate@2@AEBQEAV32@AEA_N@Z 000000018004cdf0 f i NpScene.obj
 0001:0004bdf0       ?create@?$PxHashBase@PEAVPxShape@physx@@PEAV12@U?$PxHash@PEAVPxShape@physx@@@2@UGetKey@?$PxHashSetBase@PEAVPxShape@physx@@U?$PxHash@PEAVPxShape@physx@@@2@VPxAllocator@2@$00@2@VPxAllocator@2@$00@physx@@QEAAPEAPEAVPxShape@2@AEBQEAV32@AEA_N@Z 000000018004cdf0 f i NpFactory.obj
 0001:0004bdf0       ?create@?$PxHashBase@PEAVPxAggregate@physx@@PEAV12@U?$PxHash@PEAVPxAggregate@physx@@@2@UGetKey@?$PxHashSetBase@PEAVPxAggregate@physx@@U?$PxHash@PEAVPxAggregate@physx@@@2@VPxAllocator@2@$00@2@VPxAllocator@2@$00@physx@@QEAAPEAPEAVPxAggregate@2@AEBQEAV32@AEA_N@Z 000000018004cdf0 f i NpScene.obj
 0001:0004bdf0       ?create@?$PxHashBase@PEAVPxPBDParticleSystem@physx@@PEAV12@U?$PxHash@PEAVPxPBDParticleSystem@physx@@@2@UGetKey@?$PxHashSetBase@PEAVPxPBDParticleSystem@physx@@U?$PxHash@PEAVPxPBDParticleSystem@physx@@@2@VPxAllocator@2@$00@2@VPxAllocator@2@$00@physx@@QEAAPEAPEAVPxPBDParticleSystem@2@AEBQEAV32@AEA_N@Z 000000018004cdf0 f i NpScene.obj
 0001:0004bf90       ?createAggregate@NpFactory@physx@@QEAAPEAVPxAggregate@2@III@Z 000000018004cf90 f   NpFactory.obj
 0001:0004c730       ?createArticulationLink@NpFactory@physx@@QEAAPEAVPxArticulationLink@2@AEAVNpArticulationReducedCoordinate@2@PEAVNpArticulationLink@2@AEBV?$PxTransformT@M@2@@Z 000000018004d730 f   NpFactory.obj
 0001:0004c950       ?createArticulationRC@NpFactory@physx@@QEAAPEAVPxArticulationReducedCoordinate@2@XZ 000000018004d950 f   NpFactory.obj
 0001:0004ca00       ?createConstraint@NpFactory@physx@@QEAAPEAVPxConstraint@2@PEAVPxRigidActor@2@0AEAVPxConstraintConnector@2@AEBUPxConstraintShaderTable@2@I@Z 000000018004da00 f   NpFactory.obj
 0001:0004cc70       ?createFEMSoftBodyMaterial@NpFactory@physx@@QEAAPEAVPxFEMSoftBodyMaterial@2@MMM@Z 000000018004dc70 f   NpFactory.obj
 0001:0004cee0       ?createInstance@NpFactory@physx@@SAXXZ 000000018004dee0 f   NpFactory.obj
 0001:0004cf70       ?createMaterial@NpFactory@physx@@QEAAPEAVPxMaterial@2@MMM@Z 000000018004df70 f   NpFactory.obj
 0001:0004d1b0       ?createNpArticulationJointRC@NpFactory@physx@@QEAAPEAVNpArticulationJointReducedCoordinate@2@AEAVNpArticulationLink@2@AEBV?$PxTransformT@M@2@01@Z 000000018004e1b0 f   NpFactory.obj
 0001:0004d350       ?createPBDMaterial@NpFactory@physx@@QEAAPEAVPxPBDMaterial@2@MMMMMMMMMMM@Z 000000018004e350 f   NpFactory.obj
 0001:0004d580       ?createPBDParticleSystem@NpFactory@physx@@QEAAPEAVPxPBDParticleSystem@2@IAEAVPxCudaContextManager@2@@Z 000000018004e580 f   NpFactory.obj
 0001:0004d700       ?createParticleAndDiffuseBuffer@NpFactory@physx@@QEAAPEAVPxParticleAndDiffuseBuffer@2@IIIPEAVPxCudaContextManager@2@@Z 000000018004e700 f   NpFactory.obj
 0001:0004d7e0       ?createParticleBuffer@NpFactory@physx@@QEAAPEAVPxParticleBuffer@2@IIPEAVPxCudaContextManager@2@@Z 000000018004e7e0 f   NpFactory.obj
 0001:0004d890       ?createParticleClothBuffer@NpFactory@physx@@QEAAPEAVPxParticleClothBuffer@2@IIIIIPEAVPxCudaContextManager@2@@Z 000000018004e890 f   NpFactory.obj
 0001:0004d980       ?createParticleRigidBuffer@NpFactory@physx@@QEAAPEAVPxParticleRigidBuffer@2@IIIPEAVPxCudaContextManager@2@@Z 000000018004e980 f   NpFactory.obj
 0001:0004da60       ?createRigidDynamic@NpFactory@physx@@QEAAPEAVPxRigidDynamic@2@AEBV?$PxTransformT@M@2@@Z 000000018004ea60 f   NpFactory.obj
 0001:0004dc60       ?createRigidStatic@NpFactory@physx@@QEAAPEAVPxRigidStatic@2@AEBV?$PxTransformT@M@2@@Z 000000018004ec60 f   NpFactory.obj
 0001:0004de70       ?createShape@NpFactory@physx@@QEAAPEAVNpShape@2@AEBVPxGeometry@2@V?$PxFlags@W4Enum@PxShapeFlag@physx@@E@2@PEBQEAVPxFEMSoftBodyMaterial@2@G_N@Z 000000018004ee70 f   NpFactory.obj
 0001:0004deb0       ?createShape@NpFactory@physx@@QEAAPEAVNpShape@2@AEBVPxGeometry@2@V?$PxFlags@W4Enum@PxShapeFlag@physx@@E@2@PEBQEAVPxMaterial@2@G_N@Z 000000018004eeb0 f   NpFactory.obj
 0001:0004def0       ?createSoftBody@NpFactory@physx@@QEAAPEAVPxSoftBody@2@AEAVPxCudaContextManager@2@@Z 000000018004eef0 f   NpFactory.obj
 0001:0004e070       ?deallocate@NpPtrTableStorageManager@physx@@UEAAXPEAPEAXI@Z 000000018004f070 f i NpFactory.obj
 0001:0004e110       ?destroyInstance@NpFactory@physx@@SAXXZ 000000018004f110 f   NpFactory.obj
 0001:0004e1a0       ?disposeElements@?$PxPoolBase@VNpConnectorArray@physx@@V?$PxReflectionAllocator@VNpConnectorArray@physx@@@2@@physx@@IEAAXXZ 000000018004f1a0 f i NpFactory.obj
 0001:0004e390       ?getNbShapes@NpFactory@physx@@QEBAIXZ 000000018004f390 f   NpFactory.obj
 0001:0004e3a0       ?getShapes@NpFactory@physx@@QEBAIPEAPEAVPxShape@2@II@Z 000000018004f3a0 f   NpFactory.obj
 0001:0004e400       ?growAndPushBack@?$PxArray@PEAVPxAggregate@physx@@V?$PxReflectionAllocator@PEAVPxAggregate@physx@@@2@@physx@@IEAAAEAPEAVPxAggregate@2@AEBQEAV32@@Z 000000018004f400 f i NpFactory.obj
 0001:0004e4c0       ?growAndPushBack@?$PxArray@PEAVPxArticulationReducedCoordinate@physx@@V?$PxReflectionAllocator@PEAVPxArticulationReducedCoordinate@physx@@@2@@physx@@IEAAAEAPEAVPxArticulationReducedCoordinate@2@AEBQEAV32@@Z 000000018004f4c0 f i NpFactory.obj
 0001:0004e580       ?growAndPushBack@?$PxArray@PEAVPxConstraint@physx@@V?$PxReflectionAllocator@PEAVPxConstraint@physx@@@2@@physx@@IEAAAEAPEAVPxConstraint@2@AEBQEAV32@@Z 000000018004f580 f i NpFactory.obj
 0001:0004e640       ?growAndPushBack@?$PxArray@PEAVPxParticleBuffer@physx@@V?$PxReflectionAllocator@PEAVPxParticleBuffer@physx@@@2@@physx@@IEAAAEAPEAVPxParticleBuffer@2@AEBQEAV32@@Z 000000018004f640 f i NpFactory.obj
 0001:0004e700       ?growAndPushBack@?$PxArray@PEAXV?$PxReflectionAllocator@V?$PtrBlock@$03@NpPtrTableStorageManager@physx@@@physx@@@physx@@IEAAAEAPEAXAEBQEAX@Z 000000018004f700 f i NpFactory.obj
 0001:0004e7c0       ?growAndPushBack@?$PxArray@PEAXV?$PxReflectionAllocator@V?$PtrBlock@$0BA@@NpPtrTableStorageManager@physx@@@physx@@@physx@@IEAAAEAPEAXAEBQEAX@Z 000000018004f7c0 f i NpFactory.obj
 0001:0004e880       ?growAndPushBack@?$PxArray@PEAXV?$PxReflectionAllocator@V?$PtrBlock@$0EA@@NpPtrTableStorageManager@physx@@@physx@@@physx@@IEAAAEAPEAXAEBQEAX@Z 000000018004f880 f i NpFactory.obj
 0001:0004e940       ?growAndPushBack@?$PxArray@PEAXV?$PxReflectionAllocator@VNpAggregate@physx@@@physx@@@physx@@IEAAAEAPEAXAEBQEAX@Z 000000018004f940 f i NpFactory.obj
 0001:0004ea00       ?growAndPushBack@?$PxArray@PEAXV?$PxReflectionAllocator@VNpArticulationJointReducedCoordinate@physx@@@physx@@@physx@@IEAAAEAPEAXAEBQEAX@Z 000000018004fa00 f i NpFactory.obj
 0001:0004eac0       ?growAndPushBack@?$PxArray@PEAXV?$PxReflectionAllocator@VNpArticulationLink@physx@@@physx@@@physx@@IEAAAEAPEAXAEBQEAX@Z 000000018004fac0 f i NpFactory.obj
 0001:0004eb80       ?growAndPushBack@?$PxArray@PEAXV?$PxReflectionAllocator@VNpArticulationReducedCoordinate@physx@@@physx@@@physx@@IEAAAEAPEAXAEBQEAX@Z 000000018004fb80 f i NpFactory.obj
 0001:0004ec40       ?growAndPushBack@?$PxArray@PEAXV?$PxReflectionAllocator@VNpConnectorArray@physx@@@physx@@@physx@@IEAAAEAPEAXAEBQEAX@Z 000000018004fc40 f i NpFactory.obj
 0001:0004ed00       ?growAndPushBack@?$PxArray@PEAXV?$PxReflectionAllocator@VNpConstraint@physx@@@physx@@@physx@@IEAAAEAPEAXAEBQEAX@Z 000000018004fd00 f i NpFactory.obj
 0001:0004edc0       ?growAndPushBack@?$PxArray@PEAXV?$PxReflectionAllocator@VNpFEMSoftBodyMaterial@physx@@@physx@@@physx@@IEAAAEAPEAXAEBQEAX@Z 000000018004fdc0 f i NpFactory.obj
 0001:0004ee80       ?growAndPushBack@?$PxArray@PEAXV?$PxReflectionAllocator@VNpMaterial@physx@@@physx@@@physx@@IEAAAEAPEAXAEBQEAX@Z 000000018004fe80 f i NpFactory.obj
 0001:0004ef40       ?growAndPushBack@?$PxArray@PEAXV?$PxReflectionAllocator@VNpPBDMaterial@physx@@@physx@@@physx@@IEAAAEAPEAXAEBQEAX@Z 000000018004ff40 f i NpFactory.obj
 0001:0004f000       ?growAndPushBack@?$PxArray@PEAXV?$PxReflectionAllocator@VNpPBDParticleSystem@physx@@@physx@@@physx@@IEAAAEAPEAXAEBQEAX@Z 0000000180050000 f i NpFactory.obj
 0001:0004f0c0       ?growAndPushBack@?$PxArray@PEAXV?$PxReflectionAllocator@VNpRigidDynamic@physx@@@physx@@@physx@@IEAAAEAPEAXAEBQEAX@Z 00000001800500c0 f i NpFactory.obj
 0001:0004f180       ?growAndPushBack@?$PxArray@PEAXV?$PxReflectionAllocator@VNpRigidStatic@physx@@@physx@@@physx@@IEAAAEAPEAXAEBQEAX@Z 0000000180050180 f i NpFactory.obj
 0001:0004f240       ?growAndPushBack@?$PxArray@PEAXV?$PxReflectionAllocator@VNpShape@physx@@@physx@@@physx@@IEAAAEAPEAXAEBQEAX@Z 0000000180050240 f i NpFactory.obj
 0001:0004f300       ?growAndPushBack@?$PxArray@PEAXV?$PxReflectionAllocator@VNpSoftBody@physx@@@physx@@@physx@@IEAAAEAPEAXAEBQEAX@Z 0000000180050300 f i NpFactory.obj
 0001:0004f3c0       ?isValid@?$PxTransformT@M@physx@@QEBA_NXZ 00000001800503c0 f i NpFactory.obj
 0001:0004f490       ?onActorRelease@NpFactory@physx@@QEAAXPEAVPxActor@2@@Z 0000000180050490 f   NpFactory.obj
 0001:0004f5c0       ?onAggregateRelease@NpFactory@physx@@QEAAXPEAVPxAggregate@2@@Z 00000001800505c0 f   NpFactory.obj
 0001:0004f6f0       ?onArticulationRelease@NpFactory@physx@@QEAAXPEAVPxArticulationReducedCoordinate@2@@Z 00000001800506f0 f   NpFactory.obj
 0001:0004f820       ?onConstraintRelease@NpFactory@physx@@QEAAXPEAVPxConstraint@2@@Z 0000000180050820 f   NpFactory.obj
 0001:0004f940       ?onParticleBufferRelease@NpFactory@physx@@SAXPEAVPxParticleBuffer@2@@Z 0000000180050940 f   NpFactory.obj
 0001:0004fa70       ?onShapeRelease@NpFactory@physx@@QEAAXPEAVPxShape@2@@Z 0000000180050a70 f   NpFactory.obj
 0001:0004fab0       ?recreate@?$PxArray@GV?$PxInlineAllocator@$07V?$PxReflectionAllocator@G@physx@@@physx@@@physx@@IEAAXI@Z 0000000180050ab0 f i NpFactory.obj
 0001:0004fb50       ?recreate@?$PxArray@PEAVPxAggregate@physx@@V?$PxReflectionAllocator@PEAVPxAggregate@physx@@@2@@physx@@IEAAXI@Z 0000000180050b50 f i NpFactory.obj
 0001:0004fbf0       ?recreate@?$PxArray@PEAVPxConstraint@physx@@V?$PxReflectionAllocator@PEAVPxConstraint@physx@@@2@@physx@@IEAAXI@Z 0000000180050bf0 f i NpFactory.obj
 0001:0004fc90       ?recreate@?$PxArray@PEAVPxParticleBuffer@physx@@V?$PxReflectionAllocator@PEAVPxParticleBuffer@physx@@@2@@physx@@IEAAXI@Z 0000000180050c90 f i NpFactory.obj
 0001:0004fd30       ?recreate@?$PxArray@PEAXV?$PxReflectionAllocator@V?$PtrBlock@$03@NpPtrTableStorageManager@physx@@@physx@@@physx@@IEAAXI@Z 0000000180050d30 f i NpFactory.obj
 0001:0004fdd0       ?recreate@?$PxArray@PEAXV?$PxReflectionAllocator@V?$PtrBlock@$0BA@@NpPtrTableStorageManager@physx@@@physx@@@physx@@IEAAXI@Z 0000000180050dd0 f i NpFactory.obj
 0001:0004fe70       ?recreate@?$PxArray@PEAXV?$PxReflectionAllocator@V?$PtrBlock@$0EA@@NpPtrTableStorageManager@physx@@@physx@@@physx@@IEAAXI@Z 0000000180050e70 f i NpFactory.obj
 0001:0004ff10       ?recreate@?$PxArray@PEAXV?$PxReflectionAllocator@VNpAggregate@physx@@@physx@@@physx@@IEAAXI@Z 0000000180050f10 f i NpFactory.obj
 0001:0004ffb0       ?recreate@?$PxArray@PEAXV?$PxReflectionAllocator@VNpArticulationJointReducedCoordinate@physx@@@physx@@@physx@@IEAAXI@Z 0000000180050fb0 f i NpFactory.obj
 0001:00050050       ?recreate@?$PxArray@PEAXV?$PxReflectionAllocator@VNpArticulationLink@physx@@@physx@@@physx@@IEAAXI@Z 0000000180051050 f i NpFactory.obj
 0001:000500f0       ?recreate@?$PxArray@PEAXV?$PxReflectionAllocator@VNpArticulationReducedCoordinate@physx@@@physx@@@physx@@IEAAXI@Z 00000001800510f0 f i NpFactory.obj
 0001:00050190       ?recreate@?$PxArray@PEAXV?$PxReflectionAllocator@VNpConnectorArray@physx@@@physx@@@physx@@IEAAXI@Z 0000000180051190 f i NpFactory.obj
 0001:00050230       ?recreate@?$PxArray@PEAXV?$PxReflectionAllocator@VNpConstraint@physx@@@physx@@@physx@@IEAAXI@Z 0000000180051230 f i NpFactory.obj
 0001:000502d0       ?recreate@?$PxArray@PEAXV?$PxReflectionAllocator@VNpFEMSoftBodyMaterial@physx@@@physx@@@physx@@IEAAXI@Z 00000001800512d0 f i NpFactory.obj
 0001:00050370       ?recreate@?$PxArray@PEAXV?$PxReflectionAllocator@VNpMaterial@physx@@@physx@@@physx@@IEAAXI@Z 0000000180051370 f i NpFactory.obj
 0001:00050410       ?recreate@?$PxArray@PEAXV?$PxReflectionAllocator@VNpPBDMaterial@physx@@@physx@@@physx@@IEAAXI@Z 0000000180051410 f i NpFactory.obj
 0001:000504b0       ?recreate@?$PxArray@PEAXV?$PxReflectionAllocator@VNpPBDParticleSystem@physx@@@physx@@@physx@@IEAAXI@Z 00000001800514b0 f i NpFactory.obj
 0001:00050550       ?recreate@?$PxArray@PEAXV?$PxReflectionAllocator@VNpRigidDynamic@physx@@@physx@@@physx@@IEAAXI@Z 0000000180051550 f i NpFactory.obj
 0001:000505f0       ?recreate@?$PxArray@PEAXV?$PxReflectionAllocator@VNpRigidStatic@physx@@@physx@@@physx@@IEAAXI@Z 00000001800515f0 f i NpFactory.obj
 0001:00050690       ?recreate@?$PxArray@PEAXV?$PxReflectionAllocator@VNpShape@physx@@@physx@@@physx@@IEAAXI@Z 0000000180051690 f i NpFactory.obj
 0001:00050730       ?recreate@?$PxArray@PEAXV?$PxReflectionAllocator@VNpSoftBody@physx@@@physx@@@physx@@IEAAXI@Z 0000000180051730 f i NpFactory.obj
 0001:000507d0       ?registerArticulationRCs@NpFactory@physx@@SAXXZ 00000001800517d0 f   NpFactory.obj
 0001:000507f0       ?releaseConnectorArray@NpFactory@physx@@QEAAXPEAVNpConnectorArray@2@@Z 00000001800517f0 f   NpFactory.obj
 0001:00050880       ?releaseFEMMaterialToPool@NpFactory@physx@@QEAAXAEAVPxFEMSoftBodyMaterial@2@@Z 0000000180051880 f   NpFactory.obj
 0001:000508e0       ?releaseMaterialToPool@NpFactory@physx@@QEAAXAEAVNpMaterial@2@@Z 00000001800518e0 f   NpFactory.obj
 0001:00050940       ?releasePBDMaterialToPool@NpFactory@physx@@QEAAXAEAVPxPBDMaterial@2@@Z 0000000180051940 f   NpFactory.obj
 0001:000509a0       ?reserveInternal@?$PxHashBase@PEAVPxCustomParticleSystem@physx@@PEAV12@U?$PxHash@PEAVPxCustomParticleSystem@physx@@@2@UGetKey@?$PxHashSetBase@PEAVPxCustomParticleSystem@physx@@U?$PxHash@PEAVPxCustomParticleSystem@physx@@@2@VPxAllocator@2@$00@2@VPxAllocator@2@$00@physx@@AEAAXI@Z 00000001800519a0 f i NpScene.obj
 0001:000509a0       ?reserveInternal@?$PxHashBase@PEAVPxShape@physx@@PEAV12@U?$PxHash@PEAVPxShape@physx@@@2@UGetKey@?$PxHashSetBase@PEAVPxShape@physx@@U?$PxHash@PEAVPxShape@physx@@@2@VPxAllocator@2@$00@2@VPxAllocator@2@$00@physx@@AEAAXI@Z 00000001800519a0 f i NpFactory.obj
 0001:000509a0       ?reserveInternal@?$PxHashBase@PEAVPxFLIPParticleSystem@physx@@PEAV12@U?$PxHash@PEAVPxFLIPParticleSystem@physx@@@2@UGetKey@?$PxHashSetBase@PEAVPxFLIPParticleSystem@physx@@U?$PxHash@PEAVPxFLIPParticleSystem@physx@@@2@VPxAllocator@2@$00@2@VPxAllocator@2@$00@physx@@AEAAXI@Z 00000001800519a0 f i NpScene.obj
 0001:000509a0       ?reserveInternal@?$PxHashBase@PEAVPxFEMCloth@physx@@PEAV12@U?$PxHash@PEAVPxFEMCloth@physx@@@2@UGetKey@?$PxHashSetBase@PEAVPxFEMCloth@physx@@U?$PxHash@PEAVPxFEMCloth@physx@@@2@VPxAllocator@2@$00@2@VPxAllocator@2@$00@physx@@AEAAXI@Z 00000001800519a0 f i NpScene.obj
 0001:000509a0       ?reserveInternal@?$PxHashBase@PEAVPxMPMParticleSystem@physx@@PEAV12@U?$PxHash@PEAVPxMPMParticleSystem@physx@@@2@UGetKey@?$PxHashSetBase@PEAVPxMPMParticleSystem@physx@@U?$PxHash@PEAVPxMPMParticleSystem@physx@@@2@VPxAllocator@2@$00@2@VPxAllocator@2@$00@physx@@AEAAXI@Z 00000001800519a0 f i NpScene.obj
 0001:000509a0       ?reserveInternal@?$PxHashBase@PEAVPxHairSystem@physx@@PEAV12@U?$PxHash@PEAVPxHairSystem@physx@@@2@UGetKey@?$PxHashSetBase@PEAVPxHairSystem@physx@@U?$PxHash@PEAVPxHairSystem@physx@@@2@VPxAllocator@2@$00@2@VPxAllocator@2@$00@physx@@AEAAXI@Z 00000001800519a0 f i NpScene.obj
 0001:000509a0       ?reserveInternal@?$PxHashBase@PEAVPxAggregate@physx@@PEAV12@U?$PxHash@PEAVPxAggregate@physx@@@2@UGetKey@?$PxHashSetBase@PEAVPxAggregate@physx@@U?$PxHash@PEAVPxAggregate@physx@@@2@VPxAllocator@2@$00@2@VPxAllocator@2@$00@physx@@AEAAXI@Z 00000001800519a0 f i NpScene.obj
 0001:000509a0       ?reserveInternal@?$PxHashBase@PEAVPxSoftBody@physx@@PEAV12@U?$PxHash@PEAVPxSoftBody@physx@@@2@UGetKey@?$PxHashSetBase@PEAVPxSoftBody@physx@@U?$PxHash@PEAVPxSoftBody@physx@@@2@VPxAllocator@2@$00@2@VPxAllocator@2@$00@physx@@AEAAXI@Z 00000001800519a0 f i NpScene.obj
 0001:000509a0       ?reserveInternal@?$PxHashBase@PEAVPxPBDParticleSystem@physx@@PEAV12@U?$PxHash@PEAVPxPBDParticleSystem@physx@@@2@UGetKey@?$PxHashSetBase@PEAVPxPBDParticleSystem@physx@@U?$PxHash@PEAVPxPBDParticleSystem@physx@@@2@VPxAllocator@2@$00@2@VPxAllocator@2@$00@physx@@AEAAXI@Z 00000001800519a0 f i NpScene.obj
 0001:000509a0       ?reserveInternal@?$PxHashBase@PEAVPxArticulationReducedCoordinate@physx@@PEAV12@U?$PxHash@PEAVPxArticulationReducedCoordinate@physx@@@2@UGetKey@?$PxHashSetBase@PEAVPxArticulationReducedCoordinate@physx@@U?$PxHash@PEAVPxArticulationReducedCoordinate@physx@@@2@VPxAllocator@2@$00@2@VPxAllocator@2@$00@physx@@AEAAXI@Z 00000001800519a0 f i NpScene.obj
 0001:00050b70       ?resize@?$PxArray@GV?$PxInlineAllocator@$07V?$PxReflectionAllocator@G@physx@@@physx@@@physx@@QEAAXIAEBG@Z 0000000180051b70 f i NpFactory.obj
 0001:00050c30       ?setNpFactoryListener@NpFactory@physx@@QEAAXAEAVNpFactoryListener@2@@Z 0000000180051c30 f   NpFactory.obj
 0001:00050c40       ?getBinaryMetaData@NpAggregate@physx@@SAXAEAVPxOutputStream@2@@Z 0000000180051c40 f   NpMetaData.obj
 0001:00050f40       ?getBinaryMetaData@NpArticulationAttachment@physx@@SAXAEAVPxOutputStream@2@@Z 0000000180051f40 f   NpMetaData.obj
 0001:00051210       ?getBinaryMetaData@NpArticulationAttachmentArray@physx@@SAXAEAVPxOutputStream@2@@Z 0000000180052210 f   NpMetaData.obj
 0001:00051440       ?getBinaryMetaData@NpArticulationFixedTendon@physx@@SAXAEAVPxOutputStream@2@@Z 0000000180052440 f   NpMetaData.obj
 0001:000516a0       ?getBinaryMetaData@NpArticulationLink@physx@@SAXAEAVPxOutputStream@2@@Z 00000001800526a0 f   NpMetaData.obj
 0001:00051a30       ?getBinaryMetaData@NpArticulationLinkArray@physx@@SAXAEAVPxOutputStream@2@@Z 0000000180052a30 f   NpMetaData.obj
 0001:00051c60       ?getBinaryMetaData@NpArticulationReducedCoordinate@physx@@SAXAEAVPxOutputStream@2@@Z 0000000180052c60 f   NpMetaData.obj
 0001:000524d0       ?getBinaryMetaData@NpArticulationSpatialTendon@physx@@SAXAEAVPxOutputStream@2@@Z 00000001800534d0 f   NpMetaData.obj
 0001:00052730       ?getBinaryMetaData@NpArticulationTendonJoint@physx@@SAXAEAVPxOutputStream@2@@Z 0000000180053730 f   NpMetaData.obj
 0001:000529e0       ?getBinaryMetaData@NpArticulationTendonJointArray@physx@@SAXAEAVPxOutputStream@2@@Z 00000001800539e0 f   NpMetaData.obj
 0001:00052c10       ?getBinaryMetaData@NpConnectorArray@physx@@SAXAEAVPxOutputStream@2@@Z 0000000180053c10 f   NpMetaData.obj
 0001:00052e40       ?getBinaryMetaData@NpRigidDynamic@physx@@SAXAEAVPxOutputStream@2@@Z 0000000180053e40 f   NpMetaData.obj
 0001:00053050       ?getBinaryMetaData@NpRigidStatic@physx@@SAXAEAVPxOutputStream@2@@Z 0000000180054050 f   NpMetaData.obj
 0001:00053ff0       PxGetPhysicsBinaryMetaData 0000000180054ff0 f   NpMetaData.obj
 0001:00054ed0       ??0NpPhysics@physx@@AEAA@AEBVPxTolerancesScale@1@AEBUPxvOffsetTable@1@_NPEAVPsPvd@pvdsdk@1@AEAVPxFoundation@1@PEAVPxOmniPvd@1@@Z 0000000180055ed0 f   NpPhysics.obj
 0001:00055380       ??1NpPhysics@physx@@EEAA@XZ 0000000180056380 f   NpPhysics.obj
 0001:00055940       ??_ENpPhysics@physx@@EEAAPEAXI@Z 0000000180056940 f i NpPhysics.obj
 0001:00055940       ??_GNpPhysics@physx@@EEAAPEAXI@Z 0000000180056940 f i NpPhysics.obj
 0001:000559a0       ??_ESqRefFinder@Sc@physx@@UEAAPEAXI@Z 00000001800569a0 f i NpSceneQueries.obj
 0001:000559a0       ??_ENpPhysicsInsertionCallback@physx@@UEAAPEAXI@Z 00000001800569a0 f i NpPhysics.obj
 0001:000559a0       ??_GPxInsertionCallback@physx@@MEAAPEAXI@Z 00000001800569a0 f i NpPhysics.obj
 0001:000559a0       ??_GSqRefFinder@Sc@physx@@UEAAPEAXI@Z 00000001800569a0 f i NpSceneQueries.obj
 0001:000559a0       ??_ESqBoundsSync@Sc@physx@@UEAAPEAXI@Z 00000001800569a0 f i NpSceneQueries.obj
 0001:000559a0       ??_ECmEventNameProvider@pvdsdk@physx@@UEAAPEAXI@Z 00000001800569a0 f i PhysXPvdSDK_static_64:PxPvdImpl.obj
 0001:000559a0       ??_GNpPhysicsInsertionCallback@physx@@UEAAPEAXI@Z 00000001800569a0 f i NpPhysics.obj
 0001:000559a0       ??_GSqBoundsSync@Sc@physx@@UEAAPEAXI@Z 00000001800569a0 f i NpSceneQueries.obj
 0001:000559a0       ??_EPxInsertionCallback@physx@@MEAAPEAXI@Z 00000001800569a0 f i NpPhysics.obj
 0001:000559a0       ??_GCmEventNameProvider@pvdsdk@physx@@UEAAPEAXI@Z 00000001800569a0 f i PhysXPvdSDK_static_64:PxPvdImpl.obj
 0001:000559a0       ??_GPxProfileNameProvider@profile@physx@@MEAAPEAXI@Z 00000001800569a0 f i PhysXPvdSDK_static_64:PxPvdImpl.obj
 0001:000559a0       ??_EPxProfileNameProvider@profile@physx@@MEAAPEAXI@Z 00000001800569a0 f i PhysXPvdSDK_static_64:PxPvdImpl.obj
 0001:000559d0       ??_EPxPhysics@physx@@UEAAPEAXI@Z 00000001800569d0 f i NpPhysics.obj
 0001:000559d0       ??_GPxPhysics@physx@@UEAAPEAXI@Z 00000001800569d0 f i NpPhysics.obj
 0001:00055a00       ?addFEMMaterial@NpPhysics@physx@@QEAAPEAVNpFEMSoftBodyMaterial@2@PEAV32@@Z 0000000180056a00 f   NpPhysics.obj
 0001:00055bd0       ?addMaterial@NpPhysics@physx@@QEAAPEAVNpMaterial@2@PEAV32@@Z 0000000180056bd0 f   NpPhysics.obj
 0001:00055da0       ?addPBDMaterial@NpPhysics@physx@@QEAAPEAVNpPBDMaterial@2@PEAV32@@Z 0000000180056da0 f   NpPhysics.obj
 0001:00055f90       ?buildObjectFromData@NpPhysicsInsertionCallback@physx@@UEAAPEAVPxBase@2@W4Enum@PxConcreteType@2@PEAX@Z 0000000180056f90 f i NpPhysics.obj
 0001:00056070       ?createAggregate@NpPhysics@physx@@UEAAPEAVPxAggregate@2@III@Z 0000000180057070 f   NpPhysics.obj
 0001:000560d0       ?createArticulationReducedCoordinate@NpPhysics@physx@@UEAAPEAVPxArticulationReducedCoordinate@2@XZ 00000001800570d0 f   NpPhysics.obj
 0001:000560e0       ?createBVH@NpPhysics@physx@@UEAAPEAVPxBVH@2@AEAVPxInputStream@2@@Z 00000001800570e0 f   NpPhysics.obj
 0001:000560f0       ?createBuffer@NpPhysics@physx@@UEAAPEAVPxBuffer@2@_KW4Enum@PxBufferType@2@PEAVPxCudaContextManager@2@@Z 00000001800570f0 f   NpPhysics.obj
 0001:00056160       ?createConstraint@NpPhysics@physx@@UEAAPEAVPxConstraint@2@PEAVPxRigidActor@2@0AEAVPxConstraintConnector@2@AEBUPxConstraintShaderTable@2@I@Z 0000000180057160 f   NpPhysics.obj
 0001:00056170       ?createConvexMesh@NpPhysics@physx@@UEAAPEAVPxConvexMesh@2@AEAVPxInputStream@2@@Z 0000000180057170 f   NpPhysics.obj
 0001:00056180       ?createFEMSoftBodyMaterial@NpPhysics@physx@@UEAAPEAVPxFEMSoftBodyMaterial@2@MMM@Z 0000000180057180 f   NpPhysics.obj
 0001:000561b0       ?createHeightField@NpPhysics@physx@@UEAAPEAVPxHeightField@2@AEAVPxInputStream@2@@Z 00000001800571b0 f   NpPhysics.obj
 0001:000561c0       ?createInstance@NpPhysics@physx@@SAPEAV12@IAEAVPxFoundation@2@AEBVPxTolerancesScale@2@_NPEAVPsPvd@pvdsdk@2@PEAVPxOmniPvd@2@@Z 00000001800571c0 f   NpPhysics.obj
 0001:000564c0       ?createMaterial@NpPhysics@physx@@UEAAPEAVPxMaterial@2@MMM@Z 00000001800574c0 f   NpPhysics.obj
 0001:000564f0       ?createPBDMaterial@NpPhysics@physx@@UEAAPEAVPxPBDMaterial@2@MMMMMMMMMMM@Z 00000001800574f0 f   NpPhysics.obj
 0001:000565a0       ?createPBDParticleSystem@NpPhysics@physx@@UEAAPEAVPxPBDParticleSystem@2@AEAVPxCudaContextManager@2@I@Z 00000001800575a0 f   NpPhysics.obj
 0001:000565c0       ?createParticleAndDiffuseBuffer@NpPhysics@physx@@UEAAPEAVPxParticleAndDiffuseBuffer@2@IIIPEAVPxCudaContextManager@2@@Z 00000001800575c0 f   NpPhysics.obj
 0001:000565d0       ?createParticleBuffer@NpPhysics@physx@@UEAAPEAVPxParticleBuffer@2@IIPEAVPxCudaContextManager@2@@Z 00000001800575d0 f   NpPhysics.obj
 0001:000565e0       ?createParticleClothBuffer@NpPhysics@physx@@UEAAPEAVPxParticleClothBuffer@2@IIIIIPEAVPxCudaContextManager@2@@Z 00000001800575e0 f   NpPhysics.obj
 0001:000565f0       ?createParticleRigidBuffer@NpPhysics@physx@@UEAAPEAVPxParticleRigidBuffer@2@IIIPEAVPxCudaContextManager@2@@Z 00000001800575f0 f   NpPhysics.obj
 0001:00056600       ?createPruningStructure@NpPhysics@physx@@UEAAPEAVPxPruningStructure@2@PEBQEAVPxRigidActor@2@I@Z 0000000180057600 f   NpPhysics.obj
 0001:000566f0       ?createRigidDynamic@NpPhysics@physx@@UEAAPEAVPxRigidDynamic@2@AEBV?$PxTransformT@M@2@@Z 00000001800576f0 f   NpPhysics.obj
 0001:00056800       ?createRigidStatic@NpPhysics@physx@@UEAAPEAVPxRigidStatic@2@AEBV?$PxTransformT@M@2@@Z 0000000180057800 f   NpPhysics.obj
 0001:00056910       ?createScene@NpPhysics@physx@@UEAAPEAVPxScene@2@AEBVPxSceneDesc@2@@Z 0000000180057910 f   NpPhysics.obj
 0001:00056c60       ?createShape@NpPhysics@physx@@UEAAPEAVPxShape@2@AEBVPxGeometry@2@PEBQEAVPxFEMSoftBodyMaterial@2@G_NV?$PxFlags@W4Enum@PxShapeFlag@physx@@E@2@@Z 0000000180057c60 f   NpPhysics.obj
 0001:00056d20       ?createShape@NpPhysics@physx@@UEAAPEAVPxShape@2@AEBVPxGeometry@2@PEBQEAVPxMaterial@2@G_NV?$PxFlags@W4Enum@PxShapeFlag@physx@@E@2@@Z 0000000180057d20 f   NpPhysics.obj
 0001:00056e20       ?createSoftBody@NpPhysics@physx@@UEAAPEAVPxSoftBody@2@AEAVPxCudaContextManager@2@@Z 0000000180057e20 f   NpPhysics.obj
 0001:00056e30       ?createSoftBodyMesh@NpPhysics@physx@@UEAAPEAVPxSoftBodyMesh@2@AEAVPxInputStream@2@@Z 0000000180057e30 f   NpPhysics.obj
 0001:00056e40       ?createTetrahedronMesh@NpPhysics@physx@@UEAAPEAVPxTetrahedronMesh@2@AEAVPxInputStream@2@@Z 0000000180057e40 f   NpPhysics.obj
 0001:00056e50       ?createTriangleMesh@NpPhysics@physx@@UEAAPEAVPxTriangleMesh@2@AEAVPxInputStream@2@@Z 0000000180057e50 f   NpPhysics.obj
 0001:00056e60       ?getBVHs@NpPhysics@physx@@UEBAIPEAPEAVPxBVH@2@II@Z 0000000180057e60 f   NpPhysics.obj
 0001:00056e70       ?getConvexMeshes@NpPhysics@physx@@UEBAIPEAPEAVPxConvexMesh@2@II@Z 0000000180057e70 f   NpPhysics.obj
 0001:00056e80       ?getFEMSoftBodyMaterials@NpPhysics@physx@@UEBAIPEAPEAVPxFEMSoftBodyMaterial@2@II@Z 0000000180057e80 f   NpPhysics.obj
 0001:00056f40       ?getHeightFields@NpPhysics@physx@@UEBAIPEAPEAVPxHeightField@2@II@Z 0000000180057f40 f   NpPhysics.obj
 0001:00056f50       ?getMaterials@NpPhysics@physx@@UEBAIPEAPEAVPxMaterial@2@II@Z 0000000180057f50 f   NpPhysics.obj
 0001:00057010       ?getNbBVHs@NpPhysics@physx@@UEBAIXZ 0000000180058010 f   NpPhysics.obj
 0001:00057020       ?getNbConvexMeshes@NpPhysics@physx@@UEBAIXZ 0000000180058020 f   NpPhysics.obj
 0001:00057030       ?getNbFEMSoftBodyMaterials@NpPhysics@physx@@UEBAIXZ 0000000180058030 f   NpPhysics.obj
 0001:00057070       ?getNbHeightFields@NpPhysics@physx@@UEBAIXZ 0000000180058070 f   NpPhysics.obj
 0001:00057080       ?getNbMaterials@NpPhysics@physx@@UEBAIXZ 0000000180058080 f   NpPhysics.obj
 0001:000570c0       ?getNbPBDMaterials@NpPhysics@physx@@UEBAIXZ 00000001800580c0 f   NpPhysics.obj
 0001:00057100       ?getNbScenes@NpPhysics@physx@@UEBAIXZ 0000000180058100 f   NpPhysics.obj
 0001:00057140       ?getNbShapes@NpPhysics@physx@@UEBAIXZ 0000000180058140 f   NpPhysics.obj
 0001:00057150       ?getNbTetrahedronMeshes@NpPhysics@physx@@UEBAIXZ 0000000180058150 f   NpPhysics.obj
 0001:00057160       ?getNbTriangleMeshes@NpPhysics@physx@@UEBAIXZ 0000000180058160 f   NpPhysics.obj
 0001:00057170       ?getPBDMaterials@NpPhysics@physx@@UEBAIPEAPEAVPxPBDMaterial@2@II@Z 0000000180058170 f   NpPhysics.obj
 0001:00057230       ?getPhysicsInsertionCallback@NpPhysics@physx@@UEAAAEAVPxInsertionCallback@2@XZ 0000000180058230 f i NpPhysics.obj
 0001:00057240       ?getScenes@NpPhysics@physx@@UEBAIPEAPEAVPxScene@2@II@Z 0000000180058240 f   NpPhysics.obj
 0001:000572d0       ?getShapes@NpPhysics@physx@@UEBAIPEAPEAVPxShape@2@II@Z 00000001800582d0 f   NpPhysics.obj
 0001:000572e0       ?getTetrahedronMeshes@NpPhysics@physx@@UEBAIPEAPEAVPxTetrahedronMesh@2@II@Z 00000001800582e0 f   NpPhysics.obj
 0001:000572f0       ?getTolerancesScale@NpPhysics@physx@@UEBAAEBVPxTolerancesScale@2@XZ 00000001800582f0 f   NpPhysics.obj
 0001:00057300       ?getTriangleMeshes@NpPhysics@physx@@UEBAIPEAPEAVPxTriangleMesh@2@II@Z 0000000180058300 f   NpPhysics.obj
 0001:00057310       ?growAndPushBack@?$PxArray@PEAVNpScene@physx@@V?$PxReflectionAllocator@PEAVNpScene@physx@@@2@@physx@@IEAAAEAPEAVNpScene@2@AEBQEAV32@@Z 0000000180058310 f i NpPhysics.obj
 0001:00057450       ?isSane@?$PxTransformT@M@physx@@QEBA_NXZ 0000000180058450 f i NpPhysics.obj
 0001:00057520       ?isValid@PxSceneDesc@physx@@QEBA_NXZ 0000000180058520 f i NpPhysics.obj
 0001:00057780       ?notifyDeletionListeners@NpPhysics@physx@@QEAAXPEBVPxBase@2@PEAXW4Enum@PxDeletionEventFlag@2@@Z 0000000180058780 f   NpPhysics.obj
 0001:000578e0       ?onMeshFactoryBufferRelease@MeshDeletionListener@NpPhysics@physx@@UEAAXPEBVPxBase@3@G@Z 00000001800588e0 f i NpPhysics.obj
 0001:00057a30       ?onObjectAdd@OmniPvdListener@NpPhysics@physx@@UEAAXPEBVPxBase@3@@Z 0000000180058a30 f   NpPhysics.obj
 0001:00057a50       ?onObjectRemove@OmniPvdListener@NpPhysics@physx@@UEAAXPEBVPxBase@3@@Z 0000000180058a50 f   NpPhysics.obj
 0001:00057a70       ?registerDeletionListener@NpPhysics@physx@@UEAAXAEAVPxDeletionListener@2@AEBV?$PxFlags@W4Enum@PxDeletionEventFlag@physx@@E@2@_N@Z 0000000180058a70 f   NpPhysics.obj
 0001:00057c70       ?registerDeletionListenerObjects@NpPhysics@physx@@UEAAXAEAVPxDeletionListener@2@PEBQEBVPxBase@2@I@Z 0000000180058c70 f   NpPhysics.obj
 0001:00057e00       ?release@NpPhysics@physx@@UEAAXXZ 0000000180058e00 f   NpPhysics.obj
 0001:00057e70       ?releaseSceneInternal@NpPhysics@physx@@QEAAXAEAVPxScene@2@@Z 0000000180058e70 f   NpPhysics.obj
 0001:00057f10       ?removeFEMSoftBodyMaterialFromTable@NpPhysics@physx@@QEAAXAEAVNpFEMSoftBodyMaterial@2@@Z 0000000180058f10 f   NpPhysics.obj
 0001:00057fe0       ?removeMaterialFromTable@NpPhysics@physx@@QEAAXAEAVNpMaterial@2@@Z 0000000180058fe0 f   NpPhysics.obj
 0001:000580b0       ?removePBDMaterialFromTable@NpPhysics@physx@@QEAAXAEAVNpPBDMaterial@2@@Z 00000001800590b0 f   NpPhysics.obj
 0001:00058190       ?unregisterDeletionListener@NpPhysics@physx@@UEAAXAEAVPxDeletionListener@2@@Z 0000000180059190 f   NpPhysics.obj
 0001:000582e0       ?unregisterDeletionListenerObjects@NpPhysics@physx@@UEAAXAEAVPxDeletionListener@2@PEBQEBVPxBase@2@I@Z 00000001800592e0 f   NpPhysics.obj
 0001:00058520       ?updateFEMSoftBodyMaterial@NpPhysics@physx@@QEAAXAEAVNpFEMSoftBodyMaterial@2@@Z 0000000180059520 f   NpPhysics.obj
 0001:00058590       ?updateMaterial@NpPhysics@physx@@QEAAXAEAVNpMaterial@2@@Z 0000000180059590 f   NpPhysics.obj
 0001:00058600       ?updatePBDMaterial@NpPhysics@physx@@QEAAXAEAVNpPBDMaterial@2@@Z 0000000180059600 f   NpPhysics.obj
 0001:00058680       PxAddCollectionToPhysics   0000000180059680 f   NpPhysics.obj
 0001:00058690       PxCreateBasePhysics        0000000180059690 f   NpPhysics.obj
 0001:000586a0       PxGetPhysics               00000001800596a0 f   NpPhysics.obj
 0001:000586b0       PxRegisterArticulationsReducedCoordinate 00000001800596b0 f   NpPhysics.obj
 0001:000586d0       PxRegisterHeightFields     00000001800596d0 f   NpPhysics.obj
 0001:00058b80       ??0PruningStructure@Sq@physx@@QEAA@XZ 0000000180059b80 f   NpPruningStructure.obj
 0001:00058bd0       ??_EPruningStructure@Sq@physx@@UEAAPEAXI@Z 0000000180059bd0 f i NpPruningStructure.obj
 0001:00058bd0       ??_GPruningStructure@Sq@physx@@UEAAPEAXI@Z 0000000180059bd0 f i NpPruningStructure.obj
 0001:00058ce0       ?build@PruningStructure@Sq@physx@@QEAA_NPEBQEAVPxRigidActor@3@I@Z 0000000180059ce0 f   NpPruningStructure.obj
 0001:000592f0       ?createObject@PruningStructure@Sq@physx@@SAPEAV123@AEAPEAEAEAVPxDeserializationContext@3@@Z 000000018005a2f0 f   NpPruningStructure.obj
 0001:00059460       ?exportExtraData@PruningStructure@Sq@physx@@QEAAXAEAVPxSerializationContext@3@@Z 000000018005a460 f   NpPruningStructure.obj
 0001:00059560       ?getConcreteTypeName@PxPruningStructure@physx@@UEBAPEBDXZ 000000018005a560 f i NpPruningStructure.obj
 0001:00059570       ?getDynamicMergeData@PruningStructure@Sq@physx@@UEBAPEBXXZ 000000018005a570 f   NpPruningStructure.obj
 0001:00059580       ?getRigidActors@PruningStructure@Sq@physx@@UEBAIPEAPEAVPxRigidActor@3@II@Z 000000018005a580 f   NpPruningStructure.obj
 0001:00059610       ?getStaticMergeData@PruningStructure@Sq@physx@@UEBAPEBXXZ 000000018005a610 f   NpPruningStructure.obj
 0001:00059620       ?invalidate@PruningStructure@Sq@physx@@QEAAXPEAVPxActor@3@@Z 000000018005a620 f   NpPruningStructure.obj
 0001:00059680       ?isKindOf@PxPruningStructure@physx@@MEBA_NPEBD@Z 000000018005a680 f i NpPruningStructure.obj
 0001:000596d0       ?release@PruningStructure@Sq@physx@@UEAAXXZ 000000018005a6d0 f   NpPruningStructure.obj
 0001:00059730       ?requiresObjects@PruningStructure@Sq@physx@@UEAAXAEAVPxProcessPxBaseCallback@3@@Z 000000018005a730 f   NpPruningStructure.obj
 0001:00059780       ?resolveReferences@PruningStructure@Sq@physx@@UEAAXAEAVPxDeserializationContext@3@@Z 000000018005a780 f   NpPruningStructure.obj
 0001:000597f0       ??0NpReadCheck@physx@@QEAA@PEBVNpScene@1@PEBD@Z 000000018005a7f0 f   NpCheck.obj
 0001:000598b0       ??0NpWriteCheck@physx@@QEAA@PEAVNpScene@1@PEBD_N@Z 000000018005a8b0 f   NpCheck.obj
 0001:000599a0       ??1NpReadCheck@physx@@QEAA@XZ 000000018005a9a0 f   NpCheck.obj
 0001:00059a30       ??1NpWriteCheck@physx@@QEAA@XZ 000000018005aa30 f   NpCheck.obj
 0001:00059b40       ??0NpRigidDynamic@physx@@QEAA@AEBV?$PxTransformT@M@1@@Z 000000018005ab40 f   NpRigidDynamic.obj
 0001:00059bd0       ??_G?$NpActorTemplate@VPxRigidDynamic@physx@@@physx@@UEAAPEAXI@Z 000000018005abd0 f i NpRigidDynamic.obj
 0001:00059bd0       ??_E?$NpActorTemplate@VPxRigidDynamic@physx@@@physx@@UEAAPEAXI@Z 000000018005abd0 f i NpRigidDynamic.obj
 0001:00059c40       ??_E?$NpRigidActorTemplate@VPxRigidDynamic@physx@@@physx@@UEAAPEAXI@Z 000000018005ac40 f i NpRigidDynamic.obj
 0001:00059c40       ??_G?$NpRigidActorTemplate@VPxRigidDynamic@physx@@@physx@@UEAAPEAXI@Z 000000018005ac40 f i NpRigidDynamic.obj
 0001:00059cd0       ??_ENpRigidDynamic@physx@@UEAAPEAXI@Z 000000018005acd0 f i NpRigidDynamic.obj
 0001:00059cd0       ??_GNpRigidDynamic@physx@@UEAAPEAXI@Z 000000018005acd0 f i NpRigidDynamic.obj
 0001:00059cd0       ??_G?$NpRigidBodyTemplate@VPxRigidDynamic@physx@@@physx@@UEAAPEAXI@Z 000000018005acd0 f i NpRigidDynamic.obj
 0001:00059cd0       ??_E?$NpRigidBodyTemplate@VPxRigidDynamic@physx@@@physx@@UEAAPEAXI@Z 000000018005acd0 f i NpRigidDynamic.obj
 0001:00059d70       ?NpArticulationGetShapes@physx@@YAIAEAVNpArticulationLink@1@AEAPEBQEAVNpShape@1@PEA_N@Z 000000018005ad70 f   NpArticulationLink.obj
 0001:00059d70       ?NpRigidDynamicGetShapes@physx@@YAIAEAVNpRigidDynamic@1@AEAPEBQEAVNpShape@1@PEA_N@Z 000000018005ad70 f   NpRigidDynamic.obj
 0001:00059da0       ?addForce@NpRigidDynamic@physx@@UEAAXAEBV?$PxVec3T@M@2@W4Enum@PxForceMode@2@_N@Z 000000018005ada0 f   NpRigidDynamic.obj
 0001:00059f40       ?addSpatialForce@?$NpRigidBodyTemplate@VPxRigidDynamic@physx@@@physx@@IEAAXPEBV?$PxVec3T@M@2@0W4Enum@PxForceMode@2@@Z 000000018005af40 f i NpRigidDynamic.obj
 0001:0005a1f0       ?addTorque@NpRigidDynamic@physx@@UEAAXAEBV?$PxVec3T@M@2@W4Enum@PxForceMode@2@_N@Z 000000018005b1f0 f   NpRigidDynamic.obj
 0001:0005a390       ?attachShape@?$NpRigidActorTemplate@VPxRigidDynamic@physx@@@physx@@UEAA_NAEAVPxShape@2@@Z 000000018005b390 f i NpRigidDynamic.obj
 0001:0005a540       ?attachShape@?$NpRigidBodyTemplate@VPxRigidDynamic@physx@@@physx@@UEAA_NAEAVPxShape@2@@Z 000000018005b540 f i NpRigidDynamic.obj
 0001:0005a690       ?clearForce@NpRigidDynamic@physx@@UEAAXW4Enum@PxForceMode@2@@Z 000000018005b690 f   NpRigidDynamic.obj
 0001:0005a780       ?clearSpatialForce@?$NpRigidBodyTemplate@VPxRigidDynamic@physx@@@physx@@IEAAXW4Enum@PxForceMode@2@_N1@Z 000000018005b780 f i NpRigidDynamic.obj
 0001:0005a7f0       ?clearTorque@NpRigidDynamic@physx@@UEAAXW4Enum@PxForceMode@2@@Z 000000018005b7f0 f   NpRigidDynamic.obj
 0001:0005a8e0       ?createObject@NpRigidDynamic@physx@@SAPEAV12@AEAPEAEAEAVPxDeserializationContext@2@@Z 000000018005b8e0 f   NpRigidDynamic.obj
 0001:0005a9d0       ?detachShape@?$NpRigidActorTemplate@VPxRigidDynamic@physx@@@physx@@UEAAXAEAVPxShape@2@_N@Z 000000018005b9d0 f i NpRigidDynamic.obj
 0001:0005ab00       ?exportExtraData@?$NpRigidActorTemplate@VPxRigidStatic@physx@@@physx@@UEAAXAEAVPxSerializationContext@2@@Z 000000018005bb00 f i NpRigidStatic.obj
 0001:0005ab00       ?exportExtraData@?$NpRigidActorTemplate@VPxRigidDynamic@physx@@@physx@@UEAAXAEAVPxSerializationContext@2@@Z 000000018005bb00 f i NpRigidDynamic.obj
 0001:0005ab00       ?exportExtraData@?$NpRigidActorTemplate@VPxArticulationLink@physx@@@physx@@UEAAXAEAVPxSerializationContext@2@@Z 000000018005bb00 f i NpArticulationLink.obj
 0001:0005ab30       ?getActorFlags@?$NpActorTemplate@VPxRigidDynamic@physx@@@physx@@UEBA?AV?$PxFlags@W4Enum@PxActorFlag@physx@@E@2@XZ 000000018005bb30 f i NpRigidDynamic.obj
 0001:0005ab90       ?getAngularDamping@?$NpRigidBodyTemplate@VPxRigidDynamic@physx@@@physx@@UEBAMXZ 000000018005bb90 f i NpRigidDynamic.obj
 0001:0005abe0       ?getAngularVelocity@?$NpRigidBodyTemplate@VPxRigidDynamic@physx@@@physx@@UEBA?AV?$PxVec3T@M@2@XZ 000000018005bbe0 f i NpRigidDynamic.obj
 0001:0005ac90       ?getCMassLocalPose@?$NpRigidBodyTemplate@VPxRigidDynamic@physx@@@physx@@UEBA?AV?$PxTransformT@M@2@XZ 000000018005bc90 f i NpRigidDynamic.obj
 0001:0005ad10       ?getConcreteTypeName@PxRigidDynamic@physx@@UEBAPEBDXZ 000000018005bd10 f i NpRigidDynamic.obj
 0001:0005ad20       ?getConstraints@?$NpRigidActorTemplate@VPxRigidDynamic@physx@@@physx@@UEBAIPEAPEAVPxConstraint@2@II@Z 000000018005bd20 f i NpRigidDynamic.obj
 0001:0005add0       ?getContactReportThreshold@NpRigidDynamic@physx@@UEBAMXZ 000000018005bdd0 f   NpRigidDynamic.obj
 0001:0005ae20       ?getContactSlopCoefficient@?$NpRigidBodyTemplate@VPxRigidDynamic@physx@@@physx@@UEBAMXZ 000000018005be20 f i NpRigidDynamic.obj
 0001:0005ae70       ?getDominanceGroup@?$NpActorTemplate@VPxRigidDynamic@physx@@@physx@@UEBAEXZ 000000018005be70 f i NpRigidDynamic.obj
 0001:0005aec0       ?getGlobalPose@NpRigidDynamic@physx@@UEBA?AV?$PxTransformT@M@2@XZ 000000018005bec0 f i NpRigidDynamic.obj
 0001:0005b390       ?getInternalActorIndex@?$NpRigidActorTemplate@VPxRigidDynamic@physx@@@physx@@UEBAIXZ 000000018005c390 f i NpRigidDynamic.obj
 0001:0005b3e0       ?getInternalIslandNodeIndex@?$NpRigidBodyTemplate@VPxRigidDynamic@physx@@@physx@@UEBA?AVPxNodeIndex@2@XZ 000000018005c3e0 f i NpRigidDynamic.obj
 0001:0005b430       ?getInvMass@?$NpRigidBodyTemplate@VPxRigidDynamic@physx@@@physx@@UEBAMXZ 000000018005c430 f i NpRigidDynamic.obj
 0001:0005b480       ?getKinematicTarget@NpRigidDynamic@physx@@UEBA_NAEAV?$PxTransformT@M@2@@Z 000000018005c480 f   NpRigidDynamic.obj
 0001:0005b8b0       ?getLinearDamping@?$NpRigidBodyTemplate@VPxRigidDynamic@physx@@@physx@@UEBAMXZ 000000018005c8b0 f i NpRigidDynamic.obj
 0001:0005b900       ?getLinearVelocity@?$NpRigidBodyTemplate@VPxRigidDynamic@physx@@@physx@@UEBA?AV?$PxVec3T@M@2@XZ 000000018005c900 f i NpRigidDynamic.obj
 0001:0005b9b0       ?getMass@?$NpRigidBodyTemplate@VPxRigidDynamic@physx@@@physx@@UEBAMXZ 000000018005c9b0 f i NpRigidDynamic.obj
 0001:0005ba10       ?getMassSpaceInertiaTensor@?$NpRigidBodyTemplate@VPxRigidDynamic@physx@@@physx@@UEBA?AV?$PxVec3T@M@2@XZ 000000018005ca10 f i NpRigidDynamic.obj
 0001:0005bab0       ?getMassSpaceInvInertiaTensor@?$NpRigidBodyTemplate@VPxRigidDynamic@physx@@@physx@@UEBA?AV?$PxVec3T@M@2@XZ 000000018005cab0 f i NpRigidDynamic.obj
 0001:0005bb10       ?getMaxAngularVelocity@?$NpRigidBodyTemplate@VPxRigidDynamic@physx@@@physx@@UEBAMXZ 000000018005cb10 f i NpRigidDynamic.obj
 0001:0005bb60       ?getMaxContactImpulse@?$NpRigidBodyTemplate@VPxRigidDynamic@physx@@@physx@@UEBAMXZ 000000018005cb60 f i NpRigidDynamic.obj
 0001:0005bbb0       ?getMaxDepenetrationVelocity@?$NpRigidBodyTemplate@VPxRigidDynamic@physx@@@physx@@UEBAMXZ 000000018005cbb0 f i NpRigidDynamic.obj
 0001:0005bc00       ?getMaxLinearVelocity@?$NpRigidBodyTemplate@VPxRigidDynamic@physx@@@physx@@UEBAMXZ 000000018005cc00 f i NpRigidDynamic.obj
 0001:0005bc50       ?getMinCCDAdvanceCoefficient@?$NpRigidBodyTemplate@VPxRigidDynamic@physx@@@physx@@UEBAMXZ 000000018005cc50 f i NpRigidDynamic.obj
 0001:0005bca0       ?getName@?$NpActorTemplate@VPxRigidDynamic@physx@@@physx@@UEBAPEBDXZ 000000018005cca0 f i NpRigidDynamic.obj
 0001:0005bce0       ?getNbConstraints@?$NpRigidActorTemplate@VPxRigidDynamic@physx@@@physx@@UEBAIXZ 000000018005cce0 f i NpRigidDynamic.obj
 0001:0005bd20       ?getNbShapes@?$NpRigidActorTemplate@VPxRigidDynamic@physx@@@physx@@UEBAIXZ 000000018005cd20 f i NpRigidDynamic.obj
 0001:0005bd60       ?getRigidBodyFlags@?$NpRigidBodyTemplate@VPxRigidDynamic@physx@@@physx@@UEBA?AV?$PxFlags@W4Enum@PxRigidBodyFlag@physx@@G@2@XZ 000000018005cd60 f i NpRigidDynamic.obj
 0001:0005bdb0       ?getRigidDynamicLockFlags@NpRigidDynamic@physx@@UEBA?AV?$PxFlags@W4Enum@PxRigidDynamicLockFlag@physx@@E@2@XZ 000000018005cdb0 f   NpRigidDynamic.obj
 0001:0005bdc0       ?getShapes@?$NpRigidActorTemplate@VPxRigidDynamic@physx@@@physx@@UEBAIPEAPEAVPxShape@2@II@Z 000000018005cdc0 f i NpRigidDynamic.obj
 0001:0005be30       ?getSleepThreshold@NpRigidDynamic@physx@@UEBAMXZ 000000018005ce30 f   NpRigidDynamic.obj
 0001:0005be80       ?getSolverIterationCounts@NpRigidDynamic@physx@@UEBAXAEAI0@Z 000000018005ce80 f   NpRigidDynamic.obj
 0001:0005bee0       ?getStabilizationThreshold@NpRigidDynamic@physx@@UEBAMXZ 000000018005cee0 f   NpRigidDynamic.obj
 0001:0005bf30       _get_startup_argv_mode     000000018005cf30 f i LIBCMT:argv_mode.obj
 0001:0005bf30       ?getType@NpRigidDynamic@physx@@UEBA?AW4Enum@PxActorType@2@XZ 000000018005cf30 f i NpRigidDynamic.obj
 0001:0005bf30       ?getSolverType@DynamicsTGSContext@Dy@physx@@UEBA?AW4Enum@PxSolverType@3@XZ 000000018005cf30 f i LowLevelDynamics_static_64:DyTGSDynamics.obj
 0001:0005bf30       ?length@charNode@@UEBAHXZ  000000018005cf30 f i libvcruntime:undname.obj
 0001:0005bf30       ?getType@BroadPhaseMBP@Bp@physx@@UEBA?AW4Enum@PxBroadPhaseType@3@XZ 000000018005cf30 f i LowLevelAABB_static_64:BpBroadPhaseMBP.obj
 0001:0005bf30       ?raw_length@charNode@@UEBAHXZ 000000018005cf30 f i libvcruntime:undname.obj
 0001:0005bf30       DllMain                    000000018005cf30 f i LIBCMT:dll_dllmain_stub.obj
 0001:0005bf40       ?getWakeCounter@NpRigidDynamic@physx@@UEBAMXZ 000000018005cf40 f   NpRigidDynamic.obj
 0001:0005bfd0       ?getWorldBounds@?$NpRigidActorTemplate@VPxRigidDynamic@physx@@@physx@@UEBA?AVPxBounds3@2@M@Z 000000018005cfd0 f i NpRigidDynamic.obj
 0001:0005c200       ?importExtraData@?$NpRigidActorTemplate@VPxRigidStatic@physx@@@physx@@UEAAXAEAVPxDeserializationContext@2@@Z 000000018005d200 f i NpRigidStatic.obj
 0001:0005c200       ?importExtraData@?$NpRigidActorTemplate@VPxArticulationLink@physx@@@physx@@UEAAXAEAVPxDeserializationContext@2@@Z 000000018005d200 f i NpArticulationLink.obj
 0001:0005c200       ?importExtraData@?$NpRigidActorTemplate@VPxRigidDynamic@physx@@@physx@@UEAAXAEAVPxDeserializationContext@2@@Z 000000018005d200 f i NpRigidDynamic.obj
 0001:0005c230       ?isKindOf@PxRigidActor@physx@@MEBA_NPEBD@Z 000000018005d230 f i NpRigidDynamic.obj
 0001:0005c2c0       ?isKindOf@PxRigidBody@physx@@MEBA_NPEBD@Z 000000018005d2c0 f i NpRigidDynamic.obj
 0001:0005c350       ?isKindOf@PxRigidDynamic@physx@@MEBA_NPEBD@Z 000000018005d350 f i NpRigidDynamic.obj
 0001:0005c3f0       ?isSleeping@NpRigidDynamic@physx@@UEBA_NXZ 000000018005d3f0 f   NpRigidDynamic.obj
 0001:0005c4a0       ?preExportDataReset@NpRigidDynamic@physx@@QEAAXXZ 000000018005d4a0 f   NpRigidDynamic.obj
 0001:0005c510       ?putToSleep@NpRigidDynamic@physx@@UEAAXXZ 000000018005d510 f   NpRigidDynamic.obj
 0001:0005c600       ?release@NpRigidDynamic@physx@@UEAAXXZ 000000018005d600 f   NpRigidDynamic.obj
 0001:0005c770       ?removeShapes@?$NpRigidActorTemplate@VPxRigidDynamic@physx@@@physx@@QEAAXPEAVPxSceneQuerySystem@2@@Z 000000018005d770 f i NpRigidDynamic.obj
 0001:0005c770       ?removeShapes@?$NpRigidActorTemplate@VPxArticulationLink@physx@@@physx@@QEAAXPEAVPxSceneQuerySystem@2@@Z 000000018005d770 f i NpArticulationLink.obj
 0001:0005c770       ?removeShapes@?$NpRigidActorTemplate@VPxRigidStatic@physx@@@physx@@QEAAXPEAVPxSceneQuerySystem@2@@Z 000000018005d770 f i NpRigidStatic.obj
 0001:0005c7e0       ?requiresObjects@?$NpRigidActorTemplate@VPxRigidDynamic@physx@@@physx@@UEAAXAEAVPxProcessPxBaseCallback@2@@Z 000000018005d7e0 f i NpRigidDynamic.obj
 0001:0005c7e0       ?requiresObjects@?$NpRigidActorTemplate@VPxRigidStatic@physx@@@physx@@UEAAXAEAVPxProcessPxBaseCallback@2@@Z 000000018005d7e0 f i NpRigidStatic.obj
 0001:0005c7e0       ?requiresObjects@NpRigidDynamic@physx@@UEAAXAEAVPxProcessPxBaseCallback@2@@Z 000000018005d7e0 f i NpRigidDynamic.obj
 0001:0005c7e0       ?requiresObjects@NpRigidStatic@physx@@UEAAXAEAVPxProcessPxBaseCallback@2@@Z 000000018005d7e0 f i NpRigidStatic.obj
 0001:0005c7e0       ?requiresObjects@?$NpRigidActorTemplate@VPxArticulationLink@physx@@@physx@@UEAAXAEAVPxProcessPxBaseCallback@2@@Z 000000018005d7e0 f i NpArticulationLink.obj
 0001:0005c850       ?resolveReferences@?$NpRigidActorTemplate@VPxArticulationLink@physx@@@physx@@UEAAXAEAVPxDeserializationContext@2@@Z 000000018005d850 f i NpArticulationLink.obj
 0001:0005c850       ?resolveReferences@?$NpRigidActorTemplate@VPxRigidDynamic@physx@@@physx@@UEAAXAEAVPxDeserializationContext@2@@Z 000000018005d850 f i NpRigidDynamic.obj
 0001:0005c850       ?resolveReferences@?$NpRigidActorTemplate@VPxRigidStatic@physx@@@physx@@UEAAXAEAVPxDeserializationContext@2@@Z 000000018005d850 f i NpRigidStatic.obj
 0001:0005c8e0       ?scGetGlobalInertiaTensorInverse@?$NpRigidBodyTemplate@VPxRigidDynamic@physx@@@physx@@QEBA?AV?$PxMat33T@M@2@XZ 000000018005d8e0 f i NpRigidDynamic.obj
 0001:0005cb50       ?setActorFlag@?$NpActorTemplate@VPxRigidDynamic@physx@@@physx@@UEAAXW4Enum@PxActorFlag@2@_N@Z 000000018005db50 f i NpRigidDynamic.obj
 0001:0005cc30       ?setActorFlag@?$NpRigidActorTemplate@VPxRigidDynamic@physx@@@physx@@UEAAXW4Enum@PxActorFlag@2@_N@Z 000000018005dc30 f i NpRigidDynamic.obj
 0001:0005ce60       ?setActorFlags@?$NpActorTemplate@VPxRigidDynamic@physx@@@physx@@UEAAXV?$PxFlags@W4Enum@PxActorFlag@physx@@E@2@@Z 000000018005de60 f i NpRigidDynamic.obj
 0001:0005cf00       ?setActorFlags@?$NpRigidActorTemplate@VPxRigidDynamic@physx@@@physx@@UEAAXV?$PxFlags@W4Enum@PxActorFlag@physx@@E@2@@Z 000000018005df00 f i NpRigidDynamic.obj
 0001:0005d0f0       ?setAngularDamping@?$NpRigidBodyTemplate@VPxRigidDynamic@physx@@@physx@@UEAAXM@Z 000000018005e0f0 f i NpRigidDynamic.obj
 0001:0005d230       ?setAngularVelocity@NpRigidDynamic@physx@@UEAAXAEBV?$PxVec3T@M@2@_N@Z 000000018005e230 f   NpRigidDynamic.obj
 0001:0005d3e0       ?setCMassLocalPose@NpRigidDynamic@physx@@UEAAXAEBV?$PxTransformT@M@2@@Z 000000018005e3e0 f   NpRigidDynamic.obj
 0001:0005dc50       ?setCMassLocalPoseInternal@?$NpRigidBodyTemplate@VPxArticulationLink@physx@@@physx@@IEAAXAEBV?$PxTransformT@M@2@@Z 000000018005ec50 f i NpArticulationLink.obj
 0001:0005dc50       ?setCMassLocalPoseInternal@?$NpRigidBodyTemplate@VPxRigidDynamic@physx@@@physx@@IEAAXAEBV?$PxTransformT@M@2@@Z 000000018005ec50 f i NpRigidDynamic.obj
 0001:0005e030       ?setContactReportThreshold@NpRigidDynamic@physx@@UEAAXM@Z 000000018005f030 f   NpRigidDynamic.obj
 0001:0005e1a0       ?setContactSlopCoefficient@?$NpRigidBodyTemplate@VPxRigidDynamic@physx@@@physx@@UEAAXM@Z 000000018005f1a0 f i NpRigidDynamic.obj
 0001:0005e2c0       ?setDominanceGroup@?$NpActorTemplate@VPxRigidDynamic@physx@@@physx@@UEAAXE@Z 000000018005f2c0 f i NpRigidDynamic.obj
 0001:0005e360       ?setForceAndTorque@NpRigidDynamic@physx@@UEAAXAEBV?$PxVec3T@M@2@0W4Enum@PxForceMode@2@@Z 000000018005f360 f   NpRigidDynamic.obj
 0001:0005e580       ?setGlobalPose@NpRigidDynamic@physx@@UEAAXAEBV?$PxTransformT@M@2@_N@Z 000000018005f580 f   NpRigidDynamic.obj
 0001:0005ea40       ?setKinematicTarget@NpRigidDynamic@physx@@UEAAXAEBV?$PxTransformT@M@2@@Z 000000018005fa40 f   NpRigidDynamic.obj
 0001:0005ef10       ?setLinearDamping@?$NpRigidBodyTemplate@VPxRigidDynamic@physx@@@physx@@UEAAXM@Z 000000018005ff10 f i NpRigidDynamic.obj
 0001:0005f050       ?setLinearVelocity@NpRigidDynamic@physx@@UEAAXAEBV?$PxVec3T@M@2@_N@Z 0000000180060050 f   NpRigidDynamic.obj
 0001:0005f200       ?setMass@?$NpRigidBodyTemplate@VPxRigidDynamic@physx@@@physx@@UEAAXM@Z 0000000180060200 f i NpRigidDynamic.obj
 0001:0005f3b0       ?setMassSpaceInertiaTensor@?$NpRigidBodyTemplate@VPxRigidDynamic@physx@@@physx@@UEAAXAEBV?$PxVec3T@M@2@@Z 00000001800603b0 f i NpRigidDynamic.obj
 0001:0005f5c0       ?setMaxAngularVelocity@?$NpRigidBodyTemplate@VPxRigidDynamic@physx@@@physx@@UEAAXM@Z 00000001800605c0 f i NpRigidDynamic.obj
 0001:0005f700       ?setMaxContactImpulse@?$NpRigidBodyTemplate@VPxRigidDynamic@physx@@@physx@@UEAAXM@Z 0000000180060700 f i NpRigidDynamic.obj
 0001:0005f820       ?setMaxDepenetrationVelocity@?$NpRigidBodyTemplate@VPxRigidDynamic@physx@@@physx@@UEAAXM@Z 0000000180060820 f i NpRigidDynamic.obj
 0001:0005f940       ?setMaxLinearVelocity@?$NpRigidBodyTemplate@VPxRigidDynamic@physx@@@physx@@UEAAXM@Z 0000000180060940 f i NpRigidDynamic.obj
 0001:0005fa80       ?setMinCCDAdvanceCoefficient@?$NpRigidBodyTemplate@VPxRigidDynamic@physx@@@physx@@UEAAXM@Z 0000000180060a80 f i NpRigidDynamic.obj
 0001:0005fb60       ?setName@?$NpActorTemplate@VPxRigidDynamic@physx@@@physx@@UEAAXPEBD@Z 0000000180060b60 f i NpRigidDynamic.obj
 0001:0005fc20       ?setRigidBodyFlag@?$NpRigidBodyTemplate@VPxRigidDynamic@physx@@@physx@@UEAAXW4Enum@PxRigidBodyFlag@2@_N@Z 0000000180060c20 f i NpRigidDynamic.obj
 0001:0005ff90       ?setRigidBodyFlags@?$NpRigidBodyTemplate@VPxRigidDynamic@physx@@@physx@@UEAAXV?$PxFlags@W4Enum@PxRigidBodyFlag@physx@@G@2@@Z 0000000180060f90 f i NpRigidDynamic.obj
 0001:00060300       ?setRigidDynamicLockFlag@NpRigidDynamic@physx@@UEAAXW4Enum@PxRigidDynamicLockFlag@2@_N@Z 0000000180061300 f   NpRigidDynamic.obj
 0001:000603b0       ?setRigidDynamicLockFlags@NpRigidDynamic@physx@@UEAAXV?$PxFlags@W4Enum@PxRigidDynamicLockFlag@physx@@E@2@@Z 00000001800613b0 f   NpRigidDynamic.obj
 0001:00060460       ?setSleepThreshold@NpRigidDynamic@physx@@UEAAXM@Z 0000000180061460 f   NpRigidDynamic.obj
 0001:000605a0       ?setSolverIterationCounts@NpRigidDynamic@physx@@UEAAXII@Z 00000001800615a0 f   NpRigidDynamic.obj
 0001:00060720       ?setSpatialForce@?$NpRigidBodyTemplate@VPxRigidDynamic@physx@@@physx@@IEAAXPEBV?$PxVec3T@M@2@0W4Enum@PxForceMode@2@@Z 0000000180061720 f i NpRigidDynamic.obj
 0001:000609d0       ?setStabilizationThreshold@NpRigidDynamic@physx@@UEAAXM@Z 00000001800619d0 f   NpRigidDynamic.obj
 0001:00060b10       ?setWakeCounter@NpRigidDynamic@physx@@UEAAXM@Z 0000000180061b10 f   NpRigidDynamic.obj
 0001:00060c90       ?switchFromNoSim@NpRigidStatic@physx@@UEAAXXZ 0000000180061c90 f   NpRigidStatic.obj
 0001:00060c90       ?switchFromNoSim@NpRigidDynamic@physx@@UEAAXXZ 0000000180061c90 f   NpRigidDynamic.obj
 0001:00060cb0       ?switchToNoSim@NpRigidDynamic@physx@@UEAAXXZ 0000000180061cb0 f   NpRigidDynamic.obj
 0001:00060cf0       ?wakeUp@NpRigidDynamic@physx@@UEAAXXZ 0000000180061cf0 f   NpRigidDynamic.obj
 0001:00060df0       ?wakeUpInternalNoKinematicTest@NpRigidDynamic@physx@@QEAAX_N0@Z 0000000180061df0 f   NpRigidDynamic.obj
 0001:00060e80       ??0NpRigidStatic@physx@@QEAA@AEBV?$PxTransformT@M@1@@Z 0000000180061e80 f   NpRigidStatic.obj
 0001:00060f40       ??_G?$NpActorTemplate@VPxRigidStatic@physx@@@physx@@UEAAPEAXI@Z 0000000180061f40 f i NpRigidStatic.obj
 0001:00060f40       ??_E?$NpActorTemplate@VPxRigidStatic@physx@@@physx@@UEAAPEAXI@Z 0000000180061f40 f i NpRigidStatic.obj
 0001:00060fb0       ??_G?$NpRigidActorTemplate@VPxRigidStatic@physx@@@physx@@UEAAPEAXI@Z 0000000180061fb0 f i NpRigidStatic.obj
 0001:00060fb0       ??_E?$NpRigidActorTemplate@VPxRigidStatic@physx@@@physx@@UEAAPEAXI@Z 0000000180061fb0 f i NpRigidStatic.obj
 0001:00061040       ??_GNpRigidStatic@physx@@UEAAPEAXI@Z 0000000180062040 f i NpRigidStatic.obj
 0001:00061040       ??_ENpRigidStatic@physx@@UEAAPEAXI@Z 0000000180062040 f i NpRigidStatic.obj
 0001:000610e0       ?NpRigidStaticGetShapes@physx@@YAIAEAVNpRigidStatic@1@AEAPEBQEAVNpShape@1@@Z 00000001800620e0 f   NpRigidStatic.obj
 0001:00061100       ?attachShape@?$NpRigidActorTemplate@VPxRigidStatic@physx@@@physx@@UEAA_NAEAVPxShape@2@@Z 0000000180062100 f i NpRigidStatic.obj
 0001:000612b0       ?checkConstraintValidity@NpRigidStatic@physx@@QEBA_NXZ 00000001800622b0 f   NpRigidStatic.obj
 0001:00061330       ?createObject@NpRigidStatic@physx@@SAPEAV12@AEAPEAEAEAVPxDeserializationContext@2@@Z 0000000180062330 f   NpRigidStatic.obj
 0001:00061420       ?detachShape@?$NpRigidActorTemplate@VPxRigidStatic@physx@@@physx@@UEAAXAEAVPxShape@2@_N@Z 0000000180062420 f i NpRigidStatic.obj
 0001:00061550       ?getActorFlags@?$NpActorTemplate@VPxRigidStatic@physx@@@physx@@UEBA?AV?$PxFlags@W4Enum@PxActorFlag@physx@@E@2@XZ 0000000180062550 f i NpRigidStatic.obj
 0001:000615b0       ?getConcreteTypeName@PxRigidStatic@physx@@UEBAPEBDXZ 00000001800625b0 f i NpRigidStatic.obj
 0001:000615c0       ?getConstraints@?$NpRigidActorTemplate@VPxRigidStatic@physx@@@physx@@UEBAIPEAPEAVPxConstraint@2@II@Z 00000001800625c0 f i NpRigidStatic.obj
 0001:00061670       ?getDominanceGroup@?$NpActorTemplate@VPxRigidStatic@physx@@@physx@@UEBAEXZ 0000000180062670 f i NpRigidStatic.obj
 0001:000616c0       ?getGlobalPose@NpRigidStatic@physx@@UEBA?AV?$PxTransformT@M@2@XZ 00000001800626c0 f   NpRigidStatic.obj
 0001:00061730       ?getInternalActorIndex@?$NpRigidActorTemplate@VPxRigidStatic@physx@@@physx@@UEBAIXZ 0000000180062730 f i NpRigidStatic.obj
 0001:00061780       ?getName@?$NpActorTemplate@VPxRigidStatic@physx@@@physx@@UEBAPEBDXZ 0000000180062780 f i NpRigidStatic.obj
 0001:000617c0       ?getNbConstraints@?$NpRigidActorTemplate@VPxRigidStatic@physx@@@physx@@UEBAIXZ 00000001800627c0 f i NpRigidStatic.obj
 0001:00061800       ?getNbShapes@?$NpRigidActorTemplate@VPxRigidStatic@physx@@@physx@@UEBAIXZ 0000000180062800 f i NpRigidStatic.obj
 0001:00061840       ?getShapes@?$NpRigidActorTemplate@VPxRigidStatic@physx@@@physx@@UEBAIPEAPEAVPxShape@2@II@Z 0000000180062840 f i NpRigidStatic.obj
 0001:000618b0       ?getWorldBounds@?$NpRigidActorTemplate@VPxRigidStatic@physx@@@physx@@UEBA?AVPxBounds3@2@M@Z 00000001800628b0 f i NpRigidStatic.obj
 0001:00061ae0       ?isKindOf@PxRigidStatic@physx@@MEBA_NPEBD@Z 0000000180062ae0 f i NpRigidStatic.obj
 0001:00061b30       ?release@NpRigidStatic@physx@@UEAAXXZ 0000000180062b30 f   NpRigidStatic.obj
 0001:00061ca0       ?setActorFlag@?$NpActorTemplate@VPxRigidStatic@physx@@@physx@@UEAAXW4Enum@PxActorFlag@2@_N@Z 0000000180062ca0 f i NpRigidStatic.obj
 0001:00061d80       ?setActorFlag@?$NpRigidActorTemplate@VPxRigidStatic@physx@@@physx@@UEAAXW4Enum@PxActorFlag@2@_N@Z 0000000180062d80 f i NpRigidStatic.obj
 0001:00061fb0       ?setActorFlags@?$NpActorTemplate@VPxRigidStatic@physx@@@physx@@UEAAXV?$PxFlags@W4Enum@PxActorFlag@physx@@E@2@@Z 0000000180062fb0 f i NpRigidStatic.obj
 0001:00062050       ?setActorFlags@?$NpRigidActorTemplate@VPxRigidStatic@physx@@@physx@@UEAAXV?$PxFlags@W4Enum@PxActorFlag@physx@@E@2@@Z 0000000180063050 f i NpRigidStatic.obj
 0001:00062240       ?setDominanceGroup@?$NpActorTemplate@VPxRigidStatic@physx@@@physx@@UEAAXE@Z 0000000180063240 f i NpRigidStatic.obj
 0001:000622e0       ?setGlobalPose@NpRigidStatic@physx@@UEAAXAEBV?$PxTransformT@M@2@_N@Z 00000001800632e0 f   NpRigidStatic.obj
 0001:000625e0       ?setName@?$NpActorTemplate@VPxRigidStatic@physx@@@physx@@UEAAXPEBD@Z 00000001800635e0 f i NpRigidStatic.obj
 0001:000626a0       ?switchToNoSim@NpRigidStatic@physx@@UEAAXXZ 00000001800636a0 f   NpRigidStatic.obj
 0001:000626c0       ??$PxSort@PEAXU?$PxLess@PEAX@physx@@V?$PxReflectionAllocator@U?$Block@E$0BAA@@Scene@Sc@physx@@@2@@physx@@YAXPEAPEAXIAEBU?$PxLess@PEAX@0@AEBV?$PxReflectionAllocator@U?$Block@E$0BAA@@Scene@Sc@physx@@@0@I@Z 00000001800636c0 f i NpScene.obj
 0001:00062b20       ??$PxSort@PEAXU?$PxLess@PEAX@physx@@V?$PxReflectionAllocator@U?$Block@E$0BIA@@Scene@Sc@physx@@@2@@physx@@YAXPEAPEAXIAEBU?$PxLess@PEAX@0@AEBV?$PxReflectionAllocator@U?$Block@E$0BIA@@Scene@Sc@physx@@@0@I@Z 0000000180063b20 f i NpScene.obj
 0001:00062f80       ??$PxSort@PEAXU?$PxLess@PEAX@physx@@V?$PxReflectionAllocator@U?$Block@E$0IA@@Scene@Sc@physx@@@2@@physx@@YAXPEAPEAXIAEBU?$PxLess@PEAX@0@AEBV?$PxReflectionAllocator@U?$Block@E$0IA@@Scene@Sc@physx@@@0@I@Z 0000000180063f80 f i NpScene.obj
 0001:000633e0       ??$PxSort@PEAXU?$PxLess@PEAX@physx@@V?$PxReflectionAllocator@U?$Block@PEAX$07@Scene@Sc@physx@@@2@@physx@@YAXPEAPEAXIAEBU?$PxLess@PEAX@0@AEBV?$PxReflectionAllocator@U?$Block@PEAX$07@Scene@Sc@physx@@@0@I@Z 00000001800643e0 f i NpScene.obj
 0001:00063840       ??$PxSort@PEAXU?$PxLess@PEAX@physx@@V?$PxReflectionAllocator@U?$Block@PEAX$0BA@@Scene@Sc@physx@@@2@@physx@@YAXPEAPEAXIAEBU?$PxLess@PEAX@0@AEBV?$PxReflectionAllocator@U?$Block@PEAX$0BA@@Scene@Sc@physx@@@0@I@Z 0000000180064840 f i NpScene.obj
 0001:00063ca0       ??$PxSort@PEAXU?$PxLess@PEAX@physx@@V?$PxReflectionAllocator@U?$Block@PEAX$0CA@@Scene@Sc@physx@@@2@@physx@@YAXPEAPEAXIAEBU?$PxLess@PEAX@0@AEBV?$PxReflectionAllocator@U?$Block@PEAX$0CA@@Scene@Sc@physx@@@0@I@Z 0000000180064ca0 f i NpScene.obj
 0001:00065a70       ??0NpScene@physx@@QEAA@AEBVPxSceneDesc@1@AEAVNpPhysics@1@@Z 0000000180066a70 f   NpScene.obj
 0001:00066700       ??1FanoutTask@Cm@physx@@UEAA@XZ 0000000180067700 f i NpScene.obj
 0001:000667c0       ??1NpScene@physx@@UEAA@XZ  00000001800677c0 f   NpScene.obj
 0001:00067130       ??1RenderBuffer@Cm@physx@@UEAA@XZ 0000000180068130 f i NpScene.obj
 0001:000671d0       ??1Scene@Sc@physx@@QEAA@XZ 00000001800681d0 f i NpScene.obj
 0001:000687f0       ??_E?$DelegateTask@VNpScene@physx@@$H?executeAdvance@12@QEAAXPEAVPxBaseTask@2@@ZA@@Cm@physx@@UEAAPEAXI@Z 00000001800697f0 f i NpScene.obj
 0001:000687f0       ??_G?$DelegateTask@VNpScene@physx@@$H?executeScene@12@QEAAXPEAVPxBaseTask@2@@ZA@@Cm@physx@@UEAAPEAXI@Z 00000001800697f0 f i NpScene.obj
 0001:000687f0       ??_E?$DelegateTask@VNpScene@physx@@$H?sceneQueriesDynamicPrunerUpdate@12@AEAAXPEAVPxBaseTask@2@@ZA@@Cm@physx@@UEAAPEAXI@Z 00000001800697f0 f i NpScene.obj
 0001:000687f0       ??_G?$DelegateTask@VNpScene@physx@@$H?executeAdvance@12@QEAAXPEAVPxBaseTask@2@@ZA@@Cm@physx@@UEAAPEAXI@Z 00000001800697f0 f i NpScene.obj
 0001:000687f0       ??_G?$DelegateTask@VNpScene@physx@@$H?sceneQueriesStaticPrunerUpdate@12@AEAAXPEAVPxBaseTask@2@@ZA@@Cm@physx@@UEAAPEAXI@Z 00000001800697f0 f i NpScene.obj
 0001:000687f0       ??_E?$DelegateTask@VNpScene@physx@@$H?executeCollide@12@QEAAXPEAVPxBaseTask@2@@ZA@@Cm@physx@@UEAAPEAXI@Z 00000001800697f0 f i NpScene.obj
 0001:000687f0       ??_G?$DelegateTask@VNpScene@physx@@$H?executeCollide@12@QEAAXPEAVPxBaseTask@2@@ZA@@Cm@physx@@UEAAPEAXI@Z 00000001800697f0 f i NpScene.obj
 0001:000687f0       ??_E?$DelegateTask@VNpScene@physx@@$H?executeScene@12@QEAAXPEAVPxBaseTask@2@@ZA@@Cm@physx@@UEAAPEAXI@Z 00000001800697f0 f i NpScene.obj
 0001:000687f0       ??_E?$DelegateTask@VNpScene@physx@@$H?sceneQueriesStaticPrunerUpdate@12@AEAAXPEAVPxBaseTask@2@@ZA@@Cm@physx@@UEAAPEAXI@Z 00000001800697f0 f i NpScene.obj
 0001:000687f0       ??_G?$DelegateTask@VNpScene@physx@@$H?sceneQueriesDynamicPrunerUpdate@12@AEAAXPEAVPxBaseTask@2@@ZA@@Cm@physx@@UEAAPEAXI@Z 00000001800697f0 f i NpScene.obj
 0001:00068850       ??_GNpScene@physx@@UEAAPEAXI@Z 0000000180069850 f i NpScene.obj
 0001:00068850       ??_ENpScene@physx@@UEAAPEAXI@Z 0000000180069850 f i NpScene.obj
 0001:000688b0       ??_EPxBaseTask@physx@@UEAAPEAXI@Z 00000001800698b0 f i NpScene.obj
 0001:000688b0       ??_GPxBaseTask@physx@@UEAAPEAXI@Z 00000001800698b0 f i NpScene.obj
 0001:000688e0       ??_EPxLightCpuTask@physx@@UEAAPEAXI@Z 00000001800698e0 f i NpScene.obj
 0001:000688e0       ??_GPxLightCpuTask@physx@@UEAAPEAXI@Z 00000001800698e0 f i NpScene.obj
 0001:00068920       ??_GPxRenderBuffer@physx@@UEAAPEAXI@Z 0000000180069920 f i NpScene.obj
 0001:00068920       ??_EPxRenderBuffer@physx@@UEAAPEAXI@Z 0000000180069920 f i NpScene.obj
 0001:00068950       ??_EPvdEventSerializer@pvdsdk@physx@@MEAAPEAXI@Z 0000000180069950 f i PhysXPvdSDK_static_64:PxPvdDataStream.obj
 0001:00068950       ??_GPxSceneQuerySystemBase@physx@@MEAAPEAXI@Z 0000000180069950 f i NpScene.obj
 0001:00068950       ??_GPvdEventSerializer@pvdsdk@physx@@MEAAPEAXI@Z 0000000180069950 f i PhysXPvdSDK_static_64:PxPvdDataStream.obj
 0001:00068950       ??_EPxSceneQuerySystemBase@physx@@MEAAPEAXI@Z 0000000180069950 f i NpScene.obj
 0001:00068980       ??_GRenderBuffer@Cm@physx@@UEAAPEAXI@Z 0000000180069980 f i NpScene.obj
 0001:00068980       ??_ERenderBuffer@Cm@physx@@UEAAPEAXI@Z 0000000180069980 f i NpScene.obj
 0001:000689e0       ??_GABP_CompleteBoxPruningEndTask@internalABP@@UEAAPEAXI@Z 00000001800699e0 f i LowLevelAABB_static_64:BpBroadPhaseABP.obj
 0001:000689e0       ??_GPxsForceThresholdTask@Dy@physx@@UEAAPEAXI@Z 00000001800699e0 f i LowLevelDynamics_static_64:DyDynamics.obj
 0001:000689e0       ??_GSceneCompletion@NpScene@physx@@UEAAPEAXI@Z 00000001800699e0 f i NpScene.obj
 0001:000689e0       ??_EPostThirdPassTask@IG@physx@@UEAAPEAXI@Z 00000001800699e0 f i LowLevel_static_64:PxsSimpleIslandManager.obj
 0001:000689e0       ??_EPxsForceThresholdTask@Dy@physx@@UEAAPEAXI@Z 00000001800699e0 f i LowLevelDynamics_static_64:DyDynamics.obj
 0001:000689e0       ??_ESceneCompletion@NpScene@physx@@UEAAPEAXI@Z 00000001800699e0 f i NpScene.obj
 0001:000689e0       ??_EDynamicsMergeTask@Dy@physx@@UEAAPEAXI@Z 00000001800699e0 f i LowLevelDynamics_static_64:DyTGSDynamics.obj
 0001:000689e0       ??_EABP_CompleteBoxPruningEndTask@internalABP@@UEAAPEAXI@Z 00000001800699e0 f i LowLevelAABB_static_64:BpBroadPhaseABP.obj
 0001:000689e0       ??_GDynamicsMergeTask@Dy@physx@@UEAAPEAXI@Z 00000001800699e0 f i LowLevelDynamics_static_64:DyTGSDynamics.obj
 0001:000689e0       ??_GPostThirdPassTask@IG@physx@@UEAAPEAXI@Z 00000001800699e0 f i LowLevel_static_64:PxsSimpleIslandManager.obj
 0001:00068a60       ?addActor@NpScene@physx@@UEAA_NAEAVPxActor@2@PEBVPxBVH@2@@Z 0000000180069a60 f   NpScene.obj
 0001:00068be0       ?addActorInternal@NpScene@physx@@QEAA_NAEAVPxActor@2@PEBVPxBVH@2@@Z 0000000180069be0 f   NpScene.obj
 0001:00068ea0       ?addActors@NpScene@physx@@UEAA_NAEBVPxPruningStructure@2@@Z 0000000180069ea0 f   NpScene.obj
 0001:00068ed0       ?addActors@NpScene@physx@@UEAA_NPEBQEAVPxActor@2@I@Z 0000000180069ed0 f   NpScene.obj
 0001:00068ee0       ?addActorsInternal@NpScene@physx@@QEAA_NPEIBQEAVPxActor@2@IPEBVPruningStructure@Sq@2@@Z 0000000180069ee0 f   NpScene.obj
 0001:00069560       ?addAggregate@NpScene@physx@@UEAA_NAEAVPxAggregate@2@@Z 000000018006a560 f   NpScene.obj
 0001:00069960       ?addArticulation@NpScene@physx@@UEAA_NAEAVPxArticulationReducedCoordinate@2@@Z 000000018006a960 f   NpScene.obj
 0001:00069c10       ?addArticulationInternal@NpScene@physx@@QEAA_NAEAVPxArticulationReducedCoordinate@2@@Z 000000018006ac10 f   NpScene.obj
 0001:0006a4b0       ?addArticulationLinkBody@NpScene@physx@@QEAAXAEAVNpArticulationLink@2@@Z 000000018006b4b0 f   NpScene.obj
 0001:0006a5c0       ?addArticulationLinkConstraint@NpScene@physx@@QEAAXAEAVNpArticulationLink@2@@Z 000000018006b5c0 f   NpScene.obj
 0001:0006a6f0       ?addBroadPhaseRegion@NpScene@physx@@UEAAIAEBUPxBroadPhaseRegion@2@_N@Z 000000018006b6f0 f   NpScene.obj
 0001:0006a970       ?addCollection@NpScene@physx@@UEAA_NAEBVPxCollection@2@@Z 000000018006b970 f   NpScene.obj
 0001:0006ac40       ?addDirtyConstraint@NpScene@physx@@QEAAXPEAVNpConstraint@2@@Z 000000018006bc40 f   NpScene.obj
 0001:0006acb0       ?addFixedTendonInternal@NpScene@physx@@AEAA_NPEAVNpArticulationReducedCoordinate@2@PEAVArticulationSim@Sc@2@@Z 000000018006bcb0 f   NpScene.obj
 0001:0006afa0       ?addLine@RenderBuffer@Cm@physx@@UEAAXAEBUPxDebugLine@3@@Z 000000018006bfa0 f i NpScene.obj
 0001:0006b000       ?addMaterial@NpScene@physx@@QEAAXAEBVNpFEMSoftBodyMaterial@2@@Z 000000018006c000 f   NpScene.obj
 0001:0006b130       ?addMaterial@NpScene@physx@@QEAAXAEBVNpMaterial@2@@Z 000000018006c130 f   NpScene.obj
 0001:0006b260       ?addMaterial@NpScene@physx@@QEAAXAEBVNpPBDMaterial@2@@Z 000000018006c260 f   NpScene.obj
 0001:0006b390       ?addPoint@RenderBuffer@Cm@physx@@UEAAXAEBUPxDebugPoint@3@@Z 000000018006c390 f i NpScene.obj
 0001:0006b3d0       ?addReference@PxLightCpuTask@physx@@UEAAXXZ 000000018006c3d0 f i NpScene.obj
 0001:0006b3e0       ?addRigidDynamic@NpScene@physx@@AEAA_NAEAVNpRigidDynamic@2@PEBVBVH@Gu@2@PEBVPruningStructure@Sq@2@@Z 000000018006c3e0 f   NpScene.obj
 0001:0006b630       ?addRigidStatic@NpScene@physx@@AEAA_NAEAVNpRigidStatic@2@PEBVBVH@Gu@2@PEBVPruningStructure@Sq@2@@Z 000000018006c630 f   NpScene.obj
 0001:0006b880       ?addSoftBody@NpScene@physx@@AEAA_NAEAVPxSoftBody@2@@Z 000000018006c880 f   NpScene.obj
 0001:0006ba50       ?addSpatialTendonInternal@NpScene@physx@@AEAA_NPEAVNpArticulationReducedCoordinate@2@PEAVArticulationSim@Sc@2@@Z 000000018006ca50 f   NpScene.obj
 0001:0006bd50       ?addToConstraintList@NpScene@physx@@QEAAXAEAVPxConstraint@2@@Z 000000018006cd50 f   NpScene.obj
 0001:0006be20       ?addTriangle@RenderBuffer@Cm@physx@@UEAAXAEBUPxDebugTriangle@3@@Z 000000018006ce20 f i NpScene.obj
 0001:0006be90       ?advance@NpScene@physx@@UEAA_NPEAVPxBaseTask@2@@Z 000000018006ce90 f   NpScene.obj
 0001:0006c020       ?allocate@?$PxArray@PEAVNpRigidDynamic@physx@@V?$PxReflectionAllocator@PEAVNpRigidDynamic@physx@@@2@@physx@@IEAAPEAPEAVNpRigidDynamic@2@I@Z 000000018006d020 f i NpScene.obj
 0001:0006c0d0       ?allocate@?$PxArray@PEAVNpRigidStatic@physx@@V?$PxReflectionAllocator@PEAVNpRigidStatic@physx@@@2@@physx@@IEAAPEAPEAVNpRigidStatic@2@I@Z 000000018006d0d0 f i NpScene.obj
 0001:0006c180       ?allocate@?$PxArray@UPxDebugLine@physx@@V?$PxReflectionAllocator@UPxDebugLine@physx@@@2@@physx@@IEAAPEAUPxDebugLine@2@I@Z 000000018006d180 f i NpScene.obj
 0001:0006c230       ?allocate@?$PxArray@UPxDebugPoint@physx@@V?$PxReflectionAllocator@UPxDebugPoint@physx@@@2@@physx@@IEAAPEAUPxDebugPoint@2@I@Z 000000018006d230 f i NpScene.obj
 0001:0006c2e0       ?allocate@?$PxArray@UPxDebugTriangle@physx@@V?$PxReflectionAllocator@UPxDebugTriangle@physx@@@2@@physx@@IEAAPEAUPxDebugTriangle@2@I@Z 000000018006d2e0 f i NpScene.obj
 0001:0006c390       ?allocate@?$PxArray@VMaterialEvent@NpScene@physx@@V?$PxReflectionAllocator@VMaterialEvent@NpScene@physx@@@3@@physx@@IEAAPEAVMaterialEvent@NpScene@2@I@Z 000000018006d390 f i NpScene.obj
 0001:0006c440       ?allocate@?$PxArray@VPxBounds3@physx@@V?$PxInlineAllocator@$0MA@V?$PxReflectionAllocator@VPxBounds3@physx@@@physx@@@2@@physx@@IEAAPEAVPxBounds3@2@I@Z 000000018006d440 f i NpScene.obj
 0001:0006c500       ?append@RenderBuffer@Cm@physx@@UEAAXAEBVPxRenderBuffer@3@@Z 000000018006d500 f i NpScene.obj
 0001:0006c740       ?applyActorData@NpScene@physx@@UEAAXPEAXPEAUPxGpuActorPair@2@W4Enum@PxActorCacheFlag@2@I00@Z 000000018006d740 f   NpScene.obj
 0001:0006c7e0       ?applyArticulationData@NpScene@physx@@UEAAXPEAX0W4Enum@PxArticulationGpuDataType@2@I00@Z 000000018006d7e0 f   NpScene.obj
 0001:0006c880       ?applyParticleBufferData@NpScene@physx@@UEAAXPEBIPEBUPxGpuParticleBufferIndexPair@2@PEBV?$PxFlags@W4Enum@PxParticleBufferFlag@physx@@I@2@IPEAX3@Z 000000018006d880 f   NpScene.obj
 0001:0006c920       ?applySoftBodyData@NpScene@physx@@UEAAXPEAPEAXPEAX1W4Enum@PxSoftBodyDataFlag@2@II1@Z 000000018006d920 f   NpScene.obj
 0001:0006ca80       ?checkCollision@NpScene@physx@@UEAA_N_N@Z 000000018006da80 f   NpScene.obj
 0001:0006ca90       ?checkCollisionInternal@NpScene@physx@@AEAA_N_N@Z 000000018006da90 f   NpScene.obj
 0001:0006cb40       ?checkPositionSanity@NpScene@physx@@QEBAXAEBVPxRigidActor@2@AEBV?$PxTransformT@M@2@PEBD@Z 000000018006db40 f   NpScene.obj
 0001:0006cbe0       ?clear@RenderBuffer@Cm@physx@@UEAAXXZ 000000018006dbe0 f i NpScene.obj
 0001:0006cbf0       ?collide@NpScene@physx@@UEAA_NMPEAVPxBaseTask@2@PEAXI_N@Z 000000018006dbf0 f   NpScene.obj
 0001:0006cc30       ?computeCoriolisAndCentrifugalForces@NpScene@physx@@UEAAXPEBUPxIndexDataPair@2@IPEAX@Z 000000018006dc30 f   NpScene.obj
 0001:0006ccd0       ?computeDenseJacobians@NpScene@physx@@UEAAXPEBUPxIndexDataPair@2@IPEAX@Z 000000018006dcd0 f   NpScene.obj
 0001:0006cd70       ?computeGeneralizedGravityForces@NpScene@physx@@UEAAXPEBUPxIndexDataPair@2@IPEAX@Z 000000018006dd70 f   NpScene.obj
 0001:0006ce70       ?computeGeneralizedMassMatrices@NpScene@physx@@UEAAXPEBUPxIndexDataPair@2@IPEAX@Z 000000018006de70 f   NpScene.obj
 0001:0006cf10       ?copy@?$PxArray@VSpatialVector@Cm@physx@@V?$PxReflectionAllocator@VSpatialVector@Cm@physx@@@3@@physx@@KAXPEAVSpatialVector@Cm@2@0PEBV342@@Z 000000018006df10 f i LowLevelDynamics_static_64:DyTGSDynamics.obj
 0001:0006cf10       ?copy@?$PxArray@UPxDebugLine@physx@@V?$PxReflectionAllocator@UPxDebugLine@physx@@@2@@physx@@KAXPEAUPxDebugLine@2@0PEBU32@@Z 000000018006df10 f i NpScene.obj
 0001:0006d0c0       ?copy@?$PxArray@UPxDebugPoint@physx@@V?$PxReflectionAllocator@UPxDebugPoint@physx@@@2@@physx@@KAXPEAUPxDebugPoint@2@0PEBU32@@Z 000000018006e0c0 f i NpScene.obj
 0001:0006d1c0       ?copy@?$PxArray@UPxDebugTriangle@physx@@V?$PxReflectionAllocator@UPxDebugTriangle@physx@@@2@@physx@@KAXPEAUPxDebugTriangle@2@0PEBU32@@Z 000000018006e1c0 f i NpScene.obj
 0001:0006d3c0       ?copyArticulationData@NpScene@physx@@UEAAXPEAX0W4Enum@PxArticulationGpuDataType@2@I0@Z 000000018006e3c0 f   NpScene.obj
 0001:0006d460       ?copyBodyData@NpScene@physx@@UEAAXPEAUPxGpuBodyData@2@PEAUPxGpuActorPair@2@IPEAX@Z 000000018006e460 f   NpScene.obj
 0001:0006d500       ?copyContactData@NpScene@physx@@UEAAXPEAXI00@Z 000000018006e500 f   NpScene.obj
 0001:0006d5c0       ?copySoftBodyData@NpScene@physx@@UEAAXPEAPEAXPEAX1W4Enum@PxSoftBodyDataFlag@2@II1@Z 000000018006e5c0 f   NpScene.obj
 0001:0006d620       ?createClient@NpScene@physx@@UEAAEXZ 000000018006e620 f   NpScene.obj
 0001:0006d670       ?createInOmniPVD@NpScene@physx@@QEAAXAEBVPxSceneDesc@2@@Z 000000018006e670 f   NpScene.obj
 0001:0006dea0       ?createInstance@?$PvdFns@VNpArticulationLink@physx@@@@SAXAEAVNpScene@physx@@AEAVPvdSceneClient@Vd@3@PEAVNpArticulationLink@3@@Z 000000018006eea0 f i NpScene.obj
 0001:0006dea0       ?createInstance@?$PvdFns@VNpRigidDynamic@physx@@@@SAXAEAVNpScene@physx@@AEAVPvdSceneClient@Vd@3@PEAVNpRigidDynamic@3@@Z 000000018006eea0 f i NpScene.obj
 0001:0006df40       ?createInstance@?$PvdFns@VNpRigidStatic@physx@@@@SAXAEAVNpScene@physx@@AEAVPvdSceneClient@Vd@3@PEAVNpRigidStatic@3@@Z 000000018006ef40 f i NpScene.obj
 0001:0006dfe0       ?empty@RenderBuffer@Cm@physx@@UEBA_NXZ 000000018006efe0 f i NpScene.obj
 0001:0006e000       ?fetchCollision@NpScene@physx@@UEAA_N_N@Z 000000018006f000 f   NpScene.obj
 0001:0006e080       ?flush@NpScene@physx@@UEAAX_N@Z 000000018006f080 f i NpScene.obj
 0001:0006e090       ?flushSimulation@NpScene@physx@@UEAAX_N@Z 000000018006f090 f   NpScene.obj
 0001:0006e1f0       ?frameEnd@NpScene@physx@@UEAAXXZ 000000018006f1f0 f   NpScene.obj
 0001:0006e200       ?getActiveActors@NpScene@physx@@UEAAPEAPEAVPxActor@2@AEAI@Z 000000018006f200 f   NpScene.obj
 0001:0006e270       ?getActors@NpScene@physx@@UEBAIV?$PxFlags@W4Enum@PxActorTypeFlag@physx@@G@2@PEAPEAVPxActor@2@II@Z 000000018006f270 f   NpScene.obj
 0001:0006e3e0       ?getAggregates@NpScene@physx@@UEBAIPEAPEAVPxAggregate@2@II@Z 000000018006f3e0 f   NpScene.obj
 0001:0006e480       ?getArticulations@NpScene@physx@@UEBAIPEAPEAVPxArticulationReducedCoordinate@2@II@Z 000000018006f480 f   NpScene.obj
 0001:0006e520       ?getBounceThresholdVelocity@NpScene@physx@@UEBAMXZ 000000018006f520 f   NpScene.obj
 0001:0006e570       ?getBroadPhaseCallback@NpScene@physx@@UEBAPEAVPxBroadPhaseCallback@2@XZ 000000018006f570 f   NpScene.obj
 0001:0006e5b0       ?getBroadPhaseCaps@NpScene@physx@@UEBA_NAEAUPxBroadPhaseCaps@2@@Z 000000018006f5b0 f   NpScene.obj
 0001:0006e610       ?getBroadPhaseRegions@NpScene@physx@@UEBAIPEAUPxBroadPhaseRegionInfo@2@II@Z 000000018006f610 f   NpScene.obj
 0001:0006e690       ?getBroadPhaseType@NpScene@physx@@UEBA?AW4Enum@PxBroadPhaseType@2@XZ 000000018006f690 f   NpScene.obj
 0001:0006e6e0       ?getCCDContactModifyCallback@NpScene@physx@@UEBAPEAVPxCCDContactModifyCallback@2@XZ 000000018006f6e0 f   NpScene.obj
 0001:0006e720       ?getCCDMaxPasses@NpScene@physx@@UEBAIXZ 000000018006f720 f   NpScene.obj
 0001:0006e760       ?getCCDMaxSeparation@NpScene@physx@@UEBAMXZ 000000018006f760 f   NpScene.obj
 0001:0006e7b0       ?getCCDThreshold@NpScene@physx@@UEBAMXZ 000000018006f7b0 f   NpScene.obj
 0001:0006e800       ?getConstraints@NpScene@physx@@UEBAIPEAPEAVPxConstraint@2@II@Z 000000018006f800 f   NpScene.obj
 0001:0006e8a0       ?getContactModifyCallback@NpScene@physx@@UEBAPEAVPxContactModifyCallback@2@XZ 000000018006f8a0 f   NpScene.obj
 0001:0006e8e0       ?getContactReportStreamBufferSize@NpScene@physx@@UEBAIXZ 000000018006f8e0 f   NpScene.obj
 0001:0006e920       ?getCpuDispatcher@NpScene@physx@@UEBAPEAVPxCpuDispatcher@2@XZ 000000018006f920 f   NpScene.obj
 0001:0006e930       ?getCudaContextManager@NpScene@physx@@UEBAPEAVPxCudaContextManager@2@XZ 000000018006f930 f i NpScene.obj
 0001:0006e930       ?getCudaContextManager@NpScene@physx@@UEAAPEAVPxCudaContextManager@2@XZ 000000018006f930 f i NpScene.obj
 0001:0006e940       ?getDominanceGroupPair@NpScene@physx@@UEBA?AUPxDominanceGroupPair@2@EE@Z 000000018006f940 f   NpScene.obj
 0001:0006e9f0       ?getFilterCallback@NpScene@physx@@UEBAPEAVPxSimulationFilterCallback@2@XZ 000000018006f9f0 f   NpScene.obj
 0001:0006ea30       ?getFilterShader@NpScene@physx@@UEBAP6A?AV?$PxFlags@W4Enum@PxFilterFlag@physx@@G@2@IUPxFilterData@2@I0AEAV?$PxFlags@W4Enum@PxPairFlag@physx@@G@2@PEBXI@ZXZ 000000018006fa30 f   NpScene.obj
 0001:0006ea70       ?getFilterShaderData@NpScene@physx@@UEBAPEBXXZ 000000018006fa70 f   NpScene.obj
 0001:0006eab0       ?getFilterShaderDataSize@NpScene@physx@@UEBAIXZ 000000018006fab0 f   NpScene.obj
 0001:0006eaf0       ?getFlags@NpScene@physx@@UEBA?AV?$PxFlags@W4Enum@PxSceneFlag@physx@@I@2@XZ 000000018006faf0 f   NpScene.obj
 0001:0006eb40       ?getFrictionCorrelationDistance@NpScene@physx@@UEBAMXZ 000000018006fb40 f   NpScene.obj
 0001:0006eb90       ?getFrictionOffsetThreshold@NpScene@physx@@UEBAMXZ 000000018006fb90 f   NpScene.obj
 0001:0006ebe0       ?getFrictionType@NpScene@physx@@UEBA?AW4Enum@PxFrictionType@2@XZ 000000018006fbe0 f   NpScene.obj
 0001:0006ec20       ?getFrozenActors@NpScene@physx@@UEAAPEAPEAVPxActor@2@AEAI@Z 000000018006fc20 f   NpScene.obj
 0001:0006ec90       ?getGpuDynamicsConfig@NpScene@physx@@UEBA?AUPxgDynamicsMemoryConfig@2@XZ 000000018006fc90 f i NpScene.obj
 0001:0006ecc0       ?getGravity@NpScene@physx@@UEBA?AV?$PxVec3T@M@2@XZ 000000018006fcc0 f   NpScene.obj
 0001:0006ed20       ?getKinematicKinematicFilteringMode@NpScene@physx@@UEBA?AW4Enum@PxPairFilteringMode@2@XZ 000000018006fd20 f   NpScene.obj
 0001:0006ed60       ?getLimits@NpScene@physx@@UEBA?AVPxSceneLimits@2@XZ 000000018006fd60 f   NpScene.obj
 0001:0006edc0       ?getMaxBiasCoefficient@NpScene@physx@@UEBAMXZ 000000018006fdc0 f   NpScene.obj
 0001:0006ee10       ?getMaxNbContactDataBlocksUsed@NpScene@physx@@UEBAIXZ 000000018006fe10 f   NpScene.obj
 0001:0006ee70       ?getName@SceneCompletion@NpScene@physx@@UEBAPEBDXZ 000000018006fe70 f i NpScene.obj
 0001:0006ee80       ?getNbActors@NpScene@physx@@UEBAIV?$PxFlags@W4Enum@PxActorTypeFlag@physx@@G@2@@Z 000000018006fe80 f   NpScene.obj
 0001:0006eee0       ?getNbAggregates@NpScene@physx@@UEBAIXZ 000000018006fee0 f   NpScene.obj
 0001:0006ef20       ?getNbArticulations@NpScene@physx@@UEBAIXZ 000000018006ff20 f   NpScene.obj
 0001:0006ef60       ?getNbBroadPhaseRegions@NpScene@physx@@UEBAIXZ 000000018006ff60 f   NpScene.obj
 0001:0006efb0       ?getNbConstraints@NpScene@physx@@UEBAIXZ 000000018006ffb0 f   NpScene.obj
 0001:0006eff0       ?getNbContactDataBlocksUsed@NpScene@physx@@UEBAIXZ 000000018006fff0 f   NpScene.obj
 0001:0006f050       ?getNbParticleSystems@NpScene@physx@@UEBAIW4Enum@PxParticleSolverType@2@@Z 0000000180070050 f   NpScene.obj
 0001:0006f0b0       ?getNbSoftBodies@NpScene@physx@@UEBAIXZ 00000001800700b0 f   NpScene.obj
 0001:0006f0f0       ?getNbTriangles@RenderBuffer@Cm@physx@@UEBAIXZ 00000001800700f0 f i NpScene.obj
 0001:0006f100       ?getParticleSystems@NpScene@physx@@UEBAIW4Enum@PxParticleSolverType@2@PEAPEAVPxParticleSystem@2@II@Z 0000000180070100 f   NpScene.obj
 0001:0006f1b0       ?getPhysics@NpScene@physx@@UEAAAEAVPxPhysics@2@XZ 00000001800701b0 f   NpScene.obj
 0001:0006f1c0       ?getRenderBuffer@NpScene@physx@@UEAAAEBVPxRenderBuffer@2@XZ 00000001800701c0 f   NpScene.obj
 0001:0006f200       ?getScenePvdClient@NpScene@physx@@UEAAPEAVPxPvdSceneClient@2@XZ 0000000180070200 f   NpScene.obj
 0001:0006f210       ?getSimulationController@NpScene@physx@@UEAAPEAVPxsSimulationController@2@XZ 0000000180070210 f   NpScene.obj
 0001:0006f220       ?getSimulationEventCallback@NpScene@physx@@UEBAPEAVPxSimulationEventCallback@2@XZ 0000000180070220 f   NpScene.obj
 0001:0006f260       ?getSimulationStatistics@NpScene@physx@@UEBAXAEAVPxSimulationStatistics@2@@Z 0000000180070260 f   NpScene.obj
 0001:0006f2d0       ?getSoftBodies@NpScene@physx@@UEBAIPEAPEAVPxSoftBody@2@II@Z 00000001800702d0 f   NpScene.obj
 0001:0006f370       ?getSolverArticulationBatchSize@NpScene@physx@@UEBAIXZ 0000000180070370 f   NpScene.obj
 0001:0006f3b0       ?getSolverBatchSize@NpScene@physx@@UEBAIXZ 00000001800703b0 f   NpScene.obj
 0001:0006f3f0       ?getSolverType@NpScene@physx@@UEBA?AW4Enum@PxSolverType@2@XZ 00000001800703f0 f   NpScene.obj
 0001:0006f430       ?getStaticKinematicFilteringMode@NpScene@physx@@UEBA?AW4Enum@PxPairFilteringMode@2@XZ 0000000180070430 f   NpScene.obj
 0001:0006f470       ?getTaskManager@NpScene@physx@@UEBAPEAVPxTaskManager@2@XZ 0000000180070470 f i NpScene.obj
 0001:0006f480       ?getTimestamp@NpScene@physx@@UEBAIXZ 0000000180070480 f   NpScene.obj
 0001:0006f490       ?getVisualizationCullingBox@NpScene@physx@@UEBA?AVPxBounds3@2@XZ 0000000180070490 f   NpScene.obj
 0001:0006f500       ?getVisualizationParameter@NpScene@physx@@UEBAMW4Enum@PxVisualizationParameter@2@@Z 0000000180070500 f   NpScene.obj
 0001:0006f540       ?getWakeCounterResetValue@NpScene@physx@@UEBAMXZ 0000000180070540 f   NpScene.obj
 0001:0006f590       ?growAndPushBack@?$PxArray@PEAVNpConstraint@physx@@V?$PxReflectionAllocator@PEAVNpConstraint@physx@@@2@@physx@@IEAAAEAPEAVNpConstraint@2@AEBQEAV32@@Z 0000000180070590 f i NpScene.obj
 0001:0006f6d0       ?growAndPushBack@?$PxArray@PEAVNpRigidDynamic@physx@@V?$PxReflectionAllocator@PEAVNpRigidDynamic@physx@@@2@@physx@@IEAAAEAPEAVNpRigidDynamic@2@AEBQEAV32@@Z 00000001800706d0 f i NpScene.obj
 0001:0006f790       ?growAndPushBack@?$PxArray@PEAVNpRigidStatic@physx@@V?$PxReflectionAllocator@PEAVNpRigidStatic@physx@@@2@@physx@@IEAAAEAPEAVNpRigidStatic@2@AEBQEAV32@@Z 0000000180070790 f i NpScene.obj
 0001:0006f850       ?growAndPushBack@?$PxArray@PEAXV?$PxReflectionAllocator@U?$Block@E$0BAA@@Scene@Sc@physx@@@physx@@@physx@@IEAAAEAPEAXAEBQEAX@Z 0000000180070850 f i NpScene.obj
 0001:0006f990       ?growAndPushBack@?$PxArray@PEAXV?$PxReflectionAllocator@U?$Block@E$0BIA@@Scene@Sc@physx@@@physx@@@physx@@IEAAAEAPEAXAEBQEAX@Z 0000000180070990 f i NpScene.obj
 0001:0006fad0       ?growAndPushBack@?$PxArray@PEAXV?$PxReflectionAllocator@U?$Block@E$0IA@@Scene@Sc@physx@@@physx@@@physx@@IEAAAEAPEAXAEBQEAX@Z 0000000180070ad0 f i NpScene.obj
 0001:0006fc10       ?growAndPushBack@?$PxArray@PEAXV?$PxReflectionAllocator@U?$Block@PEAX$07@Scene@Sc@physx@@@physx@@@physx@@IEAAAEAPEAXAEBQEAX@Z 0000000180070c10 f i NpScene.obj
 0001:0006fd50       ?growAndPushBack@?$PxArray@PEAXV?$PxReflectionAllocator@U?$Block@PEAX$0BA@@Scene@Sc@physx@@@physx@@@physx@@IEAAAEAPEAXAEBQEAX@Z 0000000180070d50 f i NpScene.obj
 0001:0006fe90       ?growAndPushBack@?$PxArray@PEAXV?$PxReflectionAllocator@U?$Block@PEAX$0CA@@Scene@Sc@physx@@@physx@@@physx@@IEAAAEAPEAXAEBQEAX@Z 0000000180070e90 f i NpScene.obj
 0001:0006ffd0       ?growAndPushBack@?$PxArray@UPxDebugLine@physx@@V?$PxReflectionAllocator@UPxDebugLine@physx@@@2@@physx@@IEAAAEAUPxDebugLine@2@AEBU32@@Z 0000000180070fd0 f i NpScene.obj
 0001:000700a0       ?growAndPushBack@?$PxArray@UPxDebugPoint@physx@@V?$PxReflectionAllocator@UPxDebugPoint@physx@@@2@@physx@@IEAAAEAUPxDebugPoint@2@AEBU32@@Z 00000001800710a0 f i NpScene.obj
 0001:00070160       ?growAndPushBack@?$PxArray@UPxDebugTriangle@physx@@V?$PxReflectionAllocator@UPxDebugTriangle@physx@@@2@@physx@@IEAAAEAUPxDebugTriangle@2@AEBU32@@Z 0000000180071160 f i NpScene.obj
 0001:00070260       ?growAndPushBack@?$PxArray@VMaterialEvent@NpScene@physx@@V?$PxReflectionAllocator@VMaterialEvent@NpScene@physx@@@3@@physx@@IEAAAEAVMaterialEvent@NpScene@2@AEBV342@@Z 0000000180071260 f i NpScene.obj
 0001:00070320       ?loadFromDesc@NpScene@physx@@QEAA_NAEBVPxSceneDesc@2@@Z 0000000180071320 f   NpScene.obj
 0001:000703c0       ?lockRead@NpScene@physx@@UEAAXPEBDI@Z 00000001800713c0 f   NpScene.obj
 0001:00070450       ?lockWrite@NpScene@physx@@UEAAXPEBDI@Z 0000000180071450 f   NpScene.obj
 0001:00070540       ?recreate@?$PxArray@PEAVNpRigidDynamic@physx@@V?$PxReflectionAllocator@PEAVNpRigidDynamic@physx@@@2@@physx@@IEAAXI@Z 0000000180071540 f i NpScene.obj
 0001:000705e0       ?recreate@?$PxArray@PEAVNpRigidStatic@physx@@V?$PxReflectionAllocator@PEAVNpRigidStatic@physx@@@2@@physx@@IEAAXI@Z 00000001800715e0 f i NpScene.obj
 0001:00070680       ?recreate@?$PxArray@UPxDebugLine@physx@@V?$PxReflectionAllocator@UPxDebugLine@physx@@@2@@physx@@IEAAXI@Z 0000000180071680 f i NpScene.obj
 0001:00070710       ?recreate@?$PxArray@UPxDebugPoint@physx@@V?$PxReflectionAllocator@UPxDebugPoint@physx@@@2@@physx@@IEAAXI@Z 0000000180071710 f i NpScene.obj
 0001:000707a0       ?recreate@?$PxArray@UPxDebugTriangle@physx@@V?$PxReflectionAllocator@UPxDebugTriangle@physx@@@2@@physx@@IEAAXI@Z 00000001800717a0 f i NpScene.obj
 0001:00070830       ?recreate@?$PxArray@VMaterialEvent@NpScene@physx@@V?$PxReflectionAllocator@VMaterialEvent@NpScene@physx@@@3@@physx@@IEAAXI@Z 0000000180071830 f i NpScene.obj
 0001:000708d0       ?recreate@?$PxArray@VPxBounds3@physx@@V?$PxInlineAllocator@$0MA@V?$PxReflectionAllocator@VPxBounds3@physx@@@physx@@@2@@physx@@IEAAXI@Z 00000001800718d0 f i NpScene.obj
 0001:00070a90       ?release@NpScene@physx@@UEAAXXZ 0000000180071a90 f   NpScene.obj
 0001:00070b30       ?release@PxLightCpuTask@physx@@UEAAXXZ 0000000180071b30 f i NpScene.obj
 0001:00070b50       ?release@SceneCompletion@NpScene@physx@@UEAAXXZ 0000000180071b50 f i NpScene.obj
 0001:00070b80       ?releaseInstance@?$PvdFns@VNpRigidStatic@physx@@@@SAXAEAVNpScene@physx@@AEAVPvdSceneClient@Vd@3@PEAVNpRigidStatic@3@@Z 0000000180071b80 f i NpScene.obj
 0001:00070b80       ?releaseInstance@?$PvdFns@VNpRigidDynamic@physx@@@@SAXAEAVNpScene@physx@@AEAVPvdSceneClient@Vd@3@PEAVNpRigidDynamic@3@@Z 0000000180071b80 f i NpScene.obj
 0001:00070c20       ?removeActor@NpScene@physx@@UEAAXAEAVPxActor@2@_N@Z 0000000180071c20 f   NpScene.obj
 0001:00070d50       ?removeActorInternal@NpScene@physx@@QEAAXAEAVPxActor@2@_N1@Z 0000000180071d50 f   NpScene.obj
 0001:00070e10       ?removeActors@NpScene@physx@@UEAAXPEBQEAVPxActor@2@I_N@Z 0000000180071e10 f   NpScene.obj
 0001:000711e0       ?removeAggregate@NpScene@physx@@UEAAXAEAVPxAggregate@2@_N@Z 00000001800721e0 f   NpScene.obj
 0001:00071520       ?removeArticulation@NpScene@physx@@UEAAXAEAVPxArticulationReducedCoordinate@2@_N@Z 0000000180072520 f   NpScene.obj
 0001:00071690       ?removeArticulationInternal@NpScene@physx@@QEAAXAEAVPxArticulationReducedCoordinate@2@_N1@Z 0000000180072690 f   NpScene.obj
 0001:00071a60       ?removeArticulationLink@NpScene@physx@@QEAAXAEAVNpArticulationLink@2@_N@Z 0000000180072a60 f   NpScene.obj
 0001:00071ca0       ?removeArticulationSensors@NpScene@physx@@QEAAXAEAVPxArticulationReducedCoordinate@2@@Z 0000000180072ca0 f   NpScene.obj
 0001:00071d00       ?removeArticulationTendons@NpScene@physx@@QEAAXAEAVPxArticulationReducedCoordinate@2@@Z 0000000180072d00 f   NpScene.obj
 0001:00071d90       ?removeBroadPhaseRegion@NpScene@physx@@UEAA_NI@Z 0000000180072d90 f   NpScene.obj
 0001:00071e30       ?removeFromConstraintList@NpScene@physx@@QEAAXAEAVPxConstraint@2@@Z 0000000180072e30 f   NpScene.obj
 0001:00071fa0       ?removeFromRigidDynamicList@NpScene@physx@@QEAAXAEAVNpRigidDynamic@2@@Z 0000000180072fa0 f   NpScene.obj
 0001:00072070       ?removeFromRigidStaticList@NpScene@physx@@QEAAXAEAVNpRigidStatic@2@@Z 0000000180073070 f   NpScene.obj
 0001:00072140       ?removeMaterial@NpScene@physx@@QEAAXAEBVNpFEMSoftBodyMaterial@2@@Z 0000000180073140 f   NpScene.obj
 0001:00072280       ?removeMaterial@NpScene@physx@@QEAAXAEBVNpMaterial@2@@Z 0000000180073280 f   NpScene.obj
 0001:000723c0       ?removeMaterial@NpScene@physx@@QEAAXAEBVNpPBDMaterial@2@@Z 00000001800733c0 f   NpScene.obj
 0001:00072500       ?removeParticleSystem@NpScene@physx@@AEAAXAEAVPxParticleSystem@2@_N@Z 0000000180073500 f   NpScene.obj
 0001:00072620       ?removeReference@PxLightCpuTask@physx@@UEAAXXZ 0000000180073620 f i NpScene.obj
 0001:00072640       ?removeRigidDynamic@NpScene@physx@@AEAAXAEAVNpRigidDynamic@2@_N1@Z 0000000180073640 f   NpScene.obj
 0001:00072770       ?removeRigidStatic@NpScene@physx@@AEAAXAEAVNpRigidStatic@2@_N1@Z 0000000180073770 f   NpScene.obj
 0001:000728a0       ?removeSoftBody@NpScene@physx@@AEAAXAEAVPxSoftBody@2@_N@Z 00000001800738a0 f   NpScene.obj
 0001:000729a0       ?reserveLines@RenderBuffer@Cm@physx@@UEAAPEAUPxDebugLine@3@I@Z 00000001800739a0 f i NpScene.obj
 0001:00072a00       ?reservePoints@RenderBuffer@Cm@physx@@UEAAPEAUPxDebugPoint@3@I@Z 0000000180073a00 f i NpScene.obj
 0001:00072a60       ?resetFiltering@NpScene@physx@@UEAA_NAEAVPxActor@2@@Z 0000000180073a60 f   NpScene.obj
 0001:00072be0       ?resetFiltering@NpScene@physx@@UEAA_NAEAVPxRigidActor@2@PEBQEAVPxShape@2@I@Z 0000000180073be0 f   NpScene.obj
 0001:00072da0       ?resetFiltering_@?$NpRigidActorTemplate@VPxRigidDynamic@physx@@@physx@@QEAA_NAEAVNpActor@2@AEAVRigidCore@Sc@2@PEBQEAVPxShape@2@I@Z 0000000180073da0 f i NpScene.obj
 0001:00072da0       ?resetFiltering_@?$NpRigidActorTemplate@VPxArticulationLink@physx@@@physx@@QEAA_NAEAVNpActor@2@AEAVRigidCore@Sc@2@PEBQEAVPxShape@2@I@Z 0000000180073da0 f i NpScene.obj
 0001:00072da0       ?resetFiltering_@?$NpRigidActorTemplate@VPxRigidStatic@physx@@@physx@@QEAA_NAEAVNpActor@2@AEAVRigidCore@Sc@2@PEBQEAVPxShape@2@I@Z 0000000180073da0 f i NpScene.obj
 0001:00072ff0       ?resize@?$PxArray@VMaterialEvent@NpScene@physx@@V?$PxReflectionAllocator@VMaterialEvent@NpScene@physx@@@3@@physx@@QEAAXIAEBVMaterialEvent@NpScene@2@@Z 0000000180073ff0 f i NpScene.obj
 0001:000730b0       ?resize@?$PxsMaterialManagerT@V?$MaterialCoreT@UPxsMaterialData@physx@@VPxMaterial@2@@physx@@@physx@@QEAAXI@Z 00000001800740b0 f i NpScene.obj
 0001:000733c0       ?resizeUninitialized@?$PxArray@VPxBounds3@physx@@V?$PxInlineAllocator@$0MA@V?$PxReflectionAllocator@VPxBounds3@physx@@@physx@@@2@@physx@@QEAAXI@Z 00000001800743c0 f i NpScene.obj
 0001:00073410       ?run@?$DelegateTask@VNpScene@physx@@$H?executeAdvance@12@QEAAXPEAVPxBaseTask@2@@ZA@@Cm@physx@@UEAAXXZ 0000000180074410 f i NpScene.obj
 0001:00073470       ?run@?$DelegateTask@VNpScene@physx@@$H?executeCollide@12@QEAAXPEAVPxBaseTask@2@@ZA@@Cm@physx@@UEAAXXZ 0000000180074470 f i NpScene.obj
 0001:000734d0       ?run@?$DelegateTask@VNpScene@physx@@$H?executeScene@12@QEAAXPEAVPxBaseTask@2@@ZA@@Cm@physx@@UEAAXXZ 00000001800744d0 f i NpScene.obj
 0001:00073530       ?run@?$DelegateTask@VNpScene@physx@@$H?sceneQueriesDynamicPrunerUpdate@12@AEAAXPEAVPxBaseTask@2@@ZA@@Cm@physx@@UEAAXXZ 0000000180074530 f i NpScene.obj
 0001:00073580       ?run@?$DelegateTask@VNpScene@physx@@$H?sceneQueriesStaticPrunerUpdate@12@AEAAXPEAVPxBaseTask@2@@ZA@@Cm@physx@@UEAAXXZ 0000000180074580 f i NpScene.obj
 0001:000735d0       ?run@BaseTask@Cm@physx@@UEAAXXZ 00000001800745d0 f i SimulationController_static_64:ScScene.obj
 0001:000735d0       ?run@Task@Cm@physx@@UEAAXXZ 00000001800745d0 f i NpScene.obj
 0001:00073610       ?runInternal@?$DelegateTask@VNpScene@physx@@$H?executeAdvance@12@QEAAXPEAVPxBaseTask@2@@ZA@@Cm@physx@@UEAAXXZ 0000000180074610 f i NpScene.obj
 0001:00073630       ?runInternal@?$DelegateTask@VNpScene@physx@@$H?executeCollide@12@QEAAXPEAVPxBaseTask@2@@ZA@@Cm@physx@@UEAAXXZ 0000000180074630 f i NpScene.obj
 0001:00073650       ?runInternal@?$DelegateTask@VNpScene@physx@@$H?executeScene@12@QEAAXPEAVPxBaseTask@2@@ZA@@Cm@physx@@UEAAXXZ 0000000180074650 f i NpScene.obj
 0001:00073670       ?runInternal@?$DelegateTask@VNpScene@physx@@$H?sceneQueriesDynamicPrunerUpdate@12@AEAAXPEAVPxBaseTask@2@@ZA@@Cm@physx@@UEAAXXZ 0000000180074670 f i NpScene.obj
 0001:00073680       ?runInternal@?$DelegateTask@VNpScene@physx@@$H?sceneQueriesStaticPrunerUpdate@12@AEAAXPEAVPxBaseTask@2@@ZA@@Cm@physx@@UEAAXXZ 0000000180074680 f i NpScene.obj
 0001:00073690       ?scAddActor@NpScene@physx@@QEAAXAEAVNpRigidDynamic@2@_NPEAVPxBounds3@2@PEBVBVH@Gu@2@@Z 0000000180074690 f   NpScene.obj
 0001:00073850       ?scAddActor@NpScene@physx@@QEAAXAEAVNpRigidStatic@2@_NPEAVPxBounds3@2@PEBVBVH@Gu@2@@Z 0000000180074850 f   NpScene.obj
 0001:00073a10       ?scRemoveActor@NpScene@physx@@QEAAXAEAVNpArticulationLink@2@_N1@Z 0000000180074a10 f   NpScene.obj
 0001:00073ac0       ?scRemoveActor@NpScene@physx@@QEAAXAEAVNpRigidDynamic@2@_N1@Z 0000000180074ac0 f   NpScene.obj
 0001:00073c70       ?scRemoveActor@NpScene@physx@@QEAAXAEAVNpRigidStatic@2@_N1@Z 0000000180074c70 f   NpScene.obj
 0001:00073e20       ?scRemoveAggregate@NpScene@physx@@QEAAXAEAVNpAggregate@2@@Z 0000000180074e20 f   NpScene.obj
 0001:00073e60       ?scRemoveArticulation@NpScene@physx@@QEAAXAEAVNpArticulationReducedCoordinate@2@@Z 0000000180074e60 f   NpScene.obj
 0001:00073f40       ?scRemoveArticulationFixedTendon@NpScene@physx@@QEAAXAEAVNpArticulationFixedTendon@2@@Z 0000000180074f40 f   NpScene.obj
 0001:00074010       ?scRemoveArticulationJoint@NpScene@physx@@QEAAXAEAVNpArticulationJointReducedCoordinate@2@@Z 0000000180075010 f   NpScene.obj
 0001:000740e0       ?scRemoveArticulationSensor@NpScene@physx@@QEAAXAEAVNpArticulationSensor@2@@Z 00000001800750e0 f   NpScene.obj
 0001:000741b0       ?scRemoveArticulationSpatialTendon@NpScene@physx@@QEAAXAEAVNpArticulationSpatialTendon@2@@Z 00000001800751b0 f   NpScene.obj
 0001:00074280       ?scRemoveParticleSystem@NpScene@physx@@QEAAXAEAVNpPBDParticleSystem@2@@Z 0000000180075280 f   NpScene.obj
 0001:00074360       ?scRemoveSoftBody@NpScene@physx@@QEAAXAEAVNpSoftBody@2@@Z 0000000180075360 f   NpScene.obj
 0001:00074440       ?scSwitchRigidFromNoSim@NpScene@physx@@QEAAXAEAVNpActor@2@@Z 0000000180075440 f   NpScene.obj
 0001:00074530       ?scSwitchRigidToNoSim@NpScene@physx@@QEAAXAEAVNpActor@2@@Z 0000000180075530 f   NpScene.obj
 0001:00074620       ?setActiveActors@NpScene@physx@@UEAAXPEAPEAVPxActor@2@I@Z 0000000180075620 f   NpScene.obj
 0001:00074680       ?setBounceThresholdVelocity@NpScene@physx@@UEAAXM@Z 0000000180075680 f   NpScene.obj
 0001:000747a0       ?setBroadPhaseCallback@NpScene@physx@@UEAAXPEAVPxBroadPhaseCallback@2@@Z 00000001800757a0 f   NpScene.obj
 0001:00074870       ?setCCDContactModifyCallback@NpScene@physx@@UEAAXPEAVPxCCDContactModifyCallback@2@@Z 0000000180075870 f   NpScene.obj
 0001:00074950       ?setCCDMaxPasses@NpScene@physx@@UEAAXI@Z 0000000180075950 f   NpScene.obj
 0001:00074a70       ?setCCDMaxSeparation@NpScene@physx@@UEAAXM@Z 0000000180075a70 f   NpScene.obj
 0001:00074b90       ?setCCDThreshold@NpScene@physx@@UEAAXM@Z 0000000180075b90 f   NpScene.obj
 0001:00074cb0       ?setContactModifyCallback@NpScene@physx@@UEAAXPEAVPxContactModifyCallback@2@@Z 0000000180075cb0 f   NpScene.obj
 0001:00074da0       ?setDominanceGroupPair@NpScene@physx@@UEAAXEEAEBUPxDominanceGroupPair@2@@Z 0000000180075da0 f   NpScene.obj
 0001:00074f10       ?setFilterShaderData@NpScene@physx@@UEAAXPEBXI@Z 0000000180075f10 f   NpScene.obj
 0001:00074ff0       ?setFlag@NpScene@physx@@UEAAXW4Enum@PxSceneFlag@2@_N@Z 0000000180075ff0 f   NpScene.obj
 0001:00075170       ?setFrictionCorrelationDistance@NpScene@physx@@UEAAXM@Z 0000000180076170 f   NpScene.obj
 0001:00075290       ?setFrictionOffsetThreshold@NpScene@physx@@UEAAXM@Z 0000000180076290 f   NpScene.obj
 0001:000753b0       ?setFrozenActorFlag@NpScene@physx@@UEAAX_N@Z 00000001800763b0 f   NpScene.obj
 0001:00075430       ?setGravity@NpScene@physx@@UEAAXAEBV?$PxVec3T@M@2@@Z 0000000180076430 f   NpScene.obj
 0001:00075510       ?setLimits@NpScene@physx@@UEAAXAEBVPxSceneLimits@2@@Z 0000000180076510 f   NpScene.obj
 0001:00075740       ?setMaxBiasCoefficient@NpScene@physx@@UEAAXM@Z 0000000180076740 f   NpScene.obj
 0001:00075860       ?setNbContactDataBlocks@NpScene@physx@@UEAAXI@Z 0000000180076860 f   NpScene.obj
 0001:000758e0       ?setSimulationEventCallback@NpScene@physx@@UEAAXPEAVPxSimulationEventCallback@2@@Z 00000001800768e0 f   NpScene.obj
 0001:000759c0       ?setSolverArticulationBatchSize@NpScene@physx@@UEAAXI@Z 00000001800769c0 f   NpScene.obj
 0001:00075a90       ?setSolverBatchSize@NpScene@physx@@UEAAXI@Z 0000000180076a90 f   NpScene.obj
 0001:00075b60       ?setVisualizationCullingBox@NpScene@physx@@UEAAXAEBVPxBounds3@2@@Z 0000000180076b60 f   NpScene.obj
 0001:00075d10       ?setVisualizationParameter@NpScene@physx@@UEAA_NW4Enum@PxVisualizationParameter@2@M@Z 0000000180076d10 f   NpScene.obj
 0001:00075e20       ?shift@RenderBuffer@Cm@physx@@UEAAXAEBV?$PxVec3T@M@3@@Z 0000000180076e20 f i NpScene.obj
 0001:00075fd0       ?shiftOrigin@NpScene@physx@@UEAAXAEBV?$PxVec3T@M@2@@Z 0000000180076fd0 f   NpScene.obj
 0001:000763b0       ?simulate@NpScene@physx@@UEAA_NMPEAVPxBaseTask@2@PEAXI_N@Z 00000001800773b0 f   NpScene.obj
 0001:000763f0       ?simulateOrCollide@NpScene@physx@@AEAA_NMPEAVPxBaseTask@2@PEAXI_NPEBDW4Enum@SimulationStage@Sc@2@@Z 00000001800773f0 f   NpScene.obj
 0001:00076a60       ?startRead@NpScene@physx@@QEBA_NXZ 0000000180077a60 f   NpScene.obj
 0001:00076b40       ?startWrite@NpScene@physx@@QEAA?AW4Enum@StartWriteResult@12@_N@Z 0000000180077b40 f   NpScene.obj
 0001:00076c70       ?stopRead@NpScene@physx@@QEBAXXZ 0000000180077c70 f   NpScene.obj
 0001:00076cf0       ?stopWrite@NpScene@physx@@QEAAX_N@Z 0000000180077cf0 f   NpScene.obj
 0001:00076d80       ?unlockRead@NpScene@physx@@UEAAXXZ 0000000180077d80 f   NpScene.obj
 0001:00076e20       ?unlockWrite@NpScene@physx@@UEAAXXZ 0000000180077e20 f   NpScene.obj
 0001:00076ed0       ?updateConstants@NpScene@physx@@QEAAXAEBV?$PxArray@PEAVNpConstraint@physx@@V?$PxReflectionAllocator@PEAVNpConstraint@physx@@@2@@2@@Z 0000000180077ed0 f   NpScene.obj
 0001:00076f20       ?updateMaterial@NpScene@physx@@QEAAXAEBVNpFEMSoftBodyMaterial@2@@Z 0000000180077f20 f   NpScene.obj
 0001:00077050       ?updateMaterial@NpScene@physx@@QEAAXAEBVNpMaterial@2@@Z 0000000180078050 f   NpScene.obj
 0001:00077180       ?updateMaterial@NpScene@physx@@QEAAXAEBVNpPBDMaterial@2@@Z 0000000180078180 f   NpScene.obj
 0001:00077370       ??_EScArticBeforeSolverCCDTask@@UEAAPEAXI@Z 0000000180078370 f i SimulationController_static_64:ScScene.obj
 0001:00077370       ??_ENpContactCallbackTask@physx@@UEAAPEAXI@Z 0000000180078370 f i NpSceneFetchResults.obj
 0001:00077370       ??_GSetupArticulationInternalConstraintsTask@Dy@physx@@UEAAPEAXI@Z 0000000180078370 f i LowLevelDynamics_static_64:DyTGSDynamics.obj
 0001:00077370       ??_GScArticBeforeSolverCCDTask@@UEAAPEAXI@Z 0000000180078370 f i SimulationController_static_64:ScScene.obj
 0001:00077370       ??_GSetStepperTask@Dy@physx@@UEAAPEAXI@Z 0000000180078370 f i LowLevelDynamics_static_64:DyTGSDynamics.obj
 0001:00077370       ??_GNpContactCallbackTask@physx@@UEAAPEAXI@Z 0000000180078370 f i NpSceneFetchResults.obj
 0001:00077370       ??_GUpdateArticulationAfterIntegrationTask@@UEAAPEAXI@Z 0000000180078370 f i SimulationController_static_64:ScSimulationController.obj
 0001:00077370       ??_EScArticBeforeSolverTask@@UEAAPEAXI@Z 0000000180078370 f i SimulationController_static_64:ScScene.obj
 0001:00077370       ??_GScArticBeforeSolverTask@@UEAAPEAXI@Z 0000000180078370 f i SimulationController_static_64:ScScene.obj
 0001:00077370       ??_ESetStepperTask@Dy@physx@@UEAAPEAXI@Z 0000000180078370 f i LowLevelDynamics_static_64:DyTGSDynamics.obj
 0001:00077370       ??_ESetupArticulationInternalConstraintsTask@Dy@physx@@UEAAPEAXI@Z 0000000180078370 f i LowLevelDynamics_static_64:DyTGSDynamics.obj
 0001:00077370       ??_EUpdateArticulationAfterIntegrationTask@@UEAAPEAXI@Z 0000000180078370 f i SimulationController_static_64:ScSimulationController.obj
 0001:000773b0       ?allocate@?$PxArray@PEAEV?$PxReflectionAllocator@PEAE@physx@@@physx@@IEAAPEAPEAEI@Z 00000001800783b0 f i NpSceneFetchResults.obj
 0001:00077460       ?checkResults@NpScene@physx@@UEAA_N_N@Z 0000000180078460 f   NpSceneFetchResults.obj
 0001:00077470       ?checkResultsInternal@NpScene@physx@@AEAA_N_N@Z 0000000180078470 f   NpSceneFetchResults.obj
 0001:00077520       ?fetchResults@NpScene@physx@@UEAA_N_NPEAI@Z 0000000180078520 f   NpSceneFetchResults.obj
 0001:00078210       ?fetchResultsFinish@NpScene@physx@@UEAAXPEAI@Z 0000000180079210 f   NpSceneFetchResults.obj
 0001:00078490       ?fetchResultsParticleSystem@NpScene@physx@@EEAAXXZ 0000000180079490 f   NpSceneFetchResults.obj
 0001:000784b0       ?fetchResultsPostContactCallbacks@NpScene@physx@@AEAAXXZ 00000001800794b0 f   NpSceneFetchResults.obj
 0001:000786a0       ?fetchResultsPreContactCallbacks@NpScene@physx@@AEAAXXZ 00000001800796a0 f   NpSceneFetchResults.obj
 0001:000788f0       ?fetchResultsStart@NpScene@physx@@UEAA_NAEAPEBUPxContactPairHeader@2@AEAI_N@Z 00000001800798f0 f   NpSceneFetchResults.obj
 0001:00078ac0       ?getName@NpContactCallbackTask@physx@@UEBAPEBDXZ 0000000180079ac0 f i NpSceneFetchResults.obj
 0001:00078ad0       ?growAndPushBack@?$PxArray@PEAEV?$PxReflectionAllocator@PEAE@physx@@@physx@@IEAAAEAPEAEAEBQEAE@Z 0000000180079ad0 f i NpSceneFetchResults.obj
 0001:00078b90       ?processCallbacks@NpScene@physx@@UEAAXPEAVPxBaseTask@2@@Z 0000000180079b90 f   NpSceneFetchResults.obj
 0001:00078eb0       ?run@NpContactCallbackTask@physx@@UEAAXXZ 0000000180079eb0 f   NpSceneFetchResults.obj
 0001:00078f80       ??0NpSceneQueries@physx@@QEAA@AEBVPxSceneDesc@1@PEAVPvdSceneClient@Vd@1@_K@Z 0000000180079f80 f   NpSceneQueries.obj
 0001:00079150       ??1NpSceneQueries@physx@@UEAA@XZ 000000018007a150 f   NpSceneQueries.obj
 0001:000791b0       ??1PvdSceneQueryCollector@Vd@physx@@QEAA@XZ 000000018007a1b0 f i NpSceneQueries.obj
 0001:00079354       ??_ENpSceneQueries@physx@@W7EAAPEAXI@Z 000000018007a354 f i NpSceneQueries.obj
 0001:00079430       ??_GNpSceneQueries@physx@@UEAAPEAXI@Z 000000018007a430 f i NpSceneQueries.obj
 0001:00079430       ??_ENpSceneQueries@physx@@UEAAPEAXI@Z 000000018007a430 f i NpSceneQueries.obj
 0001:00079840       ?checkQueries@NpScene@physx@@UEAA_N_N@Z 000000018007a840 f   NpSceneQueries.obj
 0001:00079850       ?checkSceneQueriesInternal@NpScene@physx@@AEAA_N_N@Z 000000018007a850 f   NpSceneQueries.obj
 0001:000799a0       ?fetchQueries@NpScene@physx@@UEAA_N_N@Z 000000018007a9a0 f   NpSceneQueries.obj
 0001:00079bb0       ?flushUpdates@NpScene@physx@@UEAAXXZ 000000018007abb0 f   NpSceneQueries.obj
 0001:00079cd0       ?forceRebuildDynamicTree@NpScene@physx@@UEAAXI@Z 000000018007acd0 f   NpSceneQueries.obj
 0001:00079de0       ?forceSceneQueryRebuild@NpScene@physx@@UEAAXXZ 000000018007ade0 f   NpSceneQueries.obj
 0001:00079e40       ?getDynamicTreeRebuildRateHint@NpScene@physx@@UEBAIXZ 000000018007ae40 f   NpSceneQueries.obj
 0001:00079f30       ?getStaticTimestamp@NpScene@physx@@UEBAIXZ 000000018007af30 f   NpSceneQueries.obj
 0001:00079f40       ?getUpdateMode@NpScene@physx@@UEBA?AW4Enum@PxSceneQueryUpdateMode@2@XZ 000000018007af40 f   NpSceneQueries.obj
 0001:0007a0d0       ?overlap@NpScene@physx@@UEBA_NAEBVPxGeometry@2@AEBV?$PxTransformT@M@2@AEAU?$PxHitCallback@UPxOverlapHit@physx@@@2@AEBUPxQueryFilterData@2@PEAVPxQueryFilterCallback@2@PEBUPxQueryCache@2@V?$PxFlags@W4Enum@PxGeometryQueryFlag@physx@@I@2@@Z 000000018007b0d0 f   NpSceneQueries.obj
 0001:0007a190       ?overlap@NpSceneQueries@physx@@UEAAXAEBVPxGeometry@2@AEBV?$PxTransformT@M@2@PEBUPxOverlapHit@2@IAEBUPxQueryFilterData@2@@Z 000000018007b190 f   NpSceneQueries.obj
 0001:0007a240       ?raycast@NpScene@physx@@UEBA_NAEBV?$PxVec3T@M@2@0MAEAU?$PxHitCallback@UPxRaycastHit@physx@@@2@V?$PxFlags@W4Enum@PxHitFlag@physx@@G@2@AEBUPxQueryFilterData@2@PEAVPxQueryFilterCallback@2@PEBUPxQueryCache@2@V?$PxFlags@W4Enum@PxGeometryQueryFlag@physx@@I@2@@Z 000000018007b240 f   NpSceneQueries.obj
 0001:0007a330       ?raycast@NpSceneQueries@physx@@UEAAXAEBV?$PxVec3T@M@2@0MPEBUPxRaycastHit@2@IAEBUPxQueryFilterData@2@_N@Z 000000018007b330 f   NpSceneQueries.obj
 0001:0007a400       ?sceneQueriesDynamicPrunerUpdate@NpScene@physx@@AEAAXPEAVPxBaseTask@2@@Z 000000018007b400 f   NpSceneQueries.obj
 0001:0007a4b0       ?sceneQueriesStaticPrunerUpdate@NpScene@physx@@AEAAXPEAVPxBaseTask@2@@Z 000000018007b4b0 f   NpSceneQueries.obj
 0001:0007a560       ?sceneQueriesUpdate@NpScene@physx@@UEAAXPEAVPxBaseTask@2@_N@Z 000000018007b560 f   NpSceneQueries.obj
 0001:0007a8f0       ?setDynamicTreeRebuildRateHint@NpScene@physx@@UEAAXI@Z 000000018007b8f0 f   NpSceneQueries.obj
 0001:0007a990       ?setUpdateMode@NpScene@physx@@UEAAXW4Enum@PxSceneQueryUpdateMode@2@@Z 000000018007b990 f   NpSceneQueries.obj
 0001:0007aab0       ?sweep@NpScene@physx@@UEBA_NAEBVPxGeometry@2@AEBV?$PxTransformT@M@2@AEBV?$PxVec3T@M@2@MAEAU?$PxHitCallback@UPxSweepHit@physx@@@2@V?$PxFlags@W4Enum@PxHitFlag@physx@@G@2@AEBUPxQueryFilterData@2@PEAVPxQueryFilterCallback@2@PEBUPxQueryCache@2@MV?$PxFlags@W4Enum@PxGeometryQueryFlag@physx@@I@2@@Z 000000018007bab0 f   NpSceneQueries.obj
 0001:0007abc0       ?sweep@NpSceneQueries@physx@@UEAAXAEBVPxGeometry@2@AEBV?$PxTransformT@M@2@AEBV?$PxVec3T@M@2@MPEBUPxSweepHit@2@IAEBUPxQueryFilterData@2@_N@Z 000000018007bbc0 f   NpSceneQueries.obj
 0001:0007ac30       ?sync@NpSceneQueries@physx@@MEAAXIPEBI0PEBVPxBounds3@2@PEBUPxTransformPadded@2@IAEBV?$PxBitMapBase@VPxAllocator@physx@@@2@@Z 000000018007bc30 f   NpSceneQueries.obj
 0001:0007ac40       ?syncSQ@NpScene@physx@@AEAAXXZ 000000018007bc40 f   NpSceneQueries.obj
 0001:0007b0e0       ?transmitSceneQueries@NpSceneQueries@physx@@UEAA_NXZ 000000018007c0e0 f   NpSceneQueries.obj
 0001:0007b1b0       ??_G?$PxSerializerDefaultAdapter@VNpAggregate@physx@@@physx@@UEAAPEAXI@Z 000000018007c1b0 f i NpSerializerAdapter.obj
 0001:0007b1b0       ??_G?$PxSerializerDefaultAdapter@VRTreeTriangleMesh@Gu@physx@@@physx@@UEAAPEAXI@Z 000000018007c1b0 f i NpSerializerAdapter.obj
 0001:0007b1b0       ??_E?$PxSerializerDefaultAdapter@VNpArticulationJointReducedCoordinate@physx@@@physx@@UEAAPEAXI@Z 000000018007c1b0 f i NpSerializerAdapter.obj
 0001:0007b1b0       ??_G?$PxSerializerDefaultAdapter@VNpArticulationLink@physx@@@physx@@UEAAPEAXI@Z 000000018007c1b0 f i NpSerializerAdapter.obj
 0001:0007b1b0       ??_E?$PxSerializerDefaultAdapter@VNpArticulationLink@physx@@@physx@@UEAAPEAXI@Z 000000018007c1b0 f i NpSerializerAdapter.obj
 0001:0007b1b0       ??_G?$PxSerializerDefaultAdapter@VNpArticulationSensor@physx@@@physx@@UEAAPEAXI@Z 000000018007c1b0 f i NpSerializerAdapter.obj
 0001:0007b1b0       ??_E?$PxSerializerDefaultAdapter@VNpArticulationReducedCoordinate@physx@@@physx@@UEAAPEAXI@Z 000000018007c1b0 f i NpSerializerAdapter.obj
 0001:0007b1b0       ??_G?$PxSerializerDefaultAdapter@VConvexMesh@Gu@physx@@@physx@@UEAAPEAXI@Z 000000018007c1b0 f i NpSerializerAdapter.obj
 0001:0007b1b0       ??_G?$PxSerializerDefaultAdapter@VNpShape@physx@@@physx@@UEAAPEAXI@Z 000000018007c1b0 f i NpSerializerAdapter.obj
 0001:0007b1b0       ??_E?$PxSerializerDefaultAdapter@VNpConstraint@physx@@@physx@@UEAAPEAXI@Z 000000018007c1b0 f i NpSerializerAdapter.obj
 0001:0007b1b0       ??_G?$PxSerializerDefaultAdapter@VNpConstraint@physx@@@physx@@UEAAPEAXI@Z 000000018007c1b0 f i NpSerializerAdapter.obj
 0001:0007b1b0       ??_E?$PxSerializerDefaultAdapter@VRTreeTriangleMesh@Gu@physx@@@physx@@UEAAPEAXI@Z 000000018007c1b0 f i NpSerializerAdapter.obj
 0001:0007b1b0       ??_E?$PxSerializerDefaultAdapter@VNpMaterial@physx@@@physx@@UEAAPEAXI@Z 000000018007c1b0 f i NpSerializerAdapter.obj
 0001:0007b1b0       ??_E?$PxSerializerDefaultAdapter@VNpArticulationTendonJoint@physx@@@physx@@UEAAPEAXI@Z 000000018007c1b0 f i NpSerializerAdapter.obj
 0001:0007b1b0       ??_E?$PxSerializerDefaultAdapter@VBV4TriangleMesh@Gu@physx@@@physx@@UEAAPEAXI@Z 000000018007c1b0 f i NpSerializerAdapter.obj
 0001:0007b1b0       ??_E?$PxSerializerDefaultAdapter@VConvexMesh@Gu@physx@@@physx@@UEAAPEAXI@Z 000000018007c1b0 f i NpSerializerAdapter.obj
 0001:0007b1b0       ??_G?$PxSerializerDefaultAdapter@VNpArticulationTendonJoint@physx@@@physx@@UEAAPEAXI@Z 000000018007c1b0 f i NpSerializerAdapter.obj
 0001:0007b1b0       ??_G?$PxSerializerDefaultAdapter@VNpMaterial@physx@@@physx@@UEAAPEAXI@Z 000000018007c1b0 f i NpSerializerAdapter.obj
 0001:0007b1b0       ??_E?$PxSerializerDefaultAdapter@VNpArticulationAttachment@physx@@@physx@@UEAAPEAXI@Z 000000018007c1b0 f i NpSerializerAdapter.obj
 0001:0007b1b0       ??_G?$PxSerializerDefaultAdapter@VNpArticulationFixedTendon@physx@@@physx@@UEAAPEAXI@Z 000000018007c1b0 f i NpSerializerAdapter.obj
 0001:0007b1b0       ??_G?$PxSerializerDefaultAdapter@VNpArticulationReducedCoordinate@physx@@@physx@@UEAAPEAXI@Z 000000018007c1b0 f i NpSerializerAdapter.obj
 0001:0007b1b0       ??_E?$PxSerializerDefaultAdapter@VNpArticulationSensor@physx@@@physx@@UEAAPEAXI@Z 000000018007c1b0 f i NpSerializerAdapter.obj
 0001:0007b1b0       ??_E?$PxSerializerDefaultAdapter@VNpRigidStatic@physx@@@physx@@UEAAPEAXI@Z 000000018007c1b0 f i NpSerializerAdapter.obj
 0001:0007b1b0       ??_E?$PxSerializerDefaultAdapter@VNpArticulationFixedTendon@physx@@@physx@@UEAAPEAXI@Z 000000018007c1b0 f i NpSerializerAdapter.obj
 0001:0007b1b0       ??_G?$PxSerializerDefaultAdapter@VPruningStructure@Sq@physx@@@physx@@UEAAPEAXI@Z 000000018007c1b0 f i NpSerializerAdapter.obj
 0001:0007b1b0       ??_G?$PxSerializerDefaultAdapter@VNpArticulationAttachment@physx@@@physx@@UEAAPEAXI@Z 000000018007c1b0 f i NpSerializerAdapter.obj
 0001:0007b1b0       ??_G?$PxSerializerDefaultAdapter@VNpRigidStatic@physx@@@physx@@UEAAPEAXI@Z 000000018007c1b0 f i NpSerializerAdapter.obj
 0001:0007b1b0       ??_G?$PxSerializerDefaultAdapter@VBV4TriangleMesh@Gu@physx@@@physx@@UEAAPEAXI@Z 000000018007c1b0 f i NpSerializerAdapter.obj
 0001:0007b1b0       ??_E?$PxSerializerDefaultAdapter@VNpRigidDynamic@physx@@@physx@@UEAAPEAXI@Z 000000018007c1b0 f i NpSerializerAdapter.obj
 0001:0007b1b0       ??_E?$PxSerializerDefaultAdapter@VPruningStructure@Sq@physx@@@physx@@UEAAPEAXI@Z 000000018007c1b0 f i NpSerializerAdapter.obj
 0001:0007b1b0       ??_G?$PxSerializerDefaultAdapter@VHeightField@Gu@physx@@@physx@@UEAAPEAXI@Z 000000018007c1b0 f i NpSerializerAdapter.obj
 0001:0007b1b0       ??_E?$PxSerializerDefaultAdapter@VNpAggregate@physx@@@physx@@UEAAPEAXI@Z 000000018007c1b0 f i NpSerializerAdapter.obj
 0001:0007b1b0       ??_E?$PxSerializerDefaultAdapter@VNpShape@physx@@@physx@@UEAAPEAXI@Z 000000018007c1b0 f i NpSerializerAdapter.obj
 0001:0007b1b0       ??_E?$PxSerializerDefaultAdapter@VHeightField@Gu@physx@@@physx@@UEAAPEAXI@Z 000000018007c1b0 f i NpSerializerAdapter.obj
 0001:0007b1b0       ??_E?$PxSerializerDefaultAdapter@VNpArticulationSpatialTendon@physx@@@physx@@UEAAPEAXI@Z 000000018007c1b0 f i NpSerializerAdapter.obj
 0001:0007b1b0       ??_G?$PxSerializerDefaultAdapter@VNpArticulationSpatialTendon@physx@@@physx@@UEAAPEAXI@Z 000000018007c1b0 f i NpSerializerAdapter.obj
 0001:0007b1b0       ??_G?$PxSerializerDefaultAdapter@VNpRigidDynamic@physx@@@physx@@UEAAPEAXI@Z 000000018007c1b0 f i NpSerializerAdapter.obj
 0001:0007b1b0       ??_G?$PxSerializerDefaultAdapter@VNpArticulationJointReducedCoordinate@physx@@@physx@@UEAAPEAXI@Z 000000018007c1b0 f i NpSerializerAdapter.obj
 0001:0007b1e0       ??_GPxSerializer@physx@@UEAAPEAXI@Z 000000018007c1e0 f i NpSerializerAdapter.obj
 0001:0007b1e0       ??_EPxSerializer@physx@@UEAAPEAXI@Z 000000018007c1e0 f i NpSerializerAdapter.obj
 0001:0007b210       ??_GRequiresCallback@?1??registerReferences@?$PxSerializerDefaultAdapter@VNpRigidStatic@physx@@@physx@@UEBAXAEAVPxBase@3@AEAVPxSerializationContext@3@@Z@UEAAPEAXI@Z 000000018007c210 f i NpSerializerAdapter.obj
 0001:0007b210       ??_GRequiresCallback@?1??registerReferences@?$PxSerializerDefaultAdapter@VNpRigidDynamic@physx@@@physx@@UEBAXAEAVPxBase@3@AEAVPxSerializationContext@3@@Z@UEAAPEAXI@Z 000000018007c210 f i NpSerializerAdapter.obj
 0001:0007b210       ??_ERequiresCallback@?1??registerReferences@?$PxSerializerDefaultAdapter@VBV4TriangleMesh@Gu@physx@@@physx@@UEBAXAEAVPxBase@3@AEAVPxSerializationContext@3@@Z@UEAAPEAXI@Z 000000018007c210 f i NpSerializerAdapter.obj
 0001:0007b210       ??_GRequiresCallback@?1??registerReferences@?$PxSerializerDefaultAdapter@VNpAggregate@physx@@@physx@@UEBAXAEAVPxBase@3@AEAVPxSerializationContext@3@@Z@UEAAPEAXI@Z 000000018007c210 f i NpSerializerAdapter.obj
 0001:0007b210       ??_ERequiresCallback@?1??registerReferences@?$PxSerializerDefaultAdapter@VNpAggregate@physx@@@physx@@UEBAXAEAVPxBase@3@AEAVPxSerializationContext@3@@Z@UEAAPEAXI@Z 000000018007c210 f i NpSerializerAdapter.obj
 0001:0007b210       ??_GRequiresCallback@?1??registerReferences@?$PxSerializerDefaultAdapter@VHeightField@Gu@physx@@@physx@@UEBAXAEAVPxBase@3@AEAVPxSerializationContext@3@@Z@UEAAPEAXI@Z 000000018007c210 f i NpSerializerAdapter.obj
 0001:0007b210       ??_EDestroyInstance@pvdsdk@physx@@UEAAPEAXI@Z 000000018007c210 f i PhysXPvdSDK_static_64:PxPvdDataStream.obj
 0001:0007b210       ??_GRequiresCallback@?1??registerReferences@?$PxSerializerDefaultAdapter@VNpArticulationSensor@physx@@@physx@@UEBAXAEAVPxBase@3@AEAVPxSerializationContext@3@@Z@UEAAPEAXI@Z 000000018007c210 f i NpSerializerAdapter.obj
 0001:0007b210       ??_ERequiresCallback@?1??registerReferences@?$PxSerializerDefaultAdapter@VNpArticulationSpatialTendon@physx@@@physx@@UEBAXAEAVPxBase@3@AEAVPxSerializationContext@3@@Z@UEAAPEAXI@Z 000000018007c210 f i NpSerializerAdapter.obj
 0001:0007b210       ??_GDestroyInstance@pvdsdk@physx@@UEAAPEAXI@Z 000000018007c210 f i PhysXPvdSDK_static_64:PxPvdDataStream.obj
 0001:0007b210       ??_ERequiresCallback@?1??registerReferences@?$PxSerializerDefaultAdapter@VNpArticulationSensor@physx@@@physx@@UEBAXAEAVPxBase@3@AEAVPxSerializationContext@3@@Z@UEAAPEAXI@Z 000000018007c210 f i NpSerializerAdapter.obj
 0001:0007b210       ??_ERequiresCallback@?1??registerReferences@?$PxSerializerDefaultAdapter@VNpConstraint@physx@@@physx@@UEBAXAEAVPxBase@3@AEAVPxSerializationContext@3@@Z@UEAAPEAXI@Z 000000018007c210 f i NpSerializerAdapter.obj
 0001:0007b210       ??_GRequiresCallback@?1??registerReferences@?$PxSerializerDefaultAdapter@VRTreeTriangleMesh@Gu@physx@@@physx@@UEBAXAEAVPxBase@3@AEAVPxSerializationContext@3@@Z@UEAAPEAXI@Z 000000018007c210 f i NpSerializerAdapter.obj
 0001:0007b210       ??_GNameHandleValue@pvdsdk@physx@@UEAAPEAXI@Z 000000018007c210 f i PhysXPvdSDK_static_64:PxPvdDataStream.obj
 0001:0007b210       ??_GRequiresCallback@?1??registerReferences@?$PxSerializerDefaultAdapter@VNpArticulationLink@physx@@@physx@@UEBAXAEAVPxBase@3@AEAVPxSerializationContext@3@@Z@UEAAPEAXI@Z 000000018007c210 f i NpSerializerAdapter.obj
 0001:0007b210       ??_ERequiresCallback@?1??registerReferences@?$PxSerializerDefaultAdapter@VNpArticulationAttachment@physx@@@physx@@UEBAXAEAVPxBase@3@AEAVPxSerializationContext@3@@Z@UEAAPEAXI@Z 000000018007c210 f i NpSerializerAdapter.obj
 0001:0007b210       ??_GBeginPropertyMessageGroup@pvdsdk@physx@@UEAAPEAXI@Z 000000018007c210 f i PhysXPvdSDK_static_64:PxPvdDataStream.obj
 0001:0007b210       ??_GCreateClass@pvdsdk@physx@@UEAAPEAXI@Z 000000018007c210 f i PhysXPvdSDK_static_64:PxPvdDataStream.obj
 0001:0007b210       ??_GRequiresCallback@?1??registerReferences@?$PxSerializerDefaultAdapter@VBV4TriangleMesh@Gu@physx@@@physx@@UEBAXAEAVPxBase@3@AEAVPxSerializationContext@3@@Z@UEAAPEAXI@Z 000000018007c210 f i NpSerializerAdapter.obj
 0001:0007b210       ??_ERequiresCallback@?1??registerReferences@?$PxSerializerDefaultAdapter@VNpArticulationLink@physx@@@physx@@UEBAXAEAVPxBase@3@AEAVPxSerializationContext@3@@Z@UEAAPEAXI@Z 000000018007c210 f i NpSerializerAdapter.obj
 0001:0007b210       ??_GRequiresCallback@?1??registerReferences@?$PxSerializerDefaultAdapter@VNpArticulationFixedTendon@physx@@@physx@@UEBAXAEAVPxBase@3@AEAVPxSerializationContext@3@@Z@UEAAPEAXI@Z 000000018007c210 f i NpSerializerAdapter.obj
 0001:0007b210       ??_GRequiresCallback@?1??registerReferences@?$PxSerializerDefaultAdapter@VNpShape@physx@@@physx@@UEBAXAEAVPxBase@3@AEAVPxSerializationContext@3@@Z@UEAAPEAXI@Z 000000018007c210 f i NpSerializerAdapter.obj
 0001:0007b210       ??_ECreateClass@pvdsdk@physx@@UEAAPEAXI@Z 000000018007c210 f i PhysXPvdSDK_static_64:PxPvdDataStream.obj
 0001:0007b210       ??_ERequiresCallback@?1??registerReferences@?$PxSerializerDefaultAdapter@VConvexMesh@Gu@physx@@@physx@@UEBAXAEAVPxBase@3@AEAVPxSerializationContext@3@@Z@UEAAPEAXI@Z 000000018007c210 f i NpSerializerAdapter.obj
 0001:0007b210       ??_GRequiresCallback@?1??registerReferences@?$PxSerializerDefaultAdapter@VNpArticulationTendonJoint@physx@@@physx@@UEBAXAEAVPxBase@3@AEAVPxSerializationContext@3@@Z@UEAAPEAXI@Z 000000018007c210 f i NpSerializerAdapter.obj
 0001:0007b210       ??_ERequiresCallback@?1??registerReferences@?$PxSerializerDefaultAdapter@VNpRigidDynamic@physx@@@physx@@UEBAXAEAVPxBase@3@AEAVPxSerializationContext@3@@Z@UEAAPEAXI@Z 000000018007c210 f i NpSerializerAdapter.obj
 0001:0007b210       ??_GRequiresCallback@?1??registerReferences@?$PxSerializerDefaultAdapter@VConvexMesh@Gu@physx@@@physx@@UEBAXAEAVPxBase@3@AEAVPxSerializationContext@3@@Z@UEAAPEAXI@Z 000000018007c210 f i NpSerializerAdapter.obj
 0001:0007b210       ??_ERequiresCallback@?1??registerReferences@?$PxSerializerDefaultAdapter@VNpArticulationFixedTendon@physx@@@physx@@UEBAXAEAVPxBase@3@AEAVPxSerializationContext@3@@Z@UEAAPEAXI@Z 000000018007c210 f i NpSerializerAdapter.obj
 0001:0007b210       ??_ERequiresCallback@?1??registerReferences@?$PxSerializerDefaultAdapter@VNpShape@physx@@@physx@@UEBAXAEAVPxBase@3@AEAVPxSerializationContext@3@@Z@UEAAPEAXI@Z 000000018007c210 f i NpSerializerAdapter.obj
 0001:0007b210       ??_ERequiresCallback@?1??registerReferences@?$PxSerializerDefaultAdapter@VHeightField@Gu@physx@@@physx@@UEBAXAEAVPxBase@3@AEAVPxSerializationContext@3@@Z@UEAAPEAXI@Z 000000018007c210 f i NpSerializerAdapter.obj
 0001:0007b210       ??_GRequiresCallback@?1??registerReferences@?$PxSerializerDefaultAdapter@VNpArticulationJointReducedCoordinate@physx@@@physx@@UEBAXAEAVPxBase@3@AEAVPxSerializationContext@3@@Z@UEAAPEAXI@Z 000000018007c210 f i NpSerializerAdapter.obj
 0001:0007b210       ??_ERequiresCallback@?1??registerReferences@?$PxSerializerDefaultAdapter@VNpRigidStatic@physx@@@physx@@UEBAXAEAVPxBase@3@AEAVPxSerializationContext@3@@Z@UEAAPEAXI@Z 000000018007c210 f i NpSerializerAdapter.obj
 0001:0007b210       ??_ENameHandleValue@pvdsdk@physx@@UEAAPEAXI@Z 000000018007c210 f i PhysXPvdSDK_static_64:PxPvdDataStream.obj
 0001:0007b210       ??_ERequiresCallback@?1??registerReferences@?$PxSerializerDefaultAdapter@VPruningStructure@Sq@physx@@@physx@@UEBAXAEAVPxBase@3@AEAVPxSerializationContext@3@@Z@UEAAPEAXI@Z 000000018007c210 f i NpSerializerAdapter.obj
 0001:0007b210       ??_GRequiresCallback@?1??registerReferences@?$PxSerializerDefaultAdapter@VPruningStructure@Sq@physx@@@physx@@UEBAXAEAVPxBase@3@AEAVPxSerializationContext@3@@Z@UEAAPEAXI@Z 000000018007c210 f i NpSerializerAdapter.obj
 0001:0007b210       ??_EBeginPropertyMessageGroup@pvdsdk@physx@@UEAAPEAXI@Z 000000018007c210 f i PhysXPvdSDK_static_64:PxPvdDataStream.obj
 0001:0007b210       ??_GRequiresCallback@?1??registerReferences@?$PxSerializerDefaultAdapter@VNpArticulationSpatialTendon@physx@@@physx@@UEBAXAEAVPxBase@3@AEAVPxSerializationContext@3@@Z@UEAAPEAXI@Z 000000018007c210 f i NpSerializerAdapter.obj
 0001:0007b210       ??_GRequiresCallback@?1??registerReferences@?$PxSerializerDefaultAdapter@VNpConstraint@physx@@@physx@@UEBAXAEAVPxBase@3@AEAVPxSerializationContext@3@@Z@UEAAPEAXI@Z 000000018007c210 f i NpSerializerAdapter.obj
 0001:0007b210       ??_GRequiresCallback@?1??registerReferences@?$PxSerializerDefaultAdapter@VNpArticulationAttachment@physx@@@physx@@UEBAXAEAVPxBase@3@AEAVPxSerializationContext@3@@Z@UEAAPEAXI@Z 000000018007c210 f i NpSerializerAdapter.obj
 0001:0007b210       ??_ERequiresCallback@?1??registerReferences@?$PxSerializerDefaultAdapter@VNpArticulationReducedCoordinate@physx@@@physx@@UEBAXAEAVPxBase@3@AEAVPxSerializationContext@3@@Z@UEAAPEAXI@Z 000000018007c210 f i NpSerializerAdapter.obj
 0001:0007b210       ??_ERequiresCallback@?1??registerReferences@?$PxSerializerDefaultAdapter@VRTreeTriangleMesh@Gu@physx@@@physx@@UEBAXAEAVPxBase@3@AEAVPxSerializationContext@3@@Z@UEAAPEAXI@Z 000000018007c210 f i NpSerializerAdapter.obj
 0001:0007b210       ??_GRequiresCallback@?1??registerReferences@?$PxSerializerDefaultAdapter@VNpArticulationReducedCoordinate@physx@@@physx@@UEBAXAEAVPxBase@3@AEAVPxSerializationContext@3@@Z@UEAAPEAXI@Z 000000018007c210 f i NpSerializerAdapter.obj
 0001:0007b210       ??_ERequiresCallback@?1??registerReferences@?$PxSerializerDefaultAdapter@VNpArticulationTendonJoint@physx@@@physx@@UEBAXAEAVPxBase@3@AEAVPxSerializationContext@3@@Z@UEAAPEAXI@Z 000000018007c210 f i NpSerializerAdapter.obj
 0001:0007b210       ??_ERequiresCallback@?1??registerReferences@?$PxSerializerDefaultAdapter@VNpArticulationJointReducedCoordinate@physx@@@physx@@UEBAXAEAVPxBase@3@AEAVPxSerializationContext@3@@Z@UEAAPEAXI@Z 000000018007c210 f i NpSerializerAdapter.obj
 0001:0007b240       ?createObject@?$PxSerializerDefaultAdapter@VBV4TriangleMesh@Gu@physx@@@physx@@UEBAPEAVPxBase@2@AEAPEAEAEAVPxDeserializationContext@2@@Z 000000018007c240 f i NpSerializerAdapter.obj
 0001:0007b250       ?createObject@?$PxSerializerDefaultAdapter@VConvexMesh@Gu@physx@@@physx@@UEBAPEAVPxBase@2@AEAPEAEAEAVPxDeserializationContext@2@@Z 000000018007c250 f i NpSerializerAdapter.obj
 0001:0007b260       ?createObject@?$PxSerializerDefaultAdapter@VHeightField@Gu@physx@@@physx@@UEBAPEAVPxBase@2@AEAPEAEAEAVPxDeserializationContext@2@@Z 000000018007c260 f i NpSerializerAdapter.obj
 0001:0007b270       ?createObject@?$PxSerializerDefaultAdapter@VNpAggregate@physx@@@physx@@UEBAPEAVPxBase@2@AEAPEAEAEAVPxDeserializationContext@2@@Z 000000018007c270 f i NpSerializerAdapter.obj
 0001:0007b280       ?createObject@?$PxSerializerDefaultAdapter@VNpArticulationAttachment@physx@@@physx@@UEBAPEAVPxBase@2@AEAPEAEAEAVPxDeserializationContext@2@@Z 000000018007c280 f i NpSerializerAdapter.obj
 0001:0007b290       ?createObject@?$PxSerializerDefaultAdapter@VNpArticulationFixedTendon@physx@@@physx@@UEBAPEAVPxBase@2@AEAPEAEAEAVPxDeserializationContext@2@@Z 000000018007c290 f i NpSerializerAdapter.obj
 0001:0007b2a0       ?createObject@?$PxSerializerDefaultAdapter@VNpArticulationJointReducedCoordinate@physx@@@physx@@UEBAPEAVPxBase@2@AEAPEAEAEAVPxDeserializationContext@2@@Z 000000018007c2a0 f i NpSerializerAdapter.obj
 0001:0007b2b0       ?createObject@?$PxSerializerDefaultAdapter@VNpArticulationLink@physx@@@physx@@UEBAPEAVPxBase@2@AEAPEAEAEAVPxDeserializationContext@2@@Z 000000018007c2b0 f i NpSerializerAdapter.obj
 0001:0007b2c0       ?createObject@?$PxSerializerDefaultAdapter@VNpArticulationReducedCoordinate@physx@@@physx@@UEBAPEAVPxBase@2@AEAPEAEAEAVPxDeserializationContext@2@@Z 000000018007c2c0 f i NpSerializerAdapter.obj
 0001:0007b2d0       ?createObject@?$PxSerializerDefaultAdapter@VNpArticulationSensor@physx@@@physx@@UEBAPEAVPxBase@2@AEAPEAEAEAVPxDeserializationContext@2@@Z 000000018007c2d0 f i NpSerializerAdapter.obj
 0001:0007b2e0       ?createObject@?$PxSerializerDefaultAdapter@VNpArticulationSpatialTendon@physx@@@physx@@UEBAPEAVPxBase@2@AEAPEAEAEAVPxDeserializationContext@2@@Z 000000018007c2e0 f i NpSerializerAdapter.obj
 0001:0007b2f0       ?createObject@?$PxSerializerDefaultAdapter@VNpArticulationTendonJoint@physx@@@physx@@UEBAPEAVPxBase@2@AEAPEAEAEAVPxDeserializationContext@2@@Z 000000018007c2f0 f i NpSerializerAdapter.obj
 0001:0007b300       ?createObject@?$PxSerializerDefaultAdapter@VNpConstraint@physx@@@physx@@UEBAPEAVPxBase@2@AEAPEAEAEAVPxDeserializationContext@2@@Z 000000018007c300 f i NpSerializerAdapter.obj
 0001:0007b310       ?createObject@?$PxSerializerDefaultAdapter@VNpMaterial@physx@@@physx@@UEBAPEAVPxBase@2@AEAPEAEAEAVPxDeserializationContext@2@@Z 000000018007c310 f i NpSerializerAdapter.obj
 0001:0007b320       ?createObject@?$PxSerializerDefaultAdapter@VNpRigidDynamic@physx@@@physx@@UEBAPEAVPxBase@2@AEAPEAEAEAVPxDeserializationContext@2@@Z 000000018007c320 f i NpSerializerAdapter.obj
 0001:0007b330       ?createObject@?$PxSerializerDefaultAdapter@VNpRigidStatic@physx@@@physx@@UEBAPEAVPxBase@2@AEAPEAEAEAVPxDeserializationContext@2@@Z 000000018007c330 f i NpSerializerAdapter.obj
 0001:0007b340       ?createObject@?$PxSerializerDefaultAdapter@VNpShape@physx@@@physx@@UEBAPEAVPxBase@2@AEAPEAEAEAVPxDeserializationContext@2@@Z 000000018007c340 f i NpSerializerAdapter.obj
 0001:0007b350       ?createObject@?$PxSerializerDefaultAdapter@VPruningStructure@Sq@physx@@@physx@@UEBAPEAVPxBase@2@AEAPEAEAEAVPxDeserializationContext@2@@Z 000000018007c350 f i NpSerializerAdapter.obj
 0001:0007b360       ?createObject@?$PxSerializerDefaultAdapter@VRTreeTriangleMesh@Gu@physx@@@physx@@UEBAPEAVPxBase@2@AEAPEAEAEAVPxDeserializationContext@2@@Z 000000018007c360 f i NpSerializerAdapter.obj
 0001:0007b370       ?exportData@?$PxSerializerDefaultAdapter@VBV4TriangleMesh@Gu@physx@@@physx@@UEBAXAEAVPxBase@2@AEAVPxSerializationContext@2@@Z 000000018007c370 f i NpSerializerAdapter.obj
 0001:0007b480       ?exportData@?$PxSerializerDefaultAdapter@VConvexMesh@Gu@physx@@@physx@@UEBAXAEAVPxBase@2@AEAVPxSerializationContext@2@@Z 000000018007c480 f i NpSerializerAdapter.obj
 0001:0007b570       ?exportData@?$PxSerializerDefaultAdapter@VHeightField@Gu@physx@@@physx@@UEBAXAEAVPxBase@2@AEAVPxSerializationContext@2@@Z 000000018007c570 f i NpSerializerAdapter.obj
 0001:0007b640       ?exportData@?$PxSerializerDefaultAdapter@VNpAggregate@physx@@@physx@@UEBAXAEAVPxBase@2@AEAVPxSerializationContext@2@@Z 000000018007c640 f i NpSerializerAdapter.obj
 0001:0007b6f0       ?exportData@?$PxSerializerDefaultAdapter@VNpArticulationAttachment@physx@@@physx@@UEBAXAEAVPxBase@2@AEAVPxSerializationContext@2@@Z 000000018007c6f0 f i NpSerializerAdapter.obj
 0001:0007b7f0       ?exportData@?$PxSerializerDefaultAdapter@VNpArticulationFixedTendon@physx@@@physx@@UEBAXAEAVPxBase@2@AEAVPxSerializationContext@2@@Z 000000018007c7f0 f i NpSerializerAdapter.obj
 0001:0007b8d0       ?exportData@?$PxSerializerDefaultAdapter@VNpArticulationJointReducedCoordinate@physx@@@physx@@UEBAXAEAVPxBase@2@AEAVPxSerializationContext@2@@Z 000000018007c8d0 f i NpSerializerAdapter.obj
 0001:0007b9d0       ?exportData@?$PxSerializerDefaultAdapter@VNpArticulationLink@physx@@@physx@@UEBAXAEAVPxBase@2@AEAVPxSerializationContext@2@@Z 000000018007c9d0 f i NpSerializerAdapter.obj
 0001:0007bb10       ?exportData@?$PxSerializerDefaultAdapter@VNpArticulationReducedCoordinate@physx@@@physx@@UEBAXAEAVPxBase@2@AEAVPxSerializationContext@2@@Z 000000018007cb10 f i NpSerializerAdapter.obj
 0001:0007bc20       ?exportData@?$PxSerializerDefaultAdapter@VNpArticulationSensor@physx@@@physx@@UEBAXAEAVPxBase@2@AEAVPxSerializationContext@2@@Z 000000018007cc20 f i NpSerializerAdapter.obj
 0001:0007bcd0       ?exportData@?$PxSerializerDefaultAdapter@VNpArticulationSpatialTendon@physx@@@physx@@UEBAXAEAVPxBase@2@AEAVPxSerializationContext@2@@Z 000000018007ccd0 f i NpSerializerAdapter.obj
 0001:0007bcd0       ?exportData@?$PxSerializerDefaultAdapter@VNpConstraint@physx@@@physx@@UEBAXAEAVPxBase@2@AEAVPxSerializationContext@2@@Z 000000018007ccd0 f i NpSerializerAdapter.obj
 0001:0007bda0       ?exportData@?$PxSerializerDefaultAdapter@VNpArticulationTendonJoint@physx@@@physx@@UEBAXAEAVPxBase@2@AEAVPxSerializationContext@2@@Z 000000018007cda0 f i NpSerializerAdapter.obj
 0001:0007be90       ?exportData@?$PxSerializerDefaultAdapter@VNpMaterial@physx@@@physx@@UEBAXAEAVPxBase@2@AEAVPxSerializationContext@2@@Z 000000018007ce90 f i NpSerializerAdapter.obj
 0001:0007bf40       ?exportData@?$PxSerializerDefaultAdapter@VNpRigidDynamic@physx@@@physx@@UEBAXAEAVPxBase@2@AEAVPxSerializationContext@2@@Z 000000018007cf40 f i NpSerializerAdapter.obj
 0001:0007c030       ?exportData@?$PxSerializerDefaultAdapter@VNpRigidStatic@physx@@@physx@@UEBAXAEAVPxBase@2@AEAVPxSerializationContext@2@@Z 000000018007d030 f i NpSerializerAdapter.obj
 0001:0007c120       ?exportData@?$PxSerializerDefaultAdapter@VNpShape@physx@@@physx@@UEBAXAEAVPxBase@2@AEAVPxSerializationContext@2@@Z 000000018007d120 f i NpSerializerAdapter.obj
 0001:0007c230       ?exportData@?$PxSerializerDefaultAdapter@VPruningStructure@Sq@physx@@@physx@@UEBAXAEAVPxBase@2@AEAVPxSerializationContext@2@@Z 000000018007d230 f i NpSerializerAdapter.obj
 0001:0007c2f0       ?exportData@?$PxSerializerDefaultAdapter@VRTreeTriangleMesh@Gu@physx@@@physx@@UEBAXAEAVPxBase@2@AEAVPxSerializationContext@2@@Z 000000018007d2f0 f i NpSerializerAdapter.obj
 0001:0007c3f0       ?exportExtraData@?$PxSerializerDefaultAdapter@VBV4TriangleMesh@Gu@physx@@@physx@@UEBAXAEAVPxBase@2@AEAVPxSerializationContext@2@@Z 000000018007d3f0 f i NpSerializerAdapter.obj
 0001:0007c3f0       ?exportExtraData@?$PxSerializerDefaultAdapter@VRTreeTriangleMesh@Gu@physx@@@physx@@UEBAXAEAVPxBase@2@AEAVPxSerializationContext@2@@Z 000000018007d3f0 f i NpSerializerAdapter.obj
 0001:0007c400       ?exportExtraData@?$PxSerializerDefaultAdapter@VNpArticulationAttachment@physx@@@physx@@UEBAXAEAVPxBase@2@AEAVPxSerializationContext@2@@Z 000000018007d400 f i NpSerializerAdapter.obj
 0001:0007c400       ?exportExtraData@?$PxSerializerDefaultAdapter@VNpArticulationSpatialTendon@physx@@@physx@@UEBAXAEAVPxBase@2@AEAVPxSerializationContext@2@@Z 000000018007d400 f i NpSerializerAdapter.obj
 0001:0007c400       ?exportExtraData@?$PxSerializerDefaultAdapter@VConvexMesh@Gu@physx@@@physx@@UEBAXAEAVPxBase@2@AEAVPxSerializationContext@2@@Z 000000018007d400 f i NpSerializerAdapter.obj
 0001:0007c410       ?exportExtraData@?$PxSerializerDefaultAdapter@VHeightField@Gu@physx@@@physx@@UEBAXAEAVPxBase@2@AEAVPxSerializationContext@2@@Z 000000018007d410 f i NpSerializerAdapter.obj
 0001:0007c410       ?exportExtraData@?$PxSerializerDefaultAdapter@VNpArticulationFixedTendon@physx@@@physx@@UEBAXAEAVPxBase@2@AEAVPxSerializationContext@2@@Z 000000018007d410 f i NpSerializerAdapter.obj
 0001:0007c420       ?exportExtraData@?$PxSerializerDefaultAdapter@VNpAggregate@physx@@@physx@@UEBAXAEAVPxBase@2@AEAVPxSerializationContext@2@@Z 000000018007d420 f i NpSerializerAdapter.obj
 0001:0007c430       ?exportExtraData@?$PxSerializerDefaultAdapter@VNpArticulationLink@physx@@@physx@@UEBAXAEAVPxBase@2@AEAVPxSerializationContext@2@@Z 000000018007d430 f i NpSerializerAdapter.obj
 0001:0007c440       ?requiresObjects@?$PxSerializerDefaultAdapter@VNpArticulationLink@physx@@@physx@@UEBAXAEAVPxBase@2@AEAVPxProcessPxBaseCallback@2@@Z 000000018007d440 f i NpSerializerAdapter.obj
 0001:0007c440       ?exportExtraData@?$PxSerializerDefaultAdapter@VNpArticulationReducedCoordinate@physx@@@physx@@UEBAXAEAVPxBase@2@AEAVPxSerializationContext@2@@Z 000000018007d440 f i NpSerializerAdapter.obj
 0001:0007c450       ?exportExtraData@?$PxSerializerDefaultAdapter@VNpArticulationSensor@physx@@@physx@@UEBAXAEAVPxBase@2@AEAVPxSerializationContext@2@@Z 000000018007d450 f i NpSerializerAdapter.obj
 0001:0007c460       ?requiresObjects@?$PxSerializerDefaultAdapter@VPruningStructure@Sq@physx@@@physx@@UEBAXAEAVPxBase@2@AEAVPxProcessPxBaseCallback@2@@Z 000000018007d460 f i NpSerializerAdapter.obj
 0001:0007c460       ?exportExtraData@?$PxSerializerDefaultAdapter@VNpArticulationTendonJoint@physx@@@physx@@UEBAXAEAVPxBase@2@AEAVPxSerializationContext@2@@Z 000000018007d460 f i NpSerializerAdapter.obj
 0001:0007c470       ?exportExtraData@?$PxSerializerDefaultAdapter@VNpRigidDynamic@physx@@@physx@@UEBAXAEAVPxBase@2@AEAVPxSerializationContext@2@@Z 000000018007d470 f i NpSerializerAdapter.obj
 0001:0007c480       ?exportExtraData@?$PxSerializerDefaultAdapter@VNpRigidStatic@physx@@@physx@@UEBAXAEAVPxBase@2@AEAVPxSerializationContext@2@@Z 000000018007d480 f i NpSerializerAdapter.obj
 0001:0007c490       ?exportExtraData@?$PxSerializerDefaultAdapter@VNpShape@physx@@@physx@@UEBAXAEAVPxBase@2@AEAVPxSerializationContext@2@@Z 000000018007d490 f i NpSerializerAdapter.obj
 0001:0007c4a0       ?exportExtraData@?$PxSerializerDefaultAdapter@VPruningStructure@Sq@physx@@@physx@@UEBAXAEAVPxBase@2@AEAVPxSerializationContext@2@@Z 000000018007d4a0 f i NpSerializerAdapter.obj
 0001:0007c4b0       ?getClassSize@?$PxSerializerDefaultAdapter@VBV4TriangleMesh@Gu@physx@@@physx@@UEBA_KXZ 000000018007d4b0 f i NpSerializerAdapter.obj
 0001:0007c4c0       ?getClassSize@?$PxSerializerDefaultAdapter@VNpArticulationTendonJoint@physx@@@physx@@UEBA_KXZ 000000018007d4c0 f i NpSerializerAdapter.obj
 0001:0007c4c0       ?getClassSize@?$PxSerializerDefaultAdapter@VConvexMesh@Gu@physx@@@physx@@UEBA_KXZ 000000018007d4c0 f i NpSerializerAdapter.obj
 0001:0007c4d0       ?getClassSize@?$PxSerializerDefaultAdapter@VHeightField@Gu@physx@@@physx@@UEBA_KXZ 000000018007d4d0 f i NpSerializerAdapter.obj
 0001:0007c4e0       ?getClassSize@?$PxSerializerDefaultAdapter@VNpAggregate@physx@@@physx@@UEBA_KXZ 000000018007d4e0 f i NpSerializerAdapter.obj
 0001:0007c4f0       ?getClassSize@?$PxSerializerDefaultAdapter@VNpArticulationAttachment@physx@@@physx@@UEBA_KXZ 000000018007d4f0 f i NpSerializerAdapter.obj
 0001:0007c500       ?getClassSize@?$PxSerializerDefaultAdapter@VNpArticulationFixedTendon@physx@@@physx@@UEBA_KXZ 000000018007d500 f i NpSerializerAdapter.obj
 0001:0007c510       ?getClassSize@?$PxSerializerDefaultAdapter@VNpArticulationJointReducedCoordinate@physx@@@physx@@UEBA_KXZ 000000018007d510 f i NpSerializerAdapter.obj
 0001:0007c520       ?getClassSize@?$PxSerializerDefaultAdapter@VNpArticulationLink@physx@@@physx@@UEBA_KXZ 000000018007d520 f i NpSerializerAdapter.obj
 0001:0007c530       ?getClassSize@?$PxSerializerDefaultAdapter@VNpArticulationReducedCoordinate@physx@@@physx@@UEBA_KXZ 000000018007d530 f i NpSerializerAdapter.obj
 0001:0007c540       ?getClassSize@?$PxSerializerDefaultAdapter@VNpArticulationSensor@physx@@@physx@@UEBA_KXZ 000000018007d540 f i NpSerializerAdapter.obj
 0001:0007c550       ?getClassSize@?$PxSerializerDefaultAdapter@VNpArticulationSpatialTendon@physx@@@physx@@UEBA_KXZ 000000018007d550 f i NpSerializerAdapter.obj
 0001:0007c550       ?getClassSize@?$PxSerializerDefaultAdapter@VNpConstraint@physx@@@physx@@UEBA_KXZ 000000018007d550 f i NpSerializerAdapter.obj
 0001:0007c560       ?getClassSize@?$PxSerializerDefaultAdapter@VNpMaterial@physx@@@physx@@UEBA_KXZ 000000018007d560 f i NpSerializerAdapter.obj
 0001:0007c570       ?getClassSize@?$PxSerializerDefaultAdapter@VNpRigidDynamic@physx@@@physx@@UEBA_KXZ 000000018007d570 f i NpSerializerAdapter.obj
 0001:0007c580       ?getClassSize@?$PxSerializerDefaultAdapter@VNpRigidStatic@physx@@@physx@@UEBA_KXZ 000000018007d580 f i NpSerializerAdapter.obj
 0001:0007c590       ?getClassSize@?$PxSerializerDefaultAdapter@VNpShape@physx@@@physx@@UEBA_KXZ 000000018007d590 f i NpSerializerAdapter.obj
 0001:0007c5a0       ?getClassSize@?$PxSerializerDefaultAdapter@VPruningStructure@Sq@physx@@@physx@@UEBA_KXZ 000000018007d5a0 f i NpSerializerAdapter.obj
 0001:0007c5b0       ?getClassSize@?$PxSerializerDefaultAdapter@VRTreeTriangleMesh@Gu@physx@@@physx@@UEBA_KXZ 000000018007d5b0 f i NpSerializerAdapter.obj
 0001:0007c5c0       ?process@RequiresCallback@?1??registerReferences@?$PxSerializerDefaultAdapter@VConvexMesh@Gu@physx@@@physx@@UEBAXAEAVPxBase@4@AEAVPxSerializationContext@4@@Z@UEAAX0@Z 000000018007d5c0 f i NpSerializerAdapter.obj
 0001:0007c5c0       ?process@RequiresCallback@?1??registerReferences@?$PxSerializerDefaultAdapter@VNpArticulationSpatialTendon@physx@@@physx@@UEBAXAEAVPxBase@4@AEAVPxSerializationContext@4@@Z@UEAAX0@Z 000000018007d5c0 f i NpSerializerAdapter.obj
 0001:0007c5c0       ?process@RequiresCallback@?1??registerReferences@?$PxSerializerDefaultAdapter@VHeightField@Gu@physx@@@physx@@UEBAXAEAVPxBase@4@AEAVPxSerializationContext@4@@Z@UEAAX0@Z 000000018007d5c0 f i NpSerializerAdapter.obj
 0001:0007c5c0       ?process@RequiresCallback@?1??registerReferences@?$PxSerializerDefaultAdapter@VPruningStructure@Sq@physx@@@physx@@UEBAXAEAVPxBase@4@AEAVPxSerializationContext@4@@Z@UEAAX0@Z 000000018007d5c0 f i NpSerializerAdapter.obj
 0001:0007c5c0       ?process@RequiresCallback@?1??registerReferences@?$PxSerializerDefaultAdapter@VNpArticulationTendonJoint@physx@@@physx@@UEBAXAEAVPxBase@4@AEAVPxSerializationContext@4@@Z@UEAAX0@Z 000000018007d5c0 f i NpSerializerAdapter.obj
 0001:0007c5c0       ?process@RequiresCallback@?1??registerReferences@?$PxSerializerDefaultAdapter@VNpRigidDynamic@physx@@@physx@@UEBAXAEAVPxBase@4@AEAVPxSerializationContext@4@@Z@UEAAX0@Z 000000018007d5c0 f i NpSerializerAdapter.obj
 0001:0007c5c0       ?process@RequiresCallback@?1??registerReferences@?$PxSerializerDefaultAdapter@VNpAggregate@physx@@@physx@@UEBAXAEAVPxBase@4@AEAVPxSerializationContext@4@@Z@UEAAX0@Z 000000018007d5c0 f i NpSerializerAdapter.obj
 0001:0007c5c0       ?process@RequiresCallback@?1??registerReferences@?$PxSerializerDefaultAdapter@VNpArticulationAttachment@physx@@@physx@@UEBAXAEAVPxBase@4@AEAVPxSerializationContext@4@@Z@UEAAX0@Z 000000018007d5c0 f i NpSerializerAdapter.obj
 0001:0007c5c0       ?process@RequiresCallback@?1??registerReferences@?$PxSerializerDefaultAdapter@VNpArticulationReducedCoordinate@physx@@@physx@@UEBAXAEAVPxBase@4@AEAVPxSerializationContext@4@@Z@UEAAX0@Z 000000018007d5c0 f i NpSerializerAdapter.obj
 0001:0007c5c0       ?process@RequiresCallback@?1??registerReferences@?$PxSerializerDefaultAdapter@VNpArticulationLink@physx@@@physx@@UEBAXAEAVPxBase@4@AEAVPxSerializationContext@4@@Z@UEAAX0@Z 000000018007d5c0 f i NpSerializerAdapter.obj
 0001:0007c5c0       ?process@RequiresCallback@?1??registerReferences@?$PxSerializerDefaultAdapter@VNpArticulationSensor@physx@@@physx@@UEBAXAEAVPxBase@4@AEAVPxSerializationContext@4@@Z@UEAAX0@Z 000000018007d5c0 f i NpSerializerAdapter.obj
 0001:0007c5c0       ?process@RequiresCallback@?1??registerReferences@?$PxSerializerDefaultAdapter@VNpRigidStatic@physx@@@physx@@UEBAXAEAVPxBase@4@AEAVPxSerializationContext@4@@Z@UEAAX0@Z 000000018007d5c0 f i NpSerializerAdapter.obj
 0001:0007c5c0       ?process@RequiresCallback@?1??registerReferences@?$PxSerializerDefaultAdapter@VBV4TriangleMesh@Gu@physx@@@physx@@UEBAXAEAVPxBase@4@AEAVPxSerializationContext@4@@Z@UEAAX0@Z 000000018007d5c0 f i NpSerializerAdapter.obj
 0001:0007c5c0       ?process@RequiresCallback@?1??registerReferences@?$PxSerializerDefaultAdapter@VNpConstraint@physx@@@physx@@UEBAXAEAVPxBase@4@AEAVPxSerializationContext@4@@Z@UEAAX0@Z 000000018007d5c0 f i NpSerializerAdapter.obj
 0001:0007c5c0       ?process@RequiresCallback@?1??registerReferences@?$PxSerializerDefaultAdapter@VNpArticulationFixedTendon@physx@@@physx@@UEBAXAEAVPxBase@4@AEAVPxSerializationContext@4@@Z@UEAAX0@Z 000000018007d5c0 f i NpSerializerAdapter.obj
 0001:0007c5c0       ?process@RequiresCallback@?1??registerReferences@?$PxSerializerDefaultAdapter@VRTreeTriangleMesh@Gu@physx@@@physx@@UEBAXAEAVPxBase@4@AEAVPxSerializationContext@4@@Z@UEAAX0@Z 000000018007d5c0 f i NpSerializerAdapter.obj
 0001:0007c5c0       ?process@RequiresCallback@?1??registerReferences@?$PxSerializerDefaultAdapter@VNpArticulationJointReducedCoordinate@physx@@@physx@@UEBAXAEAVPxBase@4@AEAVPxSerializationContext@4@@Z@UEAAX0@Z 000000018007d5c0 f i NpSerializerAdapter.obj
 0001:0007c5e0       ?process@RequiresCallback@?1??registerReferences@?$PxSerializerDefaultAdapter@VNpShape@physx@@@physx@@UEBAXAEAVPxBase@4@AEAVPxSerializationContext@4@@Z@UEAAX0@Z 000000018007d5e0 f i NpSerializerAdapter.obj
 0001:0007c620       ?registerReferences@?$PxSerializerDefaultAdapter@VRTreeTriangleMesh@Gu@physx@@@physx@@UEBAXAEAVPxBase@2@AEAVPxSerializationContext@2@@Z 000000018007d620 f i NpSerializerAdapter.obj
 0001:0007c620       ?registerReferences@?$PxSerializerDefaultAdapter@VBV4TriangleMesh@Gu@physx@@@physx@@UEBAXAEAVPxBase@2@AEAVPxSerializationContext@2@@Z 000000018007d620 f i NpSerializerAdapter.obj
 0001:0007c670       ?registerReferences@?$PxSerializerDefaultAdapter@VConvexMesh@Gu@physx@@@physx@@UEBAXAEAVPxBase@2@AEAVPxSerializationContext@2@@Z 000000018007d670 f i NpSerializerAdapter.obj
 0001:0007c670       ?registerReferences@?$PxSerializerDefaultAdapter@VNpArticulationSpatialTendon@physx@@@physx@@UEBAXAEAVPxBase@2@AEAVPxSerializationContext@2@@Z 000000018007d670 f i NpSerializerAdapter.obj
 0001:0007c670       ?registerReferences@?$PxSerializerDefaultAdapter@VNpArticulationAttachment@physx@@@physx@@UEBAXAEAVPxBase@2@AEAVPxSerializationContext@2@@Z 000000018007d670 f i NpSerializerAdapter.obj
 0001:0007c6c0       ?registerReferences@?$PxSerializerDefaultAdapter@VNpArticulationFixedTendon@physx@@@physx@@UEBAXAEAVPxBase@2@AEAVPxSerializationContext@2@@Z 000000018007d6c0 f i NpSerializerAdapter.obj
 0001:0007c6c0       ?registerReferences@?$PxSerializerDefaultAdapter@VHeightField@Gu@physx@@@physx@@UEBAXAEAVPxBase@2@AEAVPxSerializationContext@2@@Z 000000018007d6c0 f i NpSerializerAdapter.obj
 0001:0007c710       ?registerReferences@?$PxSerializerDefaultAdapter@VNpAggregate@physx@@@physx@@UEBAXAEAVPxBase@2@AEAVPxSerializationContext@2@@Z 000000018007d710 f i NpSerializerAdapter.obj
 0001:0007c760       ?registerReferences@?$PxSerializerDefaultAdapter@VNpArticulationJointReducedCoordinate@physx@@@physx@@UEBAXAEAVPxBase@2@AEAVPxSerializationContext@2@@Z 000000018007d760 f i NpSerializerAdapter.obj
 0001:0007c7b0       ?registerReferences@?$PxSerializerDefaultAdapter@VNpArticulationLink@physx@@@physx@@UEBAXAEAVPxBase@2@AEAVPxSerializationContext@2@@Z 000000018007d7b0 f i NpSerializerAdapter.obj
 0001:0007c800       ?registerReferences@?$PxSerializerDefaultAdapter@VNpArticulationReducedCoordinate@physx@@@physx@@UEBAXAEAVPxBase@2@AEAVPxSerializationContext@2@@Z 000000018007d800 f i NpSerializerAdapter.obj
 0001:0007c850       ?registerReferences@?$PxSerializerDefaultAdapter@VNpArticulationSensor@physx@@@physx@@UEBAXAEAVPxBase@2@AEAVPxSerializationContext@2@@Z 000000018007d850 f i NpSerializerAdapter.obj
 0001:0007c8a0       ?registerReferences@?$PxSerializerDefaultAdapter@VNpArticulationTendonJoint@physx@@@physx@@UEBAXAEAVPxBase@2@AEAVPxSerializationContext@2@@Z 000000018007d8a0 f i NpSerializerAdapter.obj
 0001:0007c8f0       ?registerReferences@?$PxSerializerDefaultAdapter@VNpConstraint@physx@@@physx@@UEBAXAEAVPxBase@2@AEAVPxSerializationContext@2@@Z 000000018007d8f0 f i NpSerializerAdapter.obj
 0001:0007c940       ?registerReferences@?$PxSerializerDefaultAdapter@VNpMaterial@physx@@@physx@@UEBAXAEAVPxBase@2@AEAVPxSerializationContext@2@@Z 000000018007d940 f i NpSerializerAdapter.obj
 0001:0007c990       ?registerReferences@?$PxSerializerDefaultAdapter@VNpRigidDynamic@physx@@@physx@@UEBAXAEAVPxBase@2@AEAVPxSerializationContext@2@@Z 000000018007d990 f i NpSerializerAdapter.obj
 0001:0007c9e0       ?registerReferences@?$PxSerializerDefaultAdapter@VNpRigidStatic@physx@@@physx@@UEBAXAEAVPxBase@2@AEAVPxSerializationContext@2@@Z 000000018007d9e0 f i NpSerializerAdapter.obj
 0001:0007ca30       ?registerReferences@?$PxSerializerDefaultAdapter@VNpShape@physx@@@physx@@UEBAXAEAVPxBase@2@AEAVPxSerializationContext@2@@Z 000000018007da30 f i NpSerializerAdapter.obj
 0001:0007ca80       ?registerReferences@?$PxSerializerDefaultAdapter@VPruningStructure@Sq@physx@@@physx@@UEBAXAEAVPxBase@2@AEAVPxSerializationContext@2@@Z 000000018007da80 f i NpSerializerAdapter.obj
 0001:0007cad0       ?requiresObjects@?$PxSerializerDefaultAdapter@VBV4TriangleMesh@Gu@physx@@@physx@@UEBAXAEAVPxBase@2@AEAVPxProcessPxBaseCallback@2@@Z 000000018007dad0 f i NpSerializerAdapter.obj
 0001:0007cad0       ?requiresObjects@?$PxSerializerDefaultAdapter@VNpMaterial@physx@@@physx@@UEBAXAEAVPxBase@2@AEAVPxProcessPxBaseCallback@2@@Z 000000018007dad0 f i NpSerializerAdapter.obj
 0001:0007cad0       ?requiresObjects@?$PxSerializerDefaultAdapter@VRTreeTriangleMesh@Gu@physx@@@physx@@UEBAXAEAVPxBase@2@AEAVPxProcessPxBaseCallback@2@@Z 000000018007dad0 f i NpSerializerAdapter.obj
 0001:0007cae0       ?requiresObjects@?$PxSerializerDefaultAdapter@VConvexMesh@Gu@physx@@@physx@@UEBAXAEAVPxBase@2@AEAVPxProcessPxBaseCallback@2@@Z 000000018007dae0 f i NpSerializerAdapter.obj
 0001:0007cae0       ?requiresObjects@?$PxSerializerDefaultAdapter@VNpArticulationAttachment@physx@@@physx@@UEBAXAEAVPxBase@2@AEAVPxProcessPxBaseCallback@2@@Z 000000018007dae0 f i NpSerializerAdapter.obj
 0001:0007cae0       ?requiresObjects@?$PxSerializerDefaultAdapter@VNpArticulationSpatialTendon@physx@@@physx@@UEBAXAEAVPxBase@2@AEAVPxProcessPxBaseCallback@2@@Z 000000018007dae0 f i NpSerializerAdapter.obj
 0001:0007caf0       ?requiresObjects@?$PxSerializerDefaultAdapter@VNpArticulationFixedTendon@physx@@@physx@@UEBAXAEAVPxBase@2@AEAVPxProcessPxBaseCallback@2@@Z 000000018007daf0 f i NpSerializerAdapter.obj
 0001:0007caf0       ?requiresObjects@?$PxSerializerDefaultAdapter@VHeightField@Gu@physx@@@physx@@UEBAXAEAVPxBase@2@AEAVPxProcessPxBaseCallback@2@@Z 000000018007daf0 f i NpSerializerAdapter.obj
 0001:0007cb00       ?requiresObjects@?$PxSerializerDefaultAdapter@VNpAggregate@physx@@@physx@@UEBAXAEAVPxBase@2@AEAVPxProcessPxBaseCallback@2@@Z 000000018007db00 f i NpSerializerAdapter.obj
 0001:0007cb10       ?requiresObjects@?$PxSerializerDefaultAdapter@VNpArticulationJointReducedCoordinate@physx@@@physx@@UEBAXAEAVPxBase@2@AEAVPxProcessPxBaseCallback@2@@Z 000000018007db10 f i NpSerializerAdapter.obj
 0001:0007cb20       ?requiresObjects@?$PxSerializerDefaultAdapter@VNpArticulationReducedCoordinate@physx@@@physx@@UEBAXAEAVPxBase@2@AEAVPxProcessPxBaseCallback@2@@Z 000000018007db20 f i NpSerializerAdapter.obj
 0001:0007cb30       ?requiresObjects@?$PxSerializerDefaultAdapter@VNpArticulationSensor@physx@@@physx@@UEBAXAEAVPxBase@2@AEAVPxProcessPxBaseCallback@2@@Z 000000018007db30 f i NpSerializerAdapter.obj
 0001:0007cb40       ?requiresObjects@?$PxSerializerDefaultAdapter@VNpArticulationTendonJoint@physx@@@physx@@UEBAXAEAVPxBase@2@AEAVPxProcessPxBaseCallback@2@@Z 000000018007db40 f i NpSerializerAdapter.obj
 0001:0007cb50       ?requiresObjects@?$PxSerializerDefaultAdapter@VNpConstraint@physx@@@physx@@UEBAXAEAVPxBase@2@AEAVPxProcessPxBaseCallback@2@@Z 000000018007db50 f i NpSerializerAdapter.obj
 0001:0007cb60       ?requiresObjects@?$PxSerializerDefaultAdapter@VNpRigidDynamic@physx@@@physx@@UEBAXAEAVPxBase@2@AEAVPxProcessPxBaseCallback@2@@Z 000000018007db60 f i NpSerializerAdapter.obj
 0001:0007cb70       ?requiresObjects@?$PxSerializerDefaultAdapter@VNpRigidStatic@physx@@@physx@@UEBAXAEAVPxBase@2@AEAVPxProcessPxBaseCallback@2@@Z 000000018007db70 f i NpSerializerAdapter.obj
 0001:0007cb80       ?requiresObjects@?$PxSerializerDefaultAdapter@VNpShape@physx@@@physx@@UEBAXAEAVPxBase@2@AEAVPxProcessPxBaseCallback@2@@Z 000000018007db80 f i NpSerializerAdapter.obj
 0001:0007cb90       PxRegisterPhysicsSerializers 000000018007db90 f   NpSerializerAdapter.obj
 0001:0007d190       PxUnregisterPhysicsSerializers 000000018007e190 f   NpSerializerAdapter.obj
 0001:0007d690       ??$scGetMaterials@VPxFEMSoftBodyMaterial@physx@@VNpFEMSoftBodyMaterial@2@@NpShape@physx@@AEBAIPEAPEAVPxFEMSoftBodyMaterial@1@II@Z 000000018007e690 f i NpShape.obj
 0001:0007d730       ??$scGetMaterials@VPxMaterial@physx@@VNpMaterial@2@@NpShape@physx@@AEBAIPEAPEAVPxMaterial@1@II@Z 000000018007e730 f i NpShape.obj
 0001:0007d7d0       ??$setMaterialsHelper@VPxFEMSoftBodyMaterial@physx@@VNpFEMSoftBodyMaterial@2@@NpShape@physx@@AEAA_NPEBQEAVPxFEMSoftBodyMaterial@1@G@Z 000000018007e7d0 f i NpShape.obj
 0001:0007d930       ??$setMaterialsHelper@VPxMaterial@physx@@VNpMaterial@2@@NpShape@physx@@AEAA_NPEBQEAVPxMaterial@1@G@Z 000000018007e930 f i NpShape.obj
 0001:0007da90       ??$setMaterialsInternal@VPxFEMSoftBodyMaterial@physx@@VNpFEMSoftBodyMaterial@2@@NpShape@physx@@AEAAXPEBQEAVPxFEMSoftBodyMaterial@1@G@Z 000000018007ea90 f i NpShape.obj
 0001:0007dcb0       ??$setMaterialsInternal@VPxMaterial@physx@@VNpMaterial@2@@NpShape@physx@@AEAAXPEBQEAVPxMaterial@1@G@Z 000000018007ecb0 f i NpShape.obj
 0001:0007ded0       ??0NpShape@physx@@QEAA@AEBVPxGeometry@1@V?$PxFlags@W4Enum@PxShapeFlag@physx@@E@1@PEBGG_NW4Enum@PxShapeCoreFlag@1@@Z 000000018007eed0 f   NpShape.obj
 0001:0007dfb0       ??_GNpShape@physx@@UEAAPEAXI@Z 000000018007efb0 f i NpShape.obj
 0001:0007dfb0       ??_ENpShape@physx@@UEAAPEAXI@Z 000000018007efb0 f i NpShape.obj
 0001:0007e140       ?acquireReference@NpMaterial@physx@@UEAAXXZ 000000018007f140 f   NpMaterial.obj
 0001:0007e140       ?acquireReference@NpFEMSoftBodyMaterial@physx@@UEAAXXZ 000000018007f140 f   NpFEMSoftBodyMaterial.obj
 0001:0007e140       ?acquireReference@NpPBDMaterial@physx@@UEAAXXZ 000000018007f140 f   NpPBDMaterial.obj
 0001:0007e140       ?acquireReference@NpShape@physx@@UEAAXXZ 000000018007f140 f   NpShape.obj
 0001:0007e150       ?createObject@NpShape@physx@@SAPEAV12@AEAPEAEAEAVPxDeserializationContext@2@@Z 000000018007f150 f   NpShape.obj
 0001:0007e310       ?exportExtraData@NpShape@physx@@UEAAXAEAVPxSerializationContext@2@@Z 000000018007f310 f   NpShape.obj
 0001:0007e350       ?getActor@NpShape@physx@@UEBAPEAVPxRigidActor@2@XZ 000000018007f350 f   NpShape.obj
 0001:0007e3b0       ?getConcreteTypeName@PxShape@physx@@UEBAPEBDXZ 000000018007f3b0 f i NpShape.obj
 0001:0007e3c0       ?getContactOffset@NpShape@physx@@UEBAMXZ 000000018007f3c0 f   NpShape.obj
 0001:0007e400       ?getDensityForFluid@NpShape@physx@@UEBAMXZ 000000018007f400 f   NpShape.obj
 0001:0007e440       ?getFlags@NpShape@physx@@UEBA?AV?$PxFlags@W4Enum@PxShapeFlag@physx@@E@2@XZ 000000018007f440 f   NpShape.obj
 0001:0007e490       ?getGeometry@NpShape@physx@@UEBAAEBVPxGeometry@2@XZ 000000018007f490 f   NpShape.obj
 0001:0007e4d0       ?getLocalPose@NpShape@physx@@UEBA?AV?$PxTransformT@M@2@XZ 000000018007f4d0 f   NpShape.obj
 0001:0007e540       ?getMaterialFromInternalFaceIndex@NpShape@physx@@UEBAPEAVPxBaseMaterial@2@I@Z 000000018007f540 f   NpShape.obj
 0001:0007e6c0       ?getMaterials@NpShape@physx@@UEBAIPEAPEAVPxMaterial@2@II@Z 000000018007f6c0 f   NpShape.obj
 0001:0007e730       ?getMinTorsionalPatchRadius@NpShape@physx@@UEBAMXZ 000000018007f730 f   NpShape.obj
 0001:0007e780       ?getName@NpShape@physx@@UEBAPEBDXZ 000000018007f780 f   NpShape.obj
 0001:0007e7c0       ?getNbMaterials@NpShape@physx@@UEBAGXZ 000000018007f7c0 f   NpShape.obj
 0001:0007e800       ?getQueryFilterData@NpShape@physx@@UEBA?AUPxFilterData@2@XZ 000000018007f800 f   NpShape.obj
 0001:0007e860       ?getRestOffset@NpShape@physx@@UEBAMXZ 000000018007f860 f   NpShape.obj
 0001:0007e8a0       ?getSimulationFilterData@NpShape@physx@@UEBA?AUPxFilterData@2@XZ 000000018007f8a0 f   NpShape.obj
 0001:0007e900       ?getSoftBodyMaterials@NpShape@physx@@UEBAIPEAPEAVPxFEMSoftBodyMaterial@2@II@Z 000000018007f900 f   NpShape.obj
 0001:0007e970       ?getTorsionalPatchRadius@NpShape@physx@@UEBAMXZ 000000018007f970 f   NpShape.obj
 0001:0007e9c0       ?incMeshRefCount@NpShape@physx@@AEAAXXZ 000000018007f9c0 f   NpShape.obj
 0001:0007ea00       ?isExclusive@NpShape@physx@@UEBA_NXZ 000000018007fa00 f   NpShape.obj
 0001:0007ea40       ?isKindOf@PxShape@physx@@MEBA_NPEBD@Z 000000018007fa40 f i NpShape.obj
 0001:0007ead0       ?notifyActorAndUpdatePVD@NpShape@physx@@AEAAXV?$PxFlags@W4Enum@ShapeChangeNotifyFlag@Sc@physx@@I@2@@Z 000000018007fad0 f   NpShape.obj
 0001:0007ebd0       ?onActorAttach@NpShape@physx@@QEAAXAEAVPxActor@2@@Z 000000018007fbd0 f   NpShape.obj
 0001:0007ec10       ?onActorDetach@NpShape@physx@@QEAAXXZ 000000018007fc10 f   NpShape.obj
 0001:0007ec60       ?onRefCountZero@NpShape@physx@@UEAAXXZ 000000018007fc60 f   NpShape.obj
 0001:0007ec90       ?preExportDataReset@NpShape@physx@@QEAAXXZ 000000018007fc90 f   NpShape.obj
 0001:0007eca0       ?release@NpShape@physx@@UEAAXXZ 000000018007fca0 f   NpShape.obj
 0001:0007ed40       ?release@NpPBDMaterial@physx@@UEAAXXZ 000000018007fd40 f   NpPBDMaterial.obj
 0001:0007ed40       ?release@NpMaterial@physx@@UEAAXXZ 000000018007fd40 f   NpMaterial.obj
 0001:0007ed40       ?releaseInternal@NpShape@physx@@QEAAXXZ 000000018007fd40 f   NpShape.obj
 0001:0007ed40       ?release@NpFEMSoftBodyMaterial@physx@@UEAAXXZ 000000018007fd40 f   NpFEMSoftBodyMaterial.obj
 0001:0007ed70       ?requiresObjects@NpShape@physx@@UEAAXAEAVPxProcessPxBaseCallback@2@@Z 000000018007fd70 f   NpShape.obj
 0001:0007ee30       ?setContactOffset@NpShape@physx@@UEAAXM@Z 000000018007fe30 f   NpShape.obj
 0001:0007ef80       ?setDensityForFluid@NpShape@physx@@UEAAXM@Z 000000018007ff80 f   NpShape.obj
 0001:0007f0a0       ?setFlag@NpShape@physx@@UEAAXW4Enum@PxShapeFlag@2@_N@Z 00000001800800a0 f   NpShape.obj
 0001:0007f220       ?setFlags@NpShape@physx@@UEAAXV?$PxFlags@W4Enum@PxShapeFlag@physx@@E@2@@Z 0000000180080220 f   NpShape.obj
 0001:0007f360       ?setFlagsInternal@NpShape@physx@@AEAAXV?$PxFlags@W4Enum@PxShapeFlag@physx@@E@2@@Z 0000000180080360 f   NpShape.obj
 0001:0007f5b0       ?setGeometry@NpShape@physx@@UEAAXAEBVPxGeometry@2@@Z 00000001800805b0 f   NpShape.obj
 0001:0007f840       ?setLocalPose@NpShape@physx@@UEAAXAEBV?$PxTransformT@M@2@@Z 0000000180080840 f   NpShape.obj
 0001:0007fb30       ?setMaterials@NpShape@physx@@UEAAXPEBQEAVPxMaterial@2@G@Z 0000000180080b30 f   NpShape.obj
 0001:0007fb90       ?setMinTorsionalPatchRadius@NpShape@physx@@UEAAXM@Z 0000000180080b90 f   NpShape.obj
 0001:0007fcc0       ?setName@NpShape@physx@@UEAAXPEBD@Z 0000000180080cc0 f   NpShape.obj
 0001:0007fd60       ?setQueryFilterData@NpShape@physx@@UEAAXAEBUPxFilterData@2@@Z 0000000180080d60 f   NpShape.obj
 0001:0007fe90       ?setRestOffset@NpShape@physx@@UEAAXM@Z 0000000180080e90 f   NpShape.obj
 0001:0007ffe0       ?setSimulationFilterData@NpShape@physx@@UEAAXAEBUPxFilterData@2@@Z 0000000180080fe0 f   NpShape.obj
 0001:00080100       ?setSoftBodyMaterials@NpShape@physx@@UEAAXPEBQEAVPxFEMSoftBodyMaterial@2@G@Z 0000000180081100 f   NpShape.obj
 0001:00080160       ?setTorsionalPatchRadius@NpShape@physx@@UEAAXM@Z 0000000180081160 f   NpShape.obj
 0001:00080290       ?updateSQ@NpShape@physx@@AEAAXPEBD@Z 0000000180081290 f   NpShape.obj
 0001:00080340       ??0NpShapeManager@physx@@QEAA@W4PxEMPTY@1@@Z 0000000180081340 f   NpShapeManager.obj
 0001:00080360       ??0NpShapeManager@physx@@QEAA@XZ 0000000180081360 f   NpShapeManager.obj
 0001:00080390       ??1NpShapeManager@physx@@QEAA@XZ 0000000180081390 f   NpShapeManager.obj
 0001:000803c0       ?addBVHShapes@NpShapeManager@physx@@AEAAXAEAVPxSceneQuerySystem@2@AEBVPxRigidActor@2@AEBVBVH@Gu@2@@Z 00000001800813c0 f   NpShapeManager.obj
 0001:00080710       ?attachShape@NpShapeManager@physx@@QEAAXAEAVNpShape@2@AEAVPxRigidActor@2@@Z 0000000180081710 f   NpShapeManager.obj
 0001:00080850       ?clearShapesOnRelease@NpShapeManager@physx@@QEAAXAEAVNpScene@2@AEAVPxRigidActor@2@@Z 0000000180081850 f   NpShapeManager.obj
 0001:000808c0       ?detachAll@NpShapeManager@physx@@QEAAXPEAVPxSceneQuerySystem@2@AEBVPxRigidActor@2@@Z 00000001800818c0 f   NpShapeManager.obj
 0001:000809b0       ?detachShape@NpShapeManager@physx@@QEAA_NAEAVNpShape@2@AEAVPxRigidActor@2@_N@Z 00000001800819b0 f   NpShapeManager.obj
 0001:00080b80       ?exportExtraData@NpShapeManager@physx@@QEAAXAEAVPxSerializationContext@2@@Z 0000000180081b80 f   NpShapeManager.obj
 0001:00080fa0       ?getShapes@NpShapeManager@physx@@QEBAIPEAPEAVPxShape@2@II@Z 0000000180081fa0 f   NpShapeManager.obj
 0001:00081000       ?getWorldBounds_@NpShapeManager@physx@@QEBA?AVPxBounds3@2@AEBVPxRigidActor@2@@Z 0000000180082000 f   NpShapeManager.obj
 0001:000813e0       ?importExtraData@NpShapeManager@physx@@QEAAXAEAVPxDeserializationContext@2@@Z 00000001800823e0 f   NpShapeManager.obj
 0001:000813f0       ?markActorForSQUpdate@NpShapeManager@physx@@QEAAXAEAVPxSceneQuerySystem@2@AEBVPxRigidActor@2@@Z 00000001800823f0 f   NpShapeManager.obj
 0001:000814e0       ?markShapeForSQUpdate@NpShapeManager@physx@@QEAAXAEAVPxSceneQuerySystem@2@AEBVPxShape@2@AEBVPxRigidActor@2@@Z 00000001800824e0 f   NpShapeManager.obj
 0001:00081580       ?setupAllSceneQuery@NpShapeManager@physx@@QEAAXAEAVPxSceneQuerySystem@2@AEBVNpActor@2@AEBVPxRigidActor@2@PEBVPruningStructure@Sq@2@PEBVPxBounds3@2@_N@Z 0000000180082580 f   NpShapeManager.obj
 0001:00081660       ?setupAllSceneQuery@NpShapeManager@physx@@QEAAXAEAVPxSceneQuerySystem@2@AEBVPxRigidActor@2@PEBVPruningStructure@Sq@2@PEBVPxBounds3@2@PEBVBVH@Gu@2@@Z 0000000180082660 f   NpShapeManager.obj
 0001:00081780       ?setupSQShape@NpShapeManager@physx@@QEAAXAEAVPxSceneQuerySystem@2@AEBVNpShape@2@AEBVNpActor@2@AEBVPxRigidActor@2@_NPEBVPxBounds3@2@PEBVPruningStructure@Sq@2@@Z 0000000180082780 f   NpShapeManager.obj
 0001:000818f0       ?setupSceneQuery@NpShapeManager@physx@@QEAAXAEAVPxSceneQuerySystem@2@AEBVNpActor@2@AEBVPxRigidActor@2@AEBVNpShape@2@@Z 00000001800828f0 f   NpShapeManager.obj
 0001:00081900       ?setupSceneQuery_@NpShapeManager@physx@@AEAAXAEAVPxSceneQuerySystem@2@AEBVNpActor@2@AEBVPxRigidActor@2@AEBVNpShape@2@@Z 0000000180082900 f   NpShapeManager.obj
 0001:00081a10       ?teardownAllSceneQuery@NpShapeManager@physx@@QEAAXAEAVPxSceneQuerySystem@2@AEBVPxRigidActor@2@@Z 0000000180082a10 f   NpShapeManager.obj
 0001:00081aa0       ?teardownSceneQuery@NpShapeManager@physx@@QEAAXAEAVPxSceneQuerySystem@2@AEBVPxRigidActor@2@AEBVNpShape@2@@Z 0000000180082aa0 f   NpShapeManager.obj
 0001:00081ac0       ??0?$PxMat44T@M@physx@@QEAA@AEBV?$PxTransformT@M@1@@Z 0000000180082ac0 f i NpDebugViz.obj
 0001:00081f50       ?visualize@NpRigidDynamic@physx@@QEBAXAEAVPxRenderOutput@2@AEAVNpScene@2@M@Z 0000000180082f50 f   NpDebugViz.obj
 0001:000821a0       ?visualize@NpScene@physx@@AEAAXXZ 00000001800831a0 f   NpDebugViz.obj
 0001:00082690       ?visualize@NpShapeManager@physx@@QEBAXAEAVPxRenderOutput@2@AEAVNpScene@2@AEBVPxRigidActor@2@M@Z 0000000180083690 f   NpDebugViz.obj
 0001:000845a0       ?visualizeRigidBody@physx@@YAXAEAVPxRenderOutput@1@AEAVNpScene@1@AEBVPxRigidActor@1@AEBVBodyCore@Sc@1@M@Z 00000001800855a0 f   NpDebugViz.obj
 0001:00088100       ??0PxcScratchAllocator@physx@@QEAA@XZ 0000000180089100 f i NpImmediateMode.obj
 0001:000886a0       ??1PxcScratchAllocator@physx@@QEAA@XZ 00000001800896a0 f i NpImmediateMode.obj
 0001:00088850       ??4PxArticulationLinkDataRC@immediate@physx@@QEAAAEAU012@AEBU012@@Z 0000000180089850 f i NpImmediateMode.obj
 0001:00088db0       ??_EPxAABBManager@physx@@MEAAPEAXI@Z 0000000180089db0 f i NpImmediateMode.obj
