 PhysXCommon_64

 Timestamp is 640ea247 (Mon Mar 13 00:10:47 2023)

 Preferred load address is 0000000180000000

 Start         Length     Name                   Class
 0001:00000000 000031d0H .text$di                CODE
 0001:000031d0 001cbbc0H .text$mn                CODE
 0001:001ced90 00000040H .text$mn$00             CODE
 0001:001cedd0 00000490H .text$x                 CODE
 0001:001cf260 0000000fH .text$yd                CODE
 0002:00000000 00000260H .idata$5                DATA
 0002:00000260 00000028H .00cfg                  DATA
 0002:00000288 00000008H .CRT$XCA                DATA
 0002:00000290 000018b0H .CRT$XCU                DATA
 0002:00001b40 00000008H .CRT$XCZ                DATA
 0002:00001b48 00000008H .CRT$XIA                DATA
 0002:00001b50 00000018H .CRT$XIC                DATA
 0002:00001b68 00000008H .CRT$XIZ                DATA
 0002:00001b70 00000008H .CRT$XPA                DATA
 0002:00001b78 00000010H .CRT$XPX                DATA
 0002:00001b88 00000008H .CRT$XPXA               DATA
 0002:00001b90 00000008H .CRT$XPZ                DATA
 0002:00001b98 00000008H .CRT$XTA                DATA
 0002:00001ba0 00000010H .CRT$XTZ                DATA
 0002:00001ba8 00000000H .gehcont$y              DATA
 0002:00001ba8 00000000H .gfids$y                DATA
 0002:00001bb0 00011cd0H .rdata                  DATA
 0002:00013880 00000000H .rdata$CastGuardVftablesA DATA
 0002:00013880 00000000H .rdata$CastGuardVftablesC DATA
 0002:00013880 0000043cH .rdata$r                DATA
 0002:00013cbc 00000100H .rdata$voltmd           DATA
 0002:00013dbc 00000434H .rdata$zzzdbg           DATA
 0002:000141f0 00000008H .rtc$IAA                DATA
 0002:000141f8 00000008H .rtc$IZZ                DATA
 0002:00014200 00000008H .rtc$TAA                DATA
 0002:00014208 00000008H .rtc$TZZ                DATA
 0002:00014210 00014798H .xdata                  DATA
 0002:000289a8 00000084H .xdata$x                DATA
 0002:00028a2c 00000020H .didat$2                DATA
 0002:00028a4c 00000024H .didat$3                DATA
 0002:00028a70 000000c8H .didat$4                DATA
 0002:00028b38 00000410H .didat$6                DATA
 0002:00028f48 000000c8H .didat$7                DATA
 0002:00029010 0000c478H .edata                  DATA
 0002:00035488 00000014H .idata$2                DATA
 0002:0003549c 00000014H .idata$3                DATA
 0002:000354b0 00000260H .idata$4                DATA
 0002:00035710 0000058cH .idata$6                DATA
 0003:00000000 00001c40H .data                   DATA
 0003:00001c40 000010e0H .data$r                 DATA
 0003:00002d20 000000f0H .data$rs                DATA
 0003:00002e10 000000d0H .didat$5                DATA
 0003:00002ee0 000043fcH .bss                    DATA
 0004:00000000 0000c00cH .pdata                  DATA
 0005:00000000 00002304H _RDATA                  DATA
 0006:00000000 000000a0H .rsrc$01                DATA
 0006:000000a0 000004b0H .rsrc$02                DATA

  Address         Publics by Value              Rva+Base               Lib:Object

 0000:00000000       __arm64x_extra_rfe_table   0000000000000000     <absolute>
 0000:00000000       __guard_fids_count         0000000000000000     <absolute>
 0000:00000000       __guard_iat_count          0000000000000000     <absolute>
 0000:00000000       __guard_longjmp_count      0000000000000000     <absolute>
 0000:00000000       __arm64x_redirection_metadata 0000000000000000     <absolute>
 0000:00000000       __dynamic_value_reloc_table 0000000000000000     <absolute>
 0000:00000000       __hybrid_code_map          0000000000000000     <absolute>
 0000:00000000       __arm64x_extra_rfe_table_size 0000000000000000     <absolute>
 0000:00000000       __hybrid_auxiliary_iat     0000000000000000     <absolute>
 0000:00000000       ___safe_se_handler_count   0000000000000000     <absolute>
 0000:00000000       __hybrid_auxiliary_iat_copy 0000000000000000     <absolute>
 0000:00000000       __x64_code_ranges_to_entry_points 0000000000000000     <absolute>
 0000:00000000       __guard_longjmp_table      0000000000000000     <absolute>
 0000:00000000       __guard_iat_table          0000000000000000     <absolute>
 0000:00000000       __AbsoluteZero             0000000000000000     <absolute>
 0000:00000000       __x64_code_ranges_to_entry_points_count 0000000000000000     <absolute>
 0000:00000000       __guard_check_icall_a64n_fptr 0000000000000000     <absolute>
 0000:00000000       __guard_eh_cont_count      0000000000000000     <absolute>
 0000:00000000       ___safe_se_handler_table   0000000000000000     <absolute>
 0000:00000000       __guard_fids_table         0000000000000000     <absolute>
 0000:00000000       __arm64x_redirection_metadata_count 0000000000000000     <absolute>
 0000:00000000       __enclave_config           0000000000000000     <absolute>
 0000:00000000       __guard_eh_cont_table      0000000000000000     <absolute>
 0000:00000000       __arm64x_native_entrypoint 0000000000000000     <absolute>
 0000:00000000       __hybrid_code_map_count    0000000000000000     <absolute>
 0000:00000100       __guard_flags              0000000000000100     <absolute>
 0000:00000000       __ImageBase                0000000180000000     <linker-defined>
 0001:000031d0       ??0PtrTable@Cm@physx@@QEAA@W4PxEMPTY@2@@Z 00000001800041d0 f i CmPtrTable.obj
 0001:000031f0       ??0PtrTable@Cm@physx@@QEAA@XZ 00000001800041f0 f   CmPtrTable.obj
 0001:00003200       ??1BigConvexDataBuilder@physx@@QEAA@XZ 0000000180004200 f   GuCookingBigConvexDataBuilder.obj
 0001:00003200       ??1HeightFieldData@Gu@physx@@QEAA@XZ 0000000180004200 f   GuCCTSweepTests.obj
 0001:00003200       ?visualize@BasePruner@Gu@physx@@UEBAXAEAVPxRenderOutput@3@II@Z 0000000180004200 f   GuIncrementalAABBPruner.obj
 0001:00003200       ?purge@BucketPruner@Gu@physx@@UEAAXXZ 0000000180004200 f   GuBucketPruner.obj
 0001:00003200       ?swapIndex@CompanionPrunerBucket@@UEAAXII@Z 0000000180004200 f   GuSecondaryPruner.obj
 0001:00003200       ?merge@BucketPruner@Gu@physx@@UEAAXPEBX@Z 0000000180004200 f   GuBucketPruner.obj
 0001:00003200       ?execute@PxRunnable@physx@@UEAAXXZ 0000000180004200 f   GuSDF.obj
 0001:00003200       ?timeStampChange@CompanionPrunerAABBTree@@UEAAXXZ 0000000180004200 f   GuSecondaryPruner.obj
 0001:00003200       _guard_check_icall_nop     0000000180004200 f   LIBCMT:guard_support.obj
 0001:00003200       ??1PtrTable@Cm@physx@@QEAA@XZ 0000000180004200 f   CmPtrTable.obj
 0001:00003200       ?requiresObjects@TriangleMesh@Gu@physx@@UEAAXAEAVPxProcessPxBaseCallback@3@@Z 0000000180004200 f   GuTriangleMesh.obj
 0001:00003200       ?onMeshIndexFormatChange@TriangleMeshBuilder@physx@@UEAAXXZ 0000000180004200 f   GuCookingTriangleMesh.obj
 0001:00003200       ?requiresObjects@HeightField@Gu@physx@@UEAAXAEAVPxProcessPxBaseCallback@3@@Z 0000000180004200 f   GuHeightField.obj
 0001:00003200       ?timeStampChange@CompanionPrunerBucket@@UEAAXXZ 0000000180004200 f   GuSecondaryPruner.obj
 0001:00003200       ?checkTreeLeaf@IncrementalAABBTree@Gu@physx@@QEAAXPEAVIncrementalAABBTreeNode@23@I@Z 0000000180004200 f   GuIncrementalAABBTree.obj
 0001:00003200       ?swapIndex@CompanionPrunerAABBTree@@UEAAXII@Z 0000000180004200 f   GuSecondaryPruner.obj
 0001:00003200       ?profile@Callback@RTree@Gu@physx@@UEAAXXZ 0000000180004200 f   GuMidphaseRTree.obj
 0001:00003200       ?execute@?$PxThreadT@V?$PxReflectionAllocator@VPxThreadImpl@physx@@@physx@@@physx@@UEAAXXZ 0000000180004200 f   GuSDF.obj
 0001:00003200       ??1AABBTreeBuildNode@Gu@physx@@QEAA@XZ 0000000180004200 f   GuMeshFactory.obj
 0001:00003200       ?build@CompanionPrunerIncremental@@UEAAXXZ 0000000180004200 f   GuSecondaryPruner.obj
 0001:00003200       ?requiresObjects@ConvexMesh@Gu@physx@@UEAAXAEAVPxProcessPxBaseCallback@3@@Z 0000000180004200 f   GuConvexMesh.obj
 0001:00003200       ??1Box@Gu@physx@@QEAA@XZ   0000000180004200 f   GuBox.obj
 0001:00003200       ?requiresObjects@SoftBodyMesh@Gu@physx@@UEAAXAEAVPxProcessPxBaseCallback@3@@Z 0000000180004200 f   GuTetrahedronMesh.obj
 0001:00003200       ?merge@IncrementalAABBPruner@Gu@physx@@UEAAXPEBX@Z 0000000180004200 f   GuIncrementalAABBPruner.obj
 0001:00003210       ??4PtrTable@Cm@physx@@QEAAAEAU012@AEBU012@@Z 0000000180004210 f i CmPtrTable.obj
 0001:00003210       ??4CmModuleUpdateLoader@Cm@physx@@QEAAAEAV012@AEBV012@@Z 0000000180004210 f i CmWindowsModuleUpdateLoader.obj
 0001:00003210       ??4AABBTreeBounds@Gu@physx@@QEAAAEAV012@AEBV012@@Z 0000000180004210 f i GuMeshFactory.obj
 0001:00003220       ?add@PtrTable@Cm@physx@@QEAAXPEAXAEAVPtrTableStorageManager@23@@Z 0000000180004220 f   CmPtrTable.obj
 0001:00003330       ?clear@PtrTable@Cm@physx@@QEAAXAEAVPtrTableStorageManager@23@@Z 0000000180004330 f   CmPtrTable.obj
 0001:000033a0       ?exportExtraData@PtrTable@Cm@physx@@QEAAXAEAVPxSerializationContext@3@@Z 00000001800043a0 f   CmPtrTable.obj
 0001:000033f0       ?find@PtrTable@Cm@physx@@QEBAIPEBX@Z 00000001800043f0 f   CmPtrTable.obj
 0001:00003420       ?getBinaryMetaData@PtrTable@Cm@physx@@SAXAEAVPxOutputStream@3@@Z 0000000180004420 f   CmPtrTable.obj
 0001:00003610       ?getCount@PtrTable@Cm@physx@@QEBAIXZ 0000000180004610 f i CmPtrTable.obj
 0001:00003620       ?getPtrs@PtrTable@Cm@physx@@QEBAPEBQEAXXZ 0000000180004620 f i CmPtrTable.obj
 0001:00003620       ?getPtrs@PtrTable@Cm@physx@@QEAAPEAPEAXXZ 0000000180004620 f i CmPtrTable.obj
 0001:00003630       ?importExtraData@PtrTable@Cm@physx@@QEAAXAEAVPxDeserializationContext@3@@Z 0000000180004630 f   CmPtrTable.obj
 0001:00003660       ?realloc@PtrTable@Cm@physx@@AEAAXIIAEAVPtrTableStorageManager@23@@Z 0000000180004660 f   CmPtrTable.obj
 0001:000036f0       ?replaceWithLast@PtrTable@Cm@physx@@QEAAXIAEAVPtrTableStorageManager@23@@Z 00000001800046f0 f   CmPtrTable.obj
 0001:000037f0       ??_GCollection@Cm@physx@@UEAAPEAXI@Z 00000001800047f0 f i CmCollection.obj
 0001:000037f0       ??_ECollection@Cm@physx@@UEAAPEAXI@Z 00000001800047f0 f i CmCollection.obj
 0001:000038a0       ??_GPxCollection@physx@@MEAAPEAXI@Z 00000001800048a0 f i CmCollection.obj
 0001:000038a0       ??_EPxCollection@physx@@MEAAPEAXI@Z 00000001800048a0 f i CmCollection.obj
 0001:000038d0       ?add@Collection@Cm@physx@@UEAAXAEAVPxBase@3@_K@Z 00000001800048d0 f   CmCollection.obj
 0001:000039c0       ?add@Collection@Cm@physx@@UEAAXAEAVPxCollection@3@@Z 00000001800049c0 f   CmCollection.obj
 0001:00003b60       ?addId@Collection@Cm@physx@@UEAAXAEAVPxBase@3@_K@Z 0000000180004b60 f   CmCollection.obj
 0001:00003c90       ?contains@Collection@Cm@physx@@UEBA_NAEAVPxBase@3@@Z 0000000180004c90 f   CmCollection.obj
 0001:00003d40       ?create@?$PxHashBase@V?$PxPair@QEAVPxBase@physx@@_K@physx@@PEAVPxBase@2@U?$PxHash@PEAVPxBase@physx@@@2@UGetKey@?$PxHashMapBase@PEAVPxBase@physx@@_KU?$PxHash@PEAVPxBase@physx@@@2@VPxAllocator@2@@2@VPxAllocator@2@$00@physx@@QEAAPEAV?$PxPair@QEAVPxBase@physx@@_K@2@AEBQEAVPxBase@2@AEA_N@Z 0000000180004d40 f i CmCollection.obj
 0001:00003d40       ?create@?$PxHashBase@V?$PxPair@$$CB_KPEAVPxBase@physx@@@physx@@_KU?$PxHash@_K@2@UGetKey@?$PxHashMapBase@_KPEAVPxBase@physx@@U?$PxHash@_K@2@VPxAllocator@2@@2@VPxAllocator@2@$00@physx@@QEAAPEAV?$PxPair@$$CB_KPEAVPxBase@physx@@@2@AEB_KAEA_N@Z 0000000180004d40 f i CmCollection.obj
 0001:00003ee0       ?erase@?$PxHashBase@V?$PxPair@$$CB_KPEAVPxBase@physx@@@physx@@_KU?$PxHash@_K@2@UGetKey@?$PxHashMapBase@_KPEAVPxBase@physx@@U?$PxHash@_K@2@VPxAllocator@2@@2@VPxAllocator@2@$00@physx@@QEAA_NAEB_K@Z 0000000180004ee0 f i CmCollection.obj
 0001:00003ee0       ?erase@?$PxHashBase@V?$PxPair@QEAVPxBase@physx@@_K@physx@@PEAVPxBase@2@U?$PxHash@PEAVPxBase@physx@@@2@UGetKey@?$PxHashMapBase@PEAVPxBase@physx@@_KU?$PxHash@PEAVPxBase@physx@@@2@VPxAllocator@2@@2@VPxAllocator@2@$00@physx@@QEAA_NAEBQEAVPxBase@2@@Z 0000000180004ee0 f i CmCollection.obj
 0001:00004080       ?find@?$PxHashMapBase@_KPEAVPxBase@physx@@U?$PxHash@_K@2@VPxAllocator@2@@physx@@QEBAPEBV?$PxPair@$$CB_KPEAVPxBase@physx@@@2@AEB_K@Z 0000000180005080 f i CmCollection.obj
 0001:00004120       ?find@Collection@Cm@physx@@UEBAPEAVPxBase@3@_K@Z 0000000180005120 f   CmCollection.obj
 0001:00004150       ?getId@Collection@Cm@physx@@UEBA_KAEBVPxBase@3@@Z 0000000180005150 f   CmCollection.obj
 0001:00004200       ?getIds@Collection@Cm@physx@@UEBAIPEA_KII@Z 0000000180005200 f   CmCollection.obj
 0001:000042c0       ?getNbIds@Collection@Cm@physx@@UEBAIXZ 00000001800052c0 f   CmCollection.obj
 0001:000042d0       ?getNbObjects@Collection@Cm@physx@@UEBAIXZ 00000001800052d0 f   CmCollection.obj
 0001:000042e0       ?getObject@Collection@Cm@physx@@UEBAAEAVPxBase@3@I@Z 00000001800052e0 f   CmCollection.obj
 0001:000042f0       ?getObjects@Collection@Cm@physx@@UEBAIPEAPEAVPxBase@3@II@Z 00000001800052f0 f   CmCollection.obj
 0001:00004340       ?release@Collection@Cm@physx@@UEAAXXZ 0000000180005340 f i CmCollection.obj
 0001:00004360       ?remove@Collection@Cm@physx@@UEAAXAEAVPxBase@3@@Z 0000000180005360 f   CmCollection.obj
 0001:00004450       ?remove@Collection@Cm@physx@@UEAAXAEAVPxCollection@3@@Z 0000000180005450 f   CmCollection.obj
 0001:00004560       ?removeId@Collection@Cm@physx@@UEAAX_K@Z 0000000180005560 f   CmCollection.obj
 0001:000045e0       ?reserveInternal@?$PxHashBase@V?$PxPair@$$CB_KPEAVPxBase@physx@@@physx@@_KU?$PxHash@_K@2@UGetKey@?$PxHashMapBase@_KPEAVPxBase@physx@@U?$PxHash@_K@2@VPxAllocator@2@@2@VPxAllocator@2@$00@physx@@AEAAXI@Z 00000001800055e0 f i CmCollection.obj
 0001:000045e0       ?reserveInternal@?$PxHashBase@V?$PxPair@QEAVPxBase@physx@@_K@physx@@PEAVPxBase@2@U?$PxHash@PEAVPxBase@physx@@@2@UGetKey@?$PxHashMapBase@PEAVPxBase@physx@@_KU?$PxHash@PEAVPxBase@physx@@@2@VPxAllocator@2@@2@VPxAllocator@2@$00@physx@@AEAAXI@Z 00000001800055e0 f i CmCollection.obj
 0001:000047d0       PxCreateCollection         00000001800057d0 f   CmCollection.obj
 0001:000048d0       ??0RadixSort@Cm@physx@@QEAA@XZ 00000001800058d0 f   CmRadixSort.obj
 0001:00004900       ??0RadixSortBuffered@Cm@physx@@QEAA@XZ 0000000180005900 f   CmRadixSort.obj
 0001:00004930       ??1RadixSort@Cm@physx@@UEAA@XZ 0000000180005930 f   CmRadixSort.obj
 0001:00004940       ??1RadixSortBuffered@Cm@physx@@UEAA@XZ 0000000180005940 f   CmRadixSort.obj
 0001:00004970       ??_ERadixSort@Cm@physx@@UEAAPEAXI@Z 0000000180005970 f i CmRadixSort.obj
 0001:00004a00       ??_ERadixSortBuffered@Cm@physx@@UEAAPEAXI@Z 0000000180005a00 f i CmRadixSort.obj
 0001:00004b40       ?CheckResize@RadixSortBuffered@Cm@physx@@AEAAXI@Z 0000000180005b40 f i CmRadixSort.obj
 0001:00004b80       ?GetNbHits@RadixSort@Cm@physx@@QEBAIXZ 0000000180005b80 f i CmRadixSort.obj
 0001:00004b90       ?GetNbTotalCalls@RadixSort@Cm@physx@@QEBAIXZ 0000000180005b90 f i CmRadixSort.obj
 0001:00004ba0       ?getSimulationMesh@SoftBodyMesh@Gu@physx@@UEBAPEBVPxTetrahedronMesh@3@XZ 0000000180005ba0 f i GuTetrahedronMesh.obj
 0001:00004ba0       ?getSimulationMesh@SoftBodyMesh@Gu@physx@@UEAAPEAVPxTetrahedronMesh@3@XZ 0000000180005ba0 f i GuTetrahedronMesh.obj
 0001:00004ba0       ?GetRanks@RadixSort@Cm@physx@@QEBAPEBIXZ 0000000180005ba0 f i CmRadixSort.obj
 0001:00004ba0       ?getHeightField@HeightFieldUtil@Gu@physx@@QEBAAEBVHeightField@23@XZ 0000000180005ba0 f i GuCCTSweepTests.obj
 0001:00004bb0       ?getPos@AABBTreeBuildNode@Gu@physx@@QEBAPEBV123@XZ 0000000180005bb0 f i GuMeshFactory.obj
 0001:00004bb0       ?GetValencies@BigConvexData@physx@@QEBAPEBUValency@Gu@2@XZ 0000000180005bb0 f i GuMetaData.obj
 0001:00004bb0       ?getCollisionMesh@SoftBodyMesh@Gu@physx@@UEAAPEAVPxTetrahedronMesh@3@XZ 0000000180005bb0 f i GuTetrahedronMesh.obj
 0001:00004bb0       ?getVertices@TetrahedronMesh@Gu@physx@@UEBAPEBV?$PxVec3T@M@3@XZ 0000000180005bb0 f i GuTetrahedronMesh.obj
 0001:00004bb0       ?getCollisionMesh@SoftBodyMesh@Gu@physx@@UEBAPEBVPxTetrahedronMesh@3@XZ 0000000180005bb0 f i GuTetrahedronMesh.obj
 0001:00004bb0       ?GetRecyclable@RadixSort@Cm@physx@@QEBAPEAIXZ 0000000180005bb0 f i CmRadixSort.obj
 0001:00004bb0       ?getHeightFieldGeometry@HeightFieldUtil@Gu@physx@@QEBAAEBVPxHeightFieldGeometry@3@XZ 0000000180005bb0 f i GuCCTSweepTests.obj
 0001:00004bb0       ?getVertices@TriangleMesh@Gu@physx@@UEBAPEBV?$PxVec3T@M@3@XZ 0000000180005bb0 f i GuTriangleMesh.obj
 0001:00004bb0       ?getObjects@PruningPool@Gu@physx@@QEBAPEAUPrunerPayload@23@XZ 0000000180005bb0 f i GuIncrementalAABBPrunerCore.obj
 0001:00004bc0       ?Resize@RadixSortBuffered@Cm@physx@@AEAA_NI@Z 0000000180005bc0 f   CmRadixSort.obj
 0001:00004cb0       ?SetBuffers@RadixSort@Cm@physx@@QEAA_NPEAI00PEAPEAI@Z 0000000180005cb0 f   CmRadixSort.obj
 0001:00004cf0       ?Sort@RadixSort@Cm@physx@@QEAAAEAV123@PEBIIW4RadixHint@23@@Z 0000000180005cf0 f   CmRadixSort.obj
 0001:00005340       ?Sort@RadixSort@Cm@physx@@QEAAAEAV123@PEBMI@Z 0000000180006340 f   CmRadixSort.obj
 0001:00005aa0       ?Sort@RadixSortBuffered@Cm@physx@@QEAAAEAV123@PEBIIW4RadixHint@23@@Z 0000000180006aa0 f   CmRadixSort.obj
 0001:00005b40       ?Sort@RadixSortBuffered@Cm@physx@@QEAAAEAV123@PEBMI@Z 0000000180006b40 f   CmRadixSort.obj
 0001:00005bd0       ?invalidateRanks@RadixSort@Cm@physx@@QEAAXXZ 0000000180006bd0 f i CmRadixSort.obj
 0001:00005be0       ?reset@RadixSortBuffered@Cm@physx@@QEAAXXZ 0000000180006be0 f   CmRadixSort.obj
 0001:00005c60       ?ReadHeader@Cm@physx@@YA_NEEEEAEAIAEA_NAEAVPxInputStream@2@@Z 0000000180006c60 f   CmSerialize.obj
 0001:00005dc0       ?ReadIndices@Cm@physx@@YAXGIPEAGAEAVPxInputStream@2@_N@Z 0000000180006dc0 f   CmSerialize.obj
 0001:00005f10       ?StoreIndices@Cm@physx@@YAXGIPEBGAEAVPxOutputStream@2@_N@Z 0000000180006f10 f   CmSerialize.obj
 0001:00005fd0       ?WriteHeader@Cm@physx@@YA_NEEEEI_NAEAVPxOutputStream@2@@Z 0000000180006fd0 f   CmSerialize.obj
 0001:00006100       ?computeMaxIndex@physx@@YAGPEBGI@Z 0000000180007100 f   CmSerialize.obj
 0001:00006130       ?computeMaxIndex@physx@@YAIPEBII@Z 0000000180007130 f   CmSerialize.obj
 0001:00006160       ?readByteBuffer@physx@@YAXPEAEIAEAVPxInputStream@1@@Z 0000000180007160 f   CmSerialize.obj
 0001:00006160       ?writeByteBuffer@physx@@YAXPEBEIAEAVPxOutputStream@1@@Z 0000000180007160 f   CmSerialize.obj
 0001:00006180       ?readChunk@physx@@YAXAEAC000AEAVPxInputStream@1@@Z 0000000180007180 f   CmSerialize.obj
 0001:00006200       ?readDword@physx@@YAI_NAEAVPxInputStream@1@@Z 0000000180007200 f   CmSerialize.obj
 0001:00006260       ?readFloat@physx@@YAM_NAEAVPxInputStream@1@@Z 0000000180007260 f   CmSerialize.obj
 0001:000062c0       ?readFloatBuffer@physx@@YA_NPEAMI_NAEAVPxInputStream@1@@Z 00000001800072c0 f   CmSerialize.obj
 0001:00006340       ?readHeader@physx@@YA_NCCCCAEAIAEA_NAEAVPxInputStream@1@@Z 0000000180007340 f   CmSerialize.obj
 0001:00006490       ?readIndices@physx@@YAXIIPEAIAEAVPxInputStream@1@_N@Z 0000000180007490 f   CmSerialize.obj
 0001:00006580       ?readWord@physx@@YAG_NAEAVPxInputStream@1@@Z 0000000180007580 f   CmSerialize.obj
 0001:000065c0       ?readWordBuffer@physx@@YAXPEAGI_NAEAVPxInputStream@1@@Z 00000001800075c0 f   CmSerialize.obj
 0001:00006630       ?storeIndices@physx@@YAXIIPEBIAEAVPxOutputStream@1@_N@Z 0000000180007630 f   CmSerialize.obj
 0001:00006790       ?writeDword@physx@@YAXI_NAEAVPxOutputStream@1@@Z 0000000180007790 f   CmSerialize.obj
 0001:000067e0       ?writeFloat@physx@@YAXM_NAEAVPxOutputStream@1@@Z 00000001800077e0 f   CmSerialize.obj
 0001:00006830       ?writeFloatBuffer@physx@@YAXPEBMI_NAEAVPxOutputStream@1@@Z 0000000180007830 f   CmSerialize.obj
 0001:000068d0       ?writeHeader@physx@@YA_NCCCCI_NAEAVPxOutputStream@1@@Z 00000001800078d0 f   CmSerialize.obj
 0001:00006a00       ?writeWord@physx@@YAXG_NAEAVPxOutputStream@1@@Z 0000000180007a00 f   CmSerialize.obj
 0001:00006a40       ?writeWordBuffer@physx@@YAXPEBGI_NAEAVPxOutputStream@1@@Z 0000000180007a40 f   CmSerialize.obj
 0001:00006ac0       ??0PxRenderOutput@physx@@QEAA@AEAVPxRenderBuffer@1@@Z 0000000180007ac0 f i CmVisualization.obj
 0001:00006b10       ??0PxRenderOutput@physx@@QEAA@AEBV01@@Z 0000000180007b10 f i CmVisualization.obj
 0001:00006bb0       ??6PxRenderOutput@physx@@QEAAAEAV01@AEBV?$PxMat44T@M@1@@Z 0000000180007bb0 f i CmVisualization.obj
 0001:00006c20       ??6PxRenderOutput@physx@@QEAAAEAV01@AEBV?$PxTransformT@M@1@@Z 0000000180007c20 f i CmVisualization.obj
 0001:00006da0       ??6PxRenderOutput@physx@@QEAAAEAV01@AEBV?$PxVec3T@M@1@@Z 0000000180007da0 f i CmVisualization.obj
 0001:000070a0       ??6PxRenderOutput@physx@@QEAAAEAV01@I@Z 00000001800080a0 f i CmVisualization.obj
 0001:000070b0       ??6PxRenderOutput@physx@@QEAAAEAV01@W4Primitive@01@@Z 00000001800080b0 f i CmVisualization.obj
 0001:000070c0       ?outputCapsule@PxRenderOutput@physx@@QEAAAEAV12@MMAEBV?$PxMat44T@M@2@@Z 00000001800080c0 f i CmVisualization.obj
 0001:00007dd0       ?outputSegment@PxRenderOutput@physx@@QEAAXAEBV?$PxVec3T@M@2@0@Z 0000000180008dd0 f i CmVisualization.obj
 0001:00007e40       ?renderOutputDebugArrow@Cm@physx@@YAXAEAVPxRenderOutput@2@AEBUPxDebugArrow@2@@Z 0000000180008e40 f   CmVisualization.obj
 0001:000081e0       ?renderOutputDebugBasis@Cm@physx@@YAXAEAVPxRenderOutput@2@AEBUPxDebugBasis@2@@Z 00000001800091e0 f   CmVisualization.obj
 0001:000086d0       ?renderOutputDebugBox@Cm@physx@@YAXAEAVPxRenderOutput@2@AEBVPxBounds3@2@@Z 00000001800096d0 f   CmVisualization.obj
 0001:00008940       ?renderOutputDebugCircle@Cm@physx@@YAXAEAVPxRenderOutput@2@IM@Z 0000000180009940 f   CmVisualization.obj
 0001:00008a20       ?reservePoints@PxRenderOutput@physx@@QEAAPEAUPxDebugPoint@2@I@Z 0000000180009a20 f i CmVisualization.obj
 0001:00008a30       ?reserveSegments@PxRenderOutput@physx@@QEAAPEAUPxDebugLine@2@I@Z 0000000180009a30 f i CmVisualization.obj
 0001:00008a40       ?visualizeAngularLimit@Cm@physx@@YAXAEAVPxRenderOutput@2@MAEBV?$PxTransformT@M@2@MM_N@Z 0000000180009a40 f   CmVisualization.obj
 0001:00008be0       ?visualizeDoubleCone@Cm@physx@@YAXAEAVPxRenderOutput@2@MAEBV?$PxTransformT@M@2@M_N@Z 0000000180009be0 f   CmVisualization.obj
 0001:00008df0       ?visualizeJointFrames@Cm@physx@@YAXAEAVPxRenderOutput@2@MAEBV?$PxTransformT@M@2@1@Z 0000000180009df0 f   CmVisualization.obj
 0001:00009800       ?visualizeLimitCone@Cm@physx@@YAXAEAVPxRenderOutput@2@MAEBV?$PxTransformT@M@2@MM_N@Z 000000018000a800 f   CmVisualization.obj
 0001:00009a50       ?visualizeLinearLimit@Cm@physx@@YAXAEAVPxRenderOutput@2@MAEBV?$PxTransformT@M@2@1M_N@Z 000000018000aa50 f   CmVisualization.obj
 0001:0000a050       ??0CmModuleUpdateLoader@Cm@physx@@QEAA@PEBD@Z 000000018000b050 f   CmWindowsModuleUpdateLoader.obj
 0001:0000a090       ??1CmModuleUpdateLoader@Cm@physx@@QEAA@XZ 000000018000b090 f   CmWindowsModuleUpdateLoader.obj
 0001:0000a0c0       ?LoadModule@CmModuleUpdateLoader@Cm@physx@@QEAAPEAUHINSTANCE__@@PEBD0@Z 000000018000b0c0 f   CmWindowsModuleUpdateLoader.obj
 0001:0000a130       __local_stdio_printf_options 000000018000b130 f i CmWindowsModuleUpdateLoader.obj
 0001:0000a140       printf                     000000018000b140 f i CmWindowsModuleUpdateLoader.obj
 0001:0000a1a0       ?commonDelayHook@@YAP6A_JXZIPEAUDelayLoadInfo@@@Z 000000018000b1a0 f   CmWindowsDelayLoadHook.obj
 0001:0000a280       PxSetPhysXCommonDelayLoadHook 000000018000b280 f   CmWindowsDelayLoadHook.obj
 0001:0000a290       ??0?$PxQuatT@M@physx@@QEAA@AEBV?$PxMat33T@M@1@@Z 000000018000b290 f i GuBox.obj
 0001:0000a470       ??0Box@Gu@physx@@QEAA@AEBV012@@Z 000000018000b470 f i GuBox.obj
 0001:0000a470       ??4Box@Gu@physx@@QEAAAEBV012@AEBV012@@Z 000000018000b470 f i GuBox.obj
 0001:0000a4d0       ??0Box@Gu@physx@@QEAA@AEBV?$PxVec3T@M@2@0AEBV?$PxMat33T@M@2@@Z 000000018000b4d0 f i GuBox.obj
 0001:0000a540       ??0BigConvexData@physx@@QEAA@W4PxEMPTY@1@@Z 000000018000b540 f i GuMetaData.obj
 0001:0000a540       ??0AABBTreeBuildNode@Gu@physx@@QEAA@XZ 000000018000b540 f i GuMeshFactory.obj
 0001:0000a540       ??0HeightFieldData@Gu@physx@@QEAA@W4PxEMPTY@2@@Z 000000018000b540 f i GuCCTSweepTests.obj
 0001:0000a540       ??0Box@Gu@physx@@QEAA@XZ   000000018000b540 f i GuBox.obj
 0001:0000a540       ?getPaddedBounds@HeightFieldData@Gu@physx@@QEBAAEBVCenterExtentsPadded@23@XZ 000000018000b540 f i GuCCTSweepTests.obj
 0001:0000a540       ??$forward@_K@std@@YA$$QEA_KAEA_K@Z 000000018000b540 f i libvcruntime:undname.obj
 0001:0000a540       ?getAABB@AABBTreeBuildNode@Gu@physx@@QEBAAEBVPxBounds3@3@XZ 000000018000b540 f i GuMeshFactory.obj
 0001:0000a550       ?computeAABBExtent@Box@Gu@physx@@QEBA?AV?$PxVec3T@M@3@XZ 000000018000b550 f i GuBox.obj
 0001:0000a610       ?computeBoxPoints@Box@Gu@physx@@QEBAXPEIAV?$PxVec3T@M@3@@Z 000000018000b610 f i GuBox.obj
 0001:0000a650       ?computeOBBPoints@Gu@physx@@YAXPEIAV?$PxVec3T@M@2@AEBV32@1111@Z 000000018000b650 f   GuBox.obj
 0001:0000a8d0       ?create@Box@Gu@physx@@QEAAXAEBVCapsule@23@@Z 000000018000b8d0 f   GuBox.obj
 0001:0000ab00       ?getBoxEdges@Gu@physx@@YAPEBEXZ 000000018000bb00 f   GuBox.obj
 0001:0000ab10       ?getTransform@Box@Gu@physx@@QEBA?AV?$PxTransformT@M@3@XZ 000000018000bb10 f i GuBox.obj
 0001:0000ab70       ?isValid@Box@Gu@physx@@QEBA_NXZ 000000018000bb70 f i GuBox.obj
 0001:0000ab90       ?rotate@Box@Gu@physx@@QEBA?AV?$PxVec3T@M@3@AEBV43@@Z 000000018000bb90 f i GuBox.obj
 0001:0000ac20       ?rotateInv@Box@Gu@physx@@QEBA?AV?$PxVec3T@M@3@AEBV43@@Z 000000018000bc20 f i GuBox.obj
 0001:0000acb0       ?setAxes@Box@Gu@physx@@QEAAXAEBV?$PxVec3T@M@3@00@Z 000000018000bcb0 f i GuBox.obj
 0001:0000acf0       ?setEmpty@Box@Gu@physx@@QEAAXXZ 000000018000bcf0 f i GuBox.obj
 0001:0000ad30       ?transform@Box@Gu@physx@@QEBA?AV?$PxVec3T@M@3@AEBV43@@Z 000000018000bd30 f i GuBox.obj
 0001:0000add0       ?PxComputeBasisVectors@physx@@YAXAEBV?$PxVec3T@M@1@0AEAV21@11@Z 000000018000bdd0 f i GuCapsule.obj
 0001:0000af70       ?computeBoxAroundCapsule@Gu@physx@@YAXAEBVCapsule@12@AEAVBox@12@@Z 000000018000bf70 f   GuCapsule.obj
 0001:0000b0c0       ??0HeightFieldData@Gu@physx@@QEAA@$$QEAU012@@Z 000000018000c0c0 f i GuCCTSweepTests.obj
 0001:0000b0c0       ??4HeightFieldData@Gu@physx@@QEAAAEAU012@AEBU012@@Z 000000018000c0c0 f i GuCCTSweepTests.obj
 0001:0000b0c0       ??4HeightFieldData@Gu@physx@@QEAAAEAU012@$$QEAU012@@Z 000000018000c0c0 f i GuCCTSweepTests.obj
 0001:0000b0c0       ??0HeightFieldData@Gu@physx@@QEAA@AEBU012@@Z 000000018000c0c0 f i GuCCTSweepTests.obj
 0001:0000b120       ??0HeightFieldData@Gu@physx@@QEAA@XZ 000000018000c120 f i GuCCTSweepTests.obj
 0001:0000b130       ??0HeightFieldTraceUtil@Gu@physx@@QEAA@AEBVPxHeightFieldGeometry@2@@Z 000000018000c130 f i GuCCTSweepTests.obj
 0001:0000b130       ??0HeightFieldUtil@Gu@physx@@QEAA@AEBVPxHeightFieldGeometry@2@@Z 000000018000c130 f i GuCCTSweepTests.obj
 0001:0000b170       ??4HeightFieldTraceUtil@Gu@physx@@QEAAAEAV012@AEBV012@@Z 000000018000c170 f i GuCCTSweepTests.obj
 0001:0000b170       ??4HeightFieldUtil@Gu@physx@@QEAAAEAV012@AEBV012@@Z 000000018000c170 f i GuCCTSweepTests.obj
 0001:0000b170       ??4AABBTreeBuildParams@Gu@physx@@QEAAAEAV012@AEBV012@@Z 000000018000c170 f i GuMeshFactory.obj
 0001:0000b170       ??4HeightFieldTraceUtil@Gu@physx@@QEAAAEAV012@$$QEAV012@@Z 000000018000c170 f i GuCCTSweepTests.obj
 0001:0000b190       ??4HeightFieldUtil@Gu@physx@@QEAAAEAV012@$$QEAV012@@Z 000000018000c190 f i GuCCTSweepTests.obj
 0001:0000b1f0       ??_EOverlapReport@Gu@physx@@UEAAPEAXI@Z 000000018000c1f0 f i GuCCTSweepTests.obj
 0001:0000b1f0       ??_ERemapCallback@RTreeCooker@physx@@UEAAPEAXI@Z 000000018000c1f0 f i GuCookingTriangleMesh.obj
 0001:0000b1f0       ??_GRemapCallback@RTreeCooker@physx@@UEAAPEAXI@Z 000000018000c1f0 f i GuCookingTriangleMesh.obj
 0001:0000b1f0       ??_GRaycastCallback@PxBVH@physx@@UEAAPEAXI@Z 000000018000c1f0 f i GuQuerySystem.obj
 0001:0000b1f0       ??_GEntityReport@Gu@physx@@UEAAPEAXI@Z 000000018000c1f0 f i GuSweepsHF.obj
 0001:0000b1f0       ??_GOverlapReport@Gu@physx@@UEAAPEAXI@Z 000000018000c1f0 f i GuCCTSweepTests.obj
 0001:0000b1f0       ??_GOverlapCallback@PxBVH@physx@@UEAAPEAXI@Z 000000018000c1f0 f i GuQuerySystem.obj
 0001:0000b1f0       ??_ERaycastCallback@PxBVH@physx@@UEAAPEAXI@Z 000000018000c1f0 f i GuQuerySystem.obj
 0001:0000b1f0       ??_EEntityReport@Gu@physx@@UEAAPEAXI@Z 000000018000c1f0 f i GuSweepsHF.obj
 0001:0000b1f0       ??_EOverlapCallback@PxBVH@physx@@UEAAPEAXI@Z 000000018000c1f0 f i GuQuerySystem.obj
 0001:0000b220       ??_H@YAXPEAX_K1P6APEAX0@Z@Z 000000018000c220 f i GuCCTSweepTests.obj
 0001:0000b270       ?ceilUp@HeightFieldTraceUtil@Gu@physx@@SAMM@Z 000000018000c270 f i GuCCTSweepTests.obj
 0001:0000b2b0       ?floorDown@HeightFieldTraceUtil@Gu@physx@@SAMM@Z 000000018000c2b0 f i GuCCTSweepTests.obj
 0001:0000b2f0       ?getHeightAtShapePoint@HeightFieldUtil@Gu@physx@@QEBAMMM@Z 000000018000c2f0 f i GuCCTSweepTests.obj
 0001:0000b350       ?getHeightInternal2@HeightField@Gu@physx@@QEBAMIMM@Z 000000018000c350 f i GuCCTSweepTests.obj
 0001:0000b4c0       ?getNormalAtShapePoint@HeightFieldUtil@Gu@physx@@QEBA?AV?$PxVec3T@M@3@MM@Z 000000018000c4c0 f i GuCCTSweepTests.obj
 0001:0000b580       ?getNormal_2@HeightField@Gu@physx@@QEBA?AV?$PxVec3T@M@3@IMMMMM@Z 000000018000c580 f i GuCCTSweepTests.obj
 0001:0000b6a0       ?getOneOverColumnScale@HeightFieldUtil@Gu@physx@@QEBAMXZ 000000018000c6a0 f i GuCCTSweepTests.obj
 0001:0000b6b0       ?getOneOverHeightScale@HeightFieldUtil@Gu@physx@@QEBAMXZ 000000018000c6b0 f i GuCCTSweepTests.obj
 0001:0000b6c0       ?getOneOverRowScale@HeightFieldUtil@Gu@physx@@QEBAMXZ 000000018000c6c0 f i GuCCTSweepTests.obj
 0001:0000b6d0       ?hf2shapen@HeightFieldUtil@Gu@physx@@QEBA?AV?$PxVec3T@M@3@AEBV43@@Z 000000018000c6d0 f i GuCCTSweepTests.obj
 0001:0000b6d0       ?shape2hfp@HeightFieldUtil@Gu@physx@@QEBA?AV?$PxVec3T@M@3@AEBV43@@Z 000000018000c6d0 f i GuCCTSweepTests.obj
 0001:0000b710       ?hf2shapep@HeightFieldUtil@Gu@physx@@QEBA?AV?$PxVec3T@M@3@AEBV43@@Z 000000018000c710 f i GuCCTSweepTests.obj
 0001:0000b750       ?hf2worldn@HeightFieldUtil@Gu@physx@@QEBA?AV?$PxVec3T@M@3@AEBV?$PxTransformT@M@3@AEBV43@@Z 000000018000c750 f i GuCCTSweepTests.obj
 0001:0000b8c0       ?hf2worldp@HeightFieldUtil@Gu@physx@@QEBA?AV?$PxVec3T@M@3@AEBV?$PxTransformT@M@3@AEBV43@@Z 000000018000c8c0 f i GuCCTSweepTests.obj
 0001:0000ba40       ?overlapAABBTriangles0to1@HeightFieldUtil@Gu@physx@@QEBAXAEBV?$PxTransformT@M@3@AEBVPxBounds3@3@AEAVOverlapReport@23@I@Z 000000018000ca40 f i GuCCTSweepTests.obj
 0001:0000bdc0       ?overlapAABBTriangles@HeightFieldUtil@Gu@physx@@QEBAXAEBV?$PxTransformT@M@3@0AEBVPxBounds3@3@AEAVOverlapReport@23@I@Z 000000018000cdc0 f i GuCCTSweepTests.obj
 0001:0000c3d0       ?overlapAABBTriangles@HeightFieldUtil@Gu@physx@@QEBAXAEBV?$PxTransformT@M@3@AEBVPxBounds3@3@AEAVOverlapReport@23@I@Z 000000018000d3d0 f i GuCCTSweepTests.obj
 0001:0000ca80       ?sweepBoxTriangles_Precise@Gu@physx@@YA_NIPEBVPxTriangle@2@_NAEBVPxBoxGeometry@2@AEBV?$PxTransformT@M@2@AEBV?$PxVec3T@M@2@MAEAUPxGeomSweepHit@2@PEBIMV?$PxFlags@W4Enum@PxHitFlag@physx@@G@2@@Z 000000018000da80 f   GuCCTSweepTests.obj
 0001:0000d800       ?sweepBox_BoxGeom_Precise@@YA_NAEBVPxGeometry@physx@@AEBV?$PxTransformT@M@2@AEBVPxBoxGeometry@2@1AEBVBox@Gu@2@AEBV?$PxVec3T@M@2@MAEAUPxGeomSweepHit@2@V?$PxFlags@W4Enum@PxHitFlag@physx@@G@2@MPEAUPxQueryThreadContext@2@@Z 000000018000e800 f   GuCCTSweepTests.obj
 0001:0000d9c0       ?sweepBox_CapsuleGeom_Precise@@YA_NAEBVPxGeometry@physx@@AEBV?$PxTransformT@M@2@AEBVPxBoxGeometry@2@1AEBVBox@Gu@2@AEBV?$PxVec3T@M@2@MAEAUPxGeomSweepHit@2@V?$PxFlags@W4Enum@PxHitFlag@physx@@G@2@MPEAUPxQueryThreadContext@2@@Z 000000018000e9c0 f   GuCCTSweepTests.obj
 0001:0000dd90       ?sweepBox_HeightFieldGeom_Precise@@YA_NAEBVPxGeometry@physx@@AEBV?$PxTransformT@M@2@AEBVPxBoxGeometry@2@1AEBVBox@Gu@2@AEBV?$PxVec3T@M@2@MAEAUPxGeomSweepHit@2@V?$PxFlags@W4Enum@PxHitFlag@physx@@G@2@MPEAUPxQueryThreadContext@2@@Z 000000018000ed90 f   GuCCTSweepTests.obj
 0001:0000e590       ?sweepBox_SphereGeom_Precise@@YA_NAEBVPxGeometry@physx@@AEBV?$PxTransformT@M@2@AEBVPxBoxGeometry@2@1AEBVBox@Gu@2@AEBV?$PxVec3T@M@2@MAEAUPxGeomSweepHit@2@V?$PxFlags@W4Enum@PxHitFlag@physx@@G@2@MPEAUPxQueryThreadContext@2@@Z 000000018000f590 f   GuCCTSweepTests.obj
 0001:0000e870       ?sweepCapsule_BoxGeom_Precise@@YA_NAEBVPxGeometry@physx@@AEBV?$PxTransformT@M@2@AEBVPxCapsuleGeometry@2@1AEBVCapsule@Gu@2@AEBV?$PxVec3T@M@2@MAEAUPxGeomSweepHit@2@V?$PxFlags@W4Enum@PxHitFlag@physx@@G@2@MPEAUPxQueryThreadContext@2@@Z 000000018000f870 f   GuCCTSweepTests.obj
 0001:0000eed0       ??0?$CacheMap@UCachedEdge@Gu@physx@@$0IA@@Gu@physx@@QEAA@XZ 000000018000fed0 f i GuGeometryQuery.obj
 0001:0000ef90       ??0?$CacheMap@UCachedVertex@Gu@physx@@$0IA@@Gu@physx@@QEAA@XZ 000000018000ff90 f i GuGeometryQuery.obj
 0001:0000f050       ??0MultiplePersistentContactManifold@Gu@physx@@QEAA@XZ 0000000180010050 f i GuGeometryQuery.obj
 0001:0000f0a0       ??0PCMMeshContactGeneration@Gu@physx@@QEAA@AEBT__m128@@0AEBVPxTransformV@aos@2@1AEAVMultiplePersistentContactManifold@12@AEAVPxContactBuffer@2@PEAV?$PxInlineArray@I$0DMA@V?$PxReflectionAllocator@I@physx@@@2@PEAVPxRenderOutput@2@@Z 00000001800100a0 f i GuGeometryQuery.obj
 0001:0000f9c0       ??0PolygonalBox@Gu@physx@@QEAA@AEBV012@@Z 00000001800109c0 f i GuGeometryQuery.obj
 0001:0000fc40       ??4MultiplePersistentContactManifold@Gu@physx@@QEAAAEAV012@$$QEAV012@@Z 0000000180010c40 f i GuGeometryQuery.obj
 0001:0000ff50       ??4MultiplePersistentContactManifold@Gu@physx@@QEAAAEAV012@AEBV012@@Z 0000000180010f50 f i GuGeometryQuery.obj
 0001:0000ff70       ??_G?$SupportLocalImpl@VTriangleV@Gu@physx@@@Gu@physx@@UEAAPEAXI@Z 0000000180010f70 f i GuPCMContactConvexCommon.obj
 0001:0000ff70       ??_E?$SupportLocalImpl@VBoxV@Gu@physx@@@Gu@physx@@UEAAPEAXI@Z 0000000180010f70 f i GuGeometryQuery.obj
 0001:0000ff70       ??_G?$SupportLocalImpl@VConvexHullNoScaleV@Gu@physx@@@Gu@physx@@UEAAPEAXI@Z 0000000180010f70 f i GuMTD.obj
 0001:0000ff70       ??_G?$SupportLocalImpl@VConvexHullV@Gu@physx@@@Gu@physx@@UEAAPEAXI@Z 0000000180010f70 f i GuGeometryQuery.obj
 0001:0000ff70       ??_G?$SupportLocalImpl@VBoxV@Gu@physx@@@Gu@physx@@UEAAPEAXI@Z 0000000180010f70 f i GuGeometryQuery.obj
 0001:0000ff70       ??_E?$SupportLocalImpl@VConvexHullV@Gu@physx@@@Gu@physx@@UEAAPEAXI@Z 0000000180010f70 f i GuGeometryQuery.obj
 0001:0000ff70       ??_E?$SupportLocalImpl@VConvexHullNoScaleV@Gu@physx@@@Gu@physx@@UEAAPEAXI@Z 0000000180010f70 f i GuMTD.obj
 0001:0000ff70       ??_E?$SupportLocalImpl@VTriangleV@Gu@physx@@@Gu@physx@@UEAAPEAXI@Z 0000000180010f70 f i GuPCMContactConvexCommon.obj
 0001:0000ffa0       ??_ESupportLocal@Gu@physx@@UEAAPEAXI@Z 0000000180010fa0 f i GuGeometryQuery.obj
 0001:0000ffa0       ??_GSupportLocal@Gu@physx@@UEAAPEAXI@Z 0000000180010fa0 f i GuGeometryQuery.obj
 0001:0000ffd0       ?clearManifold@MultiplePersistentContactManifold@Gu@physx@@QEAAXXZ 0000000180010fd0 f i GuGeometryQuery.obj
 0001:00010030       ?computeGeomBounds@PxGeometryQuery@physx@@SAXAEAVPxBounds3@2@AEBVPxGeometry@2@AEBV?$PxTransformT@M@2@MMV?$PxFlags@W4Enum@PxGeometryQueryFlag@physx@@I@2@@Z 0000000180011030 f   GuGeometryQuery.obj
 0001:000100b0       ?computePenetration@PxGeometryQuery@physx@@SA_NAEAV?$PxVec3T@M@2@AEAMAEBVPxGeometry@2@AEBV?$PxTransformT@M@2@23V?$PxFlags@W4Enum@PxGeometryQueryFlag@physx@@I@2@@Z 00000001800110b0 f   GuGeometryQuery.obj
 0001:000101f0       ?doSupport@?$SupportLocalImpl@VBoxV@Gu@physx@@@Gu@physx@@UEBA?AT__m128@@AEBT4@@Z 00000001800111f0 f i GuGeometryQuery.obj
 0001:00010220       ?doSupport@?$SupportLocalImpl@VBoxV@Gu@physx@@@Gu@physx@@UEBAXAEBT__m128@@AEAT4@1@Z 0000000180011220 f i GuGeometryQuery.obj
 0001:00010270       ?doSupport@?$SupportLocalImpl@VConvexHullV@Gu@physx@@@Gu@physx@@UEBA?AT__m128@@AEBT4@@Z 0000000180011270 f i GuGeometryQuery.obj
 0001:00010350       ?doSupport@?$SupportLocalImpl@VConvexHullV@Gu@physx@@@Gu@physx@@UEBAXAEBT__m128@@AEAT4@1@Z 0000000180011350 f i GuGeometryQuery.obj
 0001:000106b0       ?generateTriangleContacts@PxGeometryQuery@physx@@SA_NAEBVPxGeometry@2@AEBV?$PxTransformT@M@2@QEBV?$PxVec3T@M@2@IMMMAEAVPxContactBuffer@2@@Z 00000001800116b0 f   GuGeometryQuery.obj
 0001:00011fb0       ?getEmptyManifold@MultiplePersistentContactManifold@Gu@physx@@QEAAPEAVSinglePersistentContactManifold@23@XZ 0000000180012fb0 f i GuGeometryQuery.obj
 0001:00011fd0       ?getManifold@MultiplePersistentContactManifold@Gu@physx@@QEAAPEAVSinglePersistentContactManifold@23@I@Z 0000000180012fd0 f i GuGeometryQuery.obj
 0001:00011ff0       ?getUniqueID@PxCustomGeometry@physx@@SAIXZ 0000000180012ff0 f   GuGeometryQuery.obj
 0001:00012010       ?getWorldBounds@PxGeometryQuery@physx@@SA?AVPxBounds3@2@AEBVPxGeometry@2@AEBV?$PxTransformT@M@2@M@Z 0000000180013010 f   GuGeometryQuery.obj
 0001:00012080       ?hillClimbing@ConvexHullV@Gu@physx@@QEBAIAEBT__m128@@@Z 0000000180013080 f i GuGeometryQuery.obj
 0001:000122b0       ?initialize@MultiplePersistentContactManifold@Gu@physx@@QEAAXXZ 00000001800132b0 f i GuGeometryQuery.obj
 0001:00012310       ?invalidate@MultiplePersistentContactManifold@Gu@physx@@QEAAIAEBVPxTransformV@aos@3@AEBT__m128@@1@Z 0000000180013310 f i GuGeometryQuery.obj
 0001:00012380       ?invalidate@MultiplePersistentContactManifold@Gu@physx@@QEAAIAEBVPxTransformV@aos@3@AEBT__m128@@@Z 0000000180013380 f i GuGeometryQuery.obj
 0001:000123f0       ?isUnit@?$PxQuatT@M@physx@@QEBA_NXZ 00000001800133f0 f i GuGeometryQuery.obj
 0001:000124b0       ?isValid@PxGeometryQuery@physx@@SA_NAEBVPxGeometry@2@@Z 00000001800134b0 f   GuGeometryQuery.obj
 0001:000127a0       ?maxTransformPositionDelta@MultiplePersistentContactManifold@Gu@physx@@QEAA?AT__m128@@AEBT4@@Z 00000001800137a0 f i GuGeometryQuery.obj
 0001:000127e0       ?maxTransformQuatDelta@MultiplePersistentContactManifold@Gu@physx@@QEAA?AT__m128@@AEBT4@@Z 00000001800137e0 f i GuGeometryQuery.obj
 0001:00012820       ?overlap@PxGeometryQuery@physx@@SA_NAEBVPxGeometry@2@AEBV?$PxTransformT@M@2@01V?$PxFlags@W4Enum@PxGeometryQueryFlag@physx@@I@2@PEAUPxQueryThreadContext@2@@Z 0000000180013820 f   GuGeometryQuery.obj
 0001:00012900       ?pointDistance@PxGeometryQuery@physx@@SAMAEBV?$PxVec3T@M@2@AEBVPxGeometry@2@AEBV?$PxTransformT@M@2@PEAV32@PEAIV?$PxFlags@W4Enum@PxGeometryQueryFlag@physx@@I@2@@Z 0000000180013900 f   GuGeometryQuery.obj
 0001:00013080       ?populateVerts@?$SupportLocalImpl@VBoxV@Gu@physx@@@Gu@physx@@UEBAXPEBEIPEBV?$PxVec3T@M@3@PEAT__m128@@@Z 0000000180014080 f i GuGeometryQuery.obj
 0001:000130c0       ?populateVerts@?$SupportLocalImpl@VConvexHullV@Gu@physx@@@Gu@physx@@UEBAXPEBEIPEBV?$PxVec3T@M@3@PEAT__m128@@@Z 00000001800140c0 f i GuGeometryQuery.obj
 0001:00013120       ?raycast@PxGeometryQuery@physx@@SAIAEBV?$PxVec3T@M@2@0AEBVPxGeometry@2@AEBV?$PxTransformT@M@2@MV?$PxFlags@W4Enum@PxHitFlag@physx@@G@2@IPEIAUPxGeomRaycastHit@2@IV?$PxFlags@W4Enum@PxGeometryQueryFlag@physx@@I@2@PEAUPxQueryThreadContext@2@@Z 0000000180014120 f   GuGeometryQuery.obj
 0001:00013220       ?reduceManifoldContactsInDifferentPatches@MultiplePersistentContactManifold@Gu@physx@@QEAAIPEAPEAUPCMContactPatch@23@IPEAVMeshPersistentContact@23@IAEBT__m128@@@Z 0000000180014220 f i GuGeometryQuery.obj
 0001:00013380       ?refineContactPatchConnective@MultiplePersistentContactManifold@Gu@physx@@QEAAXPEAPEAUPCMContactPatch@23@IPEAVMeshPersistentContact@23@AEBT__m128@@@Z 0000000180014380 f i GuGeometryQuery.obj
 0001:00013470       ?refreshManifold@MultiplePersistentContactManifold@Gu@physx@@QEAAXAEBVPxMatTransformV@aos@3@AEBT__m128@@1@Z 0000000180014470 f i GuGeometryQuery.obj
 0001:00013570       ?setRelativeTransform@MultiplePersistentContactManifold@Gu@physx@@QEAAXAEBVPxTransformV@aos@3@@Z 0000000180014570 f i GuGeometryQuery.obj
 0001:00013580       ?supportVertexIndex@ConvexHullV@Gu@physx@@QEBAIAEBT__m128@@@Z 0000000180014580 f i GuGeometryQuery.obj
 0001:00013800       ?sweep@PxGeometryQuery@physx@@SA_NAEBV?$PxVec3T@M@2@MAEBVPxGeometry@2@AEBV?$PxTransformT@M@2@12AEAUPxGeomSweepHit@2@V?$PxFlags@W4Enum@PxHitFlag@physx@@G@2@MV?$PxFlags@W4Enum@PxGeometryQueryFlag@physx@@I@2@PEAUPxQueryThreadContext@2@@Z 0000000180014800 f   GuGeometryQuery.obj
 0001:00013ca0       ?toBuffer@MultiplePersistentContactManifold@Gu@physx@@QEAAXPEIAE@Z 0000000180014ca0 f i GuGeometryQuery.obj
 0001:00013d80       ?computeBoxPoints@Gu@physx@@YAXAEBVPxBounds3@2@PEIAV?$PxVec3T@M@2@@Z 0000000180014d80 f   GuInternal.obj
 0001:00013e20       ?computeSweptBox@Gu@physx@@YAXAEAVBox@12@AEBV?$PxVec3T@M@2@1AEBV?$PxMat33T@M@2@1M@Z 0000000180014e20 f   GuInternal.obj
 0001:00014350       ?getPlane@Gu@physx@@YA?AVPxPlane@2@AEBV?$PxTransformT@M@2@@Z 0000000180015350 f   GuInternal.obj
 0001:000147d0       ??_ECallbackRefit@RTree@Gu@physx@@UEAAPEAXI@Z 00000001800157d0 f i GuTriangleMeshRTree.obj
 0001:000147d0       ??_ECallbackRaycast@RTree@Gu@physx@@UEAAPEAXI@Z 00000001800157d0 f i GuMidphaseRTree.obj
 0001:000147d0       ??_GPxInsertionCallback@physx@@MEAAPEAXI@Z 00000001800157d0 f i GuMeshFactory.obj
 0001:000147d0       ??_GCallbackRaycast@RTree@Gu@physx@@UEAAPEAXI@Z 00000001800157d0 f i GuMidphaseRTree.obj
 0001:000147d0       ??_GCallbackRefit@RTree@Gu@physx@@UEAAPEAXI@Z 00000001800157d0 f i GuTriangleMeshRTree.obj
 0001:000147d0       ??_EPxInsertionCallback@physx@@MEAAPEAXI@Z 00000001800157d0 f i GuMeshFactory.obj
 0001:00014800       ??$copy@V?$PxReflectionAllocator@USlab@NodeAllocator@Gu@physx@@@physx@@@?$PxArray@USlab@NodeAllocator@Gu@physx@@V?$PxReflectionAllocator@USlab@NodeAllocator@Gu@physx@@@4@@physx@@IEAAXAEBV01@@Z 0000000180015800 f i GuMeshFactory.obj
 0001:000148c0       ??0AABBTreeBounds@Gu@physx@@QEAA@XZ 00000001800158c0 f i GuMeshFactory.obj
 0001:000148d0       ??4AABBTreeBuildNode@Gu@physx@@QEAAAEAV012@AEBV012@@Z 00000001800158d0 f i GuMeshFactory.obj
 0001:000148d0       ??0AABBTreeBuildNode@Gu@physx@@QEAA@AEBV012@@Z 00000001800158d0 f i GuMeshFactory.obj
 0001:00014910       ??0AABBTreeBuildParams@Gu@physx@@QEAA@IIPEBVAABBTreeBounds@12@W4BVHBuildStrategy@12@@Z 0000000180015910 f i GuMeshFactory.obj
 0001:00014930       ??0MeshFactory@Gu@physx@@QEAA@XZ 0000000180015930 f   GuMeshFactory.obj
 0001:00014b30       ??0NodeAllocator@Gu@physx@@QEAA@AEBV012@@Z 0000000180015b30 f i GuMeshFactory.obj
 0001:00014b70       ??0TriangleMeshData@Gu@physx@@QEAA@XZ 0000000180015b70 f i GuMeshFactory.obj
 0001:00014c80       ??1AABBTreeBounds@Gu@physx@@QEAA@XZ 0000000180015c80 f i GuMeshFactory.obj
 0001:00014c90       ??1AABBTreeBuildParams@Gu@physx@@QEAA@XZ 0000000180015c90 f i GuMeshFactory.obj
 0001:00014c90       ?reset@AABBTreeBuildParams@Gu@physx@@QEAAXXZ 0000000180015c90 f i GuMeshFactory.obj
 0001:00014ce0       ??1CollisionMeshMappingData@Gu@physx@@UEAA@XZ 0000000180015ce0 f i GuMeshFactory.obj
 0001:00014e20       ??1MeshDataBase@Gu@physx@@UEAA@XZ 0000000180015e20 f i GuMeshFactory.obj
 0001:00014f60       ??1MeshFactory@Gu@physx@@MEAA@XZ 0000000180015f60 f   GuMeshFactory.obj
 0001:00015090       ??1RTreeTriangleData@Gu@physx@@UEAA@XZ 0000000180016090 f i GuMeshFactory.obj
 0001:00015100       ??1SoftBodyCollisionData@Gu@physx@@UEAA@XZ 0000000180016100 f i GuMeshFactory.obj
 0001:00015230       ??1SoftBodySimulationData@Gu@physx@@UEAA@XZ 0000000180016230 f i GuMeshFactory.obj
 0001:00015340       ??1TetrahedronMeshData@Gu@physx@@QEAA@XZ 0000000180016340 f i GuMeshFactory.obj
 0001:000153d0       ??1TriangleMeshData@Gu@physx@@UEAA@XZ 00000001800163d0 f i GuMeshFactory.obj
 0001:00015500       ??4NodeAllocator@Gu@physx@@QEAAAEAV012@AEBV012@@Z 0000000180016500 f i GuMeshFactory.obj
 0001:000155b0       ??_EMeshFactory@Gu@physx@@MEAAPEAXI@Z 00000001800165b0 f i GuMeshFactory.obj
 0001:000156c0       ??_FAABBTreeBuildParams@Gu@physx@@QEAAXXZ 00000001800166c0 f i GuMeshFactory.obj
 0001:000156e0       ??_GBV4TriangleData@Gu@physx@@UEAAPEAXI@Z 00000001800166e0 f i GuMeshFactory.obj
 0001:000156e0       ??_EBV4TriangleData@Gu@physx@@UEAAPEAXI@Z 00000001800166e0 f i GuMeshFactory.obj
 0001:00015770       ??_GCollisionMeshMappingData@Gu@physx@@UEAAPEAXI@Z 0000000180016770 f i GuMeshFactory.obj
 0001:00015770       ??_ECollisionMeshMappingData@Gu@physx@@UEAAPEAXI@Z 0000000180016770 f i GuMeshFactory.obj
 0001:000157e0       ??_GMeshDataBase@Gu@physx@@UEAAPEAXI@Z 00000001800167e0 f i GuMeshFactory.obj
 0001:000157e0       ??_EMeshDataBase@Gu@physx@@UEAAPEAXI@Z 00000001800167e0 f i GuMeshFactory.obj
 0001:00015850       ??_GPxCollisionMeshMappingData@physx@@UEAAPEAXI@Z 0000000180016850 f i GuMeshFactory.obj
 0001:00015850       ??_EPxCollisionMeshMappingData@physx@@UEAAPEAXI@Z 0000000180016850 f i GuMeshFactory.obj
 0001:000158a0       ??_ERTreeTriangleData@Gu@physx@@UEAAPEAXI@Z 00000001800168a0 f i GuMeshFactory.obj
 0001:000158a0       ??_GRTreeTriangleData@Gu@physx@@UEAAPEAXI@Z 00000001800168a0 f i GuMeshFactory.obj
 0001:00015950       ??_ESoftBodyCollisionData@Gu@physx@@UEAAPEAXI@Z 0000000180016950 f i GuMeshFactory.obj
 0001:00015950       ??_GSoftBodyCollisionData@Gu@physx@@UEAAPEAXI@Z 0000000180016950 f i GuMeshFactory.obj
 0001:000159c0       ??_GSoftBodySimulationData@Gu@physx@@UEAAPEAXI@Z 00000001800169c0 f i GuMeshFactory.obj
 0001:000159c0       ??_ESoftBodySimulationData@Gu@physx@@UEAAPEAXI@Z 00000001800169c0 f i GuMeshFactory.obj
 0001:00015a30       ??_ETriangleMeshData@Gu@physx@@UEAAPEAXI@Z 0000000180016a30 f i GuMeshFactory.obj
 0001:00015a30       ??_GTriangleMeshData@Gu@physx@@UEAAPEAXI@Z 0000000180016a30 f i GuMeshFactory.obj
 0001:00015aa0       ??_V@YAXPEAX_K@Z           0000000180016aa0 f i LIBCMT:delete_array_size.obj
 0001:00015aa0       ?__global_delete@@YAXPEAX_K@Z 0000000180016aa0 f i GuMeshFactory.obj
 0001:00015ab0       ?addBVH@MeshFactory@Gu@physx@@QEAAXPEAVBVH@23@_N@Z 0000000180016ab0 f   GuMeshFactory.obj
 0001:00015b50       ?addConvexMesh@MeshFactory@Gu@physx@@QEAAXPEAVConvexMesh@23@_N@Z 0000000180016b50 f   GuMeshFactory.obj
 0001:00015bf0       ?addFactoryListener@MeshFactory@Gu@physx@@QEAAXAEAVMeshFactoryListener@23@@Z 0000000180016bf0 f   GuMeshFactory.obj
 0001:00015c60       ?addHeightField@MeshFactory@Gu@physx@@QEAAXPEAVHeightField@23@_N@Z 0000000180016c60 f   GuMeshFactory.obj
 0001:00015d00       ?addSoftBodyMesh@MeshFactory@Gu@physx@@QEAAXPEAVSoftBodyMesh@23@_N@Z 0000000180016d00 f   GuMeshFactory.obj
 0001:00015da0       ?addTetrahedronMesh@MeshFactory@Gu@physx@@QEAAXPEAVTetrahedronMesh@23@_N@Z 0000000180016da0 f   GuMeshFactory.obj
 0001:00015e40       ?addTriangleMesh@MeshFactory@Gu@physx@@QEAAXPEAVTriangleMesh@23@_N@Z 0000000180016e40 f   GuMeshFactory.obj
 0001:00015ee0       ?allocate@?$PxArray@USlab@NodeAllocator@Gu@physx@@V?$PxReflectionAllocator@USlab@NodeAllocator@Gu@physx@@@4@@physx@@IEAAPEAUSlab@NodeAllocator@Gu@2@I@Z 0000000180016ee0 f i GuMeshFactory.obj
 0001:00015f80       ?allocateAdjacencies@TriangleMeshData@Gu@physx@@QEAAPEAIXZ 0000000180016f80 f i GuMeshFactory.obj
 0001:00015ff0       ?allocateExtraTrigData@TriangleMeshData@Gu@physx@@QEAAPEAEXZ 0000000180016ff0 f i GuMeshFactory.obj
 0001:00016060       ?allocateFaceRemap@TriangleMeshData@Gu@physx@@QEAAPEAIXZ 0000000180017060 f i GuMeshFactory.obj
 0001:000160d0       ?allocateGridModelData@SoftBodySimulationData@Gu@physx@@QEAAXIIIIIII@Z 00000001800170d0 f i GuMeshFactory.obj
 0001:00016340       ?allocateMaterials@TetrahedronMeshData@Gu@physx@@QEAAPEAGXZ 0000000180017340 f i GuMeshFactory.obj
 0001:000163b0       ?allocateMaterials@TriangleMeshData@Gu@physx@@QEAAPEAGXZ 00000001800173b0 f i GuMeshFactory.obj
 0001:00016420       ?allocateTetrahedrons@TetrahedronMeshData@Gu@physx@@QEAAXII@Z 0000000180017420 f i GuMeshFactory.obj
 0001:000164b0       ?allocateTriangles@TriangleMeshData@Gu@physx@@QEAAPEAXI_NI@Z 00000001800174b0 f i GuMeshFactory.obj
 0001:000165a0       ?allocateVertices@MeshDataBase@Gu@physx@@QEAAPEAV?$PxVec3T@M@3@I@Z 00000001800175a0 f i GuMeshFactory.obj
 0001:00016610       ?allocateVertices@TetrahedronMeshData@Gu@physx@@QEAAPEAV?$PxVec3T@M@3@II@Z 0000000180017610 f i GuMeshFactory.obj
 0001:000166b0       ?allocatemappingData@CollisionMeshMappingData@Gu@physx@@QEAAXIIII@Z 00000001800176b0 f i GuMeshFactory.obj
 0001:00016880       ?create@?$PxHashBase@PEAVTriangleMesh@Gu@physx@@PEAV123@U?$PxHash@PEAVTriangleMesh@Gu@physx@@@3@UGetKey@?$PxHashSetBase@PEAVTriangleMesh@Gu@physx@@U?$PxHash@PEAVTriangleMesh@Gu@physx@@@3@VPxAllocator@3@$00@3@VPxAllocator@3@$00@physx@@QEAAPEAPEAVTriangleMesh@Gu@2@AEBQEAV342@AEA_N@Z 0000000180017880 f i GuMeshFactory.obj
 0001:00016880       ?create@?$PxHashBase@PEAVTetrahedronMesh@Gu@physx@@PEAV123@U?$PxHash@PEAVTetrahedronMesh@Gu@physx@@@3@UGetKey@?$PxHashSetBase@PEAVTetrahedronMesh@Gu@physx@@U?$PxHash@PEAVTetrahedronMesh@Gu@physx@@@3@VPxAllocator@3@$00@3@VPxAllocator@3@$00@physx@@QEAAPEAPEAVTetrahedronMesh@Gu@2@AEBQEAV342@AEA_N@Z 0000000180017880 f i GuMeshFactory.obj
 0001:00016880       ?create@?$PxHashBase@PEAVHeightField@Gu@physx@@PEAV123@U?$PxHash@PEAVHeightField@Gu@physx@@@3@UGetKey@?$PxHashSetBase@PEAVHeightField@Gu@physx@@U?$PxHash@PEAVHeightField@Gu@physx@@@3@VPxAllocator@3@$00@3@VPxAllocator@3@$00@physx@@QEAAPEAPEAVHeightField@Gu@2@AEBQEAV342@AEA_N@Z 0000000180017880 f i GuMeshFactory.obj
 0001:00016880       ?create@?$PxHashBase@PEAVSoftBodyMesh@Gu@physx@@PEAV123@U?$PxHash@PEAVSoftBodyMesh@Gu@physx@@@3@UGetKey@?$PxHashSetBase@PEAVSoftBodyMesh@Gu@physx@@U?$PxHash@PEAVSoftBodyMesh@Gu@physx@@@3@VPxAllocator@3@$00@3@VPxAllocator@3@$00@physx@@QEAAPEAPEAVSoftBodyMesh@Gu@2@AEBQEAV342@AEA_N@Z 0000000180017880 f i GuMeshFactory.obj
 0001:00016880       ?create@?$PxHashBase@PEAVConvexMesh@Gu@physx@@PEAV123@U?$PxHash@PEAVConvexMesh@Gu@physx@@@3@UGetKey@?$PxHashSetBase@PEAVConvexMesh@Gu@physx@@U?$PxHash@PEAVConvexMesh@Gu@physx@@@3@VPxAllocator@3@$00@3@VPxAllocator@3@$00@physx@@QEAAPEAPEAVConvexMesh@Gu@2@AEBQEAV342@AEA_N@Z 0000000180017880 f i GuMeshFactory.obj
 0001:00016880       ?create@?$PxHashBase@PEAVBVH@Gu@physx@@PEAV123@U?$PxHash@PEAVBVH@Gu@physx@@@3@UGetKey@?$PxHashSetBase@PEAVBVH@Gu@physx@@U?$PxHash@PEAVBVH@Gu@physx@@@3@VPxAllocator@3@$00@3@VPxAllocator@3@$00@physx@@QEAAPEAPEAVBVH@Gu@2@AEBQEAV342@AEA_N@Z 0000000180017880 f i GuMeshFactory.obj
 0001:00016a20       ?createBVH@MeshFactory@Gu@physx@@IEAAPEAVPxBVH@3@AEAVBVHData@23@@Z 0000000180017a20 f   GuMeshFactory.obj
 0001:00016b60       ?createBVH@MeshFactory@Gu@physx@@QEAAPEAVPxBVH@3@AEAVPxInputStream@3@@Z 0000000180017b60 f   GuMeshFactory.obj
 0001:00016ca0       ?createBVH@MeshFactory@Gu@physx@@QEAAPEAVPxBVH@3@PEAX@Z 0000000180017ca0 f   GuMeshFactory.obj
 0001:00016cb0       ?createConvexMesh@MeshFactory@Gu@physx@@IEAAPEAVPxConvexMesh@3@AEAUConvexHullInitData@23@@Z 0000000180017cb0 f   GuMeshFactory.obj
 0001:00016df0       ?createConvexMesh@MeshFactory@Gu@physx@@QEAAPEAVPxConvexMesh@3@AEAVPxInputStream@3@@Z 0000000180017df0 f   GuMeshFactory.obj
 0001:00016f40       ?createConvexMesh@MeshFactory@Gu@physx@@QEAAPEAVPxConvexMesh@3@PEAX@Z 0000000180017f40 f   GuMeshFactory.obj
 0001:00016f50       ?createHeightField@MeshFactory@Gu@physx@@QEAAPEAVPxHeightField@3@AEAVPxInputStream@3@@Z 0000000180017f50 f   GuMeshFactory.obj
 0001:000170a0       ?createHeightField@MeshFactory@Gu@physx@@QEAAPEAVPxHeightField@3@PEAX@Z 00000001800180a0 f   GuMeshFactory.obj
 0001:000171e0       ?createSoftBodyMesh@MeshFactory@Gu@physx@@IEAAPEAVPxSoftBodyMesh@3@AEAVSoftBodyMeshData@23@@Z 00000001800181e0 f   GuMeshFactory.obj
 0001:00017320       ?createSoftBodyMesh@MeshFactory@Gu@physx@@QEAAPEAVPxSoftBodyMesh@3@AEAVPxInputStream@3@@Z 0000000180018320 f   GuMeshFactory.obj
 0001:000178e0       ?createSoftBodyMesh@MeshFactory@Gu@physx@@QEAAPEAVPxSoftBodyMesh@3@PEAX@Z 00000001800188e0 f   GuMeshFactory.obj
 0001:000178f0       ?createTetrahedronMesh@MeshFactory@Gu@physx@@IEAAPEAVPxTetrahedronMesh@3@AEAVTetrahedronMeshData@23@@Z 00000001800188f0 f   GuMeshFactory.obj
 0001:00017a20       ?createTetrahedronMesh@MeshFactory@Gu@physx@@QEAAPEAVPxTetrahedronMesh@3@AEAVPxInputStream@3@@Z 0000000180018a20 f   GuMeshFactory.obj
 0001:00017a80       ?createTetrahedronMesh@MeshFactory@Gu@physx@@QEAAPEAVPxTetrahedronMesh@3@PEAX@Z 0000000180018a80 f   GuMeshFactory.obj
 0001:00017a90       ?createTriangleMesh@MeshFactory@Gu@physx@@IEAAPEAVPxTriangleMesh@3@AEAVTriangleMeshData@23@@Z 0000000180018a90 f   GuMeshFactory.obj
 0001:00017c50       ?createTriangleMesh@MeshFactory@Gu@physx@@QEAAPEAVPxTriangleMesh@3@AEAVPxInputStream@3@@Z 0000000180018c50 f   GuMeshFactory.obj
 0001:00017cb0       ?createTriangleMesh@MeshFactory@Gu@physx@@QEAAPEAVPxTriangleMesh@3@PEAX@Z 0000000180018cb0 f   GuMeshFactory.obj
 0001:00017cc0       ?erase@?$PxHashBase@PEAVHeightField@Gu@physx@@PEAV123@U?$PxHash@PEAVHeightField@Gu@physx@@@3@UGetKey@?$PxHashSetBase@PEAVHeightField@Gu@physx@@U?$PxHash@PEAVHeightField@Gu@physx@@@3@VPxAllocator@3@$00@3@VPxAllocator@3@$00@physx@@QEAA_NAEBQEAVHeightField@Gu@2@@Z 0000000180018cc0 f i GuMeshFactory.obj
 0001:00017cc0       ?erase@?$PxHashBase@PEAVTriangleMesh@Gu@physx@@PEAV123@U?$PxHash@PEAVTriangleMesh@Gu@physx@@@3@UGetKey@?$PxHashSetBase@PEAVTriangleMesh@Gu@physx@@U?$PxHash@PEAVTriangleMesh@Gu@physx@@@3@VPxAllocator@3@$00@3@VPxAllocator@3@$00@physx@@QEAA_NAEBQEAVTriangleMesh@Gu@2@@Z 0000000180018cc0 f i GuMeshFactory.obj
 0001:00017cc0       ?erase@?$PxHashBase@PEAVTetrahedronMesh@Gu@physx@@PEAV123@U?$PxHash@PEAVTetrahedronMesh@Gu@physx@@@3@UGetKey@?$PxHashSetBase@PEAVTetrahedronMesh@Gu@physx@@U?$PxHash@PEAVTetrahedronMesh@Gu@physx@@@3@VPxAllocator@3@$00@3@VPxAllocator@3@$00@physx@@QEAA_NAEBQEAVTetrahedronMesh@Gu@2@@Z 0000000180018cc0 f i GuMeshFactory.obj
 0001:00017cc0       ?erase@?$PxHashBase@PEAVBVH@Gu@physx@@PEAV123@U?$PxHash@PEAVBVH@Gu@physx@@@3@UGetKey@?$PxHashSetBase@PEAVBVH@Gu@physx@@U?$PxHash@PEAVBVH@Gu@physx@@@3@VPxAllocator@3@$00@3@VPxAllocator@3@$00@physx@@QEAA_NAEBQEAVBVH@Gu@2@@Z 0000000180018cc0 f i GuMeshFactory.obj
 0001:00017cc0       ?erase@?$PxHashBase@PEAVConvexMesh@Gu@physx@@PEAV123@U?$PxHash@PEAVConvexMesh@Gu@physx@@@3@UGetKey@?$PxHashSetBase@PEAVConvexMesh@Gu@physx@@U?$PxHash@PEAVConvexMesh@Gu@physx@@@3@VPxAllocator@3@$00@3@VPxAllocator@3@$00@physx@@QEAA_NAEBQEAVConvexMesh@Gu@2@@Z 0000000180018cc0 f i GuMeshFactory.obj
 0001:00017cc0       ?erase@?$PxHashBase@PEAVSoftBodyMesh@Gu@physx@@PEAV123@U?$PxHash@PEAVSoftBodyMesh@Gu@physx@@@3@UGetKey@?$PxHashSetBase@PEAVSoftBodyMesh@Gu@physx@@U?$PxHash@PEAVSoftBodyMesh@Gu@physx@@@3@VPxAllocator@3@$00@3@VPxAllocator@3@$00@physx@@QEAA_NAEBQEAVSoftBodyMesh@Gu@2@@Z 0000000180018cc0 f i GuMeshFactory.obj
 0001:00017e30       ?getBVHs@MeshFactory@Gu@physx@@QEBAIPEAPEAVPxBVH@3@II@Z 0000000180018e30 f   GuMeshFactory.obj
 0001:00017ed0       ?getBounds@AABBTreeBounds@Gu@physx@@QEAAPEAVPxBounds3@3@XZ 0000000180018ed0 f i GuMeshFactory.obj
 0001:00017ed0       ?getBounds@AABBTreeBounds@Gu@physx@@QEBAPEBVPxBounds3@3@XZ 0000000180018ed0 f i GuMeshFactory.obj
 0001:00017ee0       ?getConvexMeshes@MeshFactory@Gu@physx@@QEBAIPEAPEAVPxConvexMesh@3@II@Z 0000000180018ee0 f   GuMeshFactory.obj
 0001:00017f80       ?getHeightFields@MeshFactory@Gu@physx@@QEBAIPEAPEAVPxHeightField@3@II@Z 0000000180018f80 f   GuMeshFactory.obj
 0001:00018020       ?getNbBVHs@MeshFactory@Gu@physx@@QEBAIXZ 0000000180019020 f   GuMeshFactory.obj
 0001:00018060       ?getNbConvexMeshes@MeshFactory@Gu@physx@@QEBAIXZ 0000000180019060 f   GuMeshFactory.obj
 0001:000180a0       ?getNbHeightFields@MeshFactory@Gu@physx@@QEBAIXZ 00000001800190a0 f   GuMeshFactory.obj
 0001:000180e0       ?getNbPrimitives@AABBTreeBuildNode@Gu@physx@@QEBAIXZ 00000001800190e0 f i GuMeshFactory.obj
 0001:000180e0       ?getNbRuntimePrimitives@AABBTreeBuildNode@Gu@physx@@QEBAIXZ 00000001800190e0 f i GuMeshFactory.obj
 0001:000180f0       ?getNbSoftBodyMeshes@MeshFactory@Gu@physx@@QEBAIXZ 00000001800190f0 f   GuMeshFactory.obj
 0001:00018130       ?getNbTetrahedronMeshes@MeshFactory@Gu@physx@@QEBAIXZ 0000000180019130 f   GuMeshFactory.obj
 0001:00018170       ?getNbTriangleMeshes@MeshFactory@Gu@physx@@QEBAIXZ 0000000180019170 f   GuMeshFactory.obj
 0001:000181b0       ?getNeg@AABBTreeBuildNode@Gu@physx@@QEBAPEBV123@XZ 00000001800191b0 f i GuMeshFactory.obj
 0001:000181d0       ?getPrimitives@AABBTreeBuildNode@Gu@physx@@QEAAPEAIPEAI@Z 00000001800191d0 f i GuMeshFactory.obj
 0001:000181d0       ?getPrimitives@AABBTreeBuildNode@Gu@physx@@QEBAPEBIPEBI@Z 00000001800191d0 f i GuMeshFactory.obj
 0001:000181e0       ?getSoftBodyMeshes@MeshFactory@Gu@physx@@QEBAIPEAPEAVPxSoftBodyMesh@3@II@Z 00000001800191e0 f   GuMeshFactory.obj
 0001:00018280       ?getTetrahedronMeshes@MeshFactory@Gu@physx@@QEBAIPEAPEAVPxTetrahedronMesh@3@II@Z 0000000180019280 f   GuMeshFactory.obj
 0001:00018310       ?getTriangleMeshes@MeshFactory@Gu@physx@@QEBAIPEAPEAVPxTriangleMesh@3@II@Z 0000000180019310 f   GuMeshFactory.obj
 0001:000183a0       ?growAndPushBack@?$PxArray@PEAVMeshFactoryListener@Gu@physx@@V?$PxReflectionAllocator@PEAVMeshFactoryListener@Gu@physx@@@3@@physx@@IEAAAEAPEAVMeshFactoryListener@Gu@2@AEBQEAV342@@Z 00000001800193a0 f i GuMeshFactory.obj
 0001:000184c0       ?isLeaf@AABBTreeBuildNode@Gu@physx@@QEBA_NXZ 00000001800194c0 f i GuMeshFactory.obj
 0001:00019f50       ?moveFrom@AABBTreeBounds@Gu@physx@@QEAAXAEAV123@@Z 000000018001af50 f i GuMeshFactory.obj
 0001:00019f60       ?notifyFactoryListener@MeshFactory@Gu@physx@@QEAAXPEBVPxBase@3@G@Z 000000018001af60 f   GuMeshFactory.obj
 0001:00019fd0       ?notifyListenersAdd@MeshFactory@Gu@physx@@IEAAXPEBVPxBase@3@@Z 000000018001afd0 f   GuMeshFactory.obj
 0001:0001a020       ?notifyListenersRemove@MeshFactory@Gu@physx@@IEAAXPEBVPxBase@3@@Z 000000018001b020 f   GuMeshFactory.obj
 0001:0001a070       ?ownsMemory@AABBTreeBounds@Gu@physx@@QEBA_NXZ 000000018001b070 f i GuMeshFactory.obj
 0001:0001a2f0       ?recreate@?$PxArray@USlab@NodeAllocator@Gu@physx@@V?$PxReflectionAllocator@USlab@NodeAllocator@Gu@physx@@@4@@physx@@IEAAXI@Z 000000018001b2f0 f i GuMeshFactory.obj
 0001:0001a3a0       ?release@CollisionMeshMappingData@Gu@physx@@UEAAXXZ 000000018001b3a0 f i GuMeshFactory.obj
 0001:0001a3c0       ?release@MeshFactory@Gu@physx@@QEAAXXZ 000000018001b3c0 f   GuMeshFactory.obj
 0001:0001a4b0       ?remove@MeshFactory@Gu@physx@@QEAA_NAEAVPxBase@3@@Z 000000018001b4b0 f   GuMeshFactory.obj
 0001:0001a500       ?removeBVH@MeshFactory@Gu@physx@@QEAA_NAEAVPxBVH@3@@Z 000000018001b500 f   GuMeshFactory.obj
 0001:0001a590       ?removeConvexMesh@MeshFactory@Gu@physx@@QEAA_NAEAVPxConvexMesh@3@@Z 000000018001b590 f   GuMeshFactory.obj
 0001:0001a620       ?removeFactoryListener@MeshFactory@Gu@physx@@QEAAXAEAVMeshFactoryListener@23@@Z 000000018001b620 f   GuMeshFactory.obj
 0001:0001a6b0       ?removeHeightField@MeshFactory@Gu@physx@@QEAA_NAEAVPxHeightField@3@@Z 000000018001b6b0 f   GuMeshFactory.obj
 0001:0001a740       ?removeSoftBodyMesh@MeshFactory@Gu@physx@@QEAA_NAEAVPxSoftBodyMesh@3@@Z 000000018001b740 f   GuMeshFactory.obj
 0001:0001a7d0       ?removeTetrahedronMesh@MeshFactory@Gu@physx@@QEAA_NAEAVPxTetrahedronMesh@3@@Z 000000018001b7d0 f   GuMeshFactory.obj
 0001:0001a860       ?removeTriangleMesh@MeshFactory@Gu@physx@@QEAA_NAEAVPxTriangleMesh@3@@Z 000000018001b860 f   GuMeshFactory.obj
 0001:0001a8f0       ?reserveInternal@?$PxHashBase@PEAVSoftBodyMesh@Gu@physx@@PEAV123@U?$PxHash@PEAVSoftBodyMesh@Gu@physx@@@3@UGetKey@?$PxHashSetBase@PEAVSoftBodyMesh@Gu@physx@@U?$PxHash@PEAVSoftBodyMesh@Gu@physx@@@3@VPxAllocator@3@$00@3@VPxAllocator@3@$00@physx@@AEAAXI@Z 000000018001b8f0 f i GuMeshFactory.obj
 0001:0001a8f0       ?reserveInternal@?$PxHashBase@PEAVTriangleMesh@Gu@physx@@PEAV123@U?$PxHash@PEAVTriangleMesh@Gu@physx@@@3@UGetKey@?$PxHashSetBase@PEAVTriangleMesh@Gu@physx@@U?$PxHash@PEAVTriangleMesh@Gu@physx@@@3@VPxAllocator@3@$00@3@VPxAllocator@3@$00@physx@@AEAAXI@Z 000000018001b8f0 f i GuMeshFactory.obj
 0001:0001a8f0       ?reserveInternal@?$PxHashBase@PEAVConvexMesh@Gu@physx@@PEAV123@U?$PxHash@PEAVConvexMesh@Gu@physx@@@3@UGetKey@?$PxHashSetBase@PEAVConvexMesh@Gu@physx@@U?$PxHash@PEAVConvexMesh@Gu@physx@@@3@VPxAllocator@3@$00@3@VPxAllocator@3@$00@physx@@AEAAXI@Z 000000018001b8f0 f i GuMeshFactory.obj
 0001:0001a8f0       ?reserveInternal@?$PxHashBase@PEAVBVH@Gu@physx@@PEAV123@U?$PxHash@PEAVBVH@Gu@physx@@@3@UGetKey@?$PxHashSetBase@PEAVBVH@Gu@physx@@U?$PxHash@PEAVBVH@Gu@physx@@@3@VPxAllocator@3@$00@3@VPxAllocator@3@$00@physx@@AEAAXI@Z 000000018001b8f0 f i GuMeshFactory.obj
 0001:0001a8f0       ?reserveInternal@?$PxHashBase@PEAVTetrahedronMesh@Gu@physx@@PEAV123@U?$PxHash@PEAVTetrahedronMesh@Gu@physx@@@3@UGetKey@?$PxHashSetBase@PEAVTetrahedronMesh@Gu@physx@@U?$PxHash@PEAVTetrahedronMesh@Gu@physx@@@3@VPxAllocator@3@$00@3@VPxAllocator@3@$00@physx@@AEAAXI@Z 000000018001b8f0 f i GuMeshFactory.obj
 0001:0001a8f0       ?reserveInternal@?$PxHashBase@PEAVHeightField@Gu@physx@@PEAV123@U?$PxHash@PEAVHeightField@Gu@physx@@@3@UGetKey@?$PxHashSetBase@PEAVHeightField@Gu@physx@@U?$PxHash@PEAVHeightField@Gu@physx@@@3@VPxAllocator@3@$00@3@VPxAllocator@3@$00@physx@@AEAAXI@Z 000000018001b8f0 f i GuMeshFactory.obj
 0001:0001aac0       ?setBounds@AABBTreeBounds@Gu@physx@@QEAAXPEAVPxBounds3@3@@Z 000000018001bac0 f i GuMeshFactory.obj
 0001:0001aad0       ?setNbRunTimePrimitives@AABBTreeBuildNode@Gu@physx@@QEAAXI@Z 000000018001bad0 f i GuMeshFactory.obj
 0001:0001aae0       ?takeOwnership@AABBTreeBounds@Gu@physx@@QEAAXXZ 000000018001bae0 f i GuMeshFactory.obj
 0001:0001aaf0       getInsertionCallback       000000018001baf0 f   GuMeshFactory.obj
 0001:0001ab00       ??4BigConvexData@physx@@QEAAAEAV01@AEBV01@@Z 000000018001bb00 f i GuMetaData.obj
 0001:0001ab20       ?getTransforms@PruningPool@Gu@physx@@QEAAPEAV?$PxTransformT@M@3@XZ 000000018001bb20 f i GuIncrementalAABBPrunerCore.obj
 0001:0001ab20       ?GetAdjacentVerts@BigConvexData@physx@@QEBAPEBEXZ 000000018001bb20 f i GuMetaData.obj
 0001:0001ab20       ?getTriangles@TriangleMesh@Gu@physx@@UEBAPEBXXZ 000000018001bb20 f i GuTriangleMesh.obj
 0001:0001ab20       ?getSoftBodyAuxData@SoftBodyMesh@Gu@physx@@UEBAPEBVPxSoftBodyAuxData@3@XZ 000000018001bb20 f i GuTetrahedronMesh.obj
 0001:0001ab20       ?getTransforms@PruningPool@Gu@physx@@QEBAPEBV?$PxTransformT@M@3@XZ 000000018001bb20 f i GuIncrementalAABBPrunerCore.obj
 0001:0001ab20       ?getSoftBodyAuxData@SoftBodyMesh@Gu@physx@@UEAAPEAVPxSoftBodyAuxData@3@XZ 000000018001bb20 f i GuTetrahedronMesh.obj
 0001:0001ab30       ?GetValency@BigConvexData@physx@@QEBAGI@Z 000000018001bb30 f i GuMetaData.obj
 0001:0001ab30       ?GetNbNeighbors@BigConvexData@physx@@QEBAGI@Z 000000018001bb30 f i GuMetaData.obj
 0001:0001ab40       ?GetNbSamples@BigConvexData@physx@@QEBAIXZ 000000018001bb40 f i GuMetaData.obj
 0001:0001ab50       ?getNbVertices@TriangleMesh@Gu@physx@@UEBAIXZ 000000018001bb50 f i GuTriangleMesh.obj
 0001:0001ab50       ?length@pcharNode@@UEBAHXZ 000000018001bb50 f i libvcruntime:undname.obj
 0001:0001ab50       ?GetNbVerts@BigConvexData@physx@@QEBAIXZ 000000018001bb50 f i GuMetaData.obj
 0001:0001ab50       ?getNbVertices@TetrahedronMesh@Gu@physx@@UEBAIXZ 000000018001bb50 f i GuTetrahedronMesh.obj
 0001:0001ab50       ?raw_length@pcharNode@@UEBAHXZ 000000018001bb50 f i libvcruntime:undname.obj
 0001:0001ab60       ?GetNeighbors@BigConvexData@physx@@QEBAPEBEI@Z 000000018001bb60 f i GuMetaData.obj
 0001:0001ab70       ?GetOffset@BigConvexData@physx@@QEBAGI@Z 000000018001bb70 f i GuMetaData.obj
 0001:0001ab80       ?GetSubdiv@BigConvexData@physx@@QEBAIXZ 000000018001bb80 f i GuMetaData.obj
 0001:0001ab90       ?getBinaryMetaData@BV4Tree@Gu@physx@@SAXAEAVPxOutputStream@3@@Z 000000018001bb90 f   GuMetaData.obj
 0001:0001b130       ?getBinaryMetaData@BV4TriangleMesh@Gu@physx@@SAXAEAVPxOutputStream@3@@Z 000000018001c130 f   GuMetaData.obj
 0001:0001b4b0       ?getBinaryMetaData@BigConvexData@physx@@SAXAEAVPxOutputStream@2@@Z 000000018001c4b0 f   GuMetaData.obj
 0001:0001b770       ?getBinaryMetaData@ConvexMesh@Gu@physx@@SAXAEAVPxOutputStream@3@@Z 000000018001c770 f   GuMetaData.obj
 0001:0001be00       ?getBinaryMetaData@HeightField@Gu@physx@@SAXAEAVPxOutputStream@3@@Z 000000018001ce00 f   GuMetaData.obj
 0001:0001c1f0       ?getBinaryMetaData@RTree@Gu@physx@@SAXAEAVPxOutputStream@3@@Z 000000018001d1f0 f   GuMetaData.obj
 0001:0001c520       ?getBinaryMetaData@RTreeTriangleMesh@Gu@physx@@SAXAEAVPxOutputStream@3@@Z 000000018001d520 f   GuMetaData.obj
 0001:0001c600       ?getBinaryMetaData@TriangleMesh@Gu@physx@@SAXAEAVPxOutputStream@3@@Z 000000018001d600 f   GuMetaData.obj
 0001:0001e140       ?doSupport@?$SupportLocalImpl@VConvexHullNoScaleV@Gu@physx@@@Gu@physx@@UEBA?AT__m128@@AEBT4@@Z 000000018001f140 f i GuMTD.obj
 0001:0001e190       ?doSupport@?$SupportLocalImpl@VConvexHullNoScaleV@Gu@physx@@@Gu@physx@@UEBAXAEBT__m128@@AEAT4@1@Z 000000018001f190 f i GuMTD.obj
 0001:0001e310       ?populateVerts@?$SupportLocalImpl@VConvexHullNoScaleV@Gu@physx@@@Gu@physx@@UEBAXPEBEIPEBV?$PxVec3T@M@3@PEAT__m128@@@Z 000000018001f310 f i GuMTD.obj
 0001:0001e350       ?getInternalData@TriangleMesh@Gu@physx@@UEBA_NAEAUPxTriangleMeshInternalData@3@_N@Z 000000018001f350 f   GuTriangleMesh.obj
 0001:0001e350       ?isDynamic@Pruner@Gu@physx@@UEBA_NXZ 000000018001f350 f   GuIncrementalAABBPruner.obj
 0001:0001ff10       ??$gjk@U?$LocalConvex@VCapsuleV@Gu@physx@@@Gu@physx@@U?$LocalConvex@VConvexHullV@Gu@physx@@@23@@Gu@physx@@YA?AW4GjkStatus@01@AEBU?$LocalConvex@VCapsuleV@Gu@physx@@@01@AEBU?$LocalConvex@VConvexHullV@Gu@physx@@@01@AEBT__m128@@2AEAT5@333@Z 0000000180020f10 f i GuMTD.obj
 0001:00020c70       ??0SeparatingAxes@Gu@physx@@QEAA@$$QEAV012@@Z 0000000180021c70 f i GuMTD.obj
 0001:00020c70       ??0SeparatingAxes@Gu@physx@@QEAA@AEBV012@@Z 0000000180021c70 f i GuMTD.obj
 0001:00020d80       ??0SeparatingAxes@Gu@physx@@QEAA@XZ 0000000180021d80 f i GuMTD.obj
 0001:00020d90       ??4SeparatingAxes@Gu@physx@@QEAAAEAV012@AEBV012@@Z 0000000180021d90 f i GuMTD.obj
 0001:00020d90       ??4SeparatingAxes@Gu@physx@@QEAAAEAV012@$$QEAV012@@Z 0000000180021d90 f i GuMTD.obj
 0001:00020ea0       ??_G?$LocalConvex@VCapsuleV@Gu@physx@@@Gu@physx@@UEAAPEAXI@Z 0000000180021ea0 f i GuMTD.obj
 0001:00020ea0       ??_E?$LocalConvex@VTetrahedronV@Gu@physx@@@Gu@physx@@UEAAPEAXI@Z 0000000180021ea0 f i GuCookingTetrahedronMesh.obj
 0001:00020ea0       ??_G?$LocalConvex@VTetrahedronV@Gu@physx@@@Gu@physx@@UEAAPEAXI@Z 0000000180021ea0 f i GuCookingTetrahedronMesh.obj
 0001:00020ea0       ??_G?$LocalConvex@VConvexHullNoScaleV@Gu@physx@@@Gu@physx@@UEAAPEAXI@Z 0000000180021ea0 f i GuPCMContactBoxConvex.obj
 0001:00020ea0       ??_G?$LocalConvex@VConvexHullV@Gu@physx@@@Gu@physx@@UEAAPEAXI@Z 0000000180021ea0 f i GuMTD.obj
 0001:00020ea0       ??_G?$LocalConvex@VBoxV@Gu@physx@@@Gu@physx@@UEAAPEAXI@Z 0000000180021ea0 f i GuSweepTests.obj
 0001:00020ea0       ??_E?$LocalConvex@UCustomConvexV@@@Gu@physx@@UEAAPEAXI@Z 0000000180021ea0 f i GuGjkQuery.obj
 0001:00020ea0       ??_E?$LocalConvex@VBoxV@Gu@physx@@@Gu@physx@@UEAAPEAXI@Z 0000000180021ea0 f i GuSweepTests.obj
 0001:00020ea0       ??_G?$LocalConvex@VTriangleV@Gu@physx@@@Gu@physx@@UEAAPEAXI@Z 0000000180021ea0 f i GuSweepTests.obj
 0001:00020ea0       ??_E?$LocalConvex@VTriangleV@Gu@physx@@@Gu@physx@@UEAAPEAXI@Z 0000000180021ea0 f i GuSweepTests.obj
 0001:00020ea0       ??_E?$LocalConvex@VConvexHullNoScaleV@Gu@physx@@@Gu@physx@@UEAAPEAXI@Z 0000000180021ea0 f i GuPCMContactBoxConvex.obj
 0001:00020ea0       ??_G?$LocalConvex@UPointConvexV@@@Gu@physx@@UEAAPEAXI@Z 0000000180021ea0 f i GuGjkQuery.obj
 0001:00020ea0       ??_E?$LocalConvex@VConvexHullV@Gu@physx@@@Gu@physx@@UEAAPEAXI@Z 0000000180021ea0 f i GuMTD.obj
 0001:00020ea0       ??_EGjkConvex@Gu@physx@@UEAAPEAXI@Z 0000000180021ea0 f i GuMTD.obj
 0001:00020ea0       ??_E?$LocalConvex@UPointConvexV@@@Gu@physx@@UEAAPEAXI@Z 0000000180021ea0 f i GuGjkQuery.obj
 0001:00020ea0       ??_E?$LocalConvex@VCapsuleV@Gu@physx@@@Gu@physx@@UEAAPEAXI@Z 0000000180021ea0 f i GuMTD.obj
 0001:00020ea0       ??_GGjkConvex@Gu@physx@@UEAAPEAXI@Z 0000000180021ea0 f i GuMTD.obj
 0001:00020ea0       ??_G?$LocalConvex@UCustomConvexV@@@Gu@physx@@UEAAPEAXI@Z 0000000180021ea0 f i GuGjkQuery.obj
 0001:00025300       ?getAxes@SeparatingAxes@Gu@physx@@QEBAPEBV?$PxVec3T@M@3@XZ 0000000180026300 f i GuMTD.obj
 0001:00025310       ?getCenter@?$LocalConvex@VCapsuleV@Gu@physx@@@Gu@physx@@UEBA?AT__m128@@XZ 0000000180026310 f i GuMTD.obj
 0001:00025310       ?getCenter@?$LocalConvex@UPointConvexV@@@Gu@physx@@UEBA?AT__m128@@XZ 0000000180026310 f i GuGjkQuery.obj
 0001:00025310       ?getCenter@?$LocalConvex@UCustomConvexV@@@Gu@physx@@UEBA?AT__m128@@XZ 0000000180026310 f i GuGjkQuery.obj
 0001:00025310       ?getCenter@?$LocalConvex@VConvexHullV@Gu@physx@@@Gu@physx@@UEBA?AT__m128@@XZ 0000000180026310 f i GuMTD.obj
 0001:00025310       ?getCenter@?$LocalConvex@VTriangleV@Gu@physx@@@Gu@physx@@UEBA?AT__m128@@XZ 0000000180026310 f i GuSweepTests.obj
 0001:00025310       ?getCenter@?$LocalConvex@VConvexHullNoScaleV@Gu@physx@@@Gu@physx@@UEBA?AT__m128@@XZ 0000000180026310 f i GuPCMContactBoxConvex.obj
 0001:00025310       ?getCenter@?$LocalConvex@VBoxV@Gu@physx@@@Gu@physx@@UEBA?AT__m128@@XZ 0000000180026310 f i GuSweepTests.obj
 0001:00025310       ?getCenter@?$LocalConvex@VTetrahedronV@Gu@physx@@@Gu@physx@@UEBA?AT__m128@@XZ 0000000180026310 f i GuCookingTetrahedronMesh.obj
 0001:00025320       ?getNumAxes@SeparatingAxes@Gu@physx@@QEBAIXZ 0000000180026320 f i GuMTD.obj
 0001:00025320       ?getNbActiveObjects@PruningPool@Gu@physx@@QEBAIXZ 0000000180026320 f i GuIncrementalAABBPrunerCore.obj
 0001:00025320       ?getCount@BuildStats@Gu@physx@@QEBAIXZ 0000000180026320 f i GuBV4Build.obj
 0001:00025330       ?getSweepMargin@?$LocalConvex@VCapsuleV@Gu@physx@@@Gu@physx@@UEBA?AT__m128@@XZ 0000000180026330 f i GuMTD.obj
 0001:00025330       ?getSweepMargin@?$RelativeConvex@VCapsuleV@Gu@physx@@@Gu@physx@@UEBA?AT__m128@@XZ 0000000180026330 f i GuCCDSweepPrimitives.obj
 0001:00025340       ?getSweepMargin@?$LocalConvex@VConvexHullV@Gu@physx@@@Gu@physx@@UEBA?AT__m128@@XZ 0000000180026340 f i GuMTD.obj
 0001:00025340       ?getSweepMargin@?$LocalConvex@VBoxV@Gu@physx@@@Gu@physx@@UEBA?AT__m128@@XZ 0000000180026340 f i GuSweepTests.obj
 0001:00025340       ?getSweepMargin@?$RelativeConvex@VConvexHullNoScaleV@Gu@physx@@@Gu@physx@@UEBA?AT__m128@@XZ 0000000180026340 f i GuPCMContactConvexConvex.obj
 0001:00025340       ?getSweepMargin@?$LocalConvex@VConvexHullNoScaleV@Gu@physx@@@Gu@physx@@UEBA?AT__m128@@XZ 0000000180026340 f i GuPCMContactBoxConvex.obj
 0001:00025340       ?getSweepMargin@?$RelativeConvex@VBoxV@Gu@physx@@@Gu@physx@@UEBA?AT__m128@@XZ 0000000180026340 f i GuOverlapTests.obj
 0001:00025340       ?getSweepMargin@?$LocalConvex@UPointConvexV@@@Gu@physx@@UEBA?AT__m128@@XZ 0000000180026340 f i GuGjkQuery.obj
 0001:00025340       ?getSweepMargin@?$RelativeConvex@VConvexHullV@Gu@physx@@@Gu@physx@@UEBA?AT__m128@@XZ 0000000180026340 f i GuOverlapTests.obj
 0001:00025340       ?getSweepMargin@?$RelativeConvex@UCustomConvexV@@@Gu@physx@@UEBA?AT__m128@@XZ 0000000180026340 f i GuGjkQuery.obj
 0001:00025340       ?getSweepMargin@?$LocalConvex@UCustomConvexV@@@Gu@physx@@UEBA?AT__m128@@XZ 0000000180026340 f i GuGjkQuery.obj
 0001:00025360       ?getSweepMargin@GjkConvex@Gu@physx@@UEBA?AT__m128@@XZ 0000000180026360 f i GuMTD.obj
 0001:00025380       ?pointConvexDistance@@YA_NAEAV?$PxVec3T@M@physx@@0AEAMAEBV12@PEBVConvexMesh@Gu@2@AEBVPxMeshScale@2@AEBV?$PxTransformT@M@2@@Z 0000000180026380 f   GuMTD.obj
 0001:000260e0       ?reset@SeparatingAxes@Gu@physx@@QEAAXXZ 00000001800270e0 f i GuMTD.obj
 0001:000260f0       ?support@?$LocalConvex@VCapsuleV@Gu@physx@@@Gu@physx@@UEBA?AT__m128@@AEBT4@@Z 00000001800270f0 f i GuMTD.obj
 0001:00026150       ?support@?$LocalConvex@VCapsuleV@Gu@physx@@@Gu@physx@@UEBA?AT__m128@@AEBT4@AEAH@Z 0000000180027150 f i GuMTD.obj
 0001:000261c0       ?support@?$LocalConvex@VConvexHullV@Gu@physx@@@Gu@physx@@UEBA?AT__m128@@AEBT4@@Z 00000001800271c0 f i GuMTD.obj
 0001:000262a0       ?support@?$LocalConvex@VConvexHullV@Gu@physx@@@Gu@physx@@UEBA?AT__m128@@AEBT4@AEAH@Z 00000001800272a0 f i GuMTD.obj
 0001:00026370       ?support@GjkConvex@Gu@physx@@UEBA?AT__m128@@AEBT4@@Z 0000000180027370 f i GuMTD.obj
 0001:00026390       ?support@GjkConvex@Gu@physx@@UEBA?AT__m128@@AEBT4@AEAH@Z 0000000180027390 f i GuMTD.obj
 0001:000263b0       ?supportPoint@?$LocalConvex@VCapsuleV@Gu@physx@@@Gu@physx@@UEBA?AT__m128@@H@Z 00000001800273b0 f i GuMTD.obj
 0001:000263e0       ?supportPoint@?$LocalConvex@VConvexHullV@Gu@physx@@@Gu@physx@@UEBA?AT__m128@@H@Z 00000001800273e0 f i GuMTD.obj
 0001:00026430       ?supportPoint@GjkConvex@Gu@physx@@UEBA?AT__m128@@H@Z 0000000180027430 f i GuMTD.obj
 0001:00026450       ?supportPoint@?$RelativeConvex@VBoxV@Gu@physx@@@Gu@physx@@UEBA?AT__m128@@H@Z 0000000180027450 f i GuOverlapTests.obj
 0001:000264c0       ?support@?$RelativeConvex@VBoxV@Gu@physx@@@Gu@physx@@UEBA?AT__m128@@AEBT4@@Z 00000001800274c0 f i GuOverlapTests.obj
 0001:00026540       ?support@?$RelativeConvex@VBoxV@Gu@physx@@@Gu@physx@@UEBA?AT__m128@@AEBT4@AEAH@Z 0000000180027540 f i GuOverlapTests.obj
 0001:000265d0       ?getCenter@?$RelativeConvex@VBoxV@Gu@physx@@@Gu@physx@@UEBA?AT__m128@@XZ 00000001800275d0 f i GuOverlapTests.obj
 0001:000265d0       ?getCenter@?$RelativeConvex@VTriangleV@Gu@physx@@@Gu@physx@@UEBA?AT__m128@@XZ 00000001800275d0 f i GuCCDSweepPrimitives.obj
 0001:000265d0       ?getCenter@?$RelativeConvex@VCapsuleV@Gu@physx@@@Gu@physx@@UEBA?AT__m128@@XZ 00000001800275d0 f i GuCCDSweepPrimitives.obj
 0001:000265d0       ?getCenter@?$RelativeConvex@VConvexHullV@Gu@physx@@@Gu@physx@@UEBA?AT__m128@@XZ 00000001800275d0 f i GuOverlapTests.obj
 0001:000265d0       ?getCenter@?$RelativeConvex@VConvexHullNoScaleV@Gu@physx@@@Gu@physx@@UEBA?AT__m128@@XZ 00000001800275d0 f i GuPCMContactConvexConvex.obj
 0001:000265d0       ?getCenter@?$RelativeConvex@UCustomConvexV@@@Gu@physx@@UEBA?AT__m128@@XZ 00000001800275d0 f i GuGjkQuery.obj
 0001:00026610       ??_E?$RelativeConvex@VTriangleV@Gu@physx@@@Gu@physx@@UEAAPEAXI@Z 0000000180027610 f i GuCCDSweepPrimitives.obj
 0001:00026610       ??_G?$RelativeConvex@VBoxV@Gu@physx@@@Gu@physx@@UEAAPEAXI@Z 0000000180027610 f i GuOverlapTests.obj
 0001:00026610       ??_E?$RelativeConvex@UCustomConvexV@@@Gu@physx@@UEAAPEAXI@Z 0000000180027610 f i GuGjkQuery.obj
 0001:00026610       ??_G?$RelativeConvex@VCapsuleV@Gu@physx@@@Gu@physx@@UEAAPEAXI@Z 0000000180027610 f i GuCCDSweepPrimitives.obj
 0001:00026610       ??_G?$RelativeConvex@UCustomConvexV@@@Gu@physx@@UEAAPEAXI@Z 0000000180027610 f i GuGjkQuery.obj
 0001:00026610       ??_E?$RelativeConvex@VConvexHullV@Gu@physx@@@Gu@physx@@UEAAPEAXI@Z 0000000180027610 f i GuOverlapTests.obj
 0001:00026610       ??_E?$RelativeConvex@VConvexHullNoScaleV@Gu@physx@@@Gu@physx@@UEAAPEAXI@Z 0000000180027610 f i GuPCMContactConvexConvex.obj
 0001:00026610       ??_G?$RelativeConvex@VConvexHullNoScaleV@Gu@physx@@@Gu@physx@@UEAAPEAXI@Z 0000000180027610 f i GuPCMContactConvexConvex.obj
 0001:00026610       ??_E?$RelativeConvex@VCapsuleV@Gu@physx@@@Gu@physx@@UEAAPEAXI@Z 0000000180027610 f i GuCCDSweepPrimitives.obj
 0001:00026610       ??_G?$RelativeConvex@VConvexHullV@Gu@physx@@@Gu@physx@@UEAAPEAXI@Z 0000000180027610 f i GuOverlapTests.obj
 0001:00026610       ??_G?$RelativeConvex@VTriangleV@Gu@physx@@@Gu@physx@@UEAAPEAXI@Z 0000000180027610 f i GuCCDSweepPrimitives.obj
 0001:00026610       ??_E?$RelativeConvex@VBoxV@Gu@physx@@@Gu@physx@@UEAAPEAXI@Z 0000000180027610 f i GuOverlapTests.obj
 0001:00028780       ?supportPoint@?$RelativeConvex@VConvexHullV@Gu@physx@@@Gu@physx@@UEBA?AT__m128@@H@Z 0000000180029780 f i GuOverlapTests.obj
 0001:00028800       ?support@?$RelativeConvex@VConvexHullV@Gu@physx@@@Gu@physx@@UEBA?AT__m128@@AEBT4@@Z 0000000180029800 f i GuOverlapTests.obj
 0001:00028930       ?support@?$RelativeConvex@VConvexHullV@Gu@physx@@@Gu@physx@@UEBA?AT__m128@@AEBT4@AEAH@Z 0000000180029930 f i GuOverlapTests.obj
 0001:00028b00       ??$gjk@U?$RelativeConvex@VBoxV@Gu@physx@@@Gu@physx@@U?$LocalConvex@VConvexHullV@Gu@physx@@@23@@Gu@physx@@YA?AW4GjkStatus@01@AEBU?$RelativeConvex@VBoxV@Gu@physx@@@01@AEBU?$LocalConvex@VConvexHullV@Gu@physx@@@01@AEBT__m128@@2AEAT5@333@Z 0000000180029b00 f i GuOverlapTests.obj
 0001:000298c0       ??$gjk@U?$RelativeConvex@VConvexHullV@Gu@physx@@@Gu@physx@@U?$LocalConvex@VConvexHullV@Gu@physx@@@23@@Gu@physx@@YA?AW4GjkStatus@01@AEBU?$RelativeConvex@VConvexHullV@Gu@physx@@@01@AEBU?$LocalConvex@VConvexHullV@Gu@physx@@@01@AEBT__m128@@2AEAT5@333@Z 000000018002a8c0 f i GuOverlapTests.obj
 0001:0002a740       ?ComputeCubemapNearestOffset@physx@@YAIAEBV?$PxVec3T@M@1@I@Z 000000018002b740 f i GuOverlapTests.obj
 0001:0002a840       ?getOverlapFuncTable@Gu@physx@@YAPEAY0L@Q6A_NAEBVPxGeometry@2@AEBV?$PxTransformT@M@2@01PEAUTriggerCache@12@PEAUPxQueryThreadContext@2@@ZXZ 000000018002b840 f   GuOverlapTests.obj
 0001:0002c3e0       ?registerHeightFields@Gu@physx@@YAXXZ 000000018002d3e0 f   GuOverlapTests.obj
 0001:0002c430       ?raycast_box@@YAIAEBVPxGeometry@physx@@AEBV?$PxTransformT@M@2@AEBV?$PxVec3T@M@2@2MV?$PxFlags@W4Enum@PxHitFlag@physx@@G@2@IPEIAUPxGeomRaycastHit@2@IPEAUPxQueryThreadContext@2@@Z 000000018002d430 f   GuRaycastTests.obj
 0001:0002ca60       ?raycast_sphere@@YAIAEBVPxGeometry@physx@@AEBV?$PxTransformT@M@2@AEBV?$PxVec3T@M@2@2MV?$PxFlags@W4Enum@PxHitFlag@physx@@G@2@IPEIAUPxGeomRaycastHit@2@IPEAUPxQueryThreadContext@2@@Z 000000018002da60 f   GuRaycastTests.obj
 0001:0002cbf0       ?raycast_capsule@@YAIAEBVPxGeometry@physx@@AEBV?$PxTransformT@M@2@AEBV?$PxVec3T@M@2@2MV?$PxFlags@W4Enum@PxHitFlag@physx@@G@2@IPEIAUPxGeomRaycastHit@2@IPEAUPxQueryThreadContext@2@@Z 000000018002dbf0 f   GuRaycastTests.obj
 0001:0002d150       ?raycast_plane@@YAIAEBVPxGeometry@physx@@AEBV?$PxTransformT@M@2@AEBV?$PxVec3T@M@2@2MV?$PxFlags@W4Enum@PxHitFlag@physx@@G@2@IPEIAUPxGeomRaycastHit@2@IPEAUPxQueryThreadContext@2@@Z 000000018002e150 f   GuRaycastTests.obj
 0001:0002d2c0       ?raycast_convexMesh@@YAIAEBVPxGeometry@physx@@AEBV?$PxTransformT@M@2@AEBV?$PxVec3T@M@2@2MV?$PxFlags@W4Enum@PxHitFlag@physx@@G@2@IPEIAUPxGeomRaycastHit@2@IPEAUPxQueryThreadContext@2@@Z 000000018002e2c0 f   GuRaycastTests.obj
 0001:0002ddd0       ?raycast_particlesystem@@YAIAEBVPxGeometry@physx@@AEBV?$PxTransformT@M@2@AEBV?$PxVec3T@M@2@2MV?$PxFlags@W4Enum@PxHitFlag@physx@@G@2@IPEIAUPxGeomRaycastHit@2@IPEAUPxQueryThreadContext@2@@Z 000000018002edd0 f   GuRaycastTests.obj
 0001:0002ddd0       ?getTetrahedraRemap@TetrahedronMesh@Gu@physx@@UEBAPEBIXZ 000000018002edd0 f   GuTetrahedronMesh.obj
 0001:0002ddd0       ?getMidphaseID@RTreeTriangleMeshBuilder@physx@@UEBA?AW4Enum@PxMeshMidPhase@2@XZ 000000018002edd0 f   GuCookingTriangleMesh.obj
 0001:0002ddd0       ?getMidphaseID@RTreeTriangleMesh@Gu@physx@@UEBA?AW4Enum@PxMeshMidPhase@3@XZ 000000018002edd0 f   GuTriangleMeshRTree.obj
 0001:0002ddd0       ?raycast_softbody@@YAIAEBVPxGeometry@physx@@AEBV?$PxTransformT@M@2@AEBV?$PxVec3T@M@2@2MV?$PxFlags@W4Enum@PxHitFlag@physx@@G@2@IPEIAUPxGeomRaycastHit@2@IPEAUPxQueryThreadContext@2@@Z 000000018002edd0 f   GuRaycastTests.obj
 0001:0002ddd0       ?raycast_hairsystem@@YAIAEBVPxGeometry@physx@@AEBV?$PxTransformT@M@2@AEBV?$PxVec3T@M@2@2MV?$PxFlags@W4Enum@PxHitFlag@physx@@G@2@IPEIAUPxGeomRaycastHit@2@IPEAUPxQueryThreadContext@2@@Z 000000018002edd0 f   GuRaycastTests.obj
 0001:0002dde0       ?raycast_triangleMesh@@YAIAEBVPxGeometry@physx@@AEBV?$PxTransformT@M@2@AEBV?$PxVec3T@M@2@2MV?$PxFlags@W4Enum@PxHitFlag@physx@@G@2@IPEIAUPxGeomRaycastHit@2@IPEAUPxQueryThreadContext@2@@Z 000000018002ede0 f   GuRaycastTests.obj
 0001:0002f1c0       ??Dphysx@@YA?AV?$PxMat34T@M@0@AEBVPxMeshScale@0@AEBV?$PxTransformT@M@0@@Z 00000001800301c0 f i GuRaycastTests.obj
 0001:0002fca0       ?getRaycastFuncTable@Gu@physx@@YAAEAY0L@Q6AIAEBVPxGeometry@2@AEBV?$PxTransformT@M@2@AEBV?$PxVec3T@M@2@2MV?$PxFlags@W4Enum@PxHitFlag@physx@@G@2@IPEIAUPxGeomRaycastHit@2@IPEAUPxQueryThreadContext@2@@ZXZ 0000000180030ca0 f   GuRaycastTests.obj
 0001:0002fcb0       ?raycast_heightField@@YAIAEBVPxGeometry@physx@@AEBV?$PxTransformT@M@2@AEBV?$PxVec3T@M@2@2MV?$PxFlags@W4Enum@PxHitFlag@physx@@G@2@IPEIAUPxGeomRaycastHit@2@IPEAUPxQueryThreadContext@2@@Z 0000000180030cb0 f   GuRaycastTests.obj
 0001:000303f0       ?registerHeightFields_Raycasts@@YAXXZ 00000001800313f0 f   GuRaycastTests.obj
 0001:00030400       ??Dphysx@@YA?AV?$PxMat34T@M@0@AEBV?$PxTransformT@M@0@AEBVPxMeshScale@0@@Z 0000000180031400 f i GuSweepMTD.obj
 0001:00030940       ??_G?$MeshHitCallback@UPxGeomRaycastHit@physx@@@Gu@physx@@UEAAPEAXI@Z 0000000180031940 f i GuSweepMTD.obj
 0001:00030940       ??_E?$MeshHitCallback@UPxGeomRaycastHit@physx@@@Gu@physx@@UEAAPEAXI@Z 0000000180031940 f i GuSweepMTD.obj
 0001:00030970       ??_GMeshMTDGenerationCallback@@UEAAPEAXI@Z 0000000180031970 f i GuSweepMTD.obj
 0001:00030970       ??_EMeshMTDGenerationCallback@@UEAAPEAXI@Z 0000000180031970 f i GuSweepMTD.obj
 0001:000309a0       ??_GRTreeCookerRemap@@UEAAPEAXI@Z 00000001800319a0 f i GuCookingTriangleMesh.obj
 0001:000309a0       ??_GMidPhaseQueryLocalReport@@UEAAPEAXI@Z 00000001800319a0 f i GuSweepMTD.obj
 0001:000309a0       ??_ERTreeCookerRemap@@UEAAPEAXI@Z 00000001800319a0 f i GuCookingTriangleMesh.obj
 0001:000309a0       ??_EMidPhaseQueryLocalReport@@UEAAPEAXI@Z 00000001800319a0 f i GuSweepMTD.obj
 0001:000309d0       ?allocate@?$PxArray@IV?$PxReflectionAllocator@I@physx@@@physx@@IEAAPEAII@Z 00000001800319d0 f i GuSweepMTD.obj
 0001:00030a70       ?computeBox_HeightFieldMTD@Gu@physx@@YA_NAEBVPxHeightFieldGeometry@2@AEBV?$PxTransformT@M@2@AEBVBox@12@1M_NAEAUPxGeomSweepHit@2@@Z 0000000180031a70 f   GuSweepMTD.obj
 0001:000317f0       ?computeBox_TriangleMeshMTD@Gu@physx@@YA_NAEBVPxTriangleMeshGeometry@2@AEBV?$PxTransformT@M@2@AEBVBox@12@1M_NAEAUPxGeomSweepHit@2@@Z 00000001800327f0 f   GuSweepMTD.obj
 0001:000327a0       ?computeCapsule_CapsuleMTD@Gu@physx@@YA_NAEBVCapsule@12@0AEAUPxGeomSweepHit@2@@Z 00000001800337a0 f   GuSweepMTD.obj
 0001:000329e0       ?computeCapsule_HeightFieldMTD@Gu@physx@@YA_NAEBVPxHeightFieldGeometry@2@AEBV?$PxTransformT@M@2@AEAVCapsuleV@12@M_NAEAUPxGeomSweepHit@2@@Z 00000001800339e0 f   GuSweepMTD.obj
 0001:000331c0       ?computeCapsule_TriangleMeshMTD@Gu@physx@@YA_NAEBVPxTriangleMeshGeometry@2@AEBV?$PxTransformT@M@2@AEAVCapsuleV@12@M_NAEAUPxGeomSweepHit@2@@Z 00000001800341c0 f   GuSweepMTD.obj
 0001:00033a80       ?computeConvex_HeightFieldMTD@Gu@physx@@YA_NAEBVPxHeightFieldGeometry@2@AEBV?$PxTransformT@M@2@AEBVPxConvexMeshGeometry@2@1M_NAEAUPxGeomSweepHit@2@@Z 0000000180034a80 f   GuSweepMTD.obj
 0001:00034d50       ?computeConvex_TriangleMeshMTD@Gu@physx@@YA_NAEBVPxTriangleMeshGeometry@2@AEBV?$PxTransformT@M@2@AEBVPxConvexMeshGeometry@2@1M_NAEAUPxGeomSweepHit@2@@Z 0000000180035d50 f   GuSweepMTD.obj
 0001:000362d0       ?computePlane_BoxMTD@Gu@physx@@YA_NAEBVPxPlane@2@AEBVBox@12@AEAUPxGeomSweepHit@2@@Z 00000001800372d0 f   GuSweepMTD.obj
 0001:00036600       ?computePlane_CapsuleMTD@Gu@physx@@YA_NAEBVPxPlane@2@AEBVCapsule@12@AEAUPxGeomSweepHit@2@@Z 0000000180037600 f   GuSweepMTD.obj
 0001:00036720       ?computePlane_ConvexMTD@Gu@physx@@YA_NAEBVPxPlane@2@AEBVPxConvexMeshGeometry@2@AEBV?$PxTransformT@M@2@AEAUPxGeomSweepHit@2@@Z 0000000180037720 f   GuSweepMTD.obj
 0001:00037290       ?computeSphere_CapsuleMTD@Gu@physx@@YA_NAEBVSphere@12@AEBVCapsule@12@AEAUPxGeomSweepHit@2@@Z 0000000180038290 f   GuSweepMTD.obj
 0001:00037440       ?computeSphere_SphereMTD@Gu@physx@@YA_NAEBVSphere@12@0AEAUPxGeomSweepHit@2@@Z 0000000180038440 f   GuSweepMTD.obj
 0001:00037530       ?getInverse@?$PxMat33T@M@physx@@QEBA?BV12@XZ 0000000180038530 f i GuSweepMTD.obj
 0001:00037780       ?growAndPushBack@?$PxArray@IV?$PxReflectionAllocator@I@physx@@@physx@@IEAAAEAIAEBI@Z 0000000180038780 f i GuSweepMTD.obj
 0001:00037840       ?init@FastVertex2ShapeScaling@Cm@physx@@QEAAXAEBV?$PxVec3T@M@3@AEBV?$PxQuatT@M@3@@Z 0000000180038840 f i GuSweepMTD.obj
 0001:00038110       ?processHit@MeshMTDGenerationCallback@@UEAA_NAEBUPxGeomRaycastHit@physx@@AEBV?$PxVec3T@M@3@11AEAMPEBI@Z 0000000180039110 f i GuSweepMTD.obj
 0001:00038160       ?recreate@?$PxArray@IV?$PxReflectionAllocator@I@physx@@@physx@@IEAAXI@Z 0000000180039160 f i GuSweepMTD.obj
 0001:00038200       ?reportTouchedTris@MidPhaseQueryLocalReport@@UEAA_NIPEBI@Z 0000000180039200 f i GuSweepMTD.obj
 0001:00038270       ??$gjkPenetration@U?$LocalConvex@VCapsuleV@Gu@physx@@@Gu@physx@@U?$LocalConvex@VConvexHullV@Gu@physx@@@23@@Gu@physx@@YA?AW4GjkStatus@01@AEBU?$LocalConvex@VCapsuleV@Gu@physx@@@01@AEBU?$LocalConvex@VConvexHullV@Gu@physx@@@01@AEBT__m128@@2_NPEIAE4AEAEAEAUGjkOutput@01@@Z 0000000180039270 f i GuSweepSharedTests.obj
 0001:000382e0       ??$gjkPenetration@U?$LocalConvex@VCapsuleV@Gu@physx@@@Gu@physx@@U?$LocalConvex@VConvexHullV@Gu@physx@@@23@@Gu@physx@@YA?AW4GjkStatus@01@AEBU?$LocalConvex@VCapsuleV@Gu@physx@@@01@AEBU?$LocalConvex@VConvexHullV@Gu@physx@@@01@AEBT__m128@@2_NPEIAE4PEIAT5@5AEAEAEAUGjkOutput@01@@Z 00000001800392e0 f i GuSweepSharedTests.obj
 0001:00039800       ??$gjkPenetration@U?$RelativeConvex@VBoxV@Gu@physx@@@Gu@physx@@U?$LocalConvex@VConvexHullV@Gu@physx@@@23@@Gu@physx@@YA?AW4GjkStatus@01@AEBU?$RelativeConvex@VBoxV@Gu@physx@@@01@AEBU?$LocalConvex@VConvexHullV@Gu@physx@@@01@AEBT__m128@@2_NPEIAE4AEAEAEAUGjkOutput@01@@Z 000000018003a800 f i GuSweepSharedTests.obj
 0001:00039870       ??$gjkPenetration@U?$RelativeConvex@VBoxV@Gu@physx@@@Gu@physx@@U?$LocalConvex@VConvexHullV@Gu@physx@@@23@@Gu@physx@@YA?AW4GjkStatus@01@AEBU?$RelativeConvex@VBoxV@Gu@physx@@@01@AEBU?$LocalConvex@VConvexHullV@Gu@physx@@@01@AEBT__m128@@2_NPEIAE4PEIAT5@5AEAEAEAUGjkOutput@01@@Z 000000018003a870 f i GuSweepSharedTests.obj
 0001:0003add0       ??$gjkPenetration@U?$RelativeConvex@VConvexHullV@Gu@physx@@@Gu@physx@@U?$LocalConvex@VConvexHullV@Gu@physx@@@23@@Gu@physx@@YA?AW4GjkStatus@01@AEBU?$RelativeConvex@VConvexHullV@Gu@physx@@@01@AEBU?$LocalConvex@VConvexHullV@Gu@physx@@@01@AEBT__m128@@2_NPEIAE4AEAEAEAUGjkOutput@01@@Z 000000018003bdd0 f i GuSweepSharedTests.obj
 0001:0003ae40       ??$gjkPenetration@U?$RelativeConvex@VConvexHullV@Gu@physx@@@Gu@physx@@U?$LocalConvex@VConvexHullV@Gu@physx@@@23@@Gu@physx@@YA?AW4GjkStatus@01@AEBU?$RelativeConvex@VConvexHullV@Gu@physx@@@01@AEBU?$LocalConvex@VConvexHullV@Gu@physx@@@01@AEBT__m128@@2_NPEIAE4PEIAT5@5AEAEAEAUGjkOutput@01@@Z 000000018003be40 f i GuSweepSharedTests.obj
 0001:0003c450       ??$gjkRaycast@U?$LocalConvex@VCapsuleV@Gu@physx@@@Gu@physx@@U?$LocalConvex@VConvexHullV@Gu@physx@@@23@@Gu@physx@@YA_NAEBU?$LocalConvex@VCapsuleV@Gu@physx@@@01@AEBU?$LocalConvex@VConvexHullV@Gu@physx@@@01@AEBT__m128@@222AEAT4@33M@Z 000000018003d450 f i GuSweepSharedTests.obj
 0001:0003d160       ??$gjkRaycast@U?$RelativeConvex@VBoxV@Gu@physx@@@Gu@physx@@U?$LocalConvex@VConvexHullV@Gu@physx@@@23@@Gu@physx@@YA_NAEBU?$RelativeConvex@VBoxV@Gu@physx@@@01@AEBU?$LocalConvex@VConvexHullV@Gu@physx@@@01@AEBT__m128@@222AEAT4@33M@Z 000000018003e160 f i GuSweepSharedTests.obj
 0001:0003df10       ??$gjkRaycast@U?$RelativeConvex@VConvexHullV@Gu@physx@@@Gu@physx@@U?$LocalConvex@VConvexHullV@Gu@physx@@@23@@Gu@physx@@YA_NAEBU?$RelativeConvex@VConvexHullV@Gu@physx@@@01@AEBU?$LocalConvex@VConvexHullV@Gu@physx@@@01@AEBT__m128@@222AEAT4@33M@Z 000000018003ef10 f i GuSweepSharedTests.obj
 0001:0003edb0       ??$gjkRaycastPenetration@U?$RelativeConvex@VConvexHullV@Gu@physx@@@Gu@physx@@U?$LocalConvex@VConvexHullV@Gu@physx@@@23@@Gu@physx@@YA_NAEBU?$RelativeConvex@VConvexHullV@Gu@physx@@@01@AEBU?$LocalConvex@VConvexHullV@Gu@physx@@@01@AEBT__m128@@222AEAT4@33M_N@Z 000000018003fdb0 f i GuSweepSharedTests.obj
 0001:0003f9e0       ?sweepBox_ConvexGeom@@YA_NAEBVPxGeometry@physx@@AEBV?$PxTransformT@M@2@AEBVPxBoxGeometry@2@1AEBVBox@Gu@2@AEBV?$PxVec3T@M@2@MAEAUPxGeomSweepHit@2@V?$PxFlags@W4Enum@PxHitFlag@physx@@G@2@MPEAUPxQueryThreadContext@2@@Z 00000001800409e0 f   GuSweepSharedTests.obj
 0001:000407e0       ?sweepBox_PlaneGeom@@YA_NAEBVPxGeometry@physx@@AEBV?$PxTransformT@M@2@AEBVPxBoxGeometry@2@1AEBVBox@Gu@2@AEBV?$PxVec3T@M@2@MAEAUPxGeomSweepHit@2@V?$PxFlags@W4Enum@PxHitFlag@physx@@G@2@MPEAUPxQueryThreadContext@2@@Z 00000001800417e0 f   GuSweepSharedTests.obj
 0001:00040c80       ?sweepCapsuleTriangles@Gu@physx@@YA_NIPEBVPxTriangle@2@_NAEBVPxCapsuleGeometry@2@AEBV?$PxTransformT@M@2@AEBV?$PxVec3T@M@2@MAEAUPxGeomSweepHit@2@PEBIMV?$PxFlags@W4Enum@PxHitFlag@physx@@G@2@@Z 0000000180041c80 f   GuSweepSharedTests.obj
 0001:00040e70       ?sweepCapsule_CapsuleGeom@@YA_NAEBVPxGeometry@physx@@AEBV?$PxTransformT@M@2@AEBVPxCapsuleGeometry@2@1AEBVCapsule@Gu@2@AEBV?$PxVec3T@M@2@MAEAUPxGeomSweepHit@2@V?$PxFlags@W4Enum@PxHitFlag@physx@@G@2@MPEAUPxQueryThreadContext@2@@Z 0000000180041e70 f   GuSweepSharedTests.obj
 0001:00041050       ?sweepCapsule_ConvexGeom@@YA_NAEBVPxGeometry@physx@@AEBV?$PxTransformT@M@2@AEBVPxCapsuleGeometry@2@1AEBVCapsule@Gu@2@AEBV?$PxVec3T@M@2@MAEAUPxGeomSweepHit@2@V?$PxFlags@W4Enum@PxHitFlag@physx@@G@2@MPEAUPxQueryThreadContext@2@@Z 0000000180042050 f   GuSweepSharedTests.obj
 0001:00041da0       ?sweepCapsule_PlaneGeom@@YA_NAEBVPxGeometry@physx@@AEBV?$PxTransformT@M@2@AEBVPxCapsuleGeometry@2@1AEBVCapsule@Gu@2@AEBV?$PxVec3T@M@2@MAEAUPxGeomSweepHit@2@V?$PxFlags@W4Enum@PxHitFlag@physx@@G@2@MPEAUPxQueryThreadContext@2@@Z 0000000180042da0 f   GuSweepSharedTests.obj
 0001:00042090       ?sweepCapsule_SphereGeom@@YA_NAEBVPxGeometry@physx@@AEBV?$PxTransformT@M@2@AEBVPxCapsuleGeometry@2@1AEBVCapsule@Gu@2@AEBV?$PxVec3T@M@2@MAEAUPxGeomSweepHit@2@V?$PxFlags@W4Enum@PxHitFlag@physx@@G@2@MPEAUPxQueryThreadContext@2@@Z 0000000180043090 f   GuSweepSharedTests.obj
 0001:00042220       ?sweepConvex_BoxGeom@@YA_NAEBVPxGeometry@physx@@AEBV?$PxTransformT@M@2@AEBVPxConvexMeshGeometry@2@1AEBV?$PxVec3T@M@2@MAEAUPxGeomSweepHit@2@V?$PxFlags@W4Enum@PxHitFlag@physx@@G@2@MPEAUPxQueryThreadContext@2@@Z 0000000180043220 f   GuSweepSharedTests.obj
 0001:00042440       ?sweepConvex_CapsuleGeom@@YA_NAEBVPxGeometry@physx@@AEBV?$PxTransformT@M@2@AEBVPxConvexMeshGeometry@2@1AEBV?$PxVec3T@M@2@MAEAUPxGeomSweepHit@2@V?$PxFlags@W4Enum@PxHitFlag@physx@@G@2@MPEAUPxQueryThreadContext@2@@Z 0000000180043440 f   GuSweepSharedTests.obj
 0001:00042670       ?sweepConvex_ConvexGeom@@YA_NAEBVPxGeometry@physx@@AEBV?$PxTransformT@M@2@AEBVPxConvexMeshGeometry@2@1AEBV?$PxVec3T@M@2@MAEAUPxGeomSweepHit@2@V?$PxFlags@W4Enum@PxHitFlag@physx@@G@2@MPEAUPxQueryThreadContext@2@@Z 0000000180043670 f   GuSweepSharedTests.obj
 0001:000435e0       ?sweepConvex_PlaneGeom@@YA_NAEBVPxGeometry@physx@@AEBV?$PxTransformT@M@2@AEBVPxConvexMeshGeometry@2@1AEBV?$PxVec3T@M@2@MAEAUPxGeomSweepHit@2@V?$PxFlags@W4Enum@PxHitFlag@physx@@G@2@MPEAUPxQueryThreadContext@2@@Z 00000001800445e0 f   GuSweepSharedTests.obj
 0001:00043a30       ?sweepConvex_SphereGeom@@YA_NAEBVPxGeometry@physx@@AEBV?$PxTransformT@M@2@AEBVPxConvexMeshGeometry@2@1AEBV?$PxVec3T@M@2@MAEAUPxGeomSweepHit@2@V?$PxFlags@W4Enum@PxHitFlag@physx@@G@2@MPEAUPxQueryThreadContext@2@@Z 0000000180044a30 f   GuSweepSharedTests.obj
 0001:00044630       ?sweepCapsule_BoxGeom@@YA_NAEBVPxGeometry@physx@@AEBV?$PxTransformT@M@2@AEBVPxCapsuleGeometry@2@1AEBVCapsule@Gu@2@AEBV?$PxVec3T@M@2@MAEAUPxGeomSweepHit@2@V?$PxFlags@W4Enum@PxHitFlag@physx@@G@2@MPEAUPxQueryThreadContext@2@@Z 0000000180045630 f   GuSweepTests.obj
 0001:00044ee0       ?sweepBox_SphereGeom@@YA_NAEBVPxGeometry@physx@@AEBV?$PxTransformT@M@2@AEBVPxBoxGeometry@2@1AEBVBox@Gu@2@AEBV?$PxVec3T@M@2@MAEAUPxGeomSweepHit@2@V?$PxFlags@W4Enum@PxHitFlag@physx@@G@2@MPEAUPxQueryThreadContext@2@@Z 0000000180045ee0 f   GuSweepTests.obj
 0001:000455c0       ?sweepBox_CapsuleGeom@@YA_NAEBVPxGeometry@physx@@AEBV?$PxTransformT@M@2@AEBVPxBoxGeometry@2@1AEBVBox@Gu@2@AEBV?$PxVec3T@M@2@MAEAUPxGeomSweepHit@2@V?$PxFlags@W4Enum@PxHitFlag@physx@@G@2@MPEAUPxQueryThreadContext@2@@Z 00000001800465c0 f   GuSweepTests.obj
 0001:00045e70       ?sweepBox_BoxGeom@@YA_NAEBVPxGeometry@physx@@AEBV?$PxTransformT@M@2@AEBVPxBoxGeometry@2@1AEBVBox@Gu@2@AEBV?$PxVec3T@M@2@MAEAUPxGeomSweepHit@2@V?$PxFlags@W4Enum@PxHitFlag@physx@@G@2@MPEAUPxQueryThreadContext@2@@Z 0000000180046e70 f   GuSweepTests.obj
 0001:00046950       ??$gjkPenetration@U?$LocalConvex@VCapsuleV@Gu@physx@@@Gu@physx@@U?$LocalConvex@VBoxV@Gu@physx@@@23@@Gu@physx@@YA?AW4GjkStatus@01@AEBU?$LocalConvex@VCapsuleV@Gu@physx@@@01@AEBU?$LocalConvex@VBoxV@Gu@physx@@@01@AEBT__m128@@2_NPEIAE4AEAEAEAUGjkOutput@01@@Z 0000000180047950 f i GuSweepTests.obj
 0001:000469c0       ??$gjkPenetration@U?$LocalConvex@VCapsuleV@Gu@physx@@@Gu@physx@@U?$LocalConvex@VBoxV@Gu@physx@@@23@@Gu@physx@@YA?AW4GjkStatus@01@AEBU?$LocalConvex@VCapsuleV@Gu@physx@@@01@AEBU?$LocalConvex@VBoxV@Gu@physx@@@01@AEBT__m128@@2_NPEIAE4PEIAT5@5AEAEAEAUGjkOutput@01@@Z 00000001800479c0 f i GuSweepTests.obj
 0001:00047e00       ??$gjkPenetration@U?$RelativeConvex@VBoxV@Gu@physx@@@Gu@physx@@U?$LocalConvex@VBoxV@Gu@physx@@@23@@Gu@physx@@YA?AW4GjkStatus@01@AEBU?$RelativeConvex@VBoxV@Gu@physx@@@01@AEBU?$LocalConvex@VBoxV@Gu@physx@@@01@AEBT__m128@@2_NPEIAE4AEAEAEAUGjkOutput@01@@Z 0000000180048e00 f i GuSweepTests.obj
 0001:00047e70       ??$gjkPenetration@U?$RelativeConvex@VBoxV@Gu@physx@@@Gu@physx@@U?$LocalConvex@VBoxV@Gu@physx@@@23@@Gu@physx@@YA?AW4GjkStatus@01@AEBU?$RelativeConvex@VBoxV@Gu@physx@@@01@AEBU?$LocalConvex@VBoxV@Gu@physx@@@01@AEBT__m128@@2_NPEIAE4PEIAT5@5AEAEAEAUGjkOutput@01@@Z 0000000180048e70 f i GuSweepTests.obj
 0001:00049300       ??$gjkRaycast@U?$LocalConvex@VCapsuleV@Gu@physx@@@Gu@physx@@U?$LocalConvex@VBoxV@Gu@physx@@@23@@Gu@physx@@YA_NAEBU?$LocalConvex@VCapsuleV@Gu@physx@@@01@AEBU?$LocalConvex@VBoxV@Gu@physx@@@01@AEBT__m128@@222AEAT4@33M@Z 000000018004a300 f i GuSweepTests.obj
 0001:00049ea0       ??$gjkRaycast@U?$LocalConvex@VTriangleV@Gu@physx@@@Gu@physx@@U?$LocalConvex@VBoxV@Gu@physx@@@23@@Gu@physx@@YA_NAEBU?$LocalConvex@VTriangleV@Gu@physx@@@01@AEBU?$LocalConvex@VBoxV@Gu@physx@@@01@AEBT__m128@@222AEAT4@33M@Z 000000018004aea0 f i GuSweepTests.obj
 0001:0004ab00       ??$gjkRaycast@U?$RelativeConvex@VBoxV@Gu@physx@@@Gu@physx@@U?$LocalConvex@VBoxV@Gu@physx@@@23@@Gu@physx@@YA_NAEBU?$RelativeConvex@VBoxV@Gu@physx@@@01@AEBU?$LocalConvex@VBoxV@Gu@physx@@@01@AEBT__m128@@222AEAT4@33M@Z 000000018004bb00 f i GuSweepTests.obj
 0001:0004b730       ?getSweepFuncTable@Gu@physx@@YAAEBUGeomSweepFuncs@12@XZ 000000018004c730 f   GuSweepTests.obj
 0001:0004b740       ?getSweepMargin@?$RelativeConvex@VTriangleV@Gu@physx@@@Gu@physx@@UEBA?AT__m128@@XZ 000000018004c740 f i GuCCDSweepPrimitives.obj
 0001:0004b740       ?getSweepMargin@?$LocalConvex@VTetrahedronV@Gu@physx@@@Gu@physx@@UEBA?AT__m128@@XZ 000000018004c740 f i GuCookingTetrahedronMesh.obj
 0001:0004b740       ?getSweepMargin@?$LocalConvex@VTriangleV@Gu@physx@@@Gu@physx@@UEBA?AT__m128@@XZ 000000018004c740 f i GuSweepTests.obj
 0001:0004b750       ?registerHeightFields_Sweeps@@YAXXZ 000000018004c750 f   GuSweepTests.obj
 0001:0004b790       ?support@?$LocalConvex@VBoxV@Gu@physx@@@Gu@physx@@UEBA?AT__m128@@AEBT4@@Z 000000018004c790 f i GuSweepTests.obj
 0001:0004b7c0       ?support@?$LocalConvex@VBoxV@Gu@physx@@@Gu@physx@@UEBA?AT__m128@@AEBT4@AEAH@Z 000000018004c7c0 f i GuSweepTests.obj
 0001:0004b800       ?support@?$LocalConvex@VTriangleV@Gu@physx@@@Gu@physx@@UEBA?AT__m128@@AEBT4@@Z 000000018004c800 f i GuSweepTests.obj
 0001:0004b890       ?support@?$LocalConvex@VTriangleV@Gu@physx@@@Gu@physx@@UEBA?AT__m128@@AEBT4@AEAH@Z 000000018004c890 f i GuSweepTests.obj
 0001:0004b970       ?supportPoint@?$LocalConvex@VBoxV@Gu@physx@@@Gu@physx@@UEBA?AT__m128@@H@Z 000000018004c970 f i GuSweepTests.obj
 0001:0004b9b0       ?supportPoint@?$LocalConvex@VTriangleV@Gu@physx@@@Gu@physx@@UEBA?AT__m128@@H@Z 000000018004c9b0 f i GuSweepTests.obj
 0001:0004b9b0       ?supportPoint@?$LocalConvex@VTetrahedronV@Gu@physx@@@Gu@physx@@UEBA?AT__m128@@H@Z 000000018004c9b0 f i GuCookingTetrahedronMesh.obj
 0001:0004b9d0       ?sweepBoxTriangles@Gu@physx@@YA_NIPEBVPxTriangle@2@_NAEBVPxBoxGeometry@2@AEBV?$PxTransformT@M@2@AEBV?$PxVec3T@M@2@MAEAUPxGeomSweepHit@2@PEBIMV?$PxFlags@W4Enum@PxHitFlag@physx@@G@2@@Z 000000018004c9d0 f   GuSweepTests.obj
 0001:0004c440       ??$traverseBVH@VClosestDistanceToTrimeshTraversalController@Gu@physx@@@Gu@physx@@YAXPEBUBVHNode@01@AEAVClosestDistanceToTrimeshTraversalController@01@H@Z 000000018004d440 f i GuSDF.obj
 0001:0004c840       ??$traverseBVH@VLineSegmentTrimeshIntersectionTraversalController@Gu@physx@@@Gu@physx@@YAXPEBUBVHNode@01@AEAVLineSegmentTrimeshIntersectionTraversalController@01@H@Z 000000018004d840 f i GuSDF.obj
 0001:0004cd30       ??1SDF@Gu@physx@@QEAA@XZ   000000018004dd30 f   GuSDF.obj
 0001:0004cdc0       ??_G?$PxThreadT@V?$PxReflectionAllocator@VPxThreadImpl@physx@@@physx@@@physx@@UEAAPEAXI@Z 000000018004ddc0 f i GuSDF.obj
 0001:0004cdc0       ??_E?$PxThreadT@V?$PxReflectionAllocator@VPxThreadImpl@physx@@@physx@@@physx@@UEAAPEAXI@Z 000000018004ddc0 f i GuSDF.obj
 0001:0004ce60       ??_EPxRunnable@physx@@UEAAPEAXI@Z 000000018004de60 f i GuSDF.obj
 0001:0004ce60       ??_GPxRunnable@physx@@UEAAPEAXI@Z 000000018004de60 f i GuSDF.obj
 0001:0004ce90       ?SDFUsingWindingNumbers@Gu@physx@@YAXAEAV?$PxArray@UBVHNode@Gu@physx@@V?$PxReflectionAllocator@UBVHNode@Gu@physx@@@3@@2@AEAV?$PxHashMap@IU?$ClusterApproximationT@MV?$PxVec3T@M@physx@@@Gu@physx@@U?$PxHash@I@3@VPxAllocator@3@@2@PEBV?$PxVec3T@M@2@PEBIIIIIPEAMAEAVGridQueryPointSampler@12@PEAV52@I_N7@Z 000000018004de90 f   GuSDF.obj
 0001:0004d390       ?SDFUsingWindingNumbers@Gu@physx@@YAXPEBV?$PxVec3T@M@2@PEBIIIIIPEAMV32@3PEAV32@_NI@Z 000000018004e390 f   GuSDF.obj
 0001:0004d6a0       ?SDFUsingWindingNumbersSparse@Gu@physx@@YAXPEBV?$PxVec3T@M@2@PEBIIIIIAEBV32@2MIAEAV?$PxArray@MV?$PxReflectionAllocator@M@physx@@@2@AEAV?$PxArray@IV?$PxReflectionAllocator@I@physx@@@2@33AEAM5I@Z 000000018004e6a0 f   GuSDF.obj
 0001:0004e4c0       ?allocate@?$PxArray@HV?$PxInlineAllocator@$0EAA@V?$PxReflectionAllocator@H@physx@@@physx@@@physx@@IEAAPEAHI@Z 000000018004f4c0 f i GuSDF.obj
 0001:0004e580       ?allocate@?$PxArray@MV?$PxReflectionAllocator@M@physx@@@physx@@IEAAPEAMI@Z 000000018004f580 f i GuSDF.obj
 0001:0004e620       ?allocateSdfs@SDF@Gu@physx@@QEAAPEAMAEBV?$PxVec3T@M@3@AEBMIIIIIIIMMI@Z 000000018004f620 f   GuSDF.obj
 0001:0004e830       ?buildTree@Gu@physx@@YAXPEBIIPEBV?$PxVec3T@M@2@AEAV?$PxArray@UBVHNode@Gu@physx@@V?$PxReflectionAllocator@UBVHNode@Gu@physx@@@3@@2@M@Z 000000018004f830 f   GuSDF.obj
 0001:0004ea60       ?computeSDFThreadJob@Gu@physx@@YAPEAXPEAX@Z 000000018004fa60 f   GuSDF.obj
 0001:0004f540       ?convertSparseSDFTo3DTextureLayout@Gu@physx@@YAXIIIIPEAIPEBMIAEAV?$PxArray@MV?$PxReflectionAllocator@M@physx@@@2@AEAI33@Z 0000000180050540 f   GuSDF.obj
 0001:0004f8b0       ?createTriangles@Gu@physx@@YAXHHHMQEAMAEBV?$PxHashMap@_KIU?$PxHash@_K@physx@@VPxAllocator@2@@2@AEBV?$PxArray@V?$PxVec3T@M@physx@@V?$PxReflectionAllocator@V?$PxVec3T@M@physx@@@2@@2@AEAV?$PxArray@IV?$PxReflectionAllocator@I@physx@@@2@@Z 00000001800508b0 f   GuSDF.obj
 0001:000500e0       ?extractIsosurfaceFromSDF@Gu@physx@@YAXAEBVSDF@12@AEAV?$PxArray@V?$PxVec3T@M@physx@@V?$PxReflectionAllocator@V?$PxVec3T@M@physx@@@2@@2@AEAV?$PxArray@IV?$PxReflectionAllocator@I@physx@@@2@@Z 00000001800510e0 f   GuSDF.obj
 0001:00052130       ?fixSdfForNonClosedGeometry@Gu@physx@@YAXIIIPEAMAEBV?$PxVec3T@M@2@@Z 0000000180053130 f   GuSDF.obj
 0001:000531e0       ?generatePointInCell@Gu@physx@@YA_NAEBVSDF@12@HHHAEAV?$PxVec3T@M@2@QEAY111M@Z 00000001800541e0 f   GuSDF.obj
 0001:00053640       ?growAndPushBack@?$PxArray@HV?$PxInlineAllocator@$0EAA@V?$PxReflectionAllocator@H@physx@@@physx@@@physx@@IEAAAEAHAEBH@Z 0000000180054640 f i GuSDF.obj
 0001:00053730       ?growAndPushBack@?$PxArray@MV?$PxReflectionAllocator@M@physx@@@physx@@IEAAAEAMAEBM@Z 0000000180054730 f i GuSDF.obj
 0001:00053810       ?growAndPushBack@?$PxArray@PEAV?$PxThreadT@V?$PxReflectionAllocator@VPxThreadImpl@physx@@@physx@@@physx@@V?$PxReflectionAllocator@PEAV?$PxThreadT@V?$PxReflectionAllocator@VPxThreadImpl@physx@@@physx@@@physx@@@2@@physx@@IEAAAEAPEAV?$PxThreadT@V?$PxReflectionAllocator@VPxThreadImpl@physx@@@physx@@@2@AEBQEAV32@@Z 0000000180054810 f i GuSDF.obj
 0001:00053930       ?growAndPushBack@?$PxArray@UMutation@Gu@physx@@V?$PxReflectionAllocator@UMutation@Gu@physx@@@3@@physx@@IEAAAEAUMutation@Gu@2@AEBU342@@Z 0000000180054930 f i GuSDF.obj
 0001:00053a70       ?growAndPushBack@?$PxArray@URange@Gu@physx@@V?$PxReflectionAllocator@URange@Gu@physx@@@3@@physx@@IEAAAEAURange@Gu@2@AEBU342@@Z 0000000180054a70 f i GuSDF.obj
 0001:00053bc0       ?growAndPushBack@?$PxArray@USDFCalculationData@Gu@physx@@V?$PxReflectionAllocator@USDFCalculationData@Gu@physx@@@3@@physx@@IEAAAEAUSDFCalculationData@Gu@2@AEBU342@@Z 0000000180054bc0 f i GuSDF.obj
 0001:00053d50       ?growAndPushBack@?$PxArray@V?$PxVec3T@M@physx@@V?$PxReflectionAllocator@V?$PxVec3T@M@physx@@@2@@physx@@IEAAAEAV?$PxVec3T@M@2@AEBV32@@Z 0000000180054d50 f i GuSDF.obj
 0001:00053f20       ?recreate@?$PxArray@MV?$PxReflectionAllocator@M@physx@@@physx@@IEAAXI@Z 0000000180054f20 f i GuSDF.obj
 0001:00054000       ?reserveInternal@?$PxHashBase@V?$PxPair@$$CBIU?$ClusterApproximationT@MV?$PxVec3T@M@physx@@@Gu@physx@@@physx@@IU?$PxHash@I@2@UGetKey@?$PxHashMapBase@IU?$ClusterApproximationT@MV?$PxVec3T@M@physx@@@Gu@physx@@U?$PxHash@I@3@VPxAllocator@3@@2@VPxAllocator@2@$00@physx@@AEAAXI@Z 0000000180055000 f i GuSDF.obj
 0001:00054210       ?reserveInternal@?$PxHashBase@V?$PxPair@$$CB_KH@physx@@_KU?$PxHash@_K@2@UGetKey@?$PxHashMapBase@_KHU?$PxHash@_K@physx@@VPxAllocator@2@@2@VPxAllocator@2@$00@physx@@AEAAXI@Z 0000000180055210 f i GuMeshAnalysis.obj
 0001:00054210       ?reserveInternal@?$PxHashBase@V?$PxPair@$$CB_KI@physx@@_KU?$PxHash@_K@2@UGetKey@?$PxHashMapBase@_KIU?$PxHash@_K@physx@@VPxAllocator@2@@2@VPxAllocator@2@$00@physx@@AEAAXI@Z 0000000180055210 f i GuSDF.obj
 0001:00054400       ?resize@?$PxArray@MV?$PxReflectionAllocator@M@physx@@@physx@@QEAAXIAEBM@Z 0000000180055400 f i GuSDF.obj
 0001:00054510       ?sampleSDFDirect@?$DenseSDF@M@Gu@physx@@QEAAMAEBV?$PxVec3T@M@3@@Z 0000000180055510 f i GuSDF.obj
 0001:000546a0       ?windingNumbers@Gu@physx@@YAXPEBV?$PxVec3T@M@2@PEBIIIIIPEAMV32@3PEAV32@@Z 00000001800556a0 f   GuSDF.obj
 0001:00054a30       ?windingNumbersInsideCheck@Gu@physx@@YAXPEBV?$PxVec3T@M@2@PEBIIIIIPEA_NV32@3PEAV32@@Z 0000000180055a30 f   GuSDF.obj
 0001:00055370       ??0MeshData@physx@@QEAA@AEBVPxTriangleMeshDesc@1@@Z 0000000180056370 f i GuCookingSDF.obj
 0001:00055450       ?GetBounds@MeshData@physx@@QEBAXAEAV?$PxVec3T@M@2@0@Z 0000000180056450 f i GuCookingSDF.obj
 0001:000556f0       ?buildSDF@physx@@YA_NAEAVPxTriangleMeshDesc@1@AEAV?$PxArray@MV?$PxReflectionAllocator@M@physx@@@1@AEAV?$PxArray@EV?$PxReflectionAllocator@E@physx@@@1@AEAV?$PxArray@IV?$PxReflectionAllocator@I@physx@@@1@@Z 00000001800566f0 f   GuCookingSDF.obj
 0001:00056020       ?quantizeSparseSDF@physx@@YAXW4Enum@PxSdfBitsPerSubgridPixel@1@AEBV?$PxArray@MV?$PxReflectionAllocator@M@physx@@@1@AEAV?$PxArray@EV?$PxReflectionAllocator@E@physx@@@1@MM@Z 0000000180057020 f   GuCookingSDF.obj
 0001:00056100       ?recreate@?$PxArray@EV?$PxReflectionAllocator@E@physx@@@physx@@IEAAXI@Z 0000000180057100 f i GuCookingSDF.obj
 0001:00056210       ?recreate@?$PxArray@V?$PxVec3T@M@physx@@V?$PxReflectionAllocator@V?$PxVec3T@M@physx@@@2@@physx@@IEAAXI@Z 0000000180057210 f i GuCookingSDF.obj
 0001:000563c0       ?resize@?$PxArray@EV?$PxReflectionAllocator@E@physx@@@physx@@QEAAXIAEBE@Z 00000001800573c0 f i GuCookingSDF.obj
 0001:00056480       ?resize@?$PxArray@IV?$PxReflectionAllocator@I@physx@@@physx@@QEAAXIAEBI@Z 0000000180057480 f i GuCookingSDF.obj
 0001:00056540       ?resize@?$PxArray@V?$PxVec3T@M@physx@@V?$PxReflectionAllocator@V?$PxVec3T@M@physx@@@2@@physx@@QEAAXIAEBV?$PxVec3T@M@2@@Z 0000000180057540 f i GuCookingSDF.obj
 0001:00056630       ??$gjk@U?$RelativeConvex@UCustomConvexV@@@Gu@physx@@U?$LocalConvex@UCustomConvexV@@@23@@Gu@physx@@YA?AW4GjkStatus@01@AEBU?$RelativeConvex@UCustomConvexV@@@01@AEBU?$LocalConvex@UCustomConvexV@@@01@AEBT__m128@@2AEAT5@333@Z 0000000180057630 f i GuGjkQuery.obj
 0001:000573b0       ??$gjkPenetration@U?$RelativeConvex@UCustomConvexV@@@Gu@physx@@U?$LocalConvex@UCustomConvexV@@@23@@Gu@physx@@YA?AW4GjkStatus@01@AEBU?$RelativeConvex@UCustomConvexV@@@01@AEBU?$LocalConvex@UCustomConvexV@@@01@AEBT__m128@@2_NPEIAE4PEIAT5@5AEAEAEAUGjkOutput@01@@Z 00000001800583b0 f i GuGjkQuery.obj
 0001:000588f0       ??$gjkPenetration@U?$RelativeConvex@UCustomConvexV@@@Gu@physx@@U?$LocalConvex@UCustomConvexV@@@23@@Gu@physx@@YA?AW4GjkStatus@01@AEBU?$RelativeConvex@UCustomConvexV@@@01@AEBU?$LocalConvex@UCustomConvexV@@@01@AEBT__m128@@2_NPEIAT5@4AEAEAEAUGjkOutput@01@@Z 00000001800598f0 f i GuGjkQuery.obj
 0001:00058950       ??$gjkRaycast@U?$RelativeConvex@UCustomConvexV@@@Gu@physx@@U?$LocalConvex@UCustomConvexV@@@23@@Gu@physx@@YA_NAEBU?$RelativeConvex@UCustomConvexV@@@01@AEBU?$LocalConvex@UCustomConvexV@@@01@AEBT__m128@@222AEAT4@33M@Z 0000000180059950 f i GuGjkQuery.obj
 0001:000596a0       ??$gjkRaycast@U?$RelativeConvex@UCustomConvexV@@@Gu@physx@@U?$LocalConvex@UPointConvexV@@@23@@Gu@physx@@YA_NAEBU?$RelativeConvex@UCustomConvexV@@@01@AEBU?$LocalConvex@UPointConvexV@@@01@AEBT__m128@@222AEAT4@33M@Z 000000018005a6a0 f i GuGjkQuery.obj
 0001:0005a2f0       ?overlap@PxGjkQuery@physx@@SA_NAEBUSupport@12@0AEBV?$PxTransformT@M@2@1@Z 000000018005b2f0 f   GuGjkQuery.obj
 0001:0005a670       ?proximityInfo@PxGjkQuery@physx@@SA_NAEBUSupport@12@0AEBV?$PxTransformT@M@2@1MMAEAV?$PxVec3T@M@2@22AEAM@Z 000000018005b670 f   GuGjkQuery.obj
 0001:0005b3b0       ?raycast@PxGjkQuery@physx@@SA_NAEBUSupport@12@AEBV?$PxTransformT@M@2@AEBV?$PxVec3T@M@2@2MAEAMAEAV52@4@Z 000000018005c3b0 f   GuGjkQuery.obj
 0001:0005b850       ?support@?$LocalConvex@UCustomConvexV@@@Gu@physx@@UEBA?AT__m128@@AEBT4@@Z 000000018005c850 f i GuGjkQuery.obj
 0001:0005b8d0       ?support@?$LocalConvex@UCustomConvexV@@@Gu@physx@@UEBA?AT__m128@@AEBT4@AEAH@Z 000000018005c8d0 f i GuGjkQuery.obj
 0001:0005b950       ?supportPoint@?$LocalConvex@UPointConvexV@@@Gu@physx@@UEBA?AT__m128@@H@Z 000000018005c950 f i GuGjkQuery.obj
 0001:0005b950       ?support@?$LocalConvex@UPointConvexV@@@Gu@physx@@UEBA?AT__m128@@AEBT4@@Z 000000018005c950 f i GuGjkQuery.obj
 0001:0005b960       ?support@?$LocalConvex@UPointConvexV@@@Gu@physx@@UEBA?AT__m128@@AEBT4@AEAH@Z 000000018005c960 f i GuGjkQuery.obj
 0001:0005b980       ?support@?$RelativeConvex@UCustomConvexV@@@Gu@physx@@UEBA?AT__m128@@AEBT4@@Z 000000018005c980 f i GuGjkQuery.obj
 0001:0005ba50       ?support@?$RelativeConvex@UCustomConvexV@@@Gu@physx@@UEBA?AT__m128@@AEBT4@AEAH@Z 000000018005ca50 f i GuGjkQuery.obj
 0001:0005bb30       ?supportPoint@?$LocalConvex@UCustomConvexV@@@Gu@physx@@UEBA?AT__m128@@H@Z 000000018005cb30 f i GuGjkQuery.obj
 0001:0005bba0       ?supportPoint@?$RelativeConvex@UCustomConvexV@@@Gu@physx@@UEBA?AT__m128@@H@Z 000000018005cba0 f i GuGjkQuery.obj
 0001:0005bc40       ?sweep@PxGjkQuery@physx@@SA_NAEBUSupport@12@0AEBV?$PxTransformT@M@2@1AEBV?$PxVec3T@M@2@MAEAMAEAV52@4@Z 000000018005cc40 f   GuGjkQuery.obj
 0001:0005c3e0       ??$approximateCluster@MV?$PxVec3T@M@physx@@@Gu@physx@@YAXAEBV?$PxArray@HV?$PxReflectionAllocator@H@physx@@@1@IIPEBIPEBV?$PxVec3T@M@1@AEBV?$PxArray@MV?$PxReflectionAllocator@M@physx@@@1@AEBV?$PxArray@V?$PxVec3T@M@physx@@V?$PxReflectionAllocator@V?$PxVec3T@M@physx@@@2@@1@4AEAU?$ClusterApproximationT@MV?$PxVec3T@M@physx@@@01@@Z 000000018005d3e0 f i GuWindingNumber.obj
 0001:0005cc20       ??$copy@V?$PxReflectionAllocator@M@physx@@@?$PxArray@MV?$PxReflectionAllocator@M@physx@@@physx@@IEAAXAEBV01@@Z 000000018005dc20 f i GuWindingNumber.obj
 0001:0005cc80       ??$precomputeClusterInformation@MV?$PxVec3T@M@physx@@@Gu@physx@@YAXHPEBUBVHNode@01@PEBIIPEBV?$PxVec3T@M@1@AEAV?$PxHashMap@IU?$ClusterApproximationT@MV?$PxVec3T@M@physx@@@Gu@physx@@U?$PxHash@I@3@VPxAllocator@3@@1@V?$PxArray@MV?$PxReflectionAllocator@M@physx@@@1@AEBV?$PxArray@V?$PxVec3T@M@physx@@V?$PxReflectionAllocator@V?$PxVec3T@M@physx@@@2@@1@5@Z 000000018005dc80 f i GuWindingNumber.obj
 0001:0005d040       ??$precomputeClusterInformation@MV?$PxVec3T@M@physx@@@Gu@physx@@YAXPEBUBVHNode@01@PEBIIPEBV?$PxVec3T@M@1@AEAV?$PxHashMap@IU?$ClusterApproximationT@MV?$PxVec3T@M@physx@@@Gu@physx@@U?$PxHash@I@3@VPxAllocator@3@@1@H@Z 000000018005e040 f i GuWindingNumber.obj
 0001:0005d440       ??$traverseBVH@V?$WindingNumberTraversalController@MV?$PxVec3T@M@physx@@@Gu@physx@@@Gu@physx@@YAXPEBUBVHNode@01@AEAV?$WindingNumberTraversalController@MV?$PxVec3T@M@physx@@@01@H@Z 000000018005e440 f i GuWindingNumber.obj
 0001:0005d990       ?allocate@?$PxArray@HV?$PxReflectionAllocator@H@physx@@@physx@@IEAAPEAHI@Z 000000018005e990 f i GuWindingNumber.obj
 0001:0005da30       ?computeWindingNumber@Gu@physx@@YAMPEBUBVHNode@12@AEBV?$PxVec3T@M@2@AEBV?$PxHashMap@IU?$ClusterApproximationT@MV?$PxVec3T@M@physx@@@Gu@physx@@U?$PxHash@I@3@VPxAllocator@3@@2@PEBIPEBV42@@Z 000000018005ea30 f   GuWindingNumber.obj
 0001:0005daa0       ?computeWindingNumber@Gu@physx@@YAMPEBUBVHNode@12@AEBV?$PxVec3T@M@2@MAEBV?$PxHashMap@IU?$ClusterApproximationT@MV?$PxVec3T@M@physx@@@Gu@physx@@U?$PxHash@I@3@VPxAllocator@3@@2@PEBIPEBV42@@Z 000000018005eaa0 f   GuWindingNumber.obj
 0001:0005db10       ?copy@?$PxArray@MV?$PxReflectionAllocator@M@physx@@@physx@@KAXPEAM0PEBM@Z 000000018005eb10 f i GuWindingNumber.obj
 0001:0005db70       ?create@?$PxHashBase@V?$PxPair@$$CBIU?$ClusterApproximationT@MV?$PxVec3T@M@physx@@@Gu@physx@@@physx@@IU?$PxHash@I@2@UGetKey@?$PxHashMapBase@IU?$ClusterApproximationT@MV?$PxVec3T@M@physx@@@Gu@physx@@U?$PxHash@I@3@VPxAllocator@3@@2@VPxAllocator@2@$00@physx@@QEAAPEAV?$PxPair@$$CBIU?$ClusterApproximationT@MV?$PxVec3T@M@physx@@@Gu@physx@@@2@AEBIAEA_N@Z 000000018005eb70 f i GuWindingNumber.obj
 0001:0005dcd0       ?growAndPushBack@?$PxArray@HV?$PxReflectionAllocator@H@physx@@@physx@@IEAAAEAHAEBH@Z 000000018005ecd0 f i GuWindingNumber.obj
 0001:0005dd90       ?growAndPushBack@?$PxArray@USection@Gu@physx@@V?$PxReflectionAllocator@USection@Gu@physx@@@3@@physx@@IEAAAEAUSection@Gu@2@AEBU342@@Z 000000018005ed90 f i GuWindingNumber.obj
 0001:0005deb0       ?precomputeClusterInformation@Gu@physx@@YAXPEBUBVHNode@12@PEBIIPEBV?$PxVec3T@M@2@AEAV?$PxHashMap@IU?$ClusterApproximationT@MV?$PxVec3T@M@physx@@@Gu@physx@@U?$PxHash@I@3@VPxAllocator@3@@2@H@Z 000000018005eeb0 f   GuWindingNumber.obj
 0001:0005dec0       ?recreate@?$PxArray@HV?$PxReflectionAllocator@H@physx@@@physx@@IEAAXI@Z 000000018005eec0 f i GuWindingNumber.obj
 0001:0005dff0       ?SweepAnyShapeHeightfield@Gu@physx@@YAMAEBUCCDShape@12@0AEBV?$PxTransformT@M@2@111MAEAV?$PxVec3T@M@2@2MAEAIM@Z 000000018005eff0 f   GuCCDSweepConvexMesh.obj
 0001:0005f560       ?SweepAnyShapeMesh@Gu@physx@@YAMAEBUCCDShape@12@0AEBV?$PxTransformT@M@2@111MAEAV?$PxVec3T@M@2@2MAEAIM@Z 0000000180060560 f   GuCCDSweepConvexMesh.obj
 0001:00060b20       ?SweepEstimateAnyShapeHeightfield@Gu@physx@@YAMAEBUCCDShape@12@0MM@Z 0000000180061b20 f   GuCCDSweepConvexMesh.obj
 0001:00061780       ?SweepEstimateAnyShapeMesh@Gu@physx@@YAMAEBUCCDShape@12@0MM@Z 0000000180062780 f   GuCCDSweepConvexMesh.obj
 0001:00061a20       ?allocate@?$PxArray@IV?$PxInlineAllocator@$0BAA@V?$PxReflectionAllocator@I@physx@@@physx@@@physx@@IEAAPEAII@Z 0000000180062a20 f i GuCCDSweepConvexMesh.obj
 0001:000624f0       ?growAndPushBack@?$PxArray@IV?$PxInlineAllocator@$0BAA@V?$PxReflectionAllocator@I@physx@@@physx@@@physx@@IEAAAEAIAEBI@Z 00000001800634f0 f i GuCCDSweepConvexMesh.obj
 0001:00062b30       ?recreate@?$PxArray@IV?$PxInlineAllocator@$0BAA@V?$PxReflectionAllocator@I@physx@@@physx@@@physx@@IEAAXI@Z 0000000180063b30 f i GuCCDSweepConvexMesh.obj
 0001:00062c60       ?resize@?$PxArray@IV?$PxInlineAllocator@$0BAA@V?$PxReflectionAllocator@I@physx@@@physx@@@physx@@QEAAXIAEBI@Z 0000000180063c60 f i GuCCDSweepConvexMesh.obj
 0001:00062d30       ?transformBoxOrthonormal@physx@@YA?AVBox@Gu@1@AEBV231@AEBV?$PxTransformT@M@1@@Z 0000000180063d30 f i GuCCDSweepConvexMesh.obj
 0001:000631c0       ?UnimplementedSweep@Gu@physx@@YAMAEBUCCDShape@12@0AEBV?$PxTransformT@M@2@111MAEAV?$PxVec3T@M@2@2MAEAIM@Z 00000001800641c0 f   GuCCDSweepPrimitives.obj
 0001:00066d50       ?UnimplementedTriangleSweep@Gu@physx@@YAMAEBVPxGeometry@2@0AEBV?$PxTransformT@M@2@111MAEAV?$PxVec3T@M@2@2AEBVFastVertex2ShapeScaling@Cm@2@AEAVTriangleV@12@M@Z 0000000180067d50 f   GuCCDSweepPrimitives.obj
 0001:00066d60       ??$SweepGeomTriangles@VCapsuleV@Gu@physx@@@Gu@physx@@YAMAEBVPxGeometry@1@0AEBV?$PxTransformT@M@1@111MAEAV?$PxVec3T@M@1@2AEBVFastVertex2ShapeScaling@Cm@1@AEAVTriangleV@01@M@Z 0000000180067d60 f i GuCCDSweepPrimitives.obj
 0001:00067490       ??$SweepGeomTriangles@VBoxV@Gu@physx@@@Gu@physx@@YAMAEBVPxGeometry@1@0AEBV?$PxTransformT@M@1@111MAEAV?$PxVec3T@M@1@2AEBVFastVertex2ShapeScaling@Cm@1@AEAVTriangleV@01@M@Z 0000000180068490 f i GuCCDSweepPrimitives.obj
 0001:00067be0       ??$SweepGeomTriangles@VConvexHullV@Gu@physx@@@Gu@physx@@YAMAEBVPxGeometry@1@0AEBV?$PxTransformT@M@1@111MAEAV?$PxVec3T@M@1@2AEBVFastVertex2ShapeScaling@Cm@1@AEAVTriangleV@01@M@Z 0000000180068be0 f i GuCCDSweepPrimitives.obj
 0001:000686d0       ?supportPoint@?$RelativeConvex@VCapsuleV@Gu@physx@@@Gu@physx@@UEBA?AT__m128@@H@Z 00000001800696d0 f i GuCCDSweepPrimitives.obj
 0001:00068730       ?support@?$RelativeConvex@VCapsuleV@Gu@physx@@@Gu@physx@@UEBA?AT__m128@@AEBT4@@Z 0000000180069730 f i GuCCDSweepPrimitives.obj
 0001:000687e0       ?support@?$RelativeConvex@VCapsuleV@Gu@physx@@@Gu@physx@@UEBA?AT__m128@@AEBT4@AEAH@Z 00000001800697e0 f i GuCCDSweepPrimitives.obj
 0001:000688a0       ?supportPoint@?$RelativeConvex@VTriangleV@Gu@physx@@@Gu@physx@@UEBA?AT__m128@@H@Z 00000001800698a0 f i GuCCDSweepPrimitives.obj
 0001:000688f0       ?support@?$RelativeConvex@VTriangleV@Gu@physx@@@Gu@physx@@UEBA?AT__m128@@AEBT4@@Z 00000001800698f0 f i GuCCDSweepPrimitives.obj
 0001:000689f0       ?support@?$RelativeConvex@VTriangleV@Gu@physx@@@Gu@physx@@UEBA?AT__m128@@AEBT4@AEAH@Z 00000001800699f0 f i GuCCDSweepPrimitives.obj
 0001:00068b30       ??$gjkPenetration@U?$RelativeConvex@VCapsuleV@Gu@physx@@@Gu@physx@@U?$LocalConvex@VBoxV@Gu@physx@@@23@@Gu@physx@@YA?AW4GjkStatus@01@AEBU?$RelativeConvex@VCapsuleV@Gu@physx@@@01@AEBU?$LocalConvex@VBoxV@Gu@physx@@@01@AEBT__m128@@2_NPEIAE4AEAEAEAUGjkOutput@01@@Z 0000000180069b30 f i GuCCDSweepPrimitives.obj
 0001:00068ba0       ??$gjkPenetration@U?$RelativeConvex@VCapsuleV@Gu@physx@@@Gu@physx@@U?$LocalConvex@VBoxV@Gu@physx@@@23@@Gu@physx@@YA?AW4GjkStatus@01@AEBU?$RelativeConvex@VCapsuleV@Gu@physx@@@01@AEBU?$LocalConvex@VBoxV@Gu@physx@@@01@AEBT__m128@@2_NPEIAE4PEIAT5@5AEAEAEAUGjkOutput@01@@Z 0000000180069ba0 f i GuCCDSweepPrimitives.obj
 0001:0006a050       ??$gjkPenetration@U?$RelativeConvex@VCapsuleV@Gu@physx@@@Gu@physx@@U?$LocalConvex@VCapsuleV@Gu@physx@@@23@@Gu@physx@@YA?AW4GjkStatus@01@AEBU?$RelativeConvex@VCapsuleV@Gu@physx@@@01@AEBU?$LocalConvex@VCapsuleV@Gu@physx@@@01@AEBT__m128@@2_NPEIAE4AEAEAEAUGjkOutput@01@@Z 000000018006b050 f i GuCCDSweepPrimitives.obj
 0001:0006a0c0       ??$gjkPenetration@U?$RelativeConvex@VCapsuleV@Gu@physx@@@Gu@physx@@U?$LocalConvex@VCapsuleV@Gu@physx@@@23@@Gu@physx@@YA?AW4GjkStatus@01@AEBU?$RelativeConvex@VCapsuleV@Gu@physx@@@01@AEBU?$LocalConvex@VCapsuleV@Gu@physx@@@01@AEBT__m128@@2_NPEIAE4PEIAT5@5AEAEAEAUGjkOutput@01@@Z 000000018006b0c0 f i GuCCDSweepPrimitives.obj
 0001:0006b560       ??$gjkPenetration@U?$RelativeConvex@VCapsuleV@Gu@physx@@@Gu@physx@@U?$LocalConvex@VConvexHullV@Gu@physx@@@23@@Gu@physx@@YA?AW4GjkStatus@01@AEBU?$RelativeConvex@VCapsuleV@Gu@physx@@@01@AEBU?$LocalConvex@VConvexHullV@Gu@physx@@@01@AEBT__m128@@2_NPEIAE4AEAEAEAUGjkOutput@01@@Z 000000018006c560 f i GuCCDSweepPrimitives.obj
 0001:0006b5d0       ??$gjkPenetration@U?$RelativeConvex@VCapsuleV@Gu@physx@@@Gu@physx@@U?$LocalConvex@VConvexHullV@Gu@physx@@@23@@Gu@physx@@YA?AW4GjkStatus@01@AEBU?$RelativeConvex@VCapsuleV@Gu@physx@@@01@AEBU?$LocalConvex@VConvexHullV@Gu@physx@@@01@AEBT__m128@@2_NPEIAE4PEIAT5@5AEAEAEAUGjkOutput@01@@Z 000000018006c5d0 f i GuCCDSweepPrimitives.obj
 0001:0006cb50       ??$gjkPenetration@U?$RelativeConvex@VTriangleV@Gu@physx@@@Gu@physx@@U?$LocalConvex@VBoxV@Gu@physx@@@23@@Gu@physx@@YA?AW4GjkStatus@01@AEBU?$RelativeConvex@VTriangleV@Gu@physx@@@01@AEBU?$LocalConvex@VBoxV@Gu@physx@@@01@AEBT__m128@@2_NPEIAE4AEAEAEAUGjkOutput@01@@Z 000000018006db50 f i GuCCDSweepPrimitives.obj
 0001:0006cbc0       ??$gjkPenetration@U?$RelativeConvex@VTriangleV@Gu@physx@@@Gu@physx@@U?$LocalConvex@VBoxV@Gu@physx@@@23@@Gu@physx@@YA?AW4GjkStatus@01@AEBU?$RelativeConvex@VTriangleV@Gu@physx@@@01@AEBU?$LocalConvex@VBoxV@Gu@physx@@@01@AEBT__m128@@2_NPEIAE4PEIAT5@5AEAEAEAUGjkOutput@01@@Z 000000018006dbc0 f i GuCCDSweepPrimitives.obj
 0001:0006e0b0       ??$gjkPenetration@U?$RelativeConvex@VTriangleV@Gu@physx@@@Gu@physx@@U?$LocalConvex@VCapsuleV@Gu@physx@@@23@@Gu@physx@@YA?AW4GjkStatus@01@AEBU?$RelativeConvex@VTriangleV@Gu@physx@@@01@AEBU?$LocalConvex@VCapsuleV@Gu@physx@@@01@AEBT__m128@@2_NPEIAE4AEAEAEAUGjkOutput@01@@Z 000000018006f0b0 f i GuCCDSweepPrimitives.obj
 0001:0006e120       ??$gjkPenetration@U?$RelativeConvex@VTriangleV@Gu@physx@@@Gu@physx@@U?$LocalConvex@VCapsuleV@Gu@physx@@@23@@Gu@physx@@YA?AW4GjkStatus@01@AEBU?$RelativeConvex@VTriangleV@Gu@physx@@@01@AEBU?$LocalConvex@VCapsuleV@Gu@physx@@@01@AEBT__m128@@2_NPEIAE4PEIAT5@5AEAEAEAUGjkOutput@01@@Z 000000018006f120 f i GuCCDSweepPrimitives.obj
 0001:0006f620       ??$gjkPenetration@U?$RelativeConvex@VTriangleV@Gu@physx@@@Gu@physx@@U?$LocalConvex@VConvexHullV@Gu@physx@@@23@@Gu@physx@@YA?AW4GjkStatus@01@AEBU?$RelativeConvex@VTriangleV@Gu@physx@@@01@AEBU?$LocalConvex@VConvexHullV@Gu@physx@@@01@AEBT__m128@@2_NPEIAE4AEAEAEAUGjkOutput@01@@Z 0000000180070620 f i GuCCDSweepPrimitives.obj
 0001:0006f690       ??$gjkPenetration@U?$RelativeConvex@VTriangleV@Gu@physx@@@Gu@physx@@U?$LocalConvex@VConvexHullV@Gu@physx@@@23@@Gu@physx@@YA?AW4GjkStatus@01@AEBU?$RelativeConvex@VTriangleV@Gu@physx@@@01@AEBU?$LocalConvex@VConvexHullV@Gu@physx@@@01@AEBT__m128@@2_NPEIAE4PEIAT5@5AEAEAEAUGjkOutput@01@@Z 0000000180070690 f i GuCCDSweepPrimitives.obj
 0001:00070c40       ??$gjkRaycast@U?$RelativeConvex@VCapsuleV@Gu@physx@@@Gu@physx@@U?$LocalConvex@VBoxV@Gu@physx@@@23@@Gu@physx@@YA_NAEBU?$RelativeConvex@VCapsuleV@Gu@physx@@@01@AEBU?$LocalConvex@VBoxV@Gu@physx@@@01@AEBT__m128@@222AEAT4@33M@Z 0000000180071c40 f i GuCCDSweepPrimitives.obj
 0001:00071890       ??$gjkRaycast@U?$RelativeConvex@VCapsuleV@Gu@physx@@@Gu@physx@@U?$LocalConvex@VCapsuleV@Gu@physx@@@23@@Gu@physx@@YA_NAEBU?$RelativeConvex@VCapsuleV@Gu@physx@@@01@AEBU?$LocalConvex@VCapsuleV@Gu@physx@@@01@AEBT__m128@@222AEAT4@33M@Z 0000000180072890 f i GuCCDSweepPrimitives.obj
 0001:00072560       ??$gjkRaycast@U?$RelativeConvex@VCapsuleV@Gu@physx@@@Gu@physx@@U?$LocalConvex@VConvexHullV@Gu@physx@@@23@@Gu@physx@@YA_NAEBU?$RelativeConvex@VCapsuleV@Gu@physx@@@01@AEBU?$LocalConvex@VConvexHullV@Gu@physx@@@01@AEBT__m128@@222AEAT4@33M@Z 0000000180073560 f i GuCCDSweepPrimitives.obj
 0001:00073370       ??$gjkRaycast@U?$RelativeConvex@VTriangleV@Gu@physx@@@Gu@physx@@U?$LocalConvex@VBoxV@Gu@physx@@@23@@Gu@physx@@YA_NAEBU?$RelativeConvex@VTriangleV@Gu@physx@@@01@AEBU?$LocalConvex@VBoxV@Gu@physx@@@01@AEBT__m128@@222AEAT4@33M@Z 0000000180074370 f i GuCCDSweepPrimitives.obj
 0001:00074070       ??$gjkRaycast@U?$RelativeConvex@VTriangleV@Gu@physx@@@Gu@physx@@U?$LocalConvex@VCapsuleV@Gu@physx@@@23@@Gu@physx@@YA_NAEBU?$RelativeConvex@VTriangleV@Gu@physx@@@01@AEBU?$LocalConvex@VCapsuleV@Gu@physx@@@01@AEBT__m128@@222AEAT4@33M@Z 0000000180075070 f i GuCCDSweepPrimitives.obj
 0001:00074df0       ??$gjkRaycast@U?$RelativeConvex@VTriangleV@Gu@physx@@@Gu@physx@@U?$LocalConvex@VConvexHullV@Gu@physx@@@23@@Gu@physx@@YA_NAEBU?$RelativeConvex@VTriangleV@Gu@physx@@@01@AEBU?$LocalConvex@VConvexHullV@Gu@physx@@@01@AEBT__m128@@222AEAT4@33M@Z 0000000180075df0 f i GuCCDSweepPrimitives.obj
 0001:00075c60       ?SweepShapeShape@Gu@physx@@YAMAEBUCCDShape@12@0AEBV?$PxTransformT@M@2@111MAEAV?$PxVec3T@M@2@2MAEAIM@Z 0000000180076c60 f   GuCCDSweepPrimitives.obj
 0001:00075c80       ?SweepShapeTriangle@Gu@physx@@YAMAEBVPxGeometry@2@0AEBV?$PxTransformT@M@2@111MAEAV?$PxVec3T@M@2@2AEBVFastVertex2ShapeScaling@Cm@2@AEAVTriangleV@12@M@Z 0000000180076c80 f   GuCCDSweepPrimitives.obj
 0001:00075ca0       ?barycentricCoordinates@Gu@physx@@YAXAEBT__m128@@000AEAT3@1@Z 0000000180076ca0 f   GuBarycentricCoordinates.obj
 0001:00075de0       ?barycentricCoordinates@Gu@physx@@YAXAEBT__m128@@00AEAT3@@Z 0000000180076de0 f   GuBarycentricCoordinates.obj
 0001:00075e50       ??$?_UV?$PxReflectionAllocator@VAdjTriangle@Gu@physx@@@physx@@@PxUserAllocated@physx@@SAPEAX_KV?$PxReflectionAllocator@VAdjTriangle@Gu@physx@@@1@PEBDH@Z 0000000180076e50 f i GuAdjacencies.obj
 0001:00075f30       ??0AdjacenciesBuilder@Gu@physx@@QEAA@XZ 0000000180076f30 f   GuAdjacencies.obj
 0001:00075f40       ??1AdjacenciesBuilder@Gu@physx@@QEAA@XZ 0000000180076f40 f   GuAdjacencies.obj
 0001:00075f90       ?ComputeNbBoundaryEdges@Adjacencies@Gu@physx@@QEBAIXZ 0000000180076f90 f   GuAdjacencies.obj
 0001:00076220       ?Init@AdjacenciesBuilder@Gu@physx@@QEAA_NAEBUADJACENCIESCREATE@23@@Z 0000000180077220 f   GuAdjacencies.obj
 0001:000767f0       ??0EdgeList@Gu@physx@@QEAA@XZ 00000001800777f0 f   GuEdgeList.obj
 0001:00076810       ??1EdgeList@Gu@physx@@QEAA@XZ 0000000180077810 f   GuEdgeList.obj
 0001:000768c0       ?computeActiveEdges@EdgeList@Gu@physx@@AEAA_NIPEBIPEBGPEBV?$PxVec3T@M@3@M@Z 00000001800778c0 f   GuEdgeList.obj
 0001:00077c50       ?createEdgesToFaces@EdgeList@Gu@physx@@AEAA_NIPEBIPEBG@Z 0000000180078c50 f   GuEdgeList.obj
 0001:00077eb0       ?createFacesToEdges@EdgeList@Gu@physx@@AEAA_NIPEBIPEBG@Z 0000000180078eb0 f   GuEdgeList.obj
 0001:000782e0       ?init@EdgeList@Gu@physx@@QEAA_NAEBUEDGELISTCREATE@23@@Z 00000001800792e0 f   GuEdgeList.obj
 0001:00078410       ?addAxis@SeparatingAxes@Gu@physx@@QEAA_NAEBV?$PxVec3T@M@3@@Z 0000000180079410 f   GuSeparatingAxes.obj
 0001:000784d0       ??$kmeans_cluster@V?$PxVec3T@M@physx@@M@@YAIPEBV?$PxVec3T@M@physx@@IIPEAV01@PEAIMM@Z 00000001800794d0 f i GuQuantizer.obj
 0001:00078df0       ??_EQuantizer@Gu@physx@@MEAAPEAXI@Z 0000000180079df0 f i GuQuantizer.obj
 0001:00078df0       ??_GQuantizer@Gu@physx@@MEAAPEAXI@Z 0000000180079df0 f i GuQuantizer.obj
 0001:00078e20       ??_EQuantizerImpl@@EEAAPEAXI@Z 0000000180079e20 f i GuQuantizer.obj
 0001:00078e20       ??_GQuantizerImpl@@EEAAPEAXI@Z 0000000180079e20 f i GuQuantizer.obj
 0001:00078ef0       ?createQuantizer@Gu@physx@@YAPEAVQuantizer@12@XZ 0000000180079ef0 f   GuQuantizer.obj
 0001:00078fa0       ?getDenormalizeCenter@QuantizerImpl@@UEBAAEBV?$PxVec3T@M@physx@@XZ 0000000180079fa0 f i GuQuantizer.obj
 0001:00078fb0       ?getCurrentAABBTreeBounds@PruningPool@Gu@physx@@QEBAAEBVAABBTreeBounds@23@XZ 0000000180079fb0 f i GuIncrementalAABBPrunerCore.obj
 0001:00078fb0       ?getDenormalizeScale@QuantizerImpl@@UEBAAEBV?$PxVec3T@M@physx@@XZ 0000000180079fb0 f i GuQuantizer.obj
 0001:00078fc0       ?kmeansQuantize3D@QuantizerImpl@@UEAAPEBV?$PxVec3T@M@physx@@IPEBV23@I_NIAEAI@Z 0000000180079fc0 f i GuQuantizer.obj
 0001:00079220       ?normalizeInput@QuantizerImpl@@AEAAXIPEBV?$PxVec3T@M@physx@@I@Z 000000018007a220 f i GuQuantizer.obj
 0001:00079650       ?release@QuantizerImpl@@UEAAXXZ 000000018007a650 f i GuQuantizer.obj
 0001:00079670       ??0MeshCleaner@Gu@physx@@QEAA@IPEBV?$PxVec3T@M@2@IPEBIM@Z 000000018007a670 f   GuMeshCleaner.obj
 0001:0007a010       ??1MeshCleaner@Gu@physx@@QEAA@XZ 000000018007b010 f   GuMeshCleaner.obj
 0001:0007a0a0       ??0ReducedVertexCloud@Gu@physx@@QEAA@PEBV?$PxVec3T@M@2@I@Z 000000018007b0a0 f   GuVertexReducer.obj
 0001:0007a0c0       ??1ReducedVertexCloud@Gu@physx@@QEAA@XZ 000000018007b0c0 f   GuVertexReducer.obj
 0001:0007a0d0       ?clean@ReducedVertexCloud@Gu@physx@@QEAAAEAV123@XZ 000000018007b0d0 f   GuVertexReducer.obj
 0001:0007a140       ?reduce@ReducedVertexCloud@Gu@physx@@QEAA_NPEAUREDUCEDCLOUD@23@@Z 000000018007b140 f   GuVertexReducer.obj
 0001:0007a3e0       ??$copy@V?$PxReflectionAllocator@H@physx@@@?$PxArray@HV?$PxReflectionAllocator@H@physx@@@physx@@IEAAXAEBV01@@Z 000000018007b3e0 f i GuMeshAnalysis.obj
 0001:0007a450       ?buildTriangleAdjacency@MeshAnalyzer@Gu@physx@@SA_NPEBU?$IndexedTriangleT@H@23@IAEAV?$PxArray@HV?$PxReflectionAllocator@H@physx@@@3@AEAV?$PxHashMap@_KHU?$PxHash@_K@physx@@VPxAllocator@2@@3@@Z 000000018007b450 f   GuMeshAnalysis.obj
 0001:0007a910       ?checkConsistentTriangleOrientation@MeshAnalyzer@Gu@physx@@SA_NPEBU?$IndexedTriangleT@H@23@IAEAV?$PxArray@_NV?$PxReflectionAllocator@_N@physx@@@3@AEAV?$PxHashMap@_KHU?$PxHash@_K@physx@@VPxAllocator@2@@3@@Z 000000018007b910 f   GuMeshAnalysis.obj
 0001:0007ad40       ?checkMeshWatertightness@MeshAnalyzer@Gu@physx@@SA_NPEBU?$IndexedTriangleT@H@23@I@Z 000000018007bd40 f   GuMeshAnalysis.obj
 0001:0007ae70       ?create@?$PxHashBase@V?$PxPair@$$CB_KH@physx@@_KU?$PxHash@_K@2@UGetKey@?$PxHashMapBase@_KHU?$PxHash@_K@physx@@VPxAllocator@2@@2@VPxAllocator@2@$00@physx@@QEAAPEAV?$PxPair@$$CB_KH@2@AEB_KAEA_N@Z 000000018007be70 f i GuMeshAnalysis.obj
 0001:0007b010       ?growAndPushBack@?$PxArray@V?$PxArray@HV?$PxReflectionAllocator@H@physx@@@physx@@V?$PxReflectionAllocator@V?$PxArray@HV?$PxReflectionAllocator@H@physx@@@physx@@@2@@physx@@IEAAAEAV?$PxArray@HV?$PxReflectionAllocator@H@physx@@@2@AEBV32@@Z 000000018007c010 f i GuMeshAnalysis.obj
 0001:0007b1a0       ?makeTriOrientationConsistent@MeshAnalyzer@Gu@physx@@SA_NPEAU?$IndexedTriangleT@H@23@I_N@Z 000000018007c1a0 f   GuMeshAnalysis.obj
 0001:0007b2b0       ?recreate@?$PxArray@_NV?$PxReflectionAllocator@_N@physx@@@physx@@IEAAXI@Z 000000018007c2b0 f i GuMeshAnalysis.obj
 0001:0007b3c0       ?resize@?$PxArray@HV?$PxReflectionAllocator@H@physx@@@physx@@QEAAXIAEBH@Z 000000018007c3c0 f i GuMeshAnalysis.obj
 0001:0007b480       ?resize@?$PxArray@_NV?$PxReflectionAllocator@_N@physx@@@physx@@QEAAXIAEB_N@Z 000000018007c480 f i GuMeshAnalysis.obj
 0001:0007b540       ?contactBoxBox@Gu@physx@@YA_NAEBVPxGeometry@2@0AEBV?$PxTransformT@M@2@1AEBUNarrowPhaseParams@12@AEAUCache@12@AEAVPxContactBuffer@2@PEAVPxRenderOutput@2@@Z 000000018007c540 f   GuContactBoxBox.obj
 0001:0007f950       ?contactCapsuleBox@Gu@physx@@YA_NAEBVPxGeometry@2@0AEBV?$PxTransformT@M@2@1AEBUNarrowPhaseParams@12@AEAUCache@12@AEAVPxContactBuffer@2@PEAVPxRenderOutput@2@@Z 0000000180080950 f   GuContactCapsuleBox.obj
 0001:0007fef0       ?contactCapsuleCapsule@Gu@physx@@YA_NAEBVPxGeometry@2@0AEBV?$PxTransformT@M@2@1AEBUNarrowPhaseParams@12@AEAUCache@12@AEAVPxContactBuffer@2@PEAVPxRenderOutput@2@@Z 0000000180080ef0 f   GuContactCapsuleCapsule.obj
 0001:000827b0       ?contactCapsuleConvex@Gu@physx@@YA_NAEBVPxGeometry@2@0AEBV?$PxTransformT@M@2@1AEBUNarrowPhaseParams@12@AEAUCache@12@AEAVPxContactBuffer@2@PEAVPxRenderOutput@2@@Z 00000001800837b0 f   GuContactCapsuleConvex.obj
 0001:00084cc0       ?contactCapsuleHeightfield@Gu@physx@@YA_NAEBVPxGeometry@2@0AEBV?$PxTransformT@M@2@1AEBUNarrowPhaseParams@12@AEAUCache@12@AEAVPxContactBuffer@2@PEAVPxRenderOutput@2@@Z 0000000180085cc0 f   GuContactCapsuleMesh.obj
 0001:000854d0       ?contactCapsuleMesh@Gu@physx@@YA_NAEBVPxGeometry@2@0AEBV?$PxTransformT@M@2@1AEBUNarrowPhaseParams@12@AEAUCache@12@AEAVPxContactBuffer@2@PEAVPxRenderOutput@2@@Z 00000001800864d0 f   GuContactCapsuleMesh.obj
 0001:00086650       ?transformQueryBounds@FastVertex2ShapeScaling@Cm@physx@@QEBAXAEAV?$PxVec3T@M@3@0AEAV?$PxMat33T@M@3@@Z 0000000180087650 f i GuContactCapsuleMesh.obj
 0001:0008a960       ?contactBoxConvex@Gu@physx@@YA_NAEBVPxGeometry@2@0AEBV?$PxTransformT@M@2@1AEBUNarrowPhaseParams@12@AEAUCache@12@AEAVPxContactBuffer@2@PEAVPxRenderOutput@2@@Z 000000018008b960 f   GuContactConvexConvex.obj
 0001:0008ab30       ?contactConvexConvex@Gu@physx@@YA_NAEBVPxGeometry@2@0AEBV?$PxTransformT@M@2@1AEBUNarrowPhaseParams@12@AEAUCache@12@AEAVPxContactBuffer@2@PEAVPxRenderOutput@2@@Z 000000018008bb30 f   GuContactConvexConvex.obj
 0001:0008afb0       ?transformPlaneToShapeSpace@FastVertex2ShapeScaling@Cm@physx@@QEBAXAEBV?$PxVec3T@M@3@MAEAV43@AEAM@Z 000000018008bfb0 f i GuContactConvexConvex.obj
 0001:0008b460       ??_GConvexMeshContactGenerationCallback@@UEAAPEAXI@Z 000000018008c460 f i GuContactConvexMesh.obj
 0001:0008b460       ??_EConvexMeshContactGenerationCallback@@UEAAPEAXI@Z 000000018008c460 f i GuContactConvexMesh.obj
 0001:0008b4c0       ?addData@?$CacheMap@UCachedEdge@Gu@physx@@$0IA@@Gu@physx@@QEAA_NAEBUCachedEdge@23@@Z 000000018008c4c0 f i GuContactConvexMesh.obj
 0001:0008b5a0       ?addData@?$CacheMap@UCachedVertex@Gu@physx@@$0IA@@Gu@physx@@QEAA_NAEBUCachedVertex@23@@Z 000000018008c5a0 f i GuContactConvexMesh.obj
 0001:0008b630       ?allocate@?$PxArray@IV?$PxInlineAllocator@$0BBAA@V?$PxReflectionAllocator@I@physx@@@physx@@@physx@@IEAAPEAII@Z 000000018008c630 f i GuContactConvexMesh.obj
 0001:0008ba30       ?contactBoxHeightfield@Gu@physx@@YA_NAEBVPxGeometry@2@0AEBV?$PxTransformT@M@2@1AEBUNarrowPhaseParams@12@AEAUCache@12@AEAVPxContactBuffer@2@PEAVPxRenderOutput@2@@Z 000000018008ca30 f   GuContactConvexMesh.obj
 0001:0008bbb0       ?contactBoxMesh@Gu@physx@@YA_NAEBVPxGeometry@2@0AEBV?$PxTransformT@M@2@1AEBUNarrowPhaseParams@12@AEAUCache@12@AEAVPxContactBuffer@2@PEAVPxRenderOutput@2@@Z 000000018008cbb0 f   GuContactConvexMesh.obj
 0001:0008bd80       ?contactConvexHeightfield@Gu@physx@@YA_NAEBVPxGeometry@2@0AEBV?$PxTransformT@M@2@1AEBUNarrowPhaseParams@12@AEAUCache@12@AEAVPxContactBuffer@2@PEAVPxRenderOutput@2@@Z 000000018008cd80 f   GuContactConvexMesh.obj
 0001:0008bed0       ?contactConvexMesh@Gu@physx@@YA_NAEBVPxGeometry@2@0AEBV?$PxTransformT@M@2@1AEBUNarrowPhaseParams@12@AEAUCache@12@AEAVPxContactBuffer@2@PEAVPxRenderOutput@2@@Z 000000018008ced0 f   GuContactConvexMesh.obj
 0001:0008f630       ?processHit@ConvexMeshContactGenerationCallback@@UEAA_NAEBUPxGeomRaycastHit@physx@@AEBV?$PxVec3T@M@3@11AEAMPEBI@Z 0000000180090630 f i GuContactConvexMesh.obj
 0001:0008ffa0       ?recreate@?$PxArray@IV?$PxInlineAllocator@$0BBAA@V?$PxReflectionAllocator@I@physx@@@physx@@@physx@@IEAAXI@Z 0000000180090fa0 f i GuContactConvexMesh.obj
 0001:000913d0       ?contactPlaneBox@Gu@physx@@YA_NAEBVPxGeometry@2@0AEBV?$PxTransformT@M@2@1AEBUNarrowPhaseParams@12@AEAUCache@12@AEAVPxContactBuffer@2@PEAVPxRenderOutput@2@@Z 00000001800923d0 f   GuContactPlaneBox.obj
 0001:00092060       ?contactPlaneCapsule@Gu@physx@@YA_NAEBVPxGeometry@2@0AEBV?$PxTransformT@M@2@1AEBUNarrowPhaseParams@12@AEAUCache@12@AEAVPxContactBuffer@2@PEAVPxRenderOutput@2@@Z 0000000180093060 f   GuContactPlaneCapsule.obj
 0001:00092700       ?contactPlaneConvex@Gu@physx@@YA_NAEBVPxGeometry@2@0AEBV?$PxTransformT@M@2@1AEBUNarrowPhaseParams@12@AEAUCache@12@AEAVPxContactBuffer@2@PEAVPxRenderOutput@2@@Z 0000000180093700 f   GuContactPlaneConvex.obj
 0001:000944b0       ?contactPolygonPolygonExt@Gu@physx@@YA_NIPEBV?$PxVec3T@M@2@PEBEAEBV?$PxMat34T@M@2@AEBVPxPlane@2@AEBV?$PxMat33T@M@2@I01234AEBV32@22IIAEAVPxContactBuffer@2@_N5M@Z 00000001800954b0 f   GuContactPolygonPolygon.obj
 0001:00095c00       ?findRotationMatrixFromZ@Gu@physx@@YA?AV?$PxMat33T@M@2@AEBV?$PxVec3T@M@2@@Z 0000000180096c00 f   GuContactPolygonPolygon.obj
 0001:00096630       ?contactSphereBox@Gu@physx@@YA_NAEBVPxGeometry@2@0AEBV?$PxTransformT@M@2@1AEBUNarrowPhaseParams@12@AEAUCache@12@AEAVPxContactBuffer@2@PEAVPxRenderOutput@2@@Z 0000000180097630 f   GuContactSphereBox.obj
 0001:00096c10       ?contactSphereCapsule@Gu@physx@@YA_NAEBVPxGeometry@2@0AEBV?$PxTransformT@M@2@1AEBUNarrowPhaseParams@12@AEAUCache@12@AEAVPxContactBuffer@2@PEAVPxRenderOutput@2@@Z 0000000180097c10 f   GuContactSphereCapsule.obj
 0001:000979f0       ?contactSphereHeightfield@Gu@physx@@YA_NAEBVPxGeometry@2@0AEBV?$PxTransformT@M@2@1AEBUNarrowPhaseParams@12@AEAUCache@12@AEAVPxContactBuffer@2@PEAVPxRenderOutput@2@@Z 00000001800989f0 f   GuContactSphereMesh.obj
 0001:000983b0       ?contactSphereMesh@Gu@physx@@YA_NAEBVPxGeometry@2@0AEBV?$PxTransformT@M@2@1AEBUNarrowPhaseParams@12@AEAUCache@12@AEAVPxContactBuffer@2@PEAVPxRenderOutput@2@@Z 00000001800993b0 f   GuContactSphereMesh.obj
 0001:0009a650       ?contactSpherePlane@Gu@physx@@YA_NAEBVPxGeometry@2@0AEBV?$PxTransformT@M@2@1AEBUNarrowPhaseParams@12@AEAUCache@12@AEAVPxContactBuffer@2@PEAVPxRenderOutput@2@@Z 000000018009b650 f   GuContactSpherePlane.obj
 0001:0009a860       ?contactSphereSphere@Gu@physx@@YA_NAEBVPxGeometry@2@0AEBV?$PxTransformT@M@2@1AEBUNarrowPhaseParams@12@AEAUCache@12@AEAVPxContactBuffer@2@PEAVPxRenderOutput@2@@Z 000000018009b860 f   GuContactSphereSphere.obj
 0001:0009a9e0       ?contactCustomGeometryGeometry@Gu@physx@@YA_NAEBVPxGeometry@2@0AEBV?$PxTransformT@M@2@1AEBUNarrowPhaseParams@12@AEAUCache@12@AEAVPxContactBuffer@2@PEAVPxRenderOutput@2@@Z 000000018009b9e0 f   GuContactCustomGeometry.obj
 0001:0009aa40       ?contactGeometryCustomGeometry@Gu@physx@@YA_NAEBVPxGeometry@2@0AEBV?$PxTransformT@M@2@1AEBUNarrowPhaseParams@12@AEAUCache@12@AEAVPxContactBuffer@2@PEAVPxRenderOutput@2@@Z 000000018009ba40 f   GuContactCustomGeometry.obj
 0001:0009ab00       ?selectNormal@Gu@physx@@YA_NEMM@Z 000000018009bb00 f   GuFeatureCode.obj
 0001:0009ab80       ??0BigConvexData@physx@@QEAA@XZ 000000018009bb80 f   GuBigConvexData.obj
 0001:0009aba0       ??1BigConvexData@physx@@QEAA@XZ 000000018009bba0 f   GuBigConvexData.obj
 0001:0009ac60       ?ComputeNearestOffset@BigConvexData@physx@@QEBAIAEBV?$PxVec3T@M@2@@Z 000000018009bc60 f   GuBigConvexData.obj
 0001:0009ad60       ?ComputeOffset@BigConvexData@physx@@QEBAIAEBV?$PxVec3T@M@2@@Z 000000018009bd60 f   GuBigConvexData.obj
 0001:0009ae60       ?CreateOffsets@BigConvexData@physx@@IEAAXXZ 000000018009be60 f   GuBigConvexData.obj
 0001:0009aeb0       ?Load@BigConvexData@physx@@QEAA_NAEAVPxInputStream@2@@Z 000000018009beb0 f   GuBigConvexData.obj
 0001:0009afc0       ?VLoad@BigConvexData@physx@@IEAA_NAEAVPxInputStream@2@@Z 000000018009bfc0 f   GuBigConvexData.obj
 0001:0009b160       ?exportExtraData@BigConvexData@physx@@QEAAXAEAVPxSerializationContext@2@@Z 000000018009c160 f   GuBigConvexData.obj
 0001:0009b1e0       ?importExtraData@BigConvexData@physx@@QEAAXAEAVPxDeserializationContext@2@@Z 000000018009c1e0 f   GuBigConvexData.obj
 0001:0009b250       ?findUniqueConvexEdges@Gu@physx@@YAIIPEIAUConvexEdge@12@IPEIBUHullPolygonData@12@PEIBE@Z 000000018009c250 f   GuConvexHelper.obj
 0001:0009b390       ?getConvexData@Gu@physx@@YA_NAEBVPxConvexMeshGeometry@2@AEAVFastVertex2ShapeScaling@Cm@2@AEAVPxBounds3@2@AEAUPolygonalData@12@@Z 000000018009c390 f   GuConvexHelper.obj
 0001:0009b610       ?getScaledConvex@Gu@physx@@YAXAEAPEAV?$PxVec3T@M@2@AEAPEAEPEAV32@PEAE_NPEBV32@PEBEIAEBVFastVertex2ShapeScaling@Cm@2@@Z 000000018009c610 f   GuConvexHelper.obj
 0001:0009b740       ??0ConvexMesh@Gu@physx@@QEAA@PEAVMeshFactory@12@@Z 000000018009c740 f   GuConvexMesh.obj
 0001:0009b7d0       ??0ConvexMesh@Gu@physx@@QEAA@PEAVMeshFactory@12@AEAUConvexHullInitData@12@@Z 000000018009c7d0 f   GuConvexMesh.obj
 0001:0009b8f0       ??_GConvexMesh@Gu@physx@@UEAAPEAXI@Z 000000018009c8f0 f i GuConvexMesh.obj
 0001:0009b8f0       ??_EConvexMesh@Gu@physx@@UEAAPEAXI@Z 000000018009c8f0 f i GuConvexMesh.obj
 0001:0009b9f0       ??_EPxBVH@physx@@MEAAPEAXI@Z 000000018009c9f0 f i GuBVH.obj
 0001:0009b9f0       ??_GPxBase@physx@@MEAAPEAXI@Z 000000018009c9f0 f i GuConvexMesh.obj
 0001:0009b9f0       ??_GPxBVH@physx@@MEAAPEAXI@Z 000000018009c9f0 f i GuBVH.obj
 0001:0009b9f0       ??_EPxBase@physx@@MEAAPEAXI@Z 000000018009c9f0 f i GuConvexMesh.obj
 0001:0009ba20       ?acquireReference@HeightField@Gu@physx@@UEAAXXZ 000000018009ca20 f   GuHeightField.obj
 0001:0009ba20       ?acquireReference@SoftBodyMesh@Gu@physx@@UEAAXXZ 000000018009ca20 f   GuTetrahedronMesh.obj
 0001:0009ba20       ?acquireReference@TriangleMesh@Gu@physx@@UEAAXXZ 000000018009ca20 f   GuTriangleMesh.obj
 0001:0009ba20       ?acquireReference@SoftBodyAuxData@Gu@physx@@UEAAXXZ 000000018009ca20 f   GuTetrahedronMesh.obj
 0001:0009ba20       ?acquireReference@ConvexMesh@Gu@physx@@UEAAXXZ 000000018009ca20 f   GuConvexMesh.obj
 0001:0009ba20       ?acquireReference@TetrahedronMesh@Gu@physx@@UEAAXXZ 000000018009ca20 f   GuTetrahedronMesh.obj
 0001:0009bef0       ?createObject@ConvexMesh@Gu@physx@@SAPEAV123@AEAPEAEAEAVPxDeserializationContext@3@@Z 000000018009cef0 f   GuConvexMesh.obj
 0001:0009bfe0       ?exportExtraData@ConvexMesh@Gu@physx@@UEAAXAEAVPxSerializationContext@3@@Z 000000018009cfe0 f   GuConvexMesh.obj
 0001:0009c0b0       ?getConcreteTypeName@PxConvexMesh@physx@@UEBAPEBDXZ 000000018009d0b0 f i GuConvexMesh.obj
 0001:0009c0c0       ?getIndexBuffer@ConvexMesh@Gu@physx@@UEBAPEBEXZ 000000018009d0c0 f i GuConvexMesh.obj
 0001:0009c100       ?getLocalBounds@ConvexMesh@Gu@physx@@UEBA?AVPxBounds3@3@XZ 000000018009d100 f   GuConvexMesh.obj
 0001:0009c190       ?getMassInformation@ConvexMesh@Gu@physx@@UEBAXAEAMAEAV?$PxMat33T@M@3@AEAV?$PxVec3T@M@3@@Z 000000018009d190 f   GuConvexMesh.obj
 0001:0009c200       ?getNbPolygons@ConvexMesh@Gu@physx@@UEBAIXZ 000000018009d200 f i GuConvexMesh.obj
 0001:0009c210       ?getNbVertices@ConvexMesh@Gu@physx@@UEBAIXZ 000000018009d210 f i GuConvexMesh.obj
 0001:0009c220       ?getPolygonData@ConvexMesh@Gu@physx@@UEBA_NIAEAUPxHullPolygon@3@@Z 000000018009d220 f   GuConvexMesh.obj
 0001:0009c270       ?getReferenceCount@SoftBodyMesh@Gu@physx@@UEBAIXZ 000000018009d270 f   GuTetrahedronMesh.obj
 0001:0009c270       ?getReferenceCount@HeightField@Gu@physx@@UEBAIXZ 000000018009d270 f   GuHeightField.obj
 0001:0009c270       ?getReferenceCount@ConvexMesh@Gu@physx@@UEBAIXZ 000000018009d270 f   GuConvexMesh.obj
 0001:0009c270       ?raw_length@DNameStatusNode@@UEBAHXZ 000000018009d270 f   libvcruntime:undname.obj
 0001:0009c270       ?getReferenceCount@TriangleMesh@Gu@physx@@UEBAIXZ 000000018009d270 f   GuTriangleMesh.obj
 0001:0009c270       ?getReferenceCount@TetrahedronMesh@Gu@physx@@UEBAIXZ 000000018009d270 f   GuTetrahedronMesh.obj
 0001:0009c270       ?length@DNameStatusNode@@UEBAHXZ 000000018009d270 f   libvcruntime:undname.obj
 0001:0009c270       ?getReferenceCount@SoftBodyAuxData@Gu@physx@@UEBAIXZ 000000018009d270 f   GuTetrahedronMesh.obj
 0001:0009c280       ?getSDF@ConvexMesh@Gu@physx@@UEBAPEBMXZ 000000018009d280 f   GuConvexMesh.obj
 0001:0009c290       ?getVertices@ConvexMesh@Gu@physx@@UEBAPEBV?$PxVec3T@M@3@XZ 000000018009d290 f i GuConvexMesh.obj
 0001:0009c2b0       ?isGpuCompatible@ConvexMesh@Gu@physx@@UEBA_NXZ 000000018009d2b0 f   GuConvexMesh.obj
 0001:0009c2f0       ?isKindOf@PxBase@physx@@MEBA_NPEBD@Z 000000018009d2f0 f i GuConvexMesh.obj
 0001:0009c320       ?isKindOf@PxConvexMesh@physx@@MEBA_NPEBD@Z 000000018009d320 f i GuConvexMesh.obj
 0001:0009c390       ?isReleasable@PxBase@physx@@UEBA_NXZ 000000018009d390 f i GuConvexMesh.obj
 0001:0009c3a0       ?load@ConvexMesh@Gu@physx@@QEAA_NAEAVPxInputStream@3@@Z 000000018009d3a0 f   GuConvexMesh.obj
 0001:0009c900       ?onRefCountZero@ConvexMesh@Gu@physx@@UEAAXXZ 000000018009d900 f   GuConvexMesh.obj
 0001:0009ca30       ?release@ConvexMesh@Gu@physx@@UEAAXXZ 000000018009da30 f   GuConvexMesh.obj
 0001:0009ca30       ?release@TetrahedronMesh@Gu@physx@@UEAAXXZ 000000018009da30 f   GuTetrahedronMesh.obj
 0001:0009ca30       ?release@TriangleMesh@Gu@physx@@UEAAXXZ 000000018009da30 f   GuTriangleMesh.obj
 0001:0009ca30       ?release@SoftBodyMesh@Gu@physx@@UEAAXXZ 000000018009da30 f   GuTetrahedronMesh.obj
 0001:0009ca30       ?release@HeightField@Gu@physx@@UEAAXXZ 000000018009da30 f   GuHeightField.obj
 0001:0009ca30       ?release@SoftBodyAuxData@Gu@physx@@UEAAXXZ 000000018009da30 f   GuTetrahedronMesh.obj
 0001:0009ca60       ??Dphysx@@YA?AV?$PxMat34T@M@0@AEBVPxMeshScale@0@AEBV10@@Z 000000018009da60 f i GuConvexUtilsInternal.obj
 0001:0009cfd0       ?computeHullOBB@Gu@physx@@YAXAEAVBox@12@AEBVPxBounds3@2@MAEBV?$PxMat34T@M@2@2AEBVFastVertex2ShapeScaling@Cm@2@_N@Z 000000018009dfd0 f   GuConvexUtilsInternal.obj
 0001:0009d480       ?computeOBBAroundConvex@Gu@physx@@YAXAEAVBox@12@AEBVPxConvexMeshGeometry@2@PEBVPxConvexMesh@2@AEBV?$PxTransformT@M@2@@Z 000000018009e480 f   GuConvexUtilsInternal.obj
 0001:0009dce0       ?computeVertexSpaceOBB@Gu@physx@@YAXAEAVBox@12@AEBV312@AEBV?$PxTransformT@M@2@AEBVPxMeshScale@2@@Z 000000018009ece0 f   GuConvexUtilsInternal.obj
 0001:0009e010       ?transform@physx@@YA?AVBox@Gu@1@AEBV?$PxMat34T@M@1@AEBV231@@Z 000000018009f010 f i GuConvexUtilsInternal.obj
 0001:0009e260       ?localSearch@physx@@YAXAEAIAEBV?$PxVec3T@M@1@PEBV21@PEBUBigConvexRawData@Gu@1@@Z 000000018009f260 f   GuHillClimbing.obj
 0001:0009e390       ??0PCMPolygonalBox@Gu@physx@@QEAA@AEBV?$PxVec3T@M@2@@Z 000000018009f390 f   GuPCMShapeConvex.obj
 0001:0009e390       ??0PolygonalBox@Gu@physx@@QEAA@AEBV?$PxVec3T@M@2@@Z 000000018009f390 f   GuShapeConvex.obj
 0001:0009f850       ?getPolygonalData@PolygonalBox@Gu@physx@@QEBAXPEIAUPolygonalData@23@@Z 00000001800a0850 f   GuShapeConvex.obj
 0001:0009f8c0       ?getPolygonalData_Convex@Gu@physx@@YAXPEIAUPolygonalData@12@PEIBUConvexHullData@12@AEBVFastVertex2ShapeScaling@Cm@2@@Z 00000001800a08c0 f   GuShapeConvex.obj
 0001:0009fa20       ?distancePointBoxSquared@Gu@physx@@YAMAEBV?$PxVec3T@M@2@00AEBV?$PxMat33T@M@2@PEAV32@@Z 00000001800a0a20 f   GuDistancePointBox.obj
 0001:0009fb70       ?closestPtPointTriangle@Gu@physx@@YA?AV?$PxVec3T@M@2@AEBV32@000AEAM1@Z 00000001800a0b70 f   GuDistancePointTriangle.obj
 0001:000a0090       ?distancePointTriangleSquared@Gu@physx@@YA?AT__m128@@AEBT3@000AEAT3@11@Z 00000001800a1090 f   GuDistancePointTriangle.obj
 0001:000a0de0       ?distanceSegmentBoxSquared@Gu@physx@@YAMAEBV?$PxVec3T@M@2@000AEBV?$PxMat33T@M@2@PEAMPEAV32@@Z 00000001800a1de0 f   GuDistanceSegmentBox.obj
 0001:000a1660       ?distanceSegmentSegmentSquared4@Gu@physx@@YA?AT__m128@@AEBT3@000000000AEAT3@1@Z 00000001800a2660 f   GuDistanceSegmentSegment.obj
 0001:000a1980       ?distanceSegmentSegmentSquared@Gu@physx@@YA?AT__m128@@AEBT3@000AEAT3@1@Z 00000001800a2980 f   GuDistanceSegmentSegment.obj
 0001:000a1b40       ?distanceSegmentSegmentSquared@Gu@physx@@YAMAEBV?$PxVec3T@M@2@000PEAM1@Z 00000001800a2b40 f   GuDistanceSegmentSegment.obj
 0001:000a1dd0       ?distanceSegmentSegmentSquared@Gu@physx@@YAMAEBV?$PxVec3T@M@2@0M00MPEAM1@Z 00000001800a2dd0 f   GuDistanceSegmentSegment.obj
 0001:000a2520       ?distanceSegmentTriangleSquared@Gu@physx@@YA?AT__m128@@AEBT3@0000AEAT3@1@Z 00000001800a3520 f   GuDistanceSegmentTriangle.obj
 0001:000a2c60       ?distanceSegmentTriangleSquared@Gu@physx@@YAMAEBV?$PxVec3T@M@2@0000PEAM11@Z 00000001800a3c60 f   GuDistanceSegmentTriangle.obj
 0001:000a42f0       ?PointOutsideOfPlane4@Gu@physx@@YA?AV?$PxVec4T@M@2@AEBV?$PxVec3T@M@2@0000@Z 00000001800a52f0 f   GuDistancePointTetrahedron.obj
 0001:000a4760       ?closestPtPointTetrahedron@Gu@physx@@YA?AV?$PxVec3T@M@2@AEBV32@0000AEBV?$PxVec4T@M@2@@Z 00000001800a5760 f   GuDistancePointTetrahedron.obj
 0001:000a5850       ?PenetrationDepth@EPA@Gu@physx@@QEAA?AW4GjkStatus@23@AEBUGjkConvex@23@0PEIBT__m128@@1E_NT6@AEAUGjkOutput@23@@Z 00000001800a6850 f   GuEPA.obj
 0001:000a6330       ?addFacet@EPA@Gu@physx@@QEAAPEAVFacet@23@IIIAEBT__m128@@@Z 00000001800a7330 f   GuEPA.obj
 0001:000a6770       ?epaPenetration@Gu@physx@@YA?AW4GjkStatus@12@AEBUGjkConvex@12@0PEIBE1E_NT__m128@@AEAUGjkOutput@12@@Z 00000001800a7770 f   GuEPA.obj
 0001:000a68e0       ?epaPenetration@Gu@physx@@YA?AW4GjkStatus@12@AEBUGjkConvex@12@0PEIBT__m128@@1E_NT5@AEAUGjkOutput@12@@Z 00000001800a78e0 f   GuEPA.obj
 0001:000a6990       ?silhouette@Facet@Gu@physx@@QEAAXAEBT__m128@@PEIBT4@1AEAVEdgeBuffer@23@AEAV?$InlineDeferredIDPool@$0EA@@Cm@3@@Z 00000001800a7990 f   GuEPA.obj
 0001:000a6b60       ?closestPtPointTetrahedron@Gu@physx@@YA?AT__m128@@PEIAT3@00AEAI@Z 00000001800a7b60 f   GuGJKSimplex.obj
 0001:000a72d0       ?closestPtPointTetrahedron@Gu@physx@@YA?AT__m128@@PEIAT3@00PEIAH1AEAI@Z 00000001800a82d0 f   GuGJKSimplex.obj
 0001:000a8d60       ??$gjk@UGjkConvex@Gu@physx@@U123@@Gu@physx@@YA?AW4GjkStatus@01@AEBUGjkConvex@01@0AEBT__m128@@1AEAT4@222@Z 00000001800a9d60 f i GuGJKTest.obj
 0001:000a9980       ??$gjkPenetration@UGjkConvex@Gu@physx@@U123@@Gu@physx@@YA?AW4GjkStatus@01@AEBUGjkConvex@01@0AEBT__m128@@1_NPEIAE3AEAEAEAUGjkOutput@01@@Z 00000001800aa980 f i GuGJKTest.obj
 0001:000a99f0       ??$gjkPenetration@UGjkConvex@Gu@physx@@U123@@Gu@physx@@YA?AW4GjkStatus@01@AEBUGjkConvex@01@0AEBT__m128@@1_NPEIAE3PEIAT4@4AEAEAEAUGjkOutput@01@@Z 00000001800aa9f0 f i GuGJKTest.obj
 0001:000aae10       ?testEpaPenetration@Gu@physx@@YA?AW4GjkStatus@12@AEBUGjkConvex@12@0PEBE1EAEAUGjkOutput@12@@Z 00000001800abe10 f   GuGJKTest.obj
 0001:000aae60       ?testGjk@Gu@physx@@YA?AW4GjkStatus@12@AEBUGjkConvex@12@0AEBT__m128@@1AEAT5@222@Z 00000001800abe60 f   GuGJKTest.obj
 0001:000aae70       ?testGjkPenetration@Gu@physx@@YA?AW4GjkStatus@12@AEBUGjkConvex@12@0AEBT__m128@@1PEAE2AEAEAEAUGjkOutput@12@@Z 00000001800abe70 f   GuGJKTest.obj
 0001:000aaec0       ??0HeightField@Gu@physx@@QEAA@PEAVMeshFactory@12@@Z 00000001800abec0 f   GuHeightField.obj
 0001:000aaf10       ??0HeightField@Gu@physx@@QEAA@PEAVMeshFactory@12@AEAUHeightFieldData@12@@Z 00000001800abf10 f   GuHeightField.obj
 0001:000aafc0       ??1HeightField@Gu@physx@@UEAA@XZ 00000001800abfc0 f   GuHeightField.obj
 0001:000ab040       ??_GHeightField@Gu@physx@@UEAAPEAXI@Z 00000001800ac040 f i GuHeightField.obj
 0001:000ab040       ??_EHeightField@Gu@physx@@UEAAPEAXI@Z 00000001800ac040 f i GuHeightField.obj
 0001:000ab0e0       ?computeCellCoordinates@HeightField@Gu@physx@@QEBAIMMAEAM0@Z 00000001800ac0e0 f   GuHeightField.obj
 0001:000ab200       ?createObject@HeightField@Gu@physx@@SAPEAV123@AEAPEAEAEAVPxDeserializationContext@3@@Z 00000001800ac200 f   GuHeightField.obj
 0001:000ab260       ?exportExtraData@HeightField@Gu@physx@@UEAAXAEAVPxSerializationContext@3@@Z 00000001800ac260 f   GuHeightField.obj
 0001:000ab2b0       ?getConcreteTypeName@PxHeightField@physx@@UEBAPEBDXZ 00000001800ac2b0 f i GuHeightField.obj
 0001:000ab2c0       ?getConvexEdgeThreshold@HeightField@Gu@physx@@UEBAMXZ 00000001800ac2c0 f i GuHeightField.obj
 0001:000ab2d0       ?getFlags@HeightField@Gu@physx@@UEBA?AV?$PxFlags@W4Enum@PxHeightFieldFlag@physx@@G@3@XZ 00000001800ac2d0 f i GuHeightField.obj
 0001:000ab2e0       ?getFormat@HeightField@Gu@physx@@UEBA?AW4Enum@PxHeightFieldFormat@3@XZ 00000001800ac2e0 f i GuHeightField.obj
 0001:000ab2f0       ?getHeight@HeightField@Gu@physx@@UEBAMMM@Z 00000001800ac2f0 f i GuHeightField.obj
 0001:000ab410       ?getNbColumns@HeightField@Gu@physx@@UEBAIXZ 00000001800ac410 f i GuHeightField.obj
 0001:000ab420       ?getNbBounds@BVH@Gu@physx@@UEBAIXZ 00000001800ac420 f i GuBVH.obj
 0001:000ab420       ?getNbPrimitives@TetrahedronSourceMesh@Gu@physx@@UEBAIXZ 00000001800ac420 f i GuBV4.obj
 0001:000ab420       ?getNbRows@HeightField@Gu@physx@@UEBAIXZ 00000001800ac420 f i GuHeightField.obj
 0001:000ab420       ?getNbPrimitives@SourceMesh@Gu@physx@@UEBAIXZ 00000001800ac420 f i GuBV4.obj
 0001:000ab430       ?getSample@HeightField@Gu@physx@@UEBAAEBUPxHeightFieldSample@3@II@Z 00000001800ac430 f i GuHeightField.obj
 0001:000ab440       ?getSampleStride@HeightField@Gu@physx@@UEBAIXZ 00000001800ac440 f i GuHeightField.obj
 0001:000ab450       ?getTimestamp@HeightField@Gu@physx@@UEBAIXZ 00000001800ac450 f i GuHeightField.obj
 0001:000ab460       ?getTriangleMaterialIndex@HeightField@Gu@physx@@UEBAGI@Z 00000001800ac460 f i GuHeightField.obj
 0001:000ab490       ?getTriangleNormal@HeightField@Gu@physx@@UEBA?AV?$PxVec3T@M@3@I@Z 00000001800ac490 f i GuHeightField.obj
 0001:000ab770       ?isCollisionVertexPreca@HeightField@Gu@physx@@QEBA_NIIIG@Z 00000001800ac770 f   GuHeightField.obj
 0001:000ab810       ?isConvexVertex@HeightField@Gu@physx@@QEBA_NIII@Z 00000001800ac810 f i GuHeightField.obj
 0001:000ab8e0       ?isKindOf@PxHeightField@physx@@MEBA_NPEBD@Z 00000001800ac8e0 f i GuHeightField.obj
 0001:000ab950       ?isSolidVertex@HeightField@Gu@physx@@QEBA_NIIIGAEA_N@Z 00000001800ac950 f   GuHeightField.obj
 0001:000abbe0       ?load@HeightField@Gu@physx@@QEAA_NAEAVPxInputStream@3@@Z 00000001800acbe0 f   GuHeightField.obj
 0001:000abf40       ?loadFromDesc@HeightField@Gu@physx@@QEAA_NAEBVPxHeightFieldDesc@3@@Z 00000001800acf40 f   GuHeightField.obj
 0001:000ac140       ?modifySamples@HeightField@Gu@physx@@UEAA_NHHAEBVPxHeightFieldDesc@3@_N@Z 00000001800ad140 f   GuHeightField.obj
 0001:000ac4a0       ?onRefCountZero@HeightField@Gu@physx@@UEAAXXZ 00000001800ad4a0 f   GuHeightField.obj
 0001:000ac570       ?parseTrianglesForCollisionVertices@HeightField@Gu@physx@@QEAAXG@Z 00000001800ad570 f   GuHeightField.obj
 0001:000aca50       ?releaseMemory@HeightField@Gu@physx@@QEAAXXZ 00000001800ada50 f   GuHeightField.obj
 0001:000acaa0       ?resizeAndClear@?$PxBitMapBase@VPxAllocator@physx@@@physx@@QEAAXI@Z 00000001800adaa0 f i GuHeightField.obj
 0001:000acb60       ?save@HeightField@Gu@physx@@QEAA_NAEAVPxOutputStream@3@_N@Z 00000001800adb60 f   GuHeightField.obj
 0001:000acda0       ?saveCells@HeightField@Gu@physx@@UEBAIPEAXI@Z 00000001800adda0 f   GuHeightField.obj
 0001:000acde0       ?computeLocalBounds@HeightFieldUtil@Gu@physx@@QEBAXAEAVPxBounds3@3@@Z 00000001800adde0 f   GuHeightFieldUtil.obj
 0001:000ad2a0       ?getTriangle@HeightFieldUtil@Gu@physx@@QEBAIAEBV?$PxTransformT@M@3@AEAVPxTriangle@3@PEAI2I_N3@Z 00000001800ae2a0 f   GuHeightFieldUtil.obj
 0001:000add80       ?getTriangleAdjacencyIndices@HeightField@Gu@physx@@QEBAXIIIIAEAI00@Z 00000001800aed80 f i GuHeightFieldUtil.obj
 0001:000adf60       ?getTriangleVertexIndices@HeightField@Gu@physx@@QEBAXIAEAI00@Z 00000001800aef60 f i GuHeightFieldUtil.obj
 0001:000ae020       ?overlapAABBTriangles@HeightFieldUtil@Gu@physx@@QEBAXAEBVPxBounds3@3@AEAVOverlapReport@23@I@Z 00000001800af020 f   GuHeightFieldUtil.obj
 0001:000ae480       ??$gjk@U?$RelativeConvex@VTriangleV@Gu@physx@@@Gu@physx@@U?$LocalConvex@VConvexHullV@Gu@physx@@@23@@Gu@physx@@YA?AW4GjkStatus@01@AEBU?$RelativeConvex@VTriangleV@Gu@physx@@@01@AEBU?$LocalConvex@VConvexHullV@Gu@physx@@@01@AEBT__m128@@2AEAT5@333@Z 00000001800af480 f i GuOverlapTestsHF.obj
 0001:000af3c0       ?GeomOverlapCallback_BoxHeightfield@@YA_NAEBVPxGeometry@physx@@AEBV?$PxTransformT@M@2@01PEAUTriggerCache@Gu@2@PEAUPxQueryThreadContext@2@@Z 00000001800b03c0 f   GuOverlapTestsHF.obj
 0001:000af920       ?GeomOverlapCallback_CapsuleHeightfield@@YA_NAEBVPxGeometry@physx@@AEBV?$PxTransformT@M@2@01PEAUTriggerCache@Gu@2@PEAUPxQueryThreadContext@2@@Z 00000001800b0920 f   GuOverlapTestsHF.obj
 0001:000aff20       ?GeomOverlapCallback_ConvexHeightfield@@YA_NAEBVPxGeometry@physx@@AEBV?$PxTransformT@M@2@01PEAUTriggerCache@Gu@2@PEAUPxQueryThreadContext@2@@Z 00000001800b0f20 f   GuOverlapTestsHF.obj
 0001:000b0970       ?GeomOverlapCallback_SphereHeightfield@@YA_NAEBVPxGeometry@physx@@AEBV?$PxTransformT@M@2@01PEAUTriggerCache@Gu@2@PEAUPxQueryThreadContext@2@@Z 00000001800b1970 f   GuOverlapTestsHF.obj
 0001:000b1530       ??$gjkRaycast@U?$LocalConvex@VTriangleV@Gu@physx@@@Gu@physx@@U?$LocalConvex@VConvexHullV@Gu@physx@@@23@@Gu@physx@@YA_NAEBU?$LocalConvex@VTriangleV@Gu@physx@@@01@AEBU?$LocalConvex@VConvexHullV@Gu@physx@@@01@AEBT__m128@@222AEAT4@33M@Z 00000001800b2530 f i GuSweepsHF.obj
 0001:000b22d0       ??$traceSegment@VBoxTraceSegmentReport@@$0A@$00@HeightFieldTraceUtil@Gu@physx@@QEBAXAEBV?$PxVec3T@M@2@0MPEAVBoxTraceSegmentReport@@AEBVPxBounds3@2@_NPEBV32@@Z 00000001800b32d0 f i GuSweepsHF.obj
 0001:000b22d0       ??$traceSegment@VCapsuleTraceSegmentReport@@$0A@$00@HeightFieldTraceUtil@Gu@physx@@QEBAXAEBV?$PxVec3T@M@2@0MPEAVCapsuleTraceSegmentReport@@AEBVPxBounds3@2@_NPEBV32@@Z 00000001800b32d0 f i GuSweepsHF.obj
 0001:000b22d0       ??$traceSegment@VConvexTraceSegmentReport@@$0A@$00@HeightFieldTraceUtil@Gu@physx@@QEBAXAEBV?$PxVec3T@M@2@0MPEAVConvexTraceSegmentReport@@AEBVPxBounds3@2@_NPEBV32@@Z 00000001800b32d0 f i GuSweepsHF.obj
 0001:000b2cf0       ??0ConvexTraceSegmentReport@@QEAA@AEBVHeightFieldUtil@Gu@physx@@AEBUConvexHullData@23@AEBVPxMeshScale@3@AEBV?$PxTransformT@M@3@3AEBV?$PxVec3T@M@3@MV?$PxFlags@W4Enum@PxHitFlag@physx@@G@3@M@Z 00000001800b3cf0 f i GuSweepsHF.obj
 0001:000b3660       ??_EBoxTraceSegmentReport@@UEAAPEAXI@Z 00000001800b4660 f i GuSweepsHF.obj
 0001:000b3660       ??_GBoxTraceSegmentReport@@UEAAPEAXI@Z 00000001800b4660 f i GuSweepsHF.obj
 0001:000b3690       ??_GCapsuleTraceSegmentReport@@UEAAPEAXI@Z 00000001800b4690 f i GuSweepsHF.obj
 0001:000b3690       ??_ECapsuleTraceSegmentReport@@UEAAPEAXI@Z 00000001800b4690 f i GuSweepsHF.obj
 0001:000b36c0       ??_GConvexTraceSegmentReport@@UEAAPEAXI@Z 00000001800b46c0 f i GuSweepsHF.obj
 0001:000b36c0       ??_EConvexTraceSegmentReport@@UEAAPEAXI@Z 00000001800b46c0 f i GuSweepsHF.obj
 0001:000b36f0       ??_GHeightFieldTraceSegmentReport@@UEAAPEAXI@Z 00000001800b46f0 f i GuSweepsHF.obj
 0001:000b36f0       ??_EHeightFieldTraceSegmentReport@@UEAAPEAXI@Z 00000001800b46f0 f i GuSweepsHF.obj
 0001:000b3720       ?finalizeHit@ConvexTraceSegmentReport@@QEAA_NAEAUPxGeomSweepHit@physx@@AEBVPxHeightFieldGeometry@3@AEBV?$PxTransformT@M@3@AEBVPxConvexMeshGeometry@3@2AEBV?$PxVec3T@M@3@M@Z 00000001800b4720 f i GuSweepsHF.obj
 0001:000b3950       ?onEvent@BoxTraceSegmentReport@@UEAA_NIPEBI@Z 00000001800b4950 f i GuSweepsHF.obj
 0001:000b3da0       ?onEvent@CapsuleTraceSegmentReport@@UEAA_NIPEBI@Z 00000001800b4da0 f i GuSweepsHF.obj
 0001:000b3fb0       ?onEvent@ConvexTraceSegmentReport@@UEAA_NIPEBI@Z 00000001800b4fb0 f i GuSweepsHF.obj
 0001:000b4570       ?prepare@?$OverlapTraceSegment@VBoxTraceSegmentReport@@@HeightFieldTraceUtil@Gu@physx@@QEAAXAEBV?$PxVec3T@M@4@00AEAM1@Z 00000001800b5570 f i GuSweepsHF.obj
 0001:000b4570       ?prepare@?$OverlapTraceSegment@VCapsuleTraceSegmentReport@@@HeightFieldTraceUtil@Gu@physx@@QEAAXAEBV?$PxVec3T@M@4@00AEAM1@Z 00000001800b5570 f i GuSweepsHF.obj
 0001:000b4570       ?prepare@?$OverlapTraceSegment@VConvexTraceSegmentReport@@@HeightFieldTraceUtil@Gu@physx@@QEAAXAEBV?$PxVec3T@M@4@00AEAM1@Z 00000001800b5570 f i GuSweepsHF.obj
 0001:000b4810       ?sweepBox_HeightFieldGeom@@YA_NAEBVPxGeometry@physx@@AEBV?$PxTransformT@M@2@AEBVPxBoxGeometry@2@1AEBVBox@Gu@2@AEBV?$PxVec3T@M@2@MAEAUPxGeomSweepHit@2@V?$PxFlags@W4Enum@PxHitFlag@physx@@G@2@MPEAUPxQueryThreadContext@2@@Z 00000001800b5810 f   GuSweepsHF.obj
 0001:000b5650       ?sweepCapsule_HeightFieldGeom@@YA_NAEBVPxGeometry@physx@@AEBV?$PxTransformT@M@2@AEBVPxCapsuleGeometry@2@1AEBVCapsule@Gu@2@AEBV?$PxVec3T@M@2@MAEAUPxGeomSweepHit@2@V?$PxFlags@W4Enum@PxHitFlag@physx@@G@2@MPEAUPxQueryThreadContext@2@@Z 00000001800b6650 f   GuSweepsHF.obj
 0001:000b5fa0       ?sweepConvex_HeightFieldGeom@@YA_NAEBVPxGeometry@physx@@AEBV?$PxTransformT@M@2@AEBVPxConvexMeshGeometry@2@1AEBV?$PxVec3T@M@2@MAEAUPxGeomSweepHit@2@V?$PxFlags@W4Enum@PxHitFlag@physx@@G@2@MPEAUPxQueryThreadContext@2@@Z 00000001800b6fa0 f   GuSweepsHF.obj
 0001:000b6960       ?testVertexIndex@?$OverlapTraceSegment@VConvexTraceSegmentReport@@@HeightFieldTraceUtil@Gu@physx@@QEAA_NI@Z 00000001800b7960 f i GuSweepsHF.obj
 0001:000b6960       ?testVertexIndex@?$OverlapTraceSegment@VBoxTraceSegmentReport@@@HeightFieldTraceUtil@Gu@physx@@QEAA_NI@Z 00000001800b7960 f i GuSweepsHF.obj
 0001:000b6960       ?testVertexIndex@?$OverlapTraceSegment@VCapsuleTraceSegmentReport@@@HeightFieldTraceUtil@Gu@physx@@QEAA_NI@Z 00000001800b7960 f i GuSweepsHF.obj
 0001:000b6ab0       ?transformFast@PxBounds3@physx@@SA?AV12@AEBV?$PxTransformT@M@2@AEBV12@@Z 00000001800b7ab0 f i GuSweepsHF.obj
 0001:000b6e90       ?intersectOBBOBB@Gu@physx@@YA_NAEBV?$PxVec3T@M@2@0AEBV?$PxMat33T@M@2@001_N@Z 00000001800b7e90 f   GuIntersectionBoxBox.obj
 0001:000b74f0       ?intersectCapsuleTriangle@Gu@physx@@YA_NAEBV?$PxVec3T@M@2@000AEBVCapsule@12@AEBUCapsuleTriangleOverlapData@12@@Z 00000001800b84f0 f   GuIntersectionCapsuleTriangle.obj
 0001:000b8080       ?intersectEdgeEdge@Gu@physx@@YA_NAEBV?$PxVec3T@M@2@0000AEAMAEAV32@@Z 00000001800b9080 f   GuIntersectionEdgeEdge.obj
 0001:000b83b0       ?intersectRayAABB2@Gu@physx@@YA_NAEBT__m128@@0000AEAT3@1@Z 00000001800b93b0 f   GuIntersectionRayBox.obj
 0001:000b8470       ?intersectRayAABB2@Gu@physx@@YA_NAEBV?$PxVec3T@M@2@000MAEAM1@Z 00000001800b9470 f   GuIntersectionRayBox.obj
 0001:000b8620       ?intersectRayAABB@Gu@physx@@YAHAEBV?$PxVec3T@M@2@000AEAM1@Z 00000001800b9620 f   GuIntersectionRayBox.obj
 0001:000b8740       ?rayAABBIntersect2@Gu@physx@@YAIAEBV?$PxVec3T@M@2@000AEAV32@AEAM@Z 00000001800b9740 f   GuIntersectionRayBox.obj
 0001:000b8950       ?intersectRayCapsuleInternal@Gu@physx@@YAIAEBV?$PxVec3T@M@2@000MQEAM@Z 00000001800b9950 f   GuIntersectionRayCapsule.obj
 0001:000b8e20       ?intersectRaySphere@Gu@physx@@YA_NAEBV?$PxVec3T@M@2@0M0MAEAMPEAV32@@Z 00000001800b9e20 f   GuIntersectionRaySphere.obj
 0001:000b8f10       ?intersectRaySphereBasic@Gu@physx@@YA_NAEBV?$PxVec3T@M@2@0M0MAEAMPEAV32@@Z 00000001800b9f10 f   GuIntersectionRaySphere.obj
 0001:000b9070       ?intersectSphereBox@Gu@physx@@YA_NAEBVSphere@12@AEBVBox@12@@Z 00000001800ba070 f   GuIntersectionSphereBox.obj
 0001:000b92a0       ?intersectTetrahedronBox@Gu@physx@@YA_NAEBV?$PxVec3T@M@2@000AEBVPxBounds3@2@@Z 00000001800ba2a0 f   GuIntersectionTetrahedronBox.obj
 0001:000b9680       ?intersectTriangleBox@Gu@physx@@YAHAEBVBoxPadded@12@AEBV?$PxVec3T@M@2@11@Z 00000001800ba680 f   GuIntersectionTriangleBox.obj
 0001:000b9c50       ?intersectTriangleBoxBV4@@YAHAEBV?$PxVec3T@M@physx@@00AEBV?$PxMat33T@M@2@00@Z 00000001800bac50 f   GuIntersectionTriangleBox.obj
 0001:000ba090       ?intersectTriangleBox_ReferenceCode@Gu@physx@@YAHAEBV?$PxVec3T@M@2@0000@Z 00000001800bb090 f   GuIntersectionTriangleBox.obj
 0001:000ba8c0       ?intersectTriangleBox_Unsafe@Gu@physx@@YAHAEBV?$PxVec3T@M@2@0000@Z 00000001800bb8c0 f   GuIntersectionTriangleBox.obj
 0001:000baf70       ?trianglesIntersect@Gu@physx@@YA_NAEBV?$PxVec3T@M@2@00000PEAVSegment@12@@Z 00000001800bbf70 f   GuIntersectionTriangleTriangle.obj
 0001:000bb560       ??0BV4Tree@Gu@physx@@QEAA@W4PxEMPTY@2@@Z 00000001800bc560 f   GuBV4.obj
 0001:000bb570       ??0BV4Tree@Gu@physx@@QEAA@XZ 00000001800bc570 f   GuBV4.obj
 0001:000bb5a0       ??0SourceMesh@Gu@physx@@QEAA@XZ 00000001800bc5a0 f   GuBV4.obj
 0001:000bb5d0       ??0TetrahedronSourceMesh@Gu@physx@@QEAA@XZ 00000001800bc5d0 f   GuBV4.obj
 0001:000bb600       ??1BV4Tree@Gu@physx@@QEAA@XZ 00000001800bc600 f   GuBV4.obj
 0001:000bb660       ??1SourceMesh@Gu@physx@@UEAA@XZ 00000001800bc660 f   GuBV4.obj
 0001:000bb660       ??1TetrahedronSourceMesh@Gu@physx@@UEAA@XZ 00000001800bc660 f   GuBV4.obj
 0001:000bb6b0       ??4BV4Tree@Gu@physx@@QEAAXAEAV012@@Z 00000001800bc6b0 f   GuBV4.obj
 0001:000bb740       ??4SourceMesh@Gu@physx@@QEAAXAEAV012@@Z 00000001800bc740 f   GuBV4.obj
 0001:000bb790       ??_GSourceMesh@Gu@physx@@UEAAPEAXI@Z 00000001800bc790 f i GuBV4.obj
 0001:000bb790       ??_GTetrahedronSourceMesh@Gu@physx@@UEAAPEAXI@Z 00000001800bc790 f i GuBV4.obj
 0001:000bb790       ??_ESourceMesh@Gu@physx@@UEAAPEAXI@Z 00000001800bc790 f i GuBV4.obj
 0001:000bb790       ??_ETetrahedronSourceMesh@Gu@physx@@UEAAPEAXI@Z 00000001800bc790 f i GuBV4.obj
 0001:000bb830       ??_ESourceMeshBase@Gu@physx@@UEAAPEAXI@Z 00000001800bc830 f i GuBV4.obj
 0001:000bb830       ??_GSourceMeshBase@Gu@physx@@UEAAPEAXI@Z 00000001800bc830 f i GuBV4.obj
 0001:000bb8d0       ?exportExtraData@BV4Tree@Gu@physx@@QEAAXAEAVPxSerializationContext@3@@Z 00000001800bc8d0 f   GuBV4.obj
 0001:000bb930       ?getPrimitiveBox@SourceMesh@Gu@physx@@UEAAXIAEAT__m128@@0@Z 00000001800bc930 f   GuBV4.obj
 0001:000bb9d0       ?getPrimitiveBox@TetrahedronSourceMesh@Gu@physx@@UEAAXIAEAT__m128@@0@Z 00000001800bc9d0 f   GuBV4.obj
 0001:000bba90       ?importExtraData@BV4Tree@Gu@physx@@QEAAXAEAVPxDeserializationContext@3@@Z 00000001800bca90 f   GuBV4.obj
 0001:000bbad0       ?init@BV4Tree@Gu@physx@@QEAA_NPEAVSourceMeshBase@23@AEBVPxBounds3@3@@Z 00000001800bcad0 f   GuBV4.obj
 0001:000bbad0       ?init@BV32Tree@Gu@physx@@QEAA_NPEAVSourceMeshBase@23@AEBVPxBounds3@3@@Z 00000001800bcad0 f   GuBV32.obj
 0001:000bbb70       ?load@BV4Tree@Gu@physx@@QEAA_NAEAVPxInputStream@3@_N@Z 00000001800bcb70 f   GuBV4.obj
 0001:000bbdb0       ?refit@BV4Tree@Gu@physx@@QEAA_NAEAVPxBounds3@3@M@Z 00000001800bcdb0 f   GuBV4.obj
 0001:000bc500       ?refit@SourceMesh@Gu@physx@@UEAAXIAEAVPxBounds3@3@@Z 00000001800bd500 f   GuBV4.obj
 0001:000bc6a0       ?refit@TetrahedronSourceMesh@Gu@physx@@UEAAXIAEAVPxBounds3@3@@Z 00000001800bd6a0 f   GuBV4.obj
 0001:000bc8c0       ?remapTopology@SourceMesh@Gu@physx@@UEAAXPEBI@Z 00000001800bd8c0 f   GuBV4.obj
 0001:000bcb60       ?remapTopology@TetrahedronSourceMesh@Gu@physx@@UEAAXPEBI@Z 00000001800bdb60 f   GuBV4.obj
 0001:000bce00       ??0BV4_AABBTree@Gu@physx@@QEAA@XZ 00000001800bde00 f   GuBV4Build.obj
 0001:000bce10       ??0BVData@@QEAA@XZ         00000001800bde10 f   GuBV4Build.obj
 0001:000bce40       ??0BuildStats@Gu@physx@@QEAA@XZ 00000001800bde40 f i GuBV4Build.obj
 0001:000bce50       ??1BV4_AABBTree@Gu@physx@@QEAA@XZ 00000001800bde50 f   GuBV4Build.obj
 0001:000bce60       ??4BuildStats@Gu@physx@@QEAAAEAU012@$$QEAU012@@Z 00000001800bde60 f i GuBV4Build.obj
 0001:000bce70       ??4BuildStats@Gu@physx@@QEAAAEAU012@AEBU012@@Z 00000001800bde70 f i GuBV4Build.obj
 0001:000bce80       ?BuildBV4Ex@Gu@physx@@YA_NAEAVBV4Tree@12@AEAVSourceMeshBase@12@MI_NW4BV4_BuildStrategy@12@@Z 00000001800bde80 f   GuBV4Build.obj
 0001:000bddd0       ?allocateNode@BV4BuildParams@@QEAAPEAUBV4Node@@XZ 00000001800bedd0 f   GuBV4Build.obj
 0001:000be250       ?buildFromMesh@BV4_AABBTree@Gu@physx@@QEAA_NAEAVSourceMeshBase@23@IW4BV4_BuildStrategy@23@@Z 00000001800bf250 f   GuBV4Build.obj
 0001:000bf300       ?increaseCount@BuildStats@Gu@physx@@QEAAXI@Z 00000001800c0300 f i GuBV4Build.obj
 0001:000bfd90       ?release@BV4_AABBTree@Gu@physx@@QEAAXXZ 00000001800c0d90 f   GuBV4Build.obj
 0001:000bfe30       ?releaseNodes@BV4BuildParams@@QEAAXXZ 00000001800c0e30 f   GuBV4Build.obj
 0001:000bfea0       ?reset@BuildStats@Gu@physx@@QEAAXXZ 00000001800c0ea0 f i GuBV4Build.obj
 0001:000bfeb0       ?setCount@BuildStats@Gu@physx@@QEAAXI@Z 00000001800c0eb0 f i GuBV4Build.obj
 0001:000c0530       ?walk@BV4_AABBTree@Gu@physx@@QEBAIP6A_NPEBVAABBTreeNode@23@IPEAX@Z1@Z 00000001800c1530 f   GuBV4Build.obj
 0001:000c05f0       ?walkDistance@BV4_AABBTree@Gu@physx@@QEBAIP6A_NPEBVAABBTreeNode@23@IPEAX@ZP6A_N01@Z1@Z 00000001800c15f0 f   GuBV4Build.obj
 0001:000c4650       ?GenericSweep_AABB_CB@@YAXAEBVBox@Gu@physx@@AEBV?$PxVec3T@M@3@MAEBVBV4Tree@23@P6A_NPEAX111IAEAM@Z3I@Z 00000001800c5650 f   GuBV4_AABBSweep.obj
 0001:000c47b0       ?Sweep_AABB_BV4@@YAHAEBVBox@Gu@physx@@AEBV?$PxVec3T@M@3@MAEBVBV4Tree@23@PEIAVSweepHit@23@I@Z 00000001800c57b0 f   GuBV4_AABBSweep.obj
 0001:000cd330       ?BV4_OverlapBoxAll@@YAIAEBVBox@Gu@physx@@AEBVBV4Tree@23@PEIBV?$PxMat44T@M@3@PEAIIAEA_N@Z 00000001800ce330 f   GuBV4_BoxOverlap.obj
 0001:000cdb50       ?BV4_OverlapBoxAny@@YAHAEBVBox@Gu@physx@@AEBVBV4Tree@23@PEIBV?$PxMat44T@M@3@@Z 00000001800ceb50 f   GuBV4_BoxOverlap.obj
 0001:000ce310       ?BV4_OverlapBoxCB@@YAXAEBVBox@Gu@physx@@AEBVBV4Tree@23@P6A_NPEAXAEBV?$PxVec3T@M@3@333IPEBI@Z2@Z 00000001800cf310 f   GuBV4_BoxOverlap.obj
 0001:000ce9d0       ?BV4_OverlapBoxCB@@YAXAEBVBox@Gu@physx@@AEBVBV4Tree@23@P6A_NPEAXAEBV?$PxVec3T@M@3@33IPEBI@Z2@Z 00000001800cf9d0 f   GuBV4_BoxOverlap.obj
 0001:000cee80       ?BV4_OverlapCapsuleAll@@YAIAEBVCapsule@Gu@physx@@AEBVBV4Tree@23@PEIBV?$PxMat44T@M@3@PEAIIAEA_N@Z 00000001800cfe80 f   GuBV4_BoxOverlap.obj
 0001:000cf5a0       ?BV4_OverlapCapsuleAny@@YAHAEBVCapsule@Gu@physx@@AEBVBV4Tree@23@PEIBV?$PxMat44T@M@3@@Z 00000001800d05a0 f   GuBV4_BoxOverlap.obj
 0001:000d2380       ?BV4_CapsuleSweepSingle@@YAHAEBVCapsule@Gu@physx@@AEBV?$PxVec3T@M@3@MAEBVBV4Tree@23@PEIAVSweepHit@23@I@Z 00000001800d3380 f   GuBV4_CapsuleSweep.obj
 0001:000d64a0       ?BV4_CapsuleSweepSingleAA@@YAHAEBVCapsule@Gu@physx@@AEBV?$PxVec3T@M@3@MAEBVBV4Tree@23@PEIAVSweepHit@23@I@Z 00000001800d74a0 f   GuBV4_CapsuleSweepAA.obj
 0001:000e65a0       ?BV4_OverlapMeshVsMesh@@YA_NAEAV?$PxReportCallback@UPxGeomIndexPair@physx@@@physx@@AEBVBV4Tree@Gu@2@1PEBV?$PxMat44T@M@2@2AEBV?$PxTransformT@M@2@3AEBVPxMeshScale@2@4V?$PxFlags@W4Enum@PxMeshMeshQueryFlag@physx@@I@2@@Z 00000001800e75a0 f   GuBV4_MeshMeshOverlap.obj
 0001:000e67c0       ?BV4_OverlapMeshVsMesh@@YA_NAEAV?$PxReportCallback@UPxGeomIndexPair@physx@@@physx@@AEBVBV4Tree@Gu@2@1PEBV?$PxMat44T@M@2@2V?$PxFlags@W4Enum@PxMeshMeshQueryFlag@physx@@I@2@@Z 00000001800e77c0 f   GuBV4_MeshMeshOverlap.obj
 0001:000eda50       ??D?$PxMat33T@M@physx@@QEBA?BV?$PxVec3T@M@1@AEBV21@@Z 00000001800eea50 f i GuBV4_OBBSweep.obj
 0001:000edae0       ?BV4_BoxSweepSingle@@YAHAEBVBox@Gu@physx@@AEBV?$PxVec3T@M@3@MAEBVBV4Tree@23@PEIBV?$PxMat44T@M@3@PEIAVSweepHit@23@I@Z 00000001800eeae0 f   GuBV4_OBBSweep.obj
 0001:000ee210       ?BV4_GenericSweepCB@@YAXAEBVBox@Gu@physx@@AEBV?$PxVec3T@M@3@MAEBVBV4Tree@23@P6A_NPEAX111IAEAM@Z3_N@Z 00000001800ef210 f   GuBV4_OBBSweep.obj
 0001:000ee430       ?Sweep_OBB_BV4@@YAHAEBVBox@Gu@physx@@AEBV?$PxVec3T@M@3@MAEBVBV4Tree@23@PEIAVSweepHit@23@I@Z 00000001800ef430 f   GuBV4_OBBSweep.obj
 0001:000f0fa0       ?BV4_RaycastCB@@YAXAEBV?$PxVec3T@M@physx@@0AEBVBV4Tree@Gu@2@PEIBV?$PxMat44T@M@2@MMIP6A?AW4HitCode@42@PEAX000IMMM@Z3@Z 00000001800f1fa0 f   GuBV4_Raycast.obj
 0001:000f13e0       ?BV4_RaycastSingle@@YAHAEBV?$PxVec3T@M@physx@@0AEBVBV4Tree@Gu@2@PEIBV?$PxMat44T@M@2@PEIAUPxGeomRaycastHit@2@MMIV?$PxFlags@W4Enum@PxHitFlag@physx@@G@2@@Z 00000001800f23e0 f   GuBV4_Raycast.obj
 0001:000f3910       ?BV4_OverlapSphereAll@@YAIAEBVSphere@Gu@physx@@AEBVBV4Tree@23@PEIBV?$PxMat44T@M@3@PEAIIAEA_N@Z 00000001800f4910 f   GuBV4_SphereOverlap.obj
 0001:000f3c30       ?BV4_OverlapSphereAny@@YAHAEBVSphere@Gu@physx@@AEBVBV4Tree@23@PEIBV?$PxMat44T@M@3@@Z 00000001800f4c30 f   GuBV4_SphereOverlap.obj
 0001:000f3f10       ?BV4_PointDistance@@YAXAEBV?$PxVec3T@M@physx@@AEBVBV4Tree@Gu@2@MAEAIAEAMAEAV12@@Z 00000001800f4f10 f   GuBV4_SphereOverlap.obj
 0001:000fa8c0       ?BV4_GenericSweepCB_Old@@YAXAEBV?$PxVec3T@M@physx@@00MAEBVBV4Tree@Gu@2@PEIBV?$PxMat44T@M@2@P6A_NPEAX000IAEAM@Z3@Z 00000001800fb8c0 f   GuBV4_SphereSweep.obj
 0001:000facd0       ?BV4_SphereSweepSingle@@YAHAEBVSphere@Gu@physx@@AEBV?$PxVec3T@M@3@MAEBVBV4Tree@23@PEIBV?$PxMat44T@M@3@PEIAVSweepHit@23@I@Z 00000001800fbcd0 f   GuBV4_SphereSweep.obj
 0001:000fbfe0       ?computeSweepData@physx@@YAMAEBVPxTriangleMeshGeometry@1@AEAV?$PxVec3T@M@1@11M@Z 00000001800fcfe0 f i GuMidphaseBV4.obj
 0001:000fd420       ?intersectBoxVsMesh_BV4@Gu@physx@@YA_NAEBVBox@12@AEBVTriangleMesh@12@AEBV?$PxTransformT@M@2@AEBVPxMeshScale@2@PEAULimitedResults@12@@Z 00000001800fe420 f   GuMidphaseBV4.obj
 0001:000fdec0       ?intersectCapsuleVsMesh_BV4@Gu@physx@@YA_NAEBVCapsule@12@AEBVTriangleMesh@12@AEBV?$PxTransformT@M@2@AEBVPxMeshScale@2@PEAULimitedResults@12@@Z 00000001800feec0 f   GuMidphaseBV4.obj
 0001:000fe6d0       ?intersectMeshVsMesh_BV4@Gu@physx@@YA_NAEAV?$PxReportCallback@UPxGeomIndexPair@physx@@@2@AEBVTriangleMesh@12@1AEBV?$PxTransformT@M@2@2AEBVPxMeshScale@2@3V?$PxFlags@W4Enum@PxMeshMeshQueryFlag@physx@@I@2@@Z 00000001800ff6d0 f   GuMidphaseBV4.obj
 0001:000fefe0       ?intersectOBB_BV4@Gu@physx@@YAXPEBVTetrahedronMesh@12@AEBVBox@12@AEAU?$TetMeshHitCallback@UPxGeomRaycastHit@physx@@@12@@Z 00000001800fffe0 f   GuMidphaseBV4.obj
 0001:000ff000       ?intersectOBB_BV4@Gu@physx@@YAXPEBVTriangleMesh@12@AEBVBox@12@AEAU?$MeshHitCallback@UPxGeomRaycastHit@physx@@@12@_N3@Z 0000000180100000 f   GuMidphaseBV4.obj
 0001:000ff020       ?intersectSphereVsMesh_BV4@Gu@physx@@YA_NAEBVSphere@12@AEBVTriangleMesh@12@AEBV?$PxTransformT@M@2@AEBVPxMeshScale@2@PEAULimitedResults@12@@Z 0000000180100020 f   GuMidphaseBV4.obj
 0001:000ff720       ?pointMeshDistance_BV4@Gu@physx@@YAXPEBVTriangleMesh@12@AEBVPxTriangleMeshGeometry@2@AEBV?$PxTransformT@M@2@AEBV?$PxVec3T@M@2@MAEAIAEAMAEAV62@@Z 0000000180100720 f   GuMidphaseBV4.obj
 0001:000ffdd0       ?raycast_triangleMesh_BV4@Gu@physx@@YAIPEBVTriangleMesh@12@AEBVPxTriangleMeshGeometry@2@AEBV?$PxTransformT@M@2@AEBV?$PxVec3T@M@2@3MV?$PxFlags@W4Enum@PxHitFlag@physx@@G@2@IPEIAUPxGeomRaycastHit@2@I@Z 0000000180100dd0 f   GuMidphaseBV4.obj
 0001:00100be0       ?sweepBox_MeshGeom_BV4@Gu@physx@@YA_NPEBVTriangleMesh@12@AEBVPxTriangleMeshGeometry@2@AEBV?$PxTransformT@M@2@AEBVBox@12@AEBV?$PxVec3T@M@2@MAEAUPxGeomSweepHit@2@V?$PxFlags@W4Enum@PxHitFlag@physx@@G@2@M@Z 0000000180101be0 f   GuMidphaseBV4.obj
 0001:00102340       ?sweepCapsule_MeshGeom_BV4@Gu@physx@@YA_NPEBVTriangleMesh@12@AEBVPxTriangleMeshGeometry@2@AEBV?$PxTransformT@M@2@AEBVCapsule@12@AEBV?$PxVec3T@M@2@MAEAUPxGeomSweepHit@2@V?$PxFlags@W4Enum@PxHitFlag@physx@@G@2@M@Z 0000000180103340 f   GuMidphaseBV4.obj
 0001:00102e40       ?sweepConvex_MeshGeom_BV4@Gu@physx@@YAXPEBVTriangleMesh@12@AEBVBox@12@AEBV?$PxVec3T@M@2@MAEAUSweepConvexMeshHitCallback@12@_N@Z 0000000180103e40 f   GuMidphaseBV4.obj
 0001:00102e80       ?transform@PxMeshScale@physx@@QEBA?AV?$PxVec3T@M@2@AEBV32@@Z 0000000180103e80 f i GuMidphaseBV4.obj
 0001:001030c0       ?findOverlapHeightField@PxMeshQuery@physx@@SAIAEBVPxGeometry@2@AEBV?$PxTransformT@M@2@AEBVPxHeightFieldGeometry@2@1PEAIIIAEA_NV?$PxFlags@W4Enum@PxGeometryQueryFlag@physx@@I@2@@Z 00000001801040c0 f   GuMeshQuery.obj
 0001:00103820       ?findOverlapTriangleMesh@PxMeshQuery@physx@@SAIAEBVPxGeometry@2@AEBV?$PxTransformT@M@2@AEBVPxTriangleMeshGeometry@2@1PEAIIIAEA_NV?$PxFlags@W4Enum@PxGeometryQueryFlag@physx@@I@2@@Z 0000000180104820 f   GuMeshQuery.obj
 0001:00103b60       ?findOverlapTriangleMesh@PxMeshQuery@physx@@SA_NAEAV?$PxReportCallback@UPxGeomIndexPair@physx@@@2@AEBVPxTriangleMeshGeometry@2@AEBV?$PxTransformT@M@2@12V?$PxFlags@W4Enum@PxGeometryQueryFlag@physx@@I@2@V?$PxFlags@W4Enum@PxMeshMeshQueryFlag@physx@@I@2@@Z 0000000180104b60 f   GuMeshQuery.obj
 0001:00103c70       ?getTriangle@PxMeshQuery@physx@@SAXAEBVPxHeightFieldGeometry@2@AEBV?$PxTransformT@M@2@IAEAVPxTriangle@2@PEAI3@Z 0000000180104c70 f   GuMeshQuery.obj
 0001:00103cf0       ?getTriangle@PxMeshQuery@physx@@SAXAEBVPxTriangleMeshGeometry@2@AEBV?$PxTransformT@M@2@IAEAVPxTriangle@2@PEAI3@Z 0000000180104cf0 f   GuMeshQuery.obj
 0001:001041e0       ?sweep@PxMeshQuery@physx@@SA_NAEBV?$PxVec3T@M@2@MAEBVPxGeometry@2@AEBV?$PxTransformT@M@2@IPEBVPxTriangle@2@AEAUPxGeomSweepHit@2@V?$PxFlags@W4Enum@PxHitFlag@physx@@G@2@PEBIM_NV?$PxFlags@W4Enum@PxGeometryQueryFlag@physx@@I@2@@Z 00000001801051e0 f   GuMeshQuery.obj
 0001:00104470       ??$collide@$00$00@MeshRayCollider@@SAXAEBV?$PxVec3T@M@physx@@0M_NPEBVRTreeTriangleMesh@Gu@2@AEAU?$MeshHitCallback@UPxGeomRaycastHit@physx@@@42@PEBV12@@Z 0000000180105470 f i GuMidphaseRTree.obj
 0001:001047e0       ??$collide@$00$0A@@MeshRayCollider@@SAXAEBV?$PxVec3T@M@physx@@0M_NPEBVRTreeTriangleMesh@Gu@2@AEAU?$MeshHitCallback@UPxGeomRaycastHit@physx@@@42@PEBV12@@Z 00000001801057e0 f i GuMidphaseRTree.obj
 0001:00104a20       ??$collide@$0A@$00@MeshRayCollider@@SAXAEBV?$PxVec3T@M@physx@@0M_NPEBVRTreeTriangleMesh@Gu@2@AEAU?$MeshHitCallback@UPxGeomRaycastHit@physx@@@42@PEBV12@@Z 0000000180105a20 f i GuMidphaseRTree.obj
 0001:00106d70       ??0?$RayRTreeCallback@$00$0A@@@QEAA@MAEAU?$MeshHitCallback@UPxGeomRaycastHit@physx@@@Gu@physx@@HPEBXPEBV?$PxVec3T@M@3@AEBV43@3M_N2@Z 0000000180107d70 f i GuMidphaseRTree.obj
 0001:00106e90       ??1?$RayRTreeCallback@$00$00@@UEAA@XZ 0000000180107e90 f i GuMidphaseRTree.obj
 0001:00106f20       ??1?$RayRTreeCallback@$0A@$0A@@@UEAA@XZ 0000000180107f20 f i GuMidphaseRTree.obj
 0001:00106f20       ??1?$RayRTreeCallback@$00$0A@@@UEAA@XZ 0000000180107f20 f i GuMidphaseRTree.obj
 0001:00106fb0       ??1?$RayRTreeCallback@$0A@$00@@UEAA@XZ 0000000180107fb0 f i GuMidphaseRTree.obj
 0001:00107038       ??_E?$RayRTreeCallback@$00$00@@W7EAAPEAXI@Z 0000000180108038 f i GuMidphaseRTree.obj
 0001:00107044       ??_E?$RayRTreeCallback@$0A@$0A@@@W7EAAPEAXI@Z 0000000180108044 f i GuMidphaseRTree.obj
 0001:00107044       ??_E?$RayRTreeCallback@$00$0A@@@W7EAAPEAXI@Z 0000000180108044 f i GuMidphaseRTree.obj
 0001:00107050       ??_E?$RayRTreeCallback@$0A@$00@@W7EAAPEAXI@Z 0000000180108050 f i GuMidphaseRTree.obj
 0001:001070c0       ??_E?$RayRTreeCallback@$00$00@@UEAAPEAXI@Z 00000001801080c0 f i GuMidphaseRTree.obj
 0001:001070c0       ??_G?$RayRTreeCallback@$00$00@@UEAAPEAXI@Z 00000001801080c0 f i GuMidphaseRTree.obj
 0001:00107100       ??_E?$RayRTreeCallback@$00$0A@@@UEAAPEAXI@Z 0000000180108100 f i GuMidphaseRTree.obj
 0001:00107100       ??_G?$RayRTreeCallback@$0A@$0A@@@UEAAPEAXI@Z 0000000180108100 f i GuMidphaseRTree.obj
 0001:00107100       ??_G?$RayRTreeCallback@$00$0A@@@UEAAPEAXI@Z 0000000180108100 f i GuMidphaseRTree.obj
 0001:00107100       ??_E?$RayRTreeCallback@$0A@$0A@@@UEAAPEAXI@Z 0000000180108100 f i GuMidphaseRTree.obj
 0001:00107140       ??_E?$RayRTreeCallback@$0A@$00@@UEAAPEAXI@Z 0000000180108140 f i GuMidphaseRTree.obj
 0001:00107140       ??_G?$RayRTreeCallback@$0A@$00@@UEAAPEAXI@Z 0000000180108140 f i GuMidphaseRTree.obj
 0001:00107180       ??_GCallback@RTree@Gu@physx@@UEAAPEAXI@Z 0000000180108180 f i GuMidphaseRTree.obj
 0001:00107180       ??_ECallback@RTree@Gu@physx@@UEAAPEAXI@Z 0000000180108180 f i GuMidphaseRTree.obj
 0001:001071b0       ??_ERayMeshColliderCallback@@UEAAPEAXI@Z 00000001801081b0 f i GuMidphaseRTree.obj
 0001:001071b0       ??_GRayMeshColliderCallback@@UEAAPEAXI@Z 00000001801081b0 f i GuMidphaseRTree.obj
 0001:001071b0       ??_GSweepCapsuleMeshHitCallback@Gu@physx@@UEAAPEAXI@Z 00000001801081b0 f i GuSweepsMesh.obj
 0001:001071b0       ??_ESweepCapsuleMeshHitCallback@Gu@physx@@UEAAPEAXI@Z 00000001801081b0 f i GuSweepsMesh.obj
 0001:001071e0       ?collideOBB@MeshRayCollider@@SAXAEBVBox@Gu@physx@@_NPEBVRTreeTriangleMesh@34@AEAU?$MeshHitCallback@UPxGeomRaycastHit@physx@@@34@1@Z 00000001801081e0 f   GuMidphaseRTree.obj
 0001:001076b0       ?intersectBoxVsMesh_RTREE@Gu@physx@@YA_NAEBVBox@12@AEBVTriangleMesh@12@AEBV?$PxTransformT@M@2@AEBVPxMeshScale@2@PEAULimitedResults@12@@Z 00000001801086b0 f   GuMidphaseRTree.obj
 0001:00107720       ?intersectCapsuleVsMesh_RTREE@Gu@physx@@YA_NAEBVCapsule@12@AEBVTriangleMesh@12@AEBV?$PxTransformT@M@2@AEBVPxMeshScale@2@PEAULimitedResults@12@@Z 0000000180108720 f   GuMidphaseRTree.obj
 0001:001077a0       ?intersectOBB_RTREE@Gu@physx@@YAXPEBVTriangleMesh@12@AEBVBox@12@AEAU?$MeshHitCallback@UPxGeomRaycastHit@physx@@@12@_N3@Z 00000001801087a0 f   GuMidphaseRTree.obj
 0001:001077d0       ?intersectSphereVsMesh_RTREE@Gu@physx@@YA_NAEBVSphere@12@AEBVTriangleMesh@12@AEBV?$PxTransformT@M@2@AEBVPxMeshScale@2@PEAULimitedResults@12@@Z 00000001801087d0 f   GuMidphaseRTree.obj
 0001:00107800       ?pointMeshDistance_RTREE@Gu@physx@@YAXPEBVTriangleMesh@12@AEBVPxTriangleMeshGeometry@2@AEBV?$PxTransformT@M@2@AEBV?$PxVec3T@M@2@MAEAIAEAMAEAV62@@Z 0000000180108800 f   GuMidphaseRTree.obj
 0001:00108600       ?processHit@RayMeshColliderCallback@@UEAA_NAEBUPxGeomRaycastHit@physx@@AEBV?$PxVec3T@M@3@11AEAMPEBI@Z 0000000180109600 f i GuMidphaseRTree.obj
 0001:00108db0       ?processResults@?$RayRTreeCallback@$00$00@@UEAA_NIPEAI@Z 0000000180109db0 f i GuMidphaseRTree.obj
 0001:00109120       ?processResults@?$RayRTreeCallback@$00$00@@UEAA_NIPEAIAEAM@Z 000000018010a120 f i GuMidphaseRTree.obj
 0001:00109490       ?processResults@?$RayRTreeCallback@$0A@$0A@@@UEAA_NIPEAI@Z 000000018010a490 f i GuMidphaseRTree.obj
 0001:00109490       ?processResults@?$RayRTreeCallback@$00$0A@@@UEAA_NIPEAI@Z 000000018010a490 f i GuMidphaseRTree.obj
 0001:00109700       ?processResults@?$RayRTreeCallback@$00$0A@@@UEAA_NIPEAIAEAM@Z 000000018010a700 f i GuMidphaseRTree.obj
 0001:00109700       ?processResults@?$RayRTreeCallback@$0A@$0A@@@UEAA_NIPEAIAEAM@Z 000000018010a700 f i GuMidphaseRTree.obj
 0001:00109970       ?processResults@?$RayRTreeCallback@$0A@$00@@UEAA_NIPEAI@Z 000000018010a970 f i GuMidphaseRTree.obj
 0001:00109fa0       ?processResults@?$RayRTreeCallback@$0A@$00@@UEAA_NIPEAIAEAM@Z 000000018010afa0 f i GuMidphaseRTree.obj
 0001:0010a5f0       ?raycast_triangleMesh_RTREE@Gu@physx@@YAIPEBVTriangleMesh@12@AEBVPxTriangleMeshGeometry@2@AEBV?$PxTransformT@M@2@AEBV?$PxVec3T@M@2@3MV?$PxFlags@W4Enum@PxHitFlag@physx@@G@2@IPEIAUPxGeomRaycastHit@2@I@Z 000000018010b5f0 f   GuMidphaseRTree.obj
 0001:0010ad70       ?sweepBox_MeshGeom_RTREE@Gu@physx@@YA_NPEBVTriangleMesh@12@AEBVPxTriangleMeshGeometry@2@AEBV?$PxTransformT@M@2@AEBVBox@12@AEBV?$PxVec3T@M@2@MAEAUPxGeomSweepHit@2@V?$PxFlags@W4Enum@PxHitFlag@physx@@G@2@M@Z 000000018010bd70 f   GuMidphaseRTree.obj
 0001:0010c250       ?sweepCapsule_MeshGeom_RTREE@Gu@physx@@YA_NPEBVTriangleMesh@12@AEBVPxTriangleMeshGeometry@2@AEBV?$PxTransformT@M@2@AEBVCapsule@12@AEBV?$PxVec3T@M@2@MAEAUPxGeomSweepHit@2@V?$PxFlags@W4Enum@PxHitFlag@physx@@G@2@M@Z 000000018010d250 f   GuMidphaseRTree.obj
 0001:0010ca00       ?sweepConvex_MeshGeom_RTREE@Gu@physx@@YAXPEBVTriangleMesh@12@AEBVBox@12@AEBV?$PxVec3T@M@2@MAEAUSweepConvexMeshHitCallback@12@_N@Z 000000018010da00 f   GuMidphaseRTree.obj
 0001:0010d380       ??_G?$PxReportCallback@UPxGeomIndexPair@physx@@@physx@@UEAAPEAXI@Z 000000018010e380 f i GuOverlapTestsMesh.obj
 0001:0010d380       ??_E?$PxReportCallback@UPxGeomIndexPair@physx@@@physx@@UEAAPEAXI@Z 000000018010e380 f i GuOverlapTestsMesh.obj
 0001:0010d410       ?GeomOverlapCallback_BoxMesh@@YA_NAEBVPxGeometry@physx@@AEBV?$PxTransformT@M@2@01PEAUTriggerCache@Gu@2@PEAUPxQueryThreadContext@2@@Z 000000018010e410 f   GuOverlapTestsMesh.obj
 0001:0010d520       ?GeomOverlapCallback_CapsuleMesh@@YA_NAEBVPxGeometry@physx@@AEBV?$PxTransformT@M@2@01PEAUTriggerCache@Gu@2@PEAUPxQueryThreadContext@2@@Z 000000018010e520 f   GuOverlapTestsMesh.obj
 0001:0010d630       ?GeomOverlapCallback_ConvexMesh@@YA_NAEBVPxGeometry@physx@@AEBV?$PxTransformT@M@2@01PEAUTriggerCache@Gu@2@PEAUPxQueryThreadContext@2@@Z 000000018010e630 f   GuOverlapTestsMesh.obj
 0001:0010db30       ?GeomOverlapCallback_MeshMesh@@YA_NAEBVPxGeometry@physx@@AEBV?$PxTransformT@M@2@01PEAUTriggerCache@Gu@2@PEAUPxQueryThreadContext@2@@Z 000000018010eb30 f   GuOverlapTestsMesh.obj
 0001:0010dbf0       ?GeomOverlapCallback_SphereMesh@@YA_NAEBVPxGeometry@physx@@AEBV?$PxTransformT@M@2@01PEAUTriggerCache@Gu@2@PEAUPxQueryThreadContext@2@@Z 000000018010ebf0 f   GuOverlapTestsMesh.obj
 0001:0010dfe0       ??0RTree@Gu@physx@@QEAA@W4PxEMPTY@2@@Z 000000018010efe0 f   GuRTree.obj
 0001:0010dff0       ?exportExtraData@RTree@Gu@physx@@QEAAXAEAVPxSerializationContext@3@@Z 000000018010eff0 f   GuRTree.obj
 0001:0010e030       ?importExtraData@RTree@Gu@physx@@QEAAXAEAVPxDeserializationContext@3@@Z 000000018010f030 f   GuRTree.obj
 0001:0010e060       ?load@RTree@Gu@physx@@QEAA_NAEAVPxInputStream@3@I_N@Z 000000018010f060 f   GuRTree.obj
 0001:0010e360       ?refitAllStaticTree@RTree@Gu@physx@@QEAAXAEAUCallbackRefit@123@PEAVPxBounds3@3@@Z 000000018010f360 f   GuRTree.obj
 0001:0010e8c0       ?validate@RTree@Gu@physx@@QEAAXPEAUCallbackRefit@123@@Z 000000018010f8c0 f   GuRTree.obj
 0001:0010ea20       ?validateRecursive@RTree@Gu@physx@@IEAAXIURTreeNodeQ@23@PEAURTreePage@23@PEAUCallbackRefit@123@@Z 000000018010fa20 f   GuRTree.obj
 0001:0010eb50       ??$traverseRay@$00@RTree@Gu@physx@@QEBAXAEBV?$PxVec3T@M@2@0IPEAIPEAUCallbackRaycast@012@PEBV32@M@Z 000000018010fb50 f i GuRTreeQueries.obj
 0001:0010eef0       ??$traverseRay@$0A@@RTree@Gu@physx@@QEBAXAEBV?$PxVec3T@M@2@0IPEAIPEAUCallbackRaycast@012@PEBV32@M@Z 000000018010fef0 f i GuRTreeQueries.obj
 0001:0010f240       ?traverseAABB@RTree@Gu@physx@@QEBAXAEBV?$PxVec3T@M@3@0IPEAIPEAUCallback@123@@Z 0000000180110240 f   GuRTreeQueries.obj
 0001:0010f400       ?traverseOBB@RTree@Gu@physx@@QEBAXAEBVBox@23@IPEAIPEAUCallback@123@@Z 0000000180110400 f   GuRTreeQueries.obj
 0001:0010fce0       ??0SweepBoxMeshHitCallback@Gu@physx@@QEAA@W4Enum@CallbackMode@12@AEBVPxMat34Padded@2@M_NAEBVBox@12@AEBV?$PxVec3T@M@2@44AEBV?$PxFlags@W4Enum@PxHitFlag@physx@@G@2@M2M@Z 0000000180110ce0 f   GuSweepsMesh.obj
 0001:0010fdf0       ??0SweepCapsuleMeshHitCallback@Gu@physx@@QEAA@AEAUPxGeomSweepHit@2@AEBV?$PxMat34T@M@2@M_NAEBVCapsule@12@AEBV?$PxVec3T@M@2@AEBV?$PxFlags@W4Enum@PxHitFlag@physx@@G@2@2M@Z 0000000180110df0 f   GuSweepsMesh.obj
 0001:0010fec0       ??0SweepConvexMeshHitCallback@Gu@physx@@QEAA@AEBUConvexHullData@12@AEBVPxMeshScale@2@AEBVFastVertex2ShapeScaling@Cm@2@AEBV?$PxTransformT@M@2@3AEBV?$PxVec3T@M@2@MV?$PxFlags@W4Enum@PxHitFlag@physx@@G@2@_NM6M@Z 0000000180110ec0 f   GuSweepsMesh.obj
 0001:00110810       ??_ESweepBoxMeshHitCallback@Gu@physx@@UEAAPEAXI@Z 0000000180111810 f i GuSweepsMesh.obj
 0001:00110810       ??_GSweepBoxMeshHitCallback@Gu@physx@@UEAAPEAXI@Z 0000000180111810 f i GuSweepsMesh.obj
 0001:00110840       ??_GSweepConvexMeshHitCallback@Gu@physx@@UEAAPEAXI@Z 0000000180111840 f i GuSweepsMesh.obj
 0001:00110840       ??_ESweepConvexMeshHitCallback@Gu@physx@@UEAAPEAXI@Z 0000000180111840 f i GuSweepsMesh.obj
 0001:00110870       ??_GSweepShapeMeshHitCallback@Gu@physx@@UEAAPEAXI@Z 0000000180111870 f i GuSweepsMesh.obj
 0001:00110870       ??_ESweepShapeMeshHitCallback@Gu@physx@@UEAAPEAXI@Z 0000000180111870 f i GuSweepsMesh.obj
 0001:001108a0       ?finalizeHit@SweepBoxMeshHitCallback@Gu@physx@@QEBA_NAEAUPxGeomSweepHit@3@AEBVPxTriangleMeshGeometry@3@AEBV?$PxTransformT@M@3@2AEBV?$PxVec3T@M@3@_N4@Z 00000001801118a0 f   GuSweepsMesh.obj
 0001:00110f60       ?finalizeHit@SweepCapsuleMeshHitCallback@Gu@physx@@QEBA_NAEAUPxGeomSweepHit@3@AEBVCapsule@23@AEBVPxTriangleMeshGeometry@3@AEBV?$PxTransformT@M@3@_N@Z 0000000180111f60 f   GuSweepsMesh.obj
 0001:00111110       ?finalizeHit@SweepConvexMeshHitCallback@Gu@physx@@QEAA_NAEAUPxGeomSweepHit@3@AEBVPxTriangleMeshGeometry@3@AEBV?$PxTransformT@M@3@AEBVPxConvexMeshGeometry@3@2AEBV?$PxVec3T@M@3@M_N555@Z 0000000180112110 f   GuSweepsMesh.obj
 0001:001115f0       ?processHit@SweepBoxMeshHitCallback@Gu@physx@@UEAA_NAEBUPxGeomRaycastHit@3@AEBV?$PxVec3T@M@3@11AEAMPEBI@Z 00000001801125f0 f   GuSweepsMesh.obj
 0001:00111df0       ?processHit@SweepCapsuleMeshHitCallback@Gu@physx@@UEAA_NAEBUPxGeomRaycastHit@3@AEBV?$PxVec3T@M@3@11AEAMPEBI@Z 0000000180112df0 f   GuSweepsMesh.obj
 0001:00112350       ?processHit@SweepConvexMeshHitCallback@Gu@physx@@UEAA_NAEBUPxGeomRaycastHit@3@AEBV?$PxVec3T@M@3@11AEAMPEBI@Z 0000000180113350 f   GuSweepsMesh.obj
 0001:00112a90       ?sweepBox_MeshGeom@@YA_NAEBVPxGeometry@physx@@AEBV?$PxTransformT@M@2@AEBVPxBoxGeometry@2@1AEBVBox@Gu@2@AEBV?$PxVec3T@M@2@MAEAUPxGeomSweepHit@2@V?$PxFlags@W4Enum@PxHitFlag@physx@@G@2@MPEAUPxQueryThreadContext@2@@Z 0000000180113a90 f   GuSweepsMesh.obj
 0001:00112b20       ?sweepCapsule_MeshGeom@@YA_NAEBVPxGeometry@physx@@AEBV?$PxTransformT@M@2@AEBVPxCapsuleGeometry@2@1AEBVCapsule@Gu@2@AEBV?$PxVec3T@M@2@MAEAUPxGeomSweepHit@2@V?$PxFlags@W4Enum@PxHitFlag@physx@@G@2@MPEAUPxQueryThreadContext@2@@Z 0000000180113b20 f   GuSweepsMesh.obj
 0001:00112bb0       ?sweepConvex_MeshGeom@@YA_NAEBVPxGeometry@physx@@AEBV?$PxTransformT@M@2@AEBVPxConvexMeshGeometry@2@1AEBV?$PxVec3T@M@2@MAEAUPxGeomSweepHit@2@V?$PxFlags@W4Enum@PxHitFlag@physx@@G@2@MPEAUPxQueryThreadContext@2@@Z 0000000180113bb0 f   GuSweepsMesh.obj
 0001:001136f0       ??0TriangleMesh@Gu@physx@@QEAA@AEBUPxTriangleMeshInternalData@2@@Z 00000001801146f0 f   GuTriangleMesh.obj
 0001:001137d0       ??0TriangleMesh@Gu@physx@@QEAA@PEAVMeshFactory@12@AEAVTriangleMeshData@12@@Z 00000001801147d0 f   GuTriangleMesh.obj
 0001:00113b50       ??1TriangleMesh@Gu@physx@@UEAA@XZ 0000000180114b50 f   GuTriangleMesh.obj
 0001:00113da0       ??_GTriangleMesh@Gu@physx@@UEAAPEAXI@Z 0000000180114da0 f i GuTriangleMesh.obj
 0001:00113da0       ??_ETriangleMesh@Gu@physx@@UEAAPEAXI@Z 0000000180114da0 f i GuTriangleMesh.obj
 0001:00113e10       ?exportExtraData@TriangleMesh@Gu@physx@@UEAAXAEAVPxSerializationContext@3@@Z 0000000180114e10 f   GuTriangleMesh.obj
 0001:00113fe0       ?getLocalBounds@TriangleMesh@Gu@physx@@UEBA?AVPxBounds3@3@XZ 0000000180114fe0 f i GuTriangleMesh.obj
 0001:00114070       ?getMassInformation@TriangleMesh@Gu@physx@@UEBAXAEAMAEAV?$PxMat33T@M@3@AEAV?$PxVec3T@M@3@@Z 0000000180115070 f i GuTriangleMesh.obj
 0001:001140f0       ?getNbTriangles@TriangleMesh@Gu@physx@@UEBAIXZ 00000001801150f0 f i GuTriangleMesh.obj
 0001:00114100       ?getPreferSDFProjection@TriangleMesh@Gu@physx@@UEBA_NXZ 0000000180115100 f i GuTriangleMesh.obj
 0001:00114110       ?getSDF@TriangleMesh@Gu@physx@@UEBAPEBMXZ 0000000180115110 f i GuTriangleMesh.obj
 0001:00114120       ?getSDFDimensions@TriangleMesh@Gu@physx@@UEBAXAEAI00@Z 0000000180115120 f i GuTriangleMesh.obj
 0001:00114150       ?getTriangleMaterialIndex@TriangleMesh@Gu@physx@@UEBAGI@Z 0000000180115150 f i GuTriangleMesh.obj
 0001:00114170       ?getTriangleMeshFlags@TriangleMesh@Gu@physx@@UEBA?AV?$PxFlags@W4Enum@PxTriangleMeshFlag@physx@@E@3@XZ 0000000180115170 f i GuTriangleMesh.obj
 0001:00114180       ?getTrianglesRemap@TriangleMesh@Gu@physx@@UEBAPEBIXZ 0000000180115180 f i GuTriangleMesh.obj
 0001:00114190       ?getVerticesForModification@TriangleMesh@Gu@physx@@UEAAPEAV?$PxVec3T@M@3@XZ 0000000180115190 f   GuTriangleMesh.obj
 0001:001141d0       ?importExtraData@TriangleMesh@Gu@physx@@QEAAXAEAVPxDeserializationContext@3@@Z 00000001801151d0 f   GuTriangleMesh.obj
 0001:00114370       ?isKindOf@PxTriangleMesh@physx@@MEBA_NPEBD@Z 0000000180115370 f i GuTriangleMesh.obj
 0001:001143e0       ?onRefCountZero@TriangleMesh@Gu@physx@@UEAAXXZ 00000001801153e0 f   GuTriangleMesh.obj
 0001:001144b0       ?refitBVH@TriangleMesh@Gu@physx@@UEAA?AVPxBounds3@3@XZ 00000001801154b0 f   GuTriangleMesh.obj
 0001:00114580       ?requestEdgeList@TriangleMesh@Gu@physx@@QEBAPEBVEdgeList@23@XZ 0000000180115580 f   GuTriangleMesh.obj
 0001:00114670       ?setAllEdgesActive@TriangleMesh@Gu@physx@@QEAAXXZ 0000000180115670 f   GuTriangleMesh.obj
 0001:00114760       ?setPreferSDFProjection@TriangleMesh@Gu@physx@@UEAAX_N@Z 0000000180115760 f i GuTriangleMesh.obj
 0001:00114790       ??0BV4TriangleMesh@Gu@physx@@QEAA@AEBUPxTriangleMeshInternalData@2@@Z 0000000180115790 f   GuTriangleMeshBV4.obj
 0001:00114900       ??0BV4TriangleMesh@Gu@physx@@QEAA@PEAVMeshFactory@12@AEAVTriangleMeshData@12@@Z 0000000180115900 f   GuTriangleMeshBV4.obj
 0001:00114990       ??_GBV4TriangleMesh@Gu@physx@@UEAAPEAXI@Z 0000000180115990 f i GuTriangleMeshBV4.obj
 0001:00114990       ??_EBV4TriangleMesh@Gu@physx@@UEAAPEAXI@Z 0000000180115990 f i GuTriangleMeshBV4.obj
 0001:00114a20       ?createObject@BV4TriangleMesh@Gu@physx@@SAPEAVTriangleMesh@23@AEAPEAEAEAVPxDeserializationContext@3@@Z 0000000180115a20 f   GuTriangleMeshBV4.obj
 0001:00114b10       ?exportExtraData@BV4TriangleMesh@Gu@physx@@UEAAXAEAVPxSerializationContext@3@@Z 0000000180115b10 f   GuTriangleMeshBV4.obj
 0001:00114b50       ?getConcreteTypeName@BV4TriangleMesh@Gu@physx@@UEBAPEBDXZ 0000000180115b50 f i GuTriangleMeshBV4.obj
 0001:00114b60       ?getInternalData@BV4TriangleMesh@Gu@physx@@UEBA_NAEAUPxTriangleMeshInternalData@3@_N@Z 0000000180115b60 f   GuTriangleMeshBV4.obj
 0001:00114c50       ?length@charNode@@UEBAHXZ  0000000180115c50 f i libvcruntime:undname.obj
 0001:00114c50       ?getMidphaseID@BV4TriangleMeshBuilder@physx@@UEBA?AW4Enum@PxMeshMidPhase@2@XZ 0000000180115c50 f i GuCookingTriangleMesh.obj
 0001:00114c50       _get_startup_argv_mode     0000000180115c50 f i LIBCMT:argv_mode.obj
 0001:00114c50       ?raw_length@charNode@@UEBAHXZ 0000000180115c50 f i libvcruntime:undname.obj
 0001:00114c50       ?getMidphaseID@BV4TriangleMesh@Gu@physx@@UEBA?AW4Enum@PxMeshMidPhase@3@XZ 0000000180115c50 f i GuTriangleMeshBV4.obj
 0001:00114c50       DllMain                    0000000180115c50 f i LIBCMT:dll_dllmain_stub.obj
 0001:00114c60       ?getVerticesForModification@BV4TriangleMesh@Gu@physx@@UEAAPEAV?$PxVec3T@M@3@XZ 0000000180115c60 f   GuTriangleMeshBV4.obj
 0001:00114c60       ?getVerticesForModification@RTreeTriangleMesh@Gu@physx@@UEAAPEAV?$PxVec3T@M@3@XZ 0000000180115c60 f   GuTriangleMeshRTree.obj
 0001:00114c70       ?refitBVH@BV4TriangleMesh@Gu@physx@@UEAA?AVPxBounds3@3@XZ 0000000180115c70 f   GuTriangleMeshBV4.obj
 0001:00114de0       PxGetTriangleMeshInternalData 0000000180115de0 f   GuTriangleMeshBV4.obj
 0001:00114e00       ??0RTreeTriangleMesh@Gu@physx@@QEAA@PEAVMeshFactory@12@AEAVTriangleMeshData@12@@Z 0000000180115e00 f   GuTriangleMeshRTree.obj
 0001:00114f70       ??_G?$RefitCallback@I@physx@@UEAAPEAXI@Z 0000000180115f70 f i GuTriangleMeshRTree.obj
 0001:00114f70       ??_E?$RefitCallback@I@physx@@UEAAPEAXI@Z 0000000180115f70 f i GuTriangleMeshRTree.obj
 0001:00114f70       ??_E?$RefitCallback@G@physx@@UEAAPEAXI@Z 0000000180115f70 f i GuTriangleMeshRTree.obj
 0001:00114f70       ??_G?$RefitCallback@G@physx@@UEAAPEAXI@Z 0000000180115f70 f i GuTriangleMeshRTree.obj
 0001:00114fa0       ??_GRTreeTriangleMesh@Gu@physx@@UEAAPEAXI@Z 0000000180115fa0 f i GuTriangleMeshRTree.obj
 0001:00114fa0       ??_ERTreeTriangleMesh@Gu@physx@@UEAAPEAXI@Z 0000000180115fa0 f i GuTriangleMeshRTree.obj
 0001:00115050       ?createObject@RTreeTriangleMesh@Gu@physx@@SAPEAVTriangleMesh@23@AEAPEAEAEAVPxDeserializationContext@3@@Z 0000000180116050 f   GuTriangleMeshRTree.obj
 0001:001150f0       ?exportExtraData@RTreeTriangleMesh@Gu@physx@@UEAAXAEAVPxSerializationContext@3@@Z 00000001801160f0 f   GuTriangleMeshRTree.obj
 0001:00115130       ?getConcreteTypeName@RTreeTriangleMesh@Gu@physx@@UEBAPEBDXZ 0000000180116130 f i GuTriangleMeshRTree.obj
 0001:00115140       ?recomputeBounds@?$RefitCallback@G@physx@@UEAAXIAEAT__m128@@0@Z 0000000180116140 f i GuTriangleMeshRTree.obj
 0001:00115470       ?recomputeBounds@?$RefitCallback@I@physx@@UEAAXIAEAT__m128@@0@Z 0000000180116470 f i GuTriangleMeshRTree.obj
 0001:00115790       ?refitBVH@RTreeTriangleMesh@Gu@physx@@UEAA?AVPxBounds3@3@XZ 0000000180116790 f   GuTriangleMeshRTree.obj
 0001:001158b0       ??0BV32Tree@Gu@physx@@QEAA@XZ 00000001801168b0 f   GuBV32.obj
 0001:001158e0       ??1BV32Tree@Gu@physx@@QEAA@XZ 00000001801168e0 f   GuBV32.obj
 0001:001158f0       ?calculateLeafNode@BV32Tree@Gu@physx@@QEAAXAEAUBV32Data@23@@Z 00000001801168f0 f   GuBV32.obj
 0001:00115b30       ?createSOAformatNode@BV32Tree@Gu@physx@@QEAAXAEAUBV32DataPacked@23@AEBUBV32Data@23@IAEAI2@Z 0000000180116b30 f   GuBV32.obj
 0001:00115f90       ?load@BV32Tree@Gu@physx@@QEAA_NAEAVPxInputStream@3@_N@Z 0000000180116f90 f   GuBV32.obj
 0001:001162d0       ?release@BV32Tree@Gu@physx@@QEAAXXZ 00000001801172d0 f   GuBV32.obj
 0001:00116390       ??0BV32Node@@QEAA@XZ       0000000180117390 f i GuBV32Build.obj
 0001:00116810       ?BuildBV32Ex@Gu@physx@@YA_NAEAVBV32Tree@12@AEAVSourceMeshBase@12@MI@Z 0000000180117810 f   GuBV32Build.obj
 0001:001177b0       ??0BVTetrahedronMesh@Gu@physx@@QEAA@AEAVTetrahedronMeshData@12@AEAVSoftBodyCollisionData@12@PEAVMeshFactory@12@@Z 00000001801187b0 f   GuTetrahedronMesh.obj
 0001:00117a10       ??0SoftBodyMesh@Gu@physx@@QEAA@PEAVMeshFactory@12@AEAVSoftBodyMeshData@12@@Z 0000000180118a10 f   GuTetrahedronMesh.obj
 0001:00117de0       ??0TetrahedronMesh@Gu@physx@@QEAA@PEAVMeshFactory@12@AEAVTetrahedronMeshData@12@@Z 0000000180118de0 f   GuTetrahedronMesh.obj
 0001:00117ed0       ??1SoftBodyAuxData@Gu@physx@@UEAA@XZ 0000000180118ed0 f   GuTetrahedronMesh.obj
 0001:00118130       ??1TetrahedronMesh@Gu@physx@@UEAA@XZ 0000000180119130 f   GuTetrahedronMesh.obj
 0001:001181d0       ??_GBVTetrahedronMesh@Gu@physx@@UEAAPEAXI@Z 00000001801191d0 f i GuTetrahedronMesh.obj
 0001:001181d0       ??_EBVTetrahedronMesh@Gu@physx@@UEAAPEAXI@Z 00000001801191d0 f i GuTetrahedronMesh.obj
 0001:00118350       ??_ESoftBodyAuxData@Gu@physx@@UEAAPEAXI@Z 0000000180119350 f i GuTetrahedronMesh.obj
 0001:00118350       ??_GSoftBodyAuxData@Gu@physx@@UEAAPEAXI@Z 0000000180119350 f i GuTetrahedronMesh.obj
 0001:001183c0       ??_GSoftBodyMesh@Gu@physx@@UEAAPEAXI@Z 00000001801193c0 f i GuTetrahedronMesh.obj
 0001:001183c0       ??_ESoftBodyMesh@Gu@physx@@UEAAPEAXI@Z 00000001801193c0 f i GuTetrahedronMesh.obj
 0001:00118490       ??_GTetrahedronMesh@Gu@physx@@UEAAPEAXI@Z 0000000180119490 f i GuTetrahedronMesh.obj
 0001:00118490       ??_ETetrahedronMesh@Gu@physx@@UEAAPEAXI@Z 0000000180119490 f i GuTetrahedronMesh.obj
 0001:00118500       ?exportExtraData@SoftBodyMesh@Gu@physx@@UEAAXAEAVPxSerializationContext@3@@Z 0000000180119500 f   GuTetrahedronMesh.obj
 0001:001185f0       ?getConcreteTypeName@SoftBodyAuxData@Gu@physx@@UEBAPEBDXZ 00000001801195f0 f i GuTetrahedronMesh.obj
 0001:00118600       ?getConcreteTypeName@SoftBodyMesh@Gu@physx@@UEBAPEBDXZ 0000000180119600 f i GuTetrahedronMesh.obj
 0001:00118610       ?getConcreteTypeName@TetrahedronMesh@Gu@physx@@UEBAPEBDXZ 0000000180119610 f i GuTetrahedronMesh.obj
 0001:00118620       ?getLocalBounds@TetrahedronMesh@Gu@physx@@UEBA?AVPxBounds3@3@XZ 0000000180119620 f i GuTetrahedronMesh.obj
 0001:001186b0       ?getNbTetrahedrons@TetrahedronMesh@Gu@physx@@UEBAIXZ 00000001801196b0 f i GuTetrahedronMesh.obj
 0001:001186c0       ?getBounds@BVH@Gu@physx@@UEBAPEBVPxBounds3@3@XZ 00000001801196c0 f i GuBVH.obj
 0001:001186c0       ?getTetrahedraRemap@BVTetrahedronMesh@Gu@physx@@UEBAPEBIXZ 00000001801196c0 f i GuTetrahedronMesh.obj
 0001:001186d0       ?getTetrahedronMeshFlags@TetrahedronMesh@Gu@physx@@UEBA?AV?$PxFlags@W4Enum@PxTetrahedronMeshFlag@physx@@E@3@XZ 00000001801196d0 f i GuTetrahedronMesh.obj
 0001:001186e0       ?getTetrahedrons@TetrahedronMesh@Gu@physx@@UEBAPEBXXZ 00000001801196e0 f i GuTetrahedronMesh.obj
 0001:001186f0       ?isKindOf@PxSoftBodyAuxData@physx@@MEBA_NPEBD@Z 00000001801196f0 f i GuTetrahedronMesh.obj
 0001:00118760       ?isKindOf@PxSoftBodyMesh@physx@@MEBA_NPEBD@Z 0000000180119760 f i GuTetrahedronMesh.obj
 0001:001187d0       ?isKindOf@PxTetrahedronMesh@physx@@MEBA_NPEBD@Z 00000001801197d0 f i GuTetrahedronMesh.obj
 0001:00118840       ?release@SimulationTetrahedronMeshData@Gu@physx@@UEAAXXZ 0000000180119840 f i GuCookingTetrahedronMesh.obj
 0001:00118840       ?onRefCountZero@SoftBodyAuxData@Gu@physx@@UEAAXXZ 0000000180119840 f i GuTetrahedronMesh.obj
 0001:00118860       ?onRefCountZero@SoftBodyMesh@Gu@physx@@UEAAXXZ 0000000180119860 f   GuTetrahedronMesh.obj
 0001:00118900       ?onRefCountZero@TetrahedronMesh@Gu@physx@@UEAAXXZ 0000000180119900 f   GuTetrahedronMesh.obj
 0001:0011af50       ?pcmContactBoxBox@Gu@physx@@YA_NAEBVPxGeometry@2@0AEBV?$PxTransformT@M@2@1AEBUNarrowPhaseParams@12@AEAUCache@12@AEAVPxContactBuffer@2@PEAVPxRenderOutput@2@@Z 000000018011bf50 f   GuPCMContactBoxBox.obj
 0001:0011be00       ??$gjkPenetration@U?$RelativeConvex@VBoxV@Gu@physx@@@Gu@physx@@U?$LocalConvex@VConvexHullNoScaleV@Gu@physx@@@23@@Gu@physx@@YA?AW4GjkStatus@01@AEBU?$RelativeConvex@VBoxV@Gu@physx@@@01@AEBU?$LocalConvex@VConvexHullNoScaleV@Gu@physx@@@01@AEBT__m128@@2_NPEIAE4AEAEAEAUGjkOutput@01@@Z 000000018011ce00 f i GuPCMContactBoxConvex.obj
 0001:0011be70       ??$gjkPenetration@U?$RelativeConvex@VBoxV@Gu@physx@@@Gu@physx@@U?$LocalConvex@VConvexHullNoScaleV@Gu@physx@@@23@@Gu@physx@@YA?AW4GjkStatus@01@AEBU?$RelativeConvex@VBoxV@Gu@physx@@@01@AEBU?$LocalConvex@VConvexHullNoScaleV@Gu@physx@@@01@AEBT__m128@@2_NPEIAE4PEIAT5@5AEAEAEAUGjkOutput@01@@Z 000000018011ce70 f i GuPCMContactBoxConvex.obj
 0001:0011da40       ?pcmContactBoxConvex@Gu@physx@@YA_NAEBVPxGeometry@2@0AEBV?$PxTransformT@M@2@1AEBUNarrowPhaseParams@12@AEAUCache@12@AEAVPxContactBuffer@2@PEAVPxRenderOutput@2@@Z 000000018011ea40 f   GuPCMContactBoxConvex.obj
 0001:0011e8a0       ?support@?$LocalConvex@VConvexHullNoScaleV@Gu@physx@@@Gu@physx@@UEBA?AT__m128@@AEBT4@@Z 000000018011f8a0 f i GuPCMContactBoxConvex.obj
 0001:0011e8f0       ?support@?$LocalConvex@VConvexHullNoScaleV@Gu@physx@@@Gu@physx@@UEBA?AT__m128@@AEBT4@AEAH@Z 000000018011f8f0 f i GuPCMContactBoxConvex.obj
 0001:0011e950       ?supportPoint@?$LocalConvex@VConvexHullNoScaleV@Gu@physx@@@Gu@physx@@UEBA?AT__m128@@H@Z 000000018011f950 f i GuPCMContactBoxConvex.obj
 0001:0011e980       ?pcmContactCapsuleBox@Gu@physx@@YA_NAEBVPxGeometry@2@0AEBV?$PxTransformT@M@2@1AEBUNarrowPhaseParams@12@AEAUCache@12@AEAVPxContactBuffer@2@PEAVPxRenderOutput@2@@Z 000000018011f980 f   GuPCMContactCapsuleBox.obj
 0001:0011f8e0       ?pcmContactCapsuleCapsule@Gu@physx@@YA_NAEBVPxGeometry@2@0AEBV?$PxTransformT@M@2@1AEBUNarrowPhaseParams@12@AEAUCache@12@AEAVPxContactBuffer@2@PEAVPxRenderOutput@2@@Z 00000001801208e0 f   GuPCMContactCapsuleCapsule.obj
 0001:00120170       ??$gjkPenetration@U?$LocalConvex@VCapsuleV@Gu@physx@@@Gu@physx@@U?$LocalConvex@VConvexHullNoScaleV@Gu@physx@@@23@@Gu@physx@@YA?AW4GjkStatus@01@AEBU?$LocalConvex@VCapsuleV@Gu@physx@@@01@AEBU?$LocalConvex@VConvexHullNoScaleV@Gu@physx@@@01@AEBT__m128@@2_NPEIAE4AEAEAEAUGjkOutput@01@@Z 0000000180121170 f i GuPCMContactCapsuleConvex.obj
 0001:001201e0       ??$gjkPenetration@U?$LocalConvex@VCapsuleV@Gu@physx@@@Gu@physx@@U?$LocalConvex@VConvexHullNoScaleV@Gu@physx@@@23@@Gu@physx@@YA?AW4GjkStatus@01@AEBU?$LocalConvex@VCapsuleV@Gu@physx@@@01@AEBU?$LocalConvex@VConvexHullNoScaleV@Gu@physx@@@01@AEBT__m128@@2_NPEIAE4PEIAT5@5AEAEAEAUGjkOutput@01@@Z 00000001801211e0 f i GuPCMContactCapsuleConvex.obj
 0001:001218b0       ?pcmContactCapsuleConvex@Gu@physx@@YA_NAEBVPxGeometry@2@0AEBV?$PxTransformT@M@2@1AEBUNarrowPhaseParams@12@AEAUCache@12@AEAVPxContactBuffer@2@PEAVPxRenderOutput@2@@Z 00000001801228b0 f   GuPCMContactCapsuleConvex.obj
 0001:00122aa0       ??_EPCMCapsuleVsHeightfieldContactGenerationCallback@@UEAAPEAXI@Z 0000000180123aa0 f i GuPCMContactCapsuleHeightField.obj
 0001:00122aa0       ??_GPCMCapsuleVsHeightfieldContactGenerationCallback@@UEAAPEAXI@Z 0000000180123aa0 f i GuPCMContactCapsuleHeightField.obj
 0001:00122aa0       ??_GPCMConvexVsHeightfieldContactGenerationCallback@physx@@UEAAPEAXI@Z 0000000180123aa0 f i GuPCMContactConvexHeightField.obj
 0001:00122aa0       ??_EPCMConvexVsHeightfieldContactGenerationCallback@physx@@UEAAPEAXI@Z 0000000180123aa0 f i GuPCMContactConvexHeightField.obj
 0001:00122ad0       ?pcmContactCapsuleHeightField@Gu@physx@@YA_NAEBVPxGeometry@2@0AEBV?$PxTransformT@M@2@1AEBUNarrowPhaseParams@12@AEAUCache@12@AEAVPxContactBuffer@2@PEAVPxRenderOutput@2@@Z 0000000180123ad0 f   GuPCMContactCapsuleHeightField.obj
 0001:001239c0       ?reportTouchedTris@?$PCMHeightfieldContactGenerationCallback@UPCMCapsuleVsHeightfieldContactGenerationCallback@@@Gu@physx@@UEAA_NIPEBI@Z 00000001801249c0 f i GuPCMContactCapsuleHeightField.obj
 0001:00124040       ?generateContacts@PCMCapsuleVsMeshContactGeneration@Gu@physx@@SAXAEBT__m128@@0000I000PEAVMeshPersistentContact@23@AEAI@Z 0000000180125040 f   GuPCMContactCapsuleMesh.obj
 0001:001244b0       ?generateEE@PCMCapsuleVsMeshContactGeneration@Gu@physx@@QEAAXAEBT__m128@@000I00PEAVMeshPersistentContact@23@AEAI@Z 00000001801254b0 f   GuPCMContactCapsuleMesh.obj
 0001:00124720       ?generateEEMTD@PCMCapsuleVsMeshContactGeneration@Gu@physx@@SAXAEBT__m128@@000I00PEAVMeshPersistentContact@23@AEAI@Z 0000000180125720 f   GuPCMContactCapsuleMesh.obj
 0001:00124950       ?pcmContactCapsuleMesh@Gu@physx@@YA_NAEBVPxGeometry@2@0AEBV?$PxTransformT@M@2@1AEBUNarrowPhaseParams@12@AEAUCache@12@AEAVPxContactBuffer@2@PEAVPxRenderOutput@2@@Z 0000000180125950 f   GuPCMContactCapsuleMesh.obj
 0001:001265b0       ?processTriangle@PCMCapsuleVsMeshContactGeneration@Gu@physx@@QEAA_NPEBV?$PxVec3T@M@3@IEPEBI@Z 00000001801275b0 f   GuPCMContactCapsuleMesh.obj
 0001:00127160       ?processTriangle@PCMCapsuleVsMeshContactGeneration@Gu@physx@@SA_NAEBVTriangleV@23@IAEBVCapsuleV@23@AEBT__m128@@EPEAVMeshPersistentContact@23@AEAI@Z 0000000180128160 f   GuPCMContactCapsuleMesh.obj
 0001:00127490       ?addContactsToPatch@PCMConvexVsMeshContactGeneration@Gu@physx@@QEAAXAEBT__m128@@I@Z 0000000180128490 f   GuPCMContactConvexCommon.obj
 0001:00127db0       ?doSupport@?$SupportLocalImpl@VTriangleV@Gu@physx@@@Gu@physx@@UEBA?AT__m128@@AEBT4@@Z 0000000180128db0 f i GuPCMContactConvexCommon.obj
 0001:00127e40       ?doSupport@?$SupportLocalImpl@VTriangleV@Gu@physx@@@Gu@physx@@UEBAXAEBT__m128@@AEAT4@1@Z 0000000180128e40 f i GuPCMContactConvexCommon.obj
 0001:00127eb0       ?generateLastContacts@PCMConvexVsMeshContactGeneration@Gu@physx@@QEAAXXZ 0000000180128eb0 f   GuPCMContactConvexCommon.obj
 0001:001283f0       ?populateVerts@?$SupportLocalImpl@VTriangleV@Gu@physx@@@Gu@physx@@UEBAXPEBEIPEBV?$PxVec3T@M@3@PEAT__m128@@@Z 00000001801293f0 f i GuPCMContactConvexCommon.obj
 0001:00128530       ?processTriangle@PCMConvexVsMeshContactGeneration@Gu@physx@@QEAA_NPEBV?$PxVec3T@M@3@IEPEBI@Z 0000000180129530 f   GuPCMContactConvexCommon.obj
 0001:00128aa0       ?processTriangle@PCMConvexVsMeshContactGeneration@Gu@physx@@SA_NAEBUPolygonalData@23@PEAVSupportLocal@23@PEBV?$PxVec3T@M@3@IEAEBT__m128@@_NAEBVPxTransformV@aos@3@AEBVPxMatTransformV@93@PEAVMeshPersistentContact@23@AEAI@Z 0000000180129aa0 f   GuPCMContactConvexCommon.obj
 0001:00128d20       ??$gjkPenetration@U?$RelativeConvex@VConvexHullNoScaleV@Gu@physx@@@Gu@physx@@U?$LocalConvex@VConvexHullNoScaleV@Gu@physx@@@23@@Gu@physx@@YA?AW4GjkStatus@01@AEBU?$RelativeConvex@VConvexHullNoScaleV@Gu@physx@@@01@AEBU?$LocalConvex@VConvexHullNoScaleV@Gu@physx@@@01@AEBT__m128@@2_NPEIAE4AEAEAEAUGjkOutput@01@@Z 0000000180129d20 f i GuPCMContactConvexConvex.obj
 0001:00128d90       ??$gjkPenetration@U?$RelativeConvex@VConvexHullNoScaleV@Gu@physx@@@Gu@physx@@U?$LocalConvex@VConvexHullNoScaleV@Gu@physx@@@23@@Gu@physx@@YA?AW4GjkStatus@01@AEBU?$RelativeConvex@VConvexHullNoScaleV@Gu@physx@@@01@AEBU?$LocalConvex@VConvexHullNoScaleV@Gu@physx@@@01@AEBT__m128@@2_NPEIAE4PEIAT5@5AEAEAEAUGjkOutput@01@@Z 0000000180129d90 f i GuPCMContactConvexConvex.obj
 0001:0012a290       ??$gjkPenetration@U?$RelativeConvex@VConvexHullNoScaleV@Gu@physx@@@Gu@physx@@U?$LocalConvex@VConvexHullV@Gu@physx@@@23@@Gu@physx@@YA?AW4GjkStatus@01@AEBU?$RelativeConvex@VConvexHullNoScaleV@Gu@physx@@@01@AEBU?$LocalConvex@VConvexHullV@Gu@physx@@@01@AEBT__m128@@2_NPEIAE4AEAEAEAUGjkOutput@01@@Z 000000018012b290 f i GuPCMContactConvexConvex.obj
 0001:0012a300       ??$gjkPenetration@U?$RelativeConvex@VConvexHullNoScaleV@Gu@physx@@@Gu@physx@@U?$LocalConvex@VConvexHullV@Gu@physx@@@23@@Gu@physx@@YA?AW4GjkStatus@01@AEBU?$RelativeConvex@VConvexHullNoScaleV@Gu@physx@@@01@AEBU?$LocalConvex@VConvexHullV@Gu@physx@@@01@AEBT__m128@@2_NPEIAE4PEIAT5@5AEAEAEAUGjkOutput@01@@Z 000000018012b300 f i GuPCMContactConvexConvex.obj
 0001:0012b890       ??$gjkPenetration@U?$RelativeConvex@VConvexHullV@Gu@physx@@@Gu@physx@@U?$LocalConvex@VConvexHullNoScaleV@Gu@physx@@@23@@Gu@physx@@YA?AW4GjkStatus@01@AEBU?$RelativeConvex@VConvexHullV@Gu@physx@@@01@AEBU?$LocalConvex@VConvexHullNoScaleV@Gu@physx@@@01@AEBT__m128@@2_NPEIAE4AEAEAEAUGjkOutput@01@@Z 000000018012c890 f i GuPCMContactConvexConvex.obj
 0001:0012b900       ??$gjkPenetration@U?$RelativeConvex@VConvexHullV@Gu@physx@@@Gu@physx@@U?$LocalConvex@VConvexHullNoScaleV@Gu@physx@@@23@@Gu@physx@@YA?AW4GjkStatus@01@AEBU?$RelativeConvex@VConvexHullV@Gu@physx@@@01@AEBU?$LocalConvex@VConvexHullNoScaleV@Gu@physx@@@01@AEBT__m128@@2_NPEIAE4PEIAT5@5AEAEAEAUGjkOutput@01@@Z 000000018012c900 f i GuPCMContactConvexConvex.obj
 0001:0012d8f0       ?pcmContactConvexConvex@Gu@physx@@YA_NAEBVPxGeometry@2@0AEBV?$PxTransformT@M@2@1AEBUNarrowPhaseParams@12@AEAUCache@12@AEAVPxContactBuffer@2@PEAVPxRenderOutput@2@@Z 000000018012e8f0 f   GuPCMContactConvexConvex.obj
 0001:0012ea00       ?support@?$RelativeConvex@VConvexHullNoScaleV@Gu@physx@@@Gu@physx@@UEBA?AT__m128@@AEBT4@@Z 000000018012fa00 f i GuPCMContactConvexConvex.obj
 0001:0012eab0       ?support@?$RelativeConvex@VConvexHullNoScaleV@Gu@physx@@@Gu@physx@@UEBA?AT__m128@@AEBT4@AEAH@Z 000000018012fab0 f i GuPCMContactConvexConvex.obj
 0001:0012eb70       ?supportPoint@?$RelativeConvex@VConvexHullNoScaleV@Gu@physx@@@Gu@physx@@UEBA?AT__m128@@H@Z 000000018012fb70 f i GuPCMContactConvexConvex.obj
 0001:0012ebd0       ?PCMContactConvexHeightfield@Gu@physx@@YA_NAEBUPolygonalData@12@PEAVSupportLocal@12@AEBT__m128@@AEBVPxBounds3@2@AEBVPxHeightFieldGeometry@2@AEBV?$PxTransformT@M@2@5MAEAVPxContactBuffer@2@AEBVFastVertex2ShapeScaling@Cm@2@_NAEAVMultiplePersistentContactManifold@12@PEAVPxRenderOutput@2@@Z 000000018012fbd0 f   GuPCMContactConvexHeightField.obj
 0001:0012fa20       ?pcmContactBoxHeightField@Gu@physx@@YA_NAEBVPxGeometry@2@0AEBV?$PxTransformT@M@2@1AEBUNarrowPhaseParams@12@AEAUCache@12@AEAVPxContactBuffer@2@PEAVPxRenderOutput@2@@Z 0000000180130a20 f   GuPCMContactConvexHeightField.obj
 0001:0012fcc0       ?pcmContactConvexHeightField@Gu@physx@@YA_NAEBVPxGeometry@2@0AEBV?$PxTransformT@M@2@1AEBUNarrowPhaseParams@12@AEAUCache@12@AEAVPxContactBuffer@2@PEAVPxRenderOutput@2@@Z 0000000180130cc0 f   GuPCMContactConvexHeightField.obj
 0001:00130380       ?reportTouchedTris@?$PCMHeightfieldContactGenerationCallback@UPCMConvexVsHeightfieldContactGenerationCallback@physx@@@Gu@physx@@UEAA_NIPEBI@Z 0000000180131380 f i GuPCMContactConvexHeightField.obj
 0001:00130940       ??$processTriangleCache@$0BA@@PCMConvexVsMeshContactGenerationCallback@physx@@QEAAXAEAU?$TriangleCache@$0BA@@Gu@1@@Z 0000000180131940 f i GuPCMContactConvexMesh.obj
 0001:001309d0       ??_GPCMConvexVsMeshContactGenerationCallback@physx@@UEAAPEAXI@Z 00000001801319d0 f i GuPCMContactConvexMesh.obj
 0001:001309d0       ??_EPCMConvexVsMeshContactGenerationCallback@physx@@UEAAPEAXI@Z 00000001801319d0 f i GuPCMContactConvexMesh.obj
 0001:00130a00       ?PCMContactConvexMesh@Gu@physx@@YA_NAEBUPolygonalData@12@PEAVSupportLocal@12@AEBT__m128@@AEBVPxBounds3@2@AEBVPxTriangleMeshGeometry@2@AEBV?$PxTransformT@M@2@5MAEAVPxContactBuffer@2@AEBVFastVertex2ShapeScaling@Cm@2@7_N8AEAVMultiplePersistentContactManifold@12@PEAVPxRenderOutput@2@@Z 0000000180131a00 f   GuPCMContactConvexMesh.obj
 0001:001314c0       ?pcmContactBoxMesh@Gu@physx@@YA_NAEBVPxGeometry@2@0AEBV?$PxTransformT@M@2@1AEBUNarrowPhaseParams@12@AEAUCache@12@AEAVPxContactBuffer@2@PEAVPxRenderOutput@2@@Z 00000001801324c0 f   GuPCMContactConvexMesh.obj
 0001:00131810       ?pcmContactConvexMesh@Gu@physx@@YA_NAEBVPxGeometry@2@0AEBV?$PxTransformT@M@2@1AEBUNarrowPhaseParams@12@AEAUCache@12@AEAVPxContactBuffer@2@PEAVPxRenderOutput@2@@Z 0000000180132810 f   GuPCMContactConvexMesh.obj
 0001:00131fe0       ?processHit@?$PCMMeshContactGenerationCallback@UPCMConvexVsMeshContactGenerationCallback@physx@@@Gu@physx@@UEAA_NAEBUPxGeomRaycastHit@3@AEBV?$PxVec3T@M@3@11AEAMPEBI@Z 0000000180132fe0 f i GuPCMContactConvexMesh.obj
 0001:001324b0       ?addGJKEPAContacts@Gu@physx@@YA_NPEBUGjkConvex@12@0AEBVPxMatTransformV@aos@2@W4GjkStatus@12@PEAVPersistentContact@12@T__m128@@4AEAUGjkOutput@12@AEAVPersistentContactManifold@12@@Z 00000001801334b0 f   GuPCMContactGenBoxConvex.obj
 0001:001326b0       ?buildPartialHull@Gu@physx@@YAXAEBUPolygonalData@12@PEAVSupportLocal@12@AEAVSeparatingAxes@12@AEBT__m128@@3@Z 00000001801336b0 f   GuPCMContactGenBoxConvex.obj
 0001:00132960       ?computeMTD@Gu@physx@@YA_NAEAUPolygonalData@12@0PEAVSupportLocal@12@1AEAT__m128@@2@Z 0000000180133960 f   GuPCMContactGenBoxConvex.obj
 0001:00132f80       ?generateFullContactManifold@Gu@physx@@YA_NAEAUPolygonalData@12@0PEAVSupportLocal@12@1PEAVPersistentContact@12@AEAIAEBT__m128@@444MM_NPEAVPxRenderOutput@2@M@Z 0000000180133f80 f   GuPCMContactGenBoxConvex.obj
 0001:00133a80       ?generatedContacts@Gu@physx@@YAXAEAUPolygonalData@12@0AEBUHullPolygonData@12@1PEAVSupportLocal@12@2AEBVPxMatTransformV@aos@2@PEAVPersistentContact@12@AEAIAEBT__m128@@PEAVPxRenderOutput@2@@Z 0000000180134a80 f   GuPCMContactGenBoxConvex.obj
 0001:00134ec0       ?computeMTD@Gu@physx@@YA_NAEBVCapsuleV@12@AEAUPolygonalData@12@PEAVSupportLocal@12@AEAT__m128@@3@Z 0000000180135ec0 f   GuPCMContactGenSphereCapsule.obj
 0001:00134fb0       ?generateCapsuleBoxFullContactManifold@Gu@physx@@YA_NAEBVCapsuleV@12@AEAUPolygonalData@12@PEAVSupportLocal@12@AEBVPxMatTransformV@aos@2@PEAVPersistentContact@12@AEAIAEBT__m128@@AEAT9@6M_NMPEAVPxRenderOutput@2@@Z 0000000180135fb0 f   GuPCMContactGenSphereCapsule.obj
 0001:00135150       ?generateFullContactManifold@Gu@physx@@YA_NAEBVCapsuleV@12@AEAUPolygonalData@12@PEAVSupportLocal@12@AEBVPxMatTransformV@aos@2@PEAVPersistentContact@12@AEAIAEBT__m128@@AEAT9@6M_NM@Z 0000000180136150 f   GuPCMContactGenSphereCapsule.obj
 0001:00135340       ?generateSphereFullContactManifold@Gu@physx@@YA_NAEBVCapsuleV@12@AEAUPolygonalData@12@PEAVSupportLocal@12@PEAVPersistentContact@12@AEAIAEBT__m128@@AEAT7@_N@Z 0000000180136340 f   GuPCMContactGenSphereCapsule.obj
 0001:001367f0       ?pcmContactPlaneBox@Gu@physx@@YA_NAEBVPxGeometry@2@0AEBV?$PxTransformT@M@2@1AEBUNarrowPhaseParams@12@AEAUCache@12@AEAVPxContactBuffer@2@PEAVPxRenderOutput@2@@Z 00000001801377f0 f   GuPCMContactPlaneBox.obj
 0001:00137390       ?pcmContactPlaneCapsule@Gu@physx@@YA_NAEBVPxGeometry@2@0AEBV?$PxTransformT@M@2@1AEBUNarrowPhaseParams@12@AEAUCache@12@AEAVPxContactBuffer@2@PEAVPxRenderOutput@2@@Z 0000000180138390 f   GuPCMContactPlaneCapsule.obj
 0001:00137b10       ?pcmContactPlaneConvex@Gu@physx@@YA_NAEBVPxGeometry@2@0AEBV?$PxTransformT@M@2@1AEBUNarrowPhaseParams@12@AEAUCache@12@AEAVPxContactBuffer@2@PEAVPxRenderOutput@2@@Z 0000000180138b10 f   GuPCMContactPlaneConvex.obj
 0001:00138750       ?pcmContactSphereBox@Gu@physx@@YA_NAEBVPxGeometry@2@0AEBV?$PxTransformT@M@2@1AEBUNarrowPhaseParams@12@AEAUCache@12@AEAVPxContactBuffer@2@PEAVPxRenderOutput@2@@Z 0000000180139750 f   GuPCMContactSphereBox.obj
 0001:00138bb0       ?pcmContactSphereCapsule@Gu@physx@@YA_NAEBVPxGeometry@2@0AEBV?$PxTransformT@M@2@1AEBUNarrowPhaseParams@12@AEAUCache@12@AEAVPxContactBuffer@2@PEAVPxRenderOutput@2@@Z 0000000180139bb0 f   GuPCMContactSphereCapsule.obj
 0001:00139030       ?pcmContactSphereConvex@Gu@physx@@YA_NAEBVPxGeometry@2@0AEBV?$PxTransformT@M@2@1AEBUNarrowPhaseParams@12@AEAUCache@12@AEAVPxContactBuffer@2@PEAVPxRenderOutput@2@@Z 000000018013a030 f   GuPCMContactSphereConvex.obj
 0001:00139d00       ??1?$PxArray@USortedTriangle@Gu@physx@@V?$PxInlineAllocator@$0IAA@V?$PxReflectionAllocator@USortedTriangle@Gu@physx@@@physx@@@3@@physx@@QEAA@XZ 000000018013ad00 f i GuPCMContactSphereHeightField.obj
 0001:00139d70       ??_GPCMSphereVsHeightfieldContactGenerationCallback@physx@@UEAAPEAXI@Z 000000018013ad70 f i GuPCMContactSphereHeightField.obj
 0001:00139d70       ??_EPCMSphereVsHeightfieldContactGenerationCallback@physx@@UEAAPEAXI@Z 000000018013ad70 f i GuPCMContactSphereHeightField.obj
 0001:00139dc0       ?pcmContactSphereHeightField@Gu@physx@@YA_NAEBVPxGeometry@2@0AEBV?$PxTransformT@M@2@1AEBUNarrowPhaseParams@12@AEAUCache@12@AEAVPxContactBuffer@2@PEAVPxRenderOutput@2@@Z 000000018013adc0 f   GuPCMContactSphereHeightField.obj
 0001:0013a850       ?reportTouchedTris@?$PCMHeightfieldContactGenerationCallback@UPCMSphereVsHeightfieldContactGenerationCallback@physx@@@Gu@physx@@UEAA_NIPEBI@Z 000000018013b850 f i GuPCMContactSphereHeightField.obj
 0001:0013ae10       ??$PxSort@USortedTriangle@Gu@physx@@U?$PxLess@USortedTriangle@Gu@physx@@@3@V?$PxReflectionAllocator@USortedTriangle@Gu@physx@@@3@@physx@@YAXPEAUSortedTriangle@Gu@0@IAEBU?$PxLess@USortedTriangle@Gu@physx@@@0@AEBV?$PxReflectionAllocator@USortedTriangle@Gu@physx@@@0@I@Z 000000018013be10 f i GuPCMContactSphereMesh.obj
 0001:0013b340       ??$processTriangleCache@$0BA@VPCMSphereVsMeshContactGeneration@Gu@physx@@@PCMMeshContactGeneration@Gu@physx@@QEAA_NAEAU?$TriangleCache@$0BA@@12@@Z 000000018013c340 f i GuPCMContactSphereMesh.obj
 0001:0013b960       ?addToPatch@PCMSphereVsMeshContactGeneration@Gu@physx@@QEAAXAEBT__m128@@0T4@I@Z 000000018013c960 f   GuPCMContactSphereMesh.obj
 0001:0013c000       ?allocate@?$PxArray@IV?$PxInlineAllocator@$0PAA@V?$PxReflectionAllocator@I@physx@@@physx@@@physx@@IEAAPEAII@Z 000000018013d000 f i GuPCMContactSphereMesh.obj
 0001:0013c0c0       ?allocate@?$PxArray@USortedTriangle@Gu@physx@@V?$PxInlineAllocator@$0IAA@V?$PxReflectionAllocator@USortedTriangle@Gu@physx@@@physx@@@3@@physx@@IEAAPEAUSortedTriangle@Gu@2@I@Z 000000018013d0c0 f i GuPCMContactSphereMesh.obj
 0001:0013c180       ?generateLastContacts@PCMSphereVsMeshContactGeneration@Gu@physx@@QEAAXXZ 000000018013d180 f   GuPCMContactSphereMesh.obj
 0001:0013c7c0       ?growAndPushBack@?$PxArray@USortedTriangle@Gu@physx@@V?$PxInlineAllocator@$0IAA@V?$PxReflectionAllocator@USortedTriangle@Gu@physx@@@physx@@@3@@physx@@IEAAAEAUSortedTriangle@Gu@2@AEBU342@@Z 000000018013d7c0 f i GuPCMContactSphereMesh.obj
 0001:0013c8d0       ?pcmContactSphereMesh@Gu@physx@@YA_NAEBVPxGeometry@2@0AEBV?$PxTransformT@M@2@1AEBUNarrowPhaseParams@12@AEAUCache@12@AEAVPxContactBuffer@2@PEAVPxRenderOutput@2@@Z 000000018013d8d0 f   GuPCMContactSphereMesh.obj
 0001:0013e370       ?processTriangle@PCMSphereVsMeshContactGeneration@Gu@physx@@QEAA_NPEBV?$PxVec3T@M@3@IEPEBI@Z 000000018013f370 f   GuPCMContactSphereMesh.obj
 0001:0013e770       ?recreate@?$PxArray@IV?$PxInlineAllocator@$0PAA@V?$PxReflectionAllocator@I@physx@@@physx@@@physx@@IEAAXI@Z 000000018013f770 f i GuPCMContactSphereMesh.obj
 0001:0013e820       ?pcmContactSpherePlane@Gu@physx@@YA_NAEBVPxGeometry@2@0AEBV?$PxTransformT@M@2@1AEBUNarrowPhaseParams@12@AEAUCache@12@AEAVPxContactBuffer@2@PEAVPxRenderOutput@2@@Z 000000018013f820 f   GuPCMContactSpherePlane.obj
 0001:0013e9a0       ?pcmContactSphereSphere@Gu@physx@@YA_NAEBVPxGeometry@2@0AEBV?$PxTransformT@M@2@1AEBUNarrowPhaseParams@12@AEAUCache@12@AEAVPxContactBuffer@2@PEAVPxRenderOutput@2@@Z 000000018013f9a0 f   GuPCMContactSphereSphere.obj
 0001:0013f260       ?pcmContactGeometryCustomGeometry@Gu@physx@@YA_NAEBVPxGeometry@2@0AEBV?$PxTransformT@M@2@1AEBUNarrowPhaseParams@12@AEAUCache@12@AEAVPxContactBuffer@2@PEAVPxRenderOutput@2@@Z 0000000180140260 f   GuPCMContactCustomGeometry.obj
 0001:0013f310       ?getPCMConvexData@Gu@physx@@YAXAEBVConvexHullV@12@_NAEAUPolygonalData@12@@Z 0000000180140310 f   GuPCMShapeConvex.obj
 0001:0013f350       ?getPCMConvexData@Gu@physx@@YA_NAEBVPxConvexMeshGeometry@2@AEAVFastVertex2ShapeScaling@Cm@2@AEAVPxBounds3@2@AEAUPolygonalData@12@@Z 0000000180140350 f   GuPCMShapeConvex.obj
 0001:0013f8a0       ?getPolygonalData@PCMPolygonalBox@Gu@physx@@QEBAXPEIAUPolygonalData@23@@Z 00000001801408a0 f   GuPCMShapeConvex.obj
 0001:0013f920       ?generatePolyDataContactManifold@PCMConvexVsMeshContactGeneration@Gu@physx@@QEAA_NAEAVTriangleV@23@IIEPEAVMeshPersistentContact@23@AEAIAEBT__m128@@AEAT6@@Z 0000000180140920 f   GuPCMTriangleContactGen.obj
 0001:0013fa40       ?generateTriangleFullContactManifold@PCMConvexVsMeshContactGeneration@Gu@physx@@QEAA_NAEAVTriangleV@23@IPEBIEAEBUPolygonalData@23@PEAV?$SupportLocalImpl@VTriangleV@Gu@physx@@@23@PEAVSupportLocal@23@PEAVMeshPersistentContact@23@AEAIAEBT__m128@@AEAT9@@Z 0000000180140a40 f   GuPCMTriangleContactGen.obj
 0001:0013ff80       ?generateTriangleFullContactManifold@PCMConvexVsMeshContactGeneration@Gu@physx@@SA_NAEAVTriangleV@23@IEAEBUPolygonalData@23@PEAV?$SupportLocalImpl@VTriangleV@Gu@physx@@@23@PEAVSupportLocal@23@PEAVMeshPersistentContact@23@AEAIAEBT__m128@@AEAT9@PEAVPxRenderOutput@3@@Z 0000000180140f80 f   GuPCMTriangleContactGen.obj
 0001:00142000       ?addBatchManifoldContacts2@PersistentContactManifold@Gu@physx@@QEAAXPEBVPersistentContact@23@I@Z 0000000180143000 f   GuPersistentContactManifold.obj
 0001:00142070       ?addBatchManifoldContacts@PersistentContactManifold@Gu@physx@@QEAAXPEBVPersistentContact@23@IM@Z 0000000180143070 f   GuPersistentContactManifold.obj
 0001:001420f0       ?addBatchManifoldContactsCluster@PersistentContactManifold@Gu@physx@@QEAAXPEBVPersistentContact@23@I@Z 00000001801430f0 f   GuPersistentContactManifold.obj
 0001:00142370       ?addManifoldContactPoints@MultiplePersistentContactManifold@Gu@physx@@QEAAXPEAVMeshPersistentContact@23@IPEAPEAUPCMContactPatch@23@IAEBT__m128@@2E@Z 0000000180143370 f   GuPersistentContactManifold.obj
 0001:00142780       ?addManifoldContactsToContactBuffer@MultiplePersistentContactManifold@Gu@physx@@QEAA_NAEAVPxContactBuffer@3@AEBVPxTransformV@aos@3@1AEBT__m128@@@Z 0000000180143780 f   GuPersistentContactManifold.obj
 0001:00142a30       ?addManifoldContactsToContactBuffer@MultiplePersistentContactManifold@Gu@physx@@QEAA_NAEAVPxContactBuffer@3@AEBVPxTransformV@aos@3@@Z 0000000180143a30 f   GuPersistentContactManifold.obj
 0001:00142cc0       ?addManifoldContactsToContactBuffer@PersistentContactManifold@Gu@physx@@QEAAXAEAVPxContactBuffer@3@AEBT__m128@@1AEBVPxTransformV@aos@3@11@Z 0000000180143cc0 f   GuPersistentContactManifold.obj
 0001:00142e50       ?addManifoldContactsToContactBuffer@PersistentContactManifold@Gu@physx@@QEAAXAEAVPxContactBuffer@3@AEBT__m128@@AEBVPxMatTransformV@aos@3@@Z 0000000180143e50 f   GuPersistentContactManifold.obj
 0001:00142f00       ?addManifoldContactsToContactBuffer@PersistentContactManifold@Gu@physx@@QEAAXAEAVPxContactBuffer@3@AEBT__m128@@AEBVPxTransformV@aos@3@1@Z 0000000180143f00 f   GuPersistentContactManifold.obj
 0001:00143050       ?addManifoldPoint2@PersistentContactManifold@Gu@physx@@QEAAIAEBT__m128@@000@Z 0000000180144050 f   GuPersistentContactManifold.obj
 0001:00143180       ?addManifoldPoint@Gu@physx@@YAXPEAVPersistentContact@12@AEAVPersistentContactManifold@12@AEAUGjkOutput@12@AEBVPxMatTransformV@aos@2@T__m128@@@Z 0000000180144180 f   GuPersistentContactManifold.obj
 0001:00143330       ?addManifoldPoint@PersistentContactManifold@Gu@physx@@QEAAIAEBT__m128@@000@Z 0000000180144330 f   GuPersistentContactManifold.obj
 0001:00143770       ?drawLine@MultiplePersistentContactManifold@Gu@physx@@SAXAEAVPxRenderOutput@3@AEBT__m128@@1I@Z 0000000180144770 f   GuPersistentContactManifold.obj
 0001:00143820       ?drawLine@MultiplePersistentContactManifold@Gu@physx@@SAXAEAVPxRenderOutput@3@V?$PxVec3T@M@3@1I@Z 0000000180144820 f   GuPersistentContactManifold.obj
 0001:00143890       ?drawManifold@MultiplePersistentContactManifold@Gu@physx@@QEAAXAEAVPxRenderOutput@3@AEBVPxTransformV@aos@3@1@Z 0000000180144890 f   GuPersistentContactManifold.obj
 0001:00143f20       ?drawPoint@MultiplePersistentContactManifold@Gu@physx@@SAXAEAVPxRenderOutput@3@AEBT__m128@@MI@Z 0000000180144f20 f   GuPersistentContactManifold.obj
 0001:00144130       ?drawPolygon@MultiplePersistentContactManifold@Gu@physx@@SAXAEAVPxRenderOutput@3@AEBVPxTransformV@aos@3@PEAT__m128@@II@Z 0000000180145130 f   GuPersistentContactManifold.obj
 0001:00144370       ?findRotationMatrixFromZAxis@Gu@physx@@YA?AUMat33V@aos@2@AEBT__m128@@@Z 0000000180145370 f   GuPersistentContactManifold.obj
 0001:001445f0       ?fromBuffer@MultiplePersistentContactManifold@Gu@physx@@QEAAXPEIAE@Z 00000001801455f0 f   GuPersistentContactManifold.obj
 0001:00144740       ?reduceBatchContacts2@PersistentContactManifold@Gu@physx@@QEAAXPEBVPersistentContact@23@I@Z 0000000180145740 f   GuPersistentContactManifold.obj
 0001:00144940       ?reduceBatchContacts@PersistentContactManifold@Gu@physx@@QEAAXPEBVPersistentContact@23@IM@Z 0000000180145940 f   GuPersistentContactManifold.obj
 0001:00144df0       ?reduceBatchContactsCapsule@SinglePersistentContactManifold@Gu@physx@@QEAA?AT__m128@@PEBVMeshPersistentContact@23@IAEAUPCMContactPatch@23@@Z 0000000180145df0 f   GuPersistentContactManifold.obj
 0001:00145080       ?reduceBatchContactsCluster@PersistentContactManifold@Gu@physx@@QEAAXPEBVPersistentContact@23@I@Z 0000000180146080 f   GuPersistentContactManifold.obj
 0001:00145510       ?reduceBatchContactsConvex@SinglePersistentContactManifold@Gu@physx@@QEAA?AT__m128@@PEBVMeshPersistentContact@23@IAEAUPCMContactPatch@23@@Z 0000000180146510 f   GuPersistentContactManifold.obj
 0001:00145b00       ?reduceContacts@SinglePersistentContactManifold@Gu@physx@@SAIPEAVMeshPersistentContact@23@I@Z 0000000180146b00 f   GuPersistentContactManifold.obj
 0001:00146090       ?reduceContactsForPCM@PersistentContactManifold@Gu@physx@@QEAAIAEBT__m128@@00@Z 0000000180147090 f   GuPersistentContactManifold.obj
 0001:00146630       ?refreshContactPoints@SinglePersistentContactManifold@Gu@physx@@QEAA?AT__m128@@AEBVPxMatTransformV@aos@3@AEBT4@1@Z 0000000180147630 f   GuPersistentContactManifold.obj
 0001:00146780       ?replaceManifoldPoint@PersistentContactManifold@Gu@physx@@QEAA_NAEBT__m128@@000@Z 0000000180147780 f   GuPersistentContactManifold.obj
 0001:00146850       ?contains@Gu@physx@@YA_NPEAT__m128@@IAEBT3@11@Z 0000000180147850 f   GuPCMContactGenUtil.obj
 0001:00146a10       ?getPolygonIndex@Gu@physx@@YAHAEBUPolygonalData@12@PEAVSupportLocal@12@AEBT__m128@@AEAH@Z 0000000180147a10 f   GuPCMContactGenUtil.obj
 0001:00146c50       ?getWitnessPolygonIndex@Gu@physx@@YAIAEBUPolygonalData@12@PEAVSupportLocal@12@AEBT__m128@@2M@Z 0000000180147c50 f   GuPCMContactGenUtil.obj
 0001:00147190       ?sweepBoxBox@Gu@physx@@YA_NAEBVBox@12@0AEBV?$PxVec3T@M@2@MV?$PxFlags@W4Enum@PxHitFlag@physx@@G@2@AEAUPxGeomSweepHit@2@@Z 0000000180148190 f   GuSweepBoxBox.obj
 0001:00148790       ?sweepBoxSphere@Gu@physx@@YA_NAEBVBox@12@MAEBV?$PxVec3T@M@2@1MAEAMAEAV42@V?$PxFlags@W4Enum@PxHitFlag@physx@@G@2@@Z 0000000180149790 f   GuSweepBoxSphere.obj
 0001:001493d0       ?sweepBoxTriangle@Gu@physx@@YA_NAEBVPxTriangle@2@AEBVPxBounds3@2@AEBV?$PxVec3T@M@2@2AEAV52@3AEAM_N@Z 000000018014a3d0 f   GuSweepBoxTriangle_FeatureBased.obj
 0001:0014aa70       ?triBoxSweepTestBoxSpace@Gu@physx@@YAHAEBVPxTriangle@2@AEBV?$PxVec3T@M@2@11MAEAM_N@Z 000000018014ba70 f   GuSweepBoxTriangle_SAT.obj
 0001:0014c380       ?sweepCapsuleBox@Gu@physx@@YA_NAEBVCapsule@12@AEBV?$PxTransformT@M@2@AEBV?$PxVec3T@M@2@2MAEAV52@AEAM3V?$PxFlags@W4Enum@PxHitFlag@physx@@G@2@@Z 000000018014d380 f   GuSweepCapsuleBox.obj
 0001:0014c6d0       ?distancePointSegmentSquared@Gu@physx@@YAMAEBVSegment@12@AEBV?$PxVec3T@M@2@PEAM@Z 000000018014d6d0 f i GuSweepCapsuleCapsule.obj
 0001:0014ca50       ?sweepCapsuleCapsule@Gu@physx@@YA_NAEBVCapsule@12@0AEBV?$PxVec3T@M@2@MAEAMAEAV42@3IAEAG@Z 000000018014da50 f   GuSweepCapsuleCapsule.obj
 0001:0014d820       ?sweepCapsuleTriangles_Precise@Gu@physx@@YA_NIPEIBVPxTriangle@2@AEBVCapsule@12@AEBV?$PxVec3T@M@2@MPEIBIAEAUPxGeomSweepHit@2@AEAV52@V?$PxFlags@W4Enum@PxHitFlag@physx@@G@2@_NPEBVBoxPadded@12@@Z 000000018014e820 f   GuSweepCapsuleTriangle.obj
 0001:0014f940       ?sweepSphereCapsule@Gu@physx@@YA_NAEBVSphere@12@AEBVCapsule@12@AEBV?$PxVec3T@M@2@MAEAMAEAV52@4V?$PxFlags@W4Enum@PxHitFlag@physx@@G@2@@Z 0000000180150940 f   GuSweepSphereCapsule.obj
 0001:0014ffe0       ?sweepSphereSphere@Gu@physx@@YA_NAEBV?$PxVec3T@M@2@M0M0AEAMAEAV32@@Z 0000000180150fe0 f   GuSweepSphereSphere.obj
 0001:00150270       ?sweepSphereTriangles@Gu@physx@@YA_NIPEIBVPxTriangle@2@AEBV?$PxVec3T@M@2@M1MPEIBIAEAUPxGeomSweepHit@2@AEAV42@_N555@Z 0000000180151270 f   GuSweepSphereTriangle.obj
 0001:00150b60       ?sweepSphereVSQuad@Gu@physx@@YA_NPEIBV?$PxVec3T@M@2@AEBV32@1M1AEAM@Z 0000000180151b60 f   GuSweepSphereTriangle.obj
 0001:00151b90       ?sweepSphereVSTri@Gu@physx@@YA_NPEIBV?$PxVec3T@M@2@AEBV32@1M1AEAMAEA_N_N@Z 0000000180152b90 f   GuSweepSphereTriangle.obj
 0001:00152840       ??$gjk@U?$LocalConvex@VTriangleV@Gu@physx@@@Gu@physx@@U?$LocalConvex@VBoxV@Gu@physx@@@23@@Gu@physx@@YA?AW4GjkStatus@01@AEBU?$LocalConvex@VTriangleV@Gu@physx@@@01@AEBU?$LocalConvex@VBoxV@Gu@physx@@@01@AEBT__m128@@2AEAT5@333@Z 0000000180153840 f i GuSweepTriangleUtils.obj
 0001:00153520       ?computeBoxTriImpactData@Gu@physx@@YAXAEAV?$PxVec3T@M@2@0AEBV32@1AEBVPxTriangle@2@M@Z 0000000180154520 f   GuSweepTriangleUtils.obj
 0001:001537b0       ?computeEdgeEdgeNormal@Gu@physx@@YAXAEAV?$PxVec3T@M@2@AEBV32@1111M@Z 00000001801547b0 f   GuSweepTriangleUtils.obj
 0001:00153a70       ?computeSphereTriImpactData@Gu@physx@@YAXAEAV?$PxVec3T@M@2@0AEBV32@1MAEBVPxTriangle@2@@Z 0000000180154a70 f   GuSweepTriangleUtils.obj
 0001:00153f50       ??0ShapeData@Gu@physx@@QEAA@AEBVPxGeometry@2@AEBV?$PxTransformT@M@2@M@Z 0000000180154f50 f   GuBounds.obj
 0001:001544b0       ?computeBounds@Gu@physx@@YAXAEAVPxBounds3@2@AEBVPxGeometry@2@AEBV?$PxTransformT@M@2@MM@Z 00000001801554b0 f   GuBounds.obj
 0001:00155220       ?computeBoundsAroundVertices@Gu@physx@@YAXAEAVPxBounds3@2@IPEIBV?$PxVec3T@M@2@@Z 0000000180156220 f   GuBounds.obj
 0001:001552d0       ?computeGlobalBox@Gu@physx@@YAXAEAVPxBounds3@2@IPEIBV32@PEIBI@Z 00000001801562d0 f   GuBounds.obj
 0001:00155360       ?computeLocalBoundsAndGeomEpsilon@Gu@physx@@YAXPEBV?$PxVec3T@M@2@IAEAVPxBounds3@2@AEAM@Z 0000000180156360 f   GuBounds.obj
 0001:00156440       ??$?_UV?$PxReflectionAllocator@UBVHNode@Gu@physx@@@physx@@@PxUserAllocated@physx@@SAPEAX_KV?$PxReflectionAllocator@UBVHNode@Gu@physx@@@1@PEBDH@Z 0000000180157440 f i GuAABBTree.obj
 0001:001564e0       ??$?_UV?$PxReflectionAllocator@VAABBTreeBuildNode@Gu@physx@@@physx@@@PxUserAllocated@physx@@SAPEAX_KV?$PxReflectionAllocator@VAABBTreeBuildNode@Gu@physx@@@1@PEBDH@Z 00000001801574e0 f i GuAABBTree.obj
 0001:00156710       ??0AABBTree@Gu@physx@@QEAA@XZ 0000000180157710 f   GuAABBTree.obj
 0001:00156740       ??0BVHPartialRefitData@Gu@physx@@QEAA@XZ 0000000180157740 f   GuAABBTree.obj
 0001:00156770       ??0NodeAllocator@Gu@physx@@QEAA@XZ 0000000180157770 f   GuAABBTree.obj
 0001:00156790       ??1AABBTree@Gu@physx@@QEAA@XZ 0000000180157790 f   GuAABBTree.obj
 0001:001567b0       ??1BVHPartialRefitData@Gu@physx@@QEAA@XZ 00000001801577b0 f   GuAABBTree.obj
 0001:00156850       ??1NodeAllocator@Gu@physx@@QEAA@XZ 0000000180157850 f   GuAABBTree.obj
 0001:001568a0       ?_buildHierarchy@AABBTreeBuildNode@Gu@physx@@QEAAXAEBVAABBTreeBuildParams@23@AEAUBuildStats@23@AEAVNodeAllocator@23@QEAI@Z 00000001801578a0 f   GuAABBTree.obj
 0001:00156930       ?_buildHierarchySAH@AABBTreeBuildNode@Gu@physx@@QEAAXAEBVAABBTreeBuildParams@23@AEAUSAH_Buffers@23@AEAUBuildStats@23@AEAVNodeAllocator@23@QEAI@Z 0000000180157930 f   GuAABBTree.obj
 0001:001569e0       ?addRuntimeChilds@AABBTree@Gu@physx@@AEAAXAEAIAEBVAABBTreeMergeData@23@@Z 00000001801579e0 f   GuAABBTree.obj
 0001:00156ae0       ?build@AABBTree@Gu@physx@@QEAA_NAEBVAABBTreeBuildParams@23@AEAVNodeAllocator@23@@Z 0000000180157ae0 f   GuAABBTree.obj
 0001:00156d00       ?buildAABBTree@Gu@physx@@YAPEAIAEBVAABBTreeBuildParams@12@AEAVNodeAllocator@12@AEAUBuildStats@12@@Z 0000000180157d00 f   GuAABBTree.obj
 0001:00156da0       ?buildAABBTree@Gu@physx@@YAXIAEBVAABBTreeBounds@12@AEAV?$PxArray@UBVHNode@Gu@physx@@V?$PxReflectionAllocator@UBVHNode@Gu@physx@@@3@@2@@Z 0000000180157da0 f   GuAABBTree.obj
 0001:00157170       ?buildEnd@AABBTree@Gu@physx@@AEAAXAEBVAABBTreeBuildParams@23@AEAVNodeAllocator@23@AEBUBuildStats@23@@Z 0000000180158170 f   GuAABBTree.obj
 0001:00157350       ?createUpdateMap@BVHPartialRefitData@Gu@physx@@QEAAXI@Z 0000000180158350 f   GuAABBTree.obj
 0001:00157470       ?flattenTree@Gu@physx@@YAXAEBVNodeAllocator@12@PEAUBVHNode@12@PEBI@Z 0000000180158470 f   GuAABBTree.obj
 0001:00157620       ?fullRefit@BVHCoreData@Gu@physx@@QEAAXPEBVPxBounds3@3@@Z 0000000180158620 f   GuAABBTree.obj
 0001:001577e0       ?getBiNode@NodeAllocator@Gu@physx@@QEAAPEAVAABBTreeBuildNode@23@XZ 00000001801587e0 f   GuAABBTree.obj
 0001:00157910       ?getParentIndices@BVHPartialRefitData@Gu@physx@@IEAAPEAIXZ 0000000180158910 f   GuAABBTree.obj
 0001:001579a0       ?growAndPushBack@?$PxArray@PEAVAABBTreeBuildNode@Gu@physx@@V?$PxReflectionAllocator@PEAVAABBTreeBuildNode@Gu@physx@@@3@@physx@@IEAAAEAPEAVAABBTreeBuildNode@Gu@2@AEBQEAV342@@Z 00000001801589a0 f i GuAABBTree.obj
 0001:00157ac0       ?growAndPushBack@?$PxArray@USlab@NodeAllocator@Gu@physx@@V?$PxReflectionAllocator@USlab@NodeAllocator@Gu@physx@@@4@@physx@@IEAAAEAUSlab@NodeAllocator@Gu@2@AEBU3452@@Z 0000000180158ac0 f i GuAABBTree.obj
 0001:00157b80       ?init@AABBTreeBounds@Gu@physx@@QEAAXIPEBVPxBounds3@3@@Z 0000000180158b80 f   GuAABBTree.obj
 0001:00157c40       ?init@NodeAllocator@Gu@physx@@QEAAXII@Z 0000000180158c40 f   GuAABBTree.obj
 0001:00157f30       ?initTree@AABBTree@Gu@physx@@QEAAXAEBVAABBTreeMergeData@23@@Z 0000000180158f30 f   GuAABBTree.obj
 0001:00158020       ?markNodeForRefit@BVHPartialRefitData@Gu@physx@@QEAAXI@Z 0000000180159020 f   GuAABBTree.obj
 0001:00158130       ?mergeRuntimeLeaf@AABBTree@Gu@physx@@AEAAXAEAUBVHNode@23@AEBVAABBTreeMergeData@23@I@Z 0000000180159130 f   GuAABBTree.obj
 0001:00158350       ?mergeRuntimeNode@AABBTree@Gu@physx@@AEAAXAEAUBVHNode@23@AEBVAABBTreeMergeData@23@I@Z 0000000180159350 f   GuAABBTree.obj
 0001:00158630       ?mergeTree@AABBTree@Gu@physx@@QEAAXAEBVAABBTreeMergeData@23@@Z 0000000180159630 f   GuAABBTree.obj
 0001:001588c0       ?progressiveBuild@AABBTree@Gu@physx@@QEAAIAEBVAABBTreeBuildParams@23@AEAVNodeAllocator@23@AEAUBuildStats@23@II@Z 00000001801598c0 f   GuAABBTree.obj
 0001:00158b70       ?recreate@?$PxArray@UBVHNode@Gu@physx@@V?$PxReflectionAllocator@UBVHNode@Gu@physx@@@3@@physx@@IEAAXI@Z 0000000180159b70 f i GuAABBTree.obj
 0001:00158dc0       ?refitMarkedNodes@BVHPartialRefitData@Gu@physx@@QEAAXPEBVPxBounds3@3@@Z 0000000180159dc0 f   GuAABBTree.obj
 0001:00158f30       ?release@AABBTree@Gu@physx@@QEAAX_N@Z 0000000180159f30 f   GuAABBTree.obj
 0001:00159010       ?release@AABBTreeBounds@Gu@physx@@QEAAXXZ 000000018015a010 f   GuAABBTree.obj
 0001:00159060       ?release@NodeAllocator@Gu@physx@@QEAAXXZ 000000018015a060 f   GuAABBTree.obj
 0001:00159110       ?releasePartialRefitData@BVHPartialRefitData@Gu@physx@@QEAAX_N@Z 000000018015a110 f   GuAABBTree.obj
 0001:001591a0       ?reshuffle@Gu@physx@@YAIIQEIAIPEIBV?$PxVec3T@M@2@MI@Z 000000018015a1a0 f   GuAABBTree.obj
 0001:001592e0       ?resize@?$PxArray@UBVHNode@Gu@physx@@V?$PxReflectionAllocator@UBVHNode@Gu@physx@@@3@@physx@@QEAAXIAEBUBVHNode@Gu@2@@Z 000000018015a2e0 f i GuAABBTree.obj
 0001:00159460       ?resize@?$PxArray@USlab@NodeAllocator@Gu@physx@@V?$PxReflectionAllocator@USlab@NodeAllocator@Gu@physx@@@4@@physx@@QEAAXIAEBUSlab@NodeAllocator@Gu@2@@Z 000000018015a460 f i GuAABBTree.obj
 0001:001594e0       ?resize@AABBTreeBounds@Gu@physx@@QEAAXII@Z 000000018015a4e0 f   GuAABBTree.obj
 0001:00159590       ?shiftIndices@AABBTree@Gu@physx@@QEAAXI@Z 000000018015a590 f   GuAABBTree.obj
 0001:001595b0       ?shiftOrigin@AABBTree@Gu@physx@@QEAAXAEBV?$PxVec3T@M@3@@Z 000000018015a5b0 f   GuAABBTree.obj
 0001:00159830       ?subdivide@AABBTreeBuildNode@Gu@physx@@QEAAXAEBVAABBTreeBuildParams@23@AEAUBuildStats@23@AEAVNodeAllocator@23@QEAI@Z 000000018015a830 f   GuAABBTree.obj
 0001:00159a10       ?subdivideSAH@AABBTreeBuildNode@Gu@physx@@QEAAXAEBVAABBTreeBuildParams@23@AEAUSAH_Buffers@23@AEAUBuildStats@23@AEAVNodeAllocator@23@QEAI@Z 000000018015aa10 f   GuAABBTree.obj
 0001:00159b00       ?traverseRuntimeNode@AABBTree@Gu@physx@@AEAAXAEAUBVHNode@23@AEBVAABBTreeMergeData@23@I@Z 000000018015ab00 f   GuAABBTree.obj
 0001:00159bf0       ?initMap@AABBTreeUpdateMap@Gu@physx@@QEAAXIAEBVAABBTree@23@@Z 000000018015abf0 f   GuAABBTreeUpdateMap.obj
 0001:00159d30       ?invalidate@AABBTreeUpdateMap@Gu@physx@@QEAAXIIAEAVAABBTree@23@@Z 000000018015ad30 f   GuAABBTreeUpdateMap.obj
 0001:00159fd0       ?visualizeTree@@YAXAEAVPxRenderOutput@physx@@IPEBVAABBTree@Gu@2@@Z 000000018015afd0 f   GuSqInternal.obj
 0001:0015a040       ?visualizeTree@@YAXAEAVPxRenderOutput@physx@@IPEBVBVH@Gu@2@@Z 000000018015b040 f   GuSqInternal.obj
 0001:0015a0b0       ?visualizeTree@@YAXAEAVPxRenderOutput@physx@@IPEBVIncrementalAABBTree@Gu@2@PEAVDebugVizCallback@2@@Z 000000018015b0b0 f   GuSqInternal.obj
 0001:0015a130       ??$PxSort@PEAXU?$PxLess@PEAX@physx@@V?$PxReflectionAllocator@UAABBTreeIndices@Gu@physx@@@2@@physx@@YAXPEAPEAXIAEBU?$PxLess@PEAX@0@AEBV?$PxReflectionAllocator@UAABBTreeIndices@Gu@physx@@@0@I@Z 000000018015b130 f i GuIncrementalAABBTree.obj
 0001:0015a590       ??$PxSort@PEAXU?$PxLess@PEAX@physx@@V?$PxReflectionAllocator@UIncrementalAABBTreeNodePair@Gu@physx@@@2@@physx@@YAXPEAPEAXIAEBU?$PxLess@PEAX@0@AEBV?$PxReflectionAllocator@UIncrementalAABBTreeNodePair@Gu@physx@@@0@I@Z 000000018015b590 f i GuIncrementalAABBTree.obj
 0001:0015a9f0       ??0IncrementalAABBTree@Gu@physx@@QEAA@XZ 000000018015b9f0 f   GuIncrementalAABBTree.obj
 0001:0015aa70       ??1?$PxPoolBase@UAABBTreeIndices@Gu@physx@@V?$PxReflectionAllocator@UAABBTreeIndices@Gu@physx@@@3@@physx@@QEAA@XZ 000000018015ba70 f i GuIncrementalAABBTree.obj
 0001:0015abd0       ??1?$PxPoolBase@UIncrementalAABBTreeNodePair@Gu@physx@@V?$PxReflectionAllocator@UIncrementalAABBTreeNodePair@Gu@physx@@@3@@physx@@QEAA@XZ 000000018015bbd0 f i GuIncrementalAABBTree.obj
 0001:0015ad30       ??1IncrementalAABBTree@Gu@physx@@QEAA@XZ 000000018015bd30 f   GuIncrementalAABBTree.obj
 0001:0015ad70       ?allocate@?$PxArray@PEAXV?$PxReflectionAllocator@UAABBTreeIndices@Gu@physx@@@physx@@@physx@@IEAAPEAPEAXI@Z 000000018015bd70 f i GuIncrementalAABBTree.obj
 0001:0015ae10       ?allocate@?$PxArray@PEAXV?$PxReflectionAllocator@UIncrementalAABBTreeNodePair@Gu@physx@@@physx@@@physx@@IEAAPEAPEAXI@Z 000000018015be10 f i GuIncrementalAABBTree.obj
 0001:0015aeb0       ?allocate@?$PxPoolBase@UAABBTreeIndices@Gu@physx@@V?$PxReflectionAllocator@UAABBTreeIndices@Gu@physx@@@3@@physx@@QEAAPEAUAABBTreeIndices@Gu@2@XZ 000000018015beb0 f i GuIncrementalAABBTree.obj
 0001:0015afb0       ?allocate@?$PxPoolBase@UIncrementalAABBTreeNodePair@Gu@physx@@V?$PxReflectionAllocator@UIncrementalAABBTreeNodePair@Gu@physx@@@3@@physx@@QEAAPEAUIncrementalAABBTreeNodePair@Gu@2@XZ 000000018015bfb0 f i GuIncrementalAABBTree.obj
 0001:0015b0b0       ?build@IncrementalAABBTree@Gu@physx@@QEAA_NAEBVAABBTreeBuildParams@23@AEAV?$PxArray@PEAVIncrementalAABBTreeNode@Gu@physx@@V?$PxReflectionAllocator@PEAVIncrementalAABBTreeNode@Gu@physx@@@3@@3@@Z 000000018015c0b0 f   GuIncrementalAABBTree.obj
 0001:0015b290       ?clone@IncrementalAABBTree@Gu@physx@@AEAAXAEAV?$PxArray@PEAVIncrementalAABBTreeNode@Gu@physx@@V?$PxReflectionAllocator@PEAVIncrementalAABBTreeNode@Gu@physx@@@3@@3@PEBIPEAPEAVIncrementalAABBTreeNode@23@@Z 000000018015c290 f   GuIncrementalAABBTree.obj
 0001:0015b760       ?copy@IncrementalAABBTree@Gu@physx@@QEAAXAEBVBVH@23@AEAV?$PxArray@PEAVIncrementalAABBTreeNode@Gu@physx@@V?$PxReflectionAllocator@PEAVIncrementalAABBTreeNode@Gu@physx@@@3@@3@@Z 000000018015c760 f   GuIncrementalAABBTree.obj
 0001:0015b810       ?copyNode@IncrementalAABBTree@Gu@physx@@AEAAXAEAVIncrementalAABBTreeNode@23@AEBUBVHNode@23@PEBU523@PEAV423@PEBIAEAV?$PxArray@PEAVIncrementalAABBTreeNode@Gu@physx@@V?$PxReflectionAllocator@PEAVIncrementalAABBTreeNode@Gu@physx@@@3@@3@@Z 000000018015c810 f   GuIncrementalAABBTree.obj
 0001:0015b9d0       ?fixupTreeIndices@IncrementalAABBTree@Gu@physx@@QEAAXPEAVIncrementalAABBTreeNode@23@II@Z 000000018015c9d0 f   GuIncrementalAABBTree.obj
 0001:0015ba00       ?getTreeLeafDepth@IncrementalAABBTree@Gu@physx@@QEAAIPEAVIncrementalAABBTreeNode@23@@Z 000000018015ca00 f   GuIncrementalAABBTree.obj
 0001:0015ba20       ?growAndPushBack@?$PxArray@PEAVIncrementalAABBTreeNode@Gu@physx@@V?$PxReflectionAllocator@PEAVIncrementalAABBTreeNode@Gu@physx@@@3@@physx@@IEAAAEAPEAVIncrementalAABBTreeNode@Gu@2@AEBQEAV342@@Z 000000018015ca20 f i GuIncrementalAABBTree.obj
 0001:0015bb40       ?growAndPushBack@?$PxArray@PEAXV?$PxReflectionAllocator@UAABBTreeIndices@Gu@physx@@@physx@@@physx@@IEAAAEAPEAXAEBQEAX@Z 000000018015cb40 f i GuIncrementalAABBTree.obj
 0001:0015bc00       ?growAndPushBack@?$PxArray@PEAXV?$PxReflectionAllocator@UIncrementalAABBTreeNodePair@Gu@physx@@@physx@@@physx@@IEAAAEAPEAXAEBQEAX@Z 000000018015cc00 f i GuIncrementalAABBTree.obj
 0001:0015bcc0       ?hierarchyCheck@IncrementalAABBTree@Gu@physx@@QEAAXIPEBVPxBounds3@3@@Z 000000018015ccc0 f   GuIncrementalAABBTree.obj
 0001:0015be20       ?hierarchyCheck@IncrementalAABBTree@Gu@physx@@QEAAXPEBVPxBounds3@3@@Z 000000018015ce20 f   GuIncrementalAABBTree.obj
 0001:0015bf80       ?insert@IncrementalAABBTree@Gu@physx@@QEAAPEAVIncrementalAABBTreeNode@23@IPEBVPxBounds3@3@AEAV?$PxArray@PEAVIncrementalAABBTreeNode@Gu@physx@@V?$PxReflectionAllocator@PEAVIncrementalAABBTreeNode@Gu@physx@@@3@@3@@Z 000000018015cf80 f   GuIncrementalAABBTree.obj
 0001:0015c670       ?recreate@?$PxArray@PEAXV?$PxReflectionAllocator@UAABBTreeIndices@Gu@physx@@@physx@@@physx@@IEAAXI@Z 000000018015d670 f i GuIncrementalAABBTree.obj
 0001:0015c710       ?recreate@?$PxArray@PEAXV?$PxReflectionAllocator@UIncrementalAABBTreeNodePair@Gu@physx@@@physx@@@physx@@IEAAXI@Z 000000018015d710 f i GuIncrementalAABBTree.obj
 0001:0015c7b0       ?release@IncrementalAABBTree@Gu@physx@@QEAAXXZ 000000018015d7b0 f   GuIncrementalAABBTree.obj
 0001:0015c7e0       ?releaseNode@IncrementalAABBTree@Gu@physx@@AEAAXPEAVIncrementalAABBTreeNode@23@@Z 000000018015d7e0 f   GuIncrementalAABBTree.obj
 0001:0015c870       ?remove@IncrementalAABBTree@Gu@physx@@QEAAPEAVIncrementalAABBTreeNode@23@PEAV423@IPEBVPxBounds3@3@@Z 000000018015d870 f   GuIncrementalAABBTree.obj
 0001:0015cb70       ?rotateTree@IncrementalAABBTree@Gu@physx@@AEAAXPEAVIncrementalAABBTreeNode@23@AEAV?$PxArray@PEAVIncrementalAABBTreeNode@Gu@physx@@V?$PxReflectionAllocator@PEAVIncrementalAABBTreeNode@Gu@physx@@@3@@3@IPEBVPxBounds3@3@_N@Z 000000018015db70 f   GuIncrementalAABBTree.obj
 0001:0015d420       ?shiftOrigin@IncrementalAABBTree@Gu@physx@@QEAAXAEBV?$PxVec3T@M@3@@Z 000000018015e420 f   GuIncrementalAABBTree.obj
 0001:0015d480       ?splitLeafNode@IncrementalAABBTree@Gu@physx@@AEAAPEAVIncrementalAABBTreeNode@23@PEAV423@IAEBT__m128@@1PEBVPxBounds3@3@@Z 000000018015e480 f   GuIncrementalAABBTree.obj
 0001:0015d780       ?update@IncrementalAABBTree@Gu@physx@@QEAAPEAVIncrementalAABBTreeNode@23@PEAV423@IPEBVPxBounds3@3@AEAV?$PxArray@PEAVIncrementalAABBTreeNode@Gu@physx@@V?$PxReflectionAllocator@PEAVIncrementalAABBTreeNode@Gu@physx@@@3@@3@@Z 000000018015e780 f   GuIncrementalAABBTree.obj
 0001:0015d840       ?updateFast@IncrementalAABBTree@Gu@physx@@QEAAPEAVIncrementalAABBTreeNode@23@PEAV423@IPEBVPxBounds3@3@AEAV?$PxArray@PEAVIncrementalAABBTreeNode@Gu@physx@@V?$PxReflectionAllocator@PEAVIncrementalAABBTreeNode@Gu@physx@@@3@@3@@Z 000000018015e840 f   GuIncrementalAABBTree.obj
 0001:0015da40       ??0SAH_Buffers@Gu@physx@@QEAA@I@Z 000000018015ea40 f   GuSAH.obj
 0001:0015db50       ??1SAH_Buffers@Gu@physx@@QEAA@XZ 000000018015eb50 f   GuSAH.obj
 0001:0015dc10       ?split@SAH_Buffers@Gu@physx@@QEAA_NAEAIIPEIBIPEIBVPxBounds3@3@PEIBV?$PxVec3T@M@3@@Z 000000018015ec10 f   GuSAH.obj
 0001:0015e310       ??0BVH@Gu@physx@@QEAA@AEBUPxBVHInternalData@2@@Z 000000018015f310 f   GuBVH.obj
 0001:0015e3d0       ??0BVH@Gu@physx@@QEAA@PEAVMeshFactory@12@@Z 000000018015f3d0 f   GuBVH.obj
 0001:0015e440       ??0BVH@Gu@physx@@QEAA@PEAVMeshFactory@12@AEAVBVHData@12@@Z 000000018015f440 f   GuBVH.obj
 0001:0015e4f0       ??1BVHData@Gu@physx@@QEAA@XZ 000000018015f4f0 f i GuBVH.obj
 0001:001636e0       ??_EBVH@Gu@physx@@WBA@EAAPEAXI@Z 00000001801646e0 f i GuBVH.obj
 0001:001636f0       ??_GBVH@Gu@physx@@UEAAPEAXI@Z 00000001801646f0 f i GuBVH.obj
 0001:001636f0       ??_EBVH@Gu@physx@@UEAAPEAXI@Z 00000001801646f0 f i GuBVH.obj
 0001:00163780       ??_GRefCountable@Cm@physx@@UEAAPEAXI@Z 0000000180164780 f i GuBVH.obj
 0001:00163780       ??_ERefCountable@Cm@physx@@UEAAPEAXI@Z 0000000180164780 f i GuBVH.obj
 0001:001639b0       ?allocate@?$PxArray@PEBUBVHNode@Gu@physx@@V?$PxInlineAllocator@$0IAA@V?$PxReflectionAllocator@PEBUBVHNode@Gu@physx@@@physx@@@3@@physx@@IEAAPEAPEBUBVHNode@Gu@2@I@Z 00000001801649b0 f i GuBVH.obj
 0001:00163a70       ?build@BVHData@Gu@physx@@QEAA_NIPEBXIMIW4BVHBuildStrategy@23@@Z 0000000180164a70 f   GuBVH.obj
 0001:00163e60       ?cull@BVH@Gu@physx@@UEBA_NIPEBVPxPlane@3@AEAUOverlapCallback@PxBVH@3@V?$PxFlags@W4Enum@PxGeometryQueryFlag@physx@@I@3@@Z 0000000180164e60 f   GuBVH.obj
 0001:00164770       ?getConcreteTypeName@PxBVH@physx@@UEBAPEBDXZ 0000000180165770 f i GuBVH.obj
 0001:00164780       ?init@BVH@Gu@physx@@QEAA_NIPEAVAABBTreeBounds@23@PEBXIW4BVHBuildStrategy@23@IM@Z 0000000180165780 f   GuBVH.obj
 0001:00164b80       ?isKindOf@PxBVH@physx@@MEBA_NPEBD@Z 0000000180165b80 f i GuBVH.obj
 0001:00164bd0       ?load@BVH@Gu@physx@@QEAA_NAEAVPxInputStream@3@@Z 0000000180165bd0 f   GuBVH.obj
 0001:00164d60       ?onRefCountZero@BVH@Gu@physx@@UEAAXXZ 0000000180165d60 f   GuBVH.obj
 0001:00164e40       ?onRefCountZero@RefCountable@Cm@physx@@UEAAXXZ 0000000180165e40 f i GuBVH.obj
 0001:00164e60       ?overlap@BVH@Gu@physx@@QEBA_NAEBVShapeData@23@AEAUOverlapCallback@PxBVH@3@V?$PxFlags@W4Enum@PxGeometryQueryFlag@physx@@I@3@@Z 0000000180165e60 f   GuBVH.obj
 0001:001659a0       ?overlap@BVH@Gu@physx@@UEBAIAEBVPxBounds3@3@IPEIAI@Z 00000001801669a0 f   GuBVH.obj
 0001:00165ac0       ?overlap@BVH@Gu@physx@@UEBA_NAEBVPxGeometry@3@AEBV?$PxTransformT@M@3@AEAUOverlapCallback@PxBVH@3@V?$PxFlags@W4Enum@PxGeometryQueryFlag@physx@@I@3@@Z 0000000180166ac0 f   GuBVH.obj
 0001:00165b20       ?partialRefit@BVH@Gu@physx@@UEAAXXZ 0000000180166b20 f   GuBVH.obj
 0001:00165b30       ?raycast@BVH@Gu@physx@@UEBAIAEBV?$PxVec3T@M@3@0MIPEIAI@Z 0000000180166b30 f   GuBVH.obj
 0001:00165bd0       ?raycast@BVH@Gu@physx@@UEBA_NAEBV?$PxVec3T@M@3@0MAEAURaycastCallback@PxBVH@3@V?$PxFlags@W4Enum@PxGeometryQueryFlag@physx@@I@3@@Z 0000000180166bd0 f   GuBVH.obj
 0001:00165d00       ?recreate@?$PxArray@PEBUBVHNode@Gu@physx@@V?$PxInlineAllocator@$0IAA@V?$PxReflectionAllocator@PEBUBVHNode@Gu@physx@@@physx@@@3@@physx@@IEAAXI@Z 0000000180166d00 f i GuBVH.obj
 0001:00165db0       ?refit@BVH@Gu@physx@@UEAAXXZ 0000000180166db0 f   GuBVH.obj
 0001:00165dc0       ?release@BVH@Gu@physx@@UEAAXXZ 0000000180166dc0 f   GuBVH.obj
 0001:00165df0       ?resizeUninitialized@?$PxArray@PEBUBVHNode@Gu@physx@@V?$PxInlineAllocator@$0IAA@V?$PxReflectionAllocator@PEBUBVHNode@Gu@physx@@@physx@@@3@@physx@@QEAAXI@Z 0000000180166df0 f i GuBVH.obj
 0001:00165e40       ?save@BVHData@Gu@physx@@QEBA_NAEAVPxOutputStream@3@_N@Z 0000000180166e40 f   GuBVH.obj
 0001:00165fb0       ?sweep@BVH@Gu@physx@@QEBA_NAEBVShapeData@23@AEBV?$PxVec3T@M@3@MAEAURaycastCallback@PxBVH@3@V?$PxFlags@W4Enum@PxGeometryQueryFlag@physx@@I@3@@Z 0000000180166fb0 f   GuBVH.obj
 0001:00166170       ?sweep@BVH@Gu@physx@@UEBAIAEBVPxBounds3@3@AEBV?$PxVec3T@M@3@MIPEIAI@Z 0000000180167170 f   GuBVH.obj
 0001:001662e0       ?sweep@BVH@Gu@physx@@UEBA_NAEBVPxGeometry@3@AEBV?$PxTransformT@M@3@AEBV?$PxVec3T@M@3@MAEAURaycastCallback@PxBVH@3@V?$PxFlags@W4Enum@PxGeometryQueryFlag@physx@@I@3@@Z 00000001801672e0 f   GuBVH.obj
 0001:00166360       ?traverse@BVH@Gu@physx@@UEBA_NAEAUTraversalCallback@PxBVH@3@@Z 0000000180167360 f   GuBVH.obj
 0001:001664d0       ?updateBounds@BVH@Gu@physx@@UEAA_NIAEBVPxBounds3@3@@Z 00000001801674d0 f   GuBVH.obj
 0001:00166580       ?updateBoundsInternal@BVH@Gu@physx@@QEAA_NIAEBVPxBounds3@3@@Z 0000000180167580 f   GuBVH.obj
 0001:00166630       PxFindOverlap              0000000180167630 f   GuBVH.obj
 0001:00166720       PxGetBVHInternalData       0000000180167720 f   GuBVH.obj
 0001:00166760       ??0IncrementalAABBPrunerCore@Gu@physx@@QEAA@PEBVPruningPool@12@@Z 0000000180167760 f   GuIncrementalAABBPrunerCore.obj
 0001:00166870       ??1IncrementalAABBPrunerCore@Gu@physx@@QEAA@XZ 0000000180167870 f   GuIncrementalAABBPrunerCore.obj
 0001:001669e0       ??R?$AABBTreeOverlap@$00U?$OBBAABBTests@$00@Gu@physx@@VIncrementalAABBTree@23@VIncrementalAABBTreeNode@23@UOverlapCallbackAdapter@23@@Gu@physx@@QEAA_NAEBVAABBTreeBounds@12@AEBVIncrementalAABBTree@12@AEBU?$OBBAABBTests@$00@12@AEAUOverlapCallbackAdapter@12@@Z 00000001801679e0 f i GuIncrementalAABBPrunerCore.obj
 0001:00166f80       ??R?$AABBTreeOverlap@$00UAABBAABBTest@Gu@physx@@VIncrementalAABBTree@23@VIncrementalAABBTreeNode@23@UOverlapCallbackAdapter@23@@Gu@physx@@QEAA_NAEBVAABBTreeBounds@12@AEBVIncrementalAABBTree@12@AEBUAABBAABBTest@12@AEAUOverlapCallbackAdapter@12@@Z 0000000180167f80 f i GuIncrementalAABBPrunerCore.obj
 0001:001671e0       ??R?$AABBTreeOverlap@$00UCapsuleAABBTest@Gu@physx@@VIncrementalAABBTree@23@VIncrementalAABBTreeNode@23@UOverlapCallbackAdapter@23@@Gu@physx@@QEAA_NAEBVAABBTreeBounds@12@AEBVIncrementalAABBTree@12@AEBUCapsuleAABBTest@12@AEAUOverlapCallbackAdapter@12@@Z 00000001801681e0 f i GuIncrementalAABBPrunerCore.obj
 0001:00167520       ??R?$AABBTreeRaycast@$00$00VIncrementalAABBTree@Gu@physx@@VIncrementalAABBTreeNode@23@URaycastCallbackAdapter@23@@Gu@physx@@QEAA_NAEBVAABBTreeBounds@12@AEBVIncrementalAABBTree@12@AEBV?$PxVec3T@M@2@2AEAM2AEAURaycastCallbackAdapter@12@@Z 0000000180168520 f i GuIncrementalAABBPrunerCore.obj
 0001:00167ba0       ??R?$AABBTreeRaycast@$0A@$00VIncrementalAABBTree@Gu@physx@@VIncrementalAABBTreeNode@23@URaycastCallbackAdapter@23@@Gu@physx@@QEAA_NAEBVAABBTreeBounds@12@AEBVIncrementalAABBTree@12@AEBV?$PxVec3T@M@2@2AEAM2AEAURaycastCallbackAdapter@12@@Z 0000000180168ba0 f i GuIncrementalAABBPrunerCore.obj
 0001:001681d0       ?addObject@IncrementalAABBPrunerCore@Gu@physx@@QEAA_NII@Z 00000001801691d0 f   GuIncrementalAABBPrunerCore.obj
 0001:001682e0       ?allocate@?$PxArray@PEBVIncrementalAABBTreeNode@Gu@physx@@V?$PxInlineAllocator@$0IAA@V?$PxReflectionAllocator@PEBVIncrementalAABBTreeNode@Gu@physx@@@physx@@@3@@physx@@IEAAPEAPEBVIncrementalAABBTreeNode@Gu@2@I@Z 00000001801692e0 f i GuIncrementalAABBPrunerCore.obj
 0001:001683a0       ?clear@?$PxHashMapBase@IPEAVIncrementalAABBTreeNode@Gu@physx@@U?$PxHash@I@3@VPxAllocator@3@@physx@@QEAAXXZ 00000001801693a0 f i GuIncrementalAABBPrunerCore.obj
 0001:001683a0       ?clear@?$PxHashMapBase@UPrunerPayload@Gu@physx@@UExtendedBucketPrunerData@23@UExtendedBucketPrunerHash@23@VPxAllocator@3@@physx@@QEAAXXZ 00000001801693a0 f i GuExtendedBucketPruner.obj
 0001:00168430       ?create@?$PxHashBase@V?$PxPair@$$CBIPEAVIncrementalAABBTreeNode@Gu@physx@@@physx@@IU?$PxHash@I@2@UGetKey@?$PxHashMapBase@IPEAVIncrementalAABBTreeNode@Gu@physx@@U?$PxHash@I@3@VPxAllocator@3@@2@VPxAllocator@2@$00@physx@@QEAAPEAV?$PxPair@$$CBIPEAVIncrementalAABBTreeNode@Gu@physx@@@2@AEBIAEA_N@Z 0000000180169430 f i GuIncrementalAABBPrunerCore.obj
 0001:00168580       ?erase@?$PxHashBase@V?$PxPair@$$CBIPEAVIncrementalAABBTreeNode@Gu@physx@@@physx@@IU?$PxHash@I@2@UGetKey@?$PxHashMapBase@IPEAVIncrementalAABBTreeNode@Gu@physx@@U?$PxHash@I@3@VPxAllocator@3@@2@VPxAllocator@2@$00@physx@@QEAA_NAEBIAEAV?$PxPair@$$CBIPEAVIncrementalAABBTreeNode@Gu@physx@@@2@@Z 0000000180169580 f i GuIncrementalAABBPrunerCore.obj
 0001:001686e0       ?getCurrentWorldBoxes@PruningPool@Gu@physx@@QEAAPEAVPxBounds3@3@XZ 00000001801696e0 f i GuIncrementalAABBPrunerCore.obj
 0001:001686e0       ?getMesh@CollisionTetrahedronMeshData@Gu@physx@@UEBAPEBVPxTetrahedronMeshData@3@XZ 00000001801696e0 f i GuCookingTetrahedronMesh.obj
 0001:001686e0       ?getMesh@SimulationTetrahedronMeshData@Gu@physx@@UEAAPEAVPxTetrahedronMeshData@3@XZ 00000001801696e0 f i GuCookingTetrahedronMesh.obj
 0001:001686e0       ?getCurrentWorldBoxes@PruningPool@Gu@physx@@QEBAPEBVPxBounds3@3@XZ 00000001801696e0 f i GuIncrementalAABBPrunerCore.obj
 0001:001686e0       ?getMesh@CollisionTetrahedronMeshData@Gu@physx@@UEAAPEAVPxTetrahedronMeshData@3@XZ 00000001801696e0 f i GuCookingTetrahedronMesh.obj
 0001:001686f0       ?getGlobalBounds@IncrementalAABBPrunerCore@Gu@physx@@QEBAXAEAVPxBounds3@3@@Z 00000001801696f0 f   GuIncrementalAABBPrunerCore.obj
 0001:00168810       ?getIndex@PruningPool@Gu@physx@@QEBAII@Z 0000000180169810 f i GuIncrementalAABBPrunerCore.obj
 0001:00168820       ?getPayloadData@PruningPool@Gu@physx@@QEBAAEBUPrunerPayload@23@IPEAUPrunerPayloadData@23@@Z 0000000180169820 f i GuIncrementalAABBPrunerCore.obj
 0001:00168870       ?overlap@IncrementalAABBPrunerCore@Gu@physx@@QEBA_NAEBVShapeData@23@AEAUPrunerOverlapCallback@23@@Z 0000000180169870 f   GuIncrementalAABBPrunerCore.obj
 0001:00169290       ?raycast@IncrementalAABBPrunerCore@Gu@physx@@QEBA_NAEBV?$PxVec3T@M@3@0AEAMAEAUPrunerRaycastCallback@23@@Z 000000018016a290 f   GuIncrementalAABBPrunerCore.obj
 0001:00169370       ?recreate@?$PxArray@PEAVIncrementalAABBTreeNode@Gu@physx@@V?$PxReflectionAllocator@PEAVIncrementalAABBTreeNode@Gu@physx@@@3@@physx@@IEAAXI@Z 000000018016a370 f i GuIncrementalAABBPrunerCore.obj
 0001:00169480       ?recreate@?$PxArray@PEBVIncrementalAABBTreeNode@Gu@physx@@V?$PxInlineAllocator@$0IAA@V?$PxReflectionAllocator@PEBVIncrementalAABBTreeNode@Gu@physx@@@physx@@@3@@physx@@IEAAXI@Z 000000018016a480 f i GuIncrementalAABBPrunerCore.obj
 0001:00169530       ?release@IncrementalAABBPrunerCore@Gu@physx@@QEAAXXZ 000000018016a530 f   GuIncrementalAABBPrunerCore.obj
 0001:00169630       ?removeMarkedObjects@IncrementalAABBPrunerCore@Gu@physx@@QEAAII@Z 000000018016a630 f   GuIncrementalAABBPrunerCore.obj
 0001:00169690       ?removeObject@IncrementalAABBPrunerCore@Gu@physx@@QEAA_NIIAEAI@Z 000000018016a690 f   GuIncrementalAABBPrunerCore.obj
 0001:00169890       ?reserveInternal@?$PxHashBase@V?$PxPair@$$CBIPEAVIncrementalAABBTreeNode@Gu@physx@@@physx@@IU?$PxHash@I@2@UGetKey@?$PxHashMapBase@IPEAVIncrementalAABBTreeNode@Gu@physx@@U?$PxHash@I@3@VPxAllocator@3@@2@VPxAllocator@2@$00@physx@@AEAAXI@Z 000000018016a890 f i GuIncrementalAABBPrunerCore.obj
 0001:00169a50       ?resizeUninitialized@?$PxArray@PEBVIncrementalAABBTreeNode@Gu@physx@@V?$PxInlineAllocator@$0IAA@V?$PxReflectionAllocator@PEBVIncrementalAABBTreeNode@Gu@physx@@@physx@@@3@@physx@@QEAAXI@Z 000000018016aa50 f i GuIncrementalAABBPrunerCore.obj
 0001:00169aa0       ?setTransform@PruningPool@Gu@physx@@QEAA_NIAEBV?$PxTransformT@M@3@@Z 000000018016aaa0 f i GuIncrementalAABBPrunerCore.obj
 0001:00169b00       ?shiftOrigin@IncrementalAABBPrunerCore@Gu@physx@@QEAAXAEBV?$PxVec3T@M@3@@Z 000000018016ab00 f   GuIncrementalAABBPrunerCore.obj
 0001:00169b50       ?swapIndex@IncrementalAABBPrunerCore@Gu@physx@@QEAAXII@Z 000000018016ab50 f   GuIncrementalAABBPrunerCore.obj
 0001:00169c20       ?sweep@IncrementalAABBPrunerCore@Gu@physx@@QEBA_NAEBVShapeData@23@AEBV?$PxVec3T@M@3@AEAMAEAUPrunerRaycastCallback@23@@Z 000000018016ac20 f   GuIncrementalAABBPrunerCore.obj
 0001:00169db0       ?updateMapping@IncrementalAABBPrunerCore@Gu@physx@@AEAAXAEAV?$PxHashMap@IPEAVIncrementalAABBTreeNode@Gu@physx@@U?$PxHash@I@3@VPxAllocator@3@@3@IPEAVIncrementalAABBTreeNode@23@@Z 000000018016adb0 f   GuIncrementalAABBPrunerCore.obj
 0001:00169ee0       ?updateObject@IncrementalAABBPrunerCore@Gu@physx@@QEAA_NI@Z 000000018016aee0 f   GuIncrementalAABBPrunerCore.obj
 0001:0016a080       ?visualize@IncrementalAABBPrunerCore@Gu@physx@@QEBAXAEAVPxRenderOutput@3@I@Z 000000018016b080 f   GuIncrementalAABBPrunerCore.obj
 0001:0016a0e0       ??0IncrementalAABBPruner@Gu@physx@@QEAA@I_K@Z 000000018016b0e0 f   GuIncrementalAABBPruner.obj
 0001:0016a190       ??R?$AABBTreeOverlap@$00USphereAABBTest@Gu@physx@@VIncrementalAABBTree@23@VIncrementalAABBTreeNode@23@UOverlapCallbackAdapter@23@@Gu@physx@@QEAA_NAEBVAABBTreeBounds@12@AEBVIncrementalAABBTree@12@AEBUSphereAABBTest@12@AEAUOverlapCallbackAdapter@12@@Z 000000018016b190 f i GuIncrementalAABBPruner.obj
 0001:0016a460       ??_EBasePruner@Gu@physx@@UEAAPEAXI@Z 000000018016b460 f i GuIncrementalAABBPruner.obj
 0001:0016a460       ??_GBasePruner@Gu@physx@@UEAAPEAXI@Z 000000018016b460 f i GuIncrementalAABBPruner.obj
 0001:0016a4b0       ??_EIncrementalAABBPruner@Gu@physx@@UEAAPEAXI@Z 000000018016b4b0 f i GuIncrementalAABBPruner.obj
 0001:0016a4b0       ??_GIncrementalAABBPruner@Gu@physx@@UEAAPEAXI@Z 000000018016b4b0 f i GuIncrementalAABBPruner.obj
 0001:0016a5c0       ?addObjects@IncrementalAABBPruner@Gu@physx@@UEAA_NPEAIPEBVPxBounds3@3@PEBUPrunerPayload@23@PEBV?$PxTransformT@M@3@I_N@Z 000000018016b5c0 f   GuIncrementalAABBPruner.obj
 0001:0016a740       ?commit@IncrementalAABBPruner@Gu@physx@@UEAAXXZ 000000018016b740 f   GuIncrementalAABBPruner.obj
 0001:0016a910       ?getGlobalBounds@IncrementalAABBPruner@Gu@physx@@UEBAXAEAVPxBounds3@3@@Z 000000018016b910 f   GuIncrementalAABBPruner.obj
 0001:0016a980       ?getPayloadData@IncrementalAABBPruner@Gu@physx@@UEBAAEBUPrunerPayload@23@IPEAUPrunerPayloadData@23@@Z 000000018016b980 f i GuIncrementalAABBPruner.obj
 0001:0016a9d0       ?overlap@IncrementalAABBPruner@Gu@physx@@UEBA_NAEBVShapeData@23@AEAUPrunerOverlapCallback@23@@Z 000000018016b9d0 f   GuIncrementalAABBPruner.obj
 0001:0016af70       ?preallocate@IncrementalAABBPruner@Gu@physx@@UEAAXI@Z 000000018016bf70 f i GuIncrementalAABBPruner.obj
 0001:0016af80       ?purge@IncrementalAABBPruner@Gu@physx@@UEAAXXZ 000000018016bf80 f   GuIncrementalAABBPruner.obj
 0001:0016afd0       ?raycast@IncrementalAABBPruner@Gu@physx@@UEBA_NAEBV?$PxVec3T@M@3@0AEAMAEAUPrunerRaycastCallback@23@@Z 000000018016bfd0 f   GuIncrementalAABBPruner.obj
 0001:0016b050       ?removeObjects@IncrementalAABBPruner@Gu@physx@@UEAAXPEBIIPEAUPrunerPayloadRemovalCallback@23@@Z 000000018016c050 f   GuIncrementalAABBPruner.obj
 0001:0016b260       ?resize@?$PxArray@PEAVIncrementalAABBTreeNode@Gu@physx@@V?$PxReflectionAllocator@PEAVIncrementalAABBTreeNode@Gu@physx@@@3@@physx@@QEAAXIAEBQEAVIncrementalAABBTreeNode@Gu@2@@Z 000000018016c260 f i GuIncrementalAABBPruner.obj
 0001:0016b320       ?resizeUninitialized@?$PxArray@PEAVIncrementalAABBTreeNode@Gu@physx@@V?$PxReflectionAllocator@PEAVIncrementalAABBTreeNode@Gu@physx@@@3@@physx@@QEAAXI@Z 000000018016c320 f i GuIncrementalAABBPruner.obj
 0001:0016b360       ?setTransform@IncrementalAABBPruner@Gu@physx@@UEAA_NIAEBV?$PxTransformT@M@3@@Z 000000018016c360 f i GuIncrementalAABBPruner.obj
 0001:0016b3c0       ?shiftOrigin@IncrementalAABBPruner@Gu@physx@@UEAAXAEBV?$PxVec3T@M@3@@Z 000000018016c3c0 f   GuIncrementalAABBPruner.obj
 0001:0016b400       ?sweep@IncrementalAABBPruner@Gu@physx@@UEBA_NAEBVShapeData@23@AEBV?$PxVec3T@M@3@AEAMAEAUPrunerRaycastCallback@23@@Z 000000018016c400 f   GuIncrementalAABBPruner.obj
 0001:0016b520       ?updateMapping@IncrementalAABBPruner@Gu@physx@@AEAAXIPEAVIncrementalAABBTreeNode@23@@Z 000000018016c520 f   GuIncrementalAABBPruner.obj
 0001:0016b610       ?updateObjects@IncrementalAABBPruner@Gu@physx@@UEAAXPEBIIM0PEBVPxBounds3@3@PEBUPxTransformPadded@3@@Z 000000018016c610 f   GuIncrementalAABBPruner.obj
 0001:0016b7d0       ?visualize@IncrementalAABBPruner@Gu@physx@@UEBAXAEAVPxRenderOutput@3@II@Z 000000018016c7d0 f   GuIncrementalAABBPruner.obj
 0001:0016b9c0       ??0PruningPool@Gu@physx@@QEAA@_KW4TransformCacheMode@12@@Z 000000018016c9c0 f   GuPruningPool.obj
 0001:0016b9f0       ??1PruningPool@Gu@physx@@QEAA@XZ 000000018016c9f0 f   GuPruningPool.obj
 0001:0016bab0       ?addObjects@PruningPool@Gu@physx@@QEAAIPEAIPEBVPxBounds3@3@PEBUPrunerPayload@23@PEBV?$PxTransformT@M@3@I@Z 000000018016cab0 f   GuPruningPool.obj
 0001:0016bd30       ?preallocate@PruningPool@Gu@physx@@QEAAXI@Z 000000018016cd30 f   GuPruningPool.obj
 0001:0016bd40       ?removeObject@PruningPool@Gu@physx@@QEAAIIPEAUPrunerPayloadRemovalCallback@23@@Z 000000018016cd40 f   GuPruningPool.obj
 0001:0016bf10       ?resize@PruningPool@Gu@physx@@QEAA_NI@Z 000000018016cf10 f   GuPruningPool.obj
 0001:0016c270       ?shiftOrigin@PruningPool@Gu@physx@@QEAAXAEBV?$PxVec3T@M@3@@Z 000000018016d270 f   GuPruningPool.obj
 0001:0016c6c0       ?updateAndInflateBounds@PruningPool@Gu@physx@@QEAAXPEBI0PEBVPxBounds3@3@PEBUPxTransformPadded@3@IM@Z 000000018016d6c0 f   GuPruningPool.obj
 0001:0016e1b0       ??0BucketPruner@Gu@physx@@QEAA@_K@Z 000000018016f1b0 f   GuBucketPruner.obj
 0001:0016e200       ??0BucketPrunerCore@Gu@physx@@QEAA@_N@Z 000000018016f200 f   GuBucketPruner.obj
 0001:0016e580       ??1BucketPrunerCore@Gu@physx@@QEAA@XZ 000000018016f580 f   GuBucketPruner.obj
 0001:0016e6c0       ??R?$BucketPrunerOverlapTraversal@UBucketPrunerAABBAABBTest@@$00@@QEBA_NAEBVBucketPrunerCore@Gu@physx@@AEBUBucketPrunerAABBAABBTest@@AEAUPrunerOverlapCallback@23@AEBVPxBounds3@3@@Z 000000018016f6c0 f i GuBucketPruner.obj
 0001:0016eca0       ??R?$BucketPrunerOverlapTraversal@UOBBAABBTest_SIMD@@$0A@@@QEBA_NAEBVBucketPrunerCore@Gu@physx@@AEBUOBBAABBTest_SIMD@@AEAUPrunerOverlapCallback@23@AEBVPxBounds3@3@@Z 000000018016fca0 f i GuBucketPruner.obj
 0001:0016f500       ??R?$BucketPrunerOverlapTraversal@USphereAABBTest_SIMD@@$00@@QEBA_NAEBVBucketPrunerCore@Gu@physx@@AEBUSphereAABBTest_SIMD@@AEAUPrunerOverlapCallback@23@AEBVPxBounds3@3@@Z 0000000180170500 f i GuBucketPruner.obj
 0001:0016fae0       ??_FBucketPrunerCore@Gu@physx@@QEAAXXZ 0000000180170ae0 f i GuBucketPruner.obj
 0001:0016faf0       ??_EBucketPruner@Gu@physx@@UEAAPEAXI@Z 0000000180170af0 f i GuBucketPruner.obj
 0001:0016faf0       ??_GBucketPruner@Gu@physx@@UEAAPEAXI@Z 0000000180170af0 f i GuBucketPruner.obj
 0001:0016fb70       ?addObject@BucketPrunerCore@Gu@physx@@QEAA_NAEBUPrunerPayload@23@AEBVPxBounds3@3@AEBV?$PxTransformT@M@3@I@Z 0000000180170b70 f   GuBucketPruner.obj
 0001:0016fe90       ?addObjects@BucketPruner@Gu@physx@@UEAA_NPEAIPEBVPxBounds3@3@PEBUPrunerPayload@23@PEBV?$PxTransformT@M@3@I_N@Z 0000000180170e90 f   GuBucketPruner.obj
 0001:0016ff20       ?addPair@BucketPrunerMap@Gu@physx@@QEAAPEAUBucketPrunerPair@23@AEBUPrunerPayload@23@II@Z 0000000180170f20 f   GuBucketPruner.obj
 0001:00170110       ?allocateSortedMemory@BucketPrunerCore@Gu@physx@@AEAAXI@Z 0000000180171110 f   GuBucketPruner.obj
 0001:001702c0       ?classifyBoxes@BucketPrunerCore@Gu@physx@@AEAAXXZ 00000001801712c0 f   GuBucketPruner.obj
 0001:00170aa0       ?classifyBoxes@BucketPrunerNode@Gu@physx@@QEAAXMMIPEIAUBucketBox@23@PEIBUPrunerPayload@23@PEIBV?$PxTransformT@M@3@0PEIAU523@PEIAV63@_NI@Z 0000000180171aa0 f   GuBucketPruner.obj
 0001:00171390       ?commit@BucketPruner@Gu@physx@@UEAAXXZ 0000000180172390 f   GuBucketPruner.obj
 0001:00171390       ?build@CompanionPrunerBucket@@UEAAXXZ 0000000180172390 f   GuSecondaryPruner.obj
 0001:001713a0       ?findPair@BucketPrunerMap@Gu@physx@@QEBAPEBUBucketPrunerPair@23@AEBUPrunerPayload@23@@Z 00000001801723a0 f   GuBucketPruner.obj
 0001:001717a0       ?getGlobalBounds@BucketPruner@Gu@physx@@UEBAXAEAVPxBounds3@3@@Z 00000001801727a0 f   GuBucketPruner.obj
 0001:00171820       ?getGlobalBounds@BucketPrunerCore@Gu@physx@@QEBAXAEAVPxBounds3@3@@Z 0000000180172820 f   GuBucketPruner.obj
 0001:001718a0       ?getPayloadData@BucketPruner@Gu@physx@@UEBAAEBUPrunerPayload@23@IPEAUPrunerPayloadData@23@@Z 00000001801728a0 f i GuBucketPruner.obj
 0001:00171900       ?overlap@BucketPruner@Gu@physx@@UEBA_NAEBVShapeData@23@AEAUPrunerOverlapCallback@23@@Z 0000000180172900 f   GuBucketPruner.obj
 0001:00171920       ?overlap@BucketPrunerCore@Gu@physx@@QEBA_NAEBVShapeData@23@AEAUPrunerOverlapCallback@23@@Z 0000000180172920 f   GuBucketPruner.obj
 0001:00171c00       ?preallocate@BucketPruner@Gu@physx@@UEAAXI@Z 0000000180172c00 f i GuBucketPruner.obj
 0001:00171de0       ?purge@BucketPrunerMap@Gu@physx@@QEAAXXZ 0000000180172de0 f   GuBucketPruner.obj
 0001:00171e70       ?raycast@BucketPruner@Gu@physx@@UEBA_NAEBV?$PxVec3T@M@3@0AEAMAEAUPrunerRaycastCallback@23@@Z 0000000180172e70 f   GuBucketPruner.obj
 0001:00171ec0       ?raycast@BucketPrunerCore@Gu@physx@@QEBA_NAEBV?$PxVec3T@M@3@0AEAMAEAUPrunerRaycastCallback@23@@Z 0000000180172ec0 f   GuBucketPruner.obj
 0001:00171f00       ?reallocPairs@BucketPrunerMap@Gu@physx@@QEAAXXZ 0000000180172f00 f   GuBucketPruner.obj
 0001:00172130       ?release@BucketPrunerCore@Gu@physx@@QEAAXXZ 0000000180173130 f   GuBucketPruner.obj
 0001:00172260       ?removeMarkedObjects@BucketPrunerCore@Gu@physx@@QEAAII@Z 0000000180173260 f   GuBucketPruner.obj
 0001:00172610       ?removeObject@BucketPrunerCore@Gu@physx@@QEAA_NAEBUPrunerPayload@23@AEAI@Z 0000000180173610 f   GuBucketPruner.obj
 0001:001728d0       ?removeObjects@BucketPruner@Gu@physx@@UEAAXPEBIIPEAUPrunerPayloadRemovalCallback@23@@Z 00000001801738d0 f   GuBucketPruner.obj
 0001:00172980       ?removePair@BucketPrunerMap@Gu@physx@@QEAA_NAEBUPrunerPayload@23@AEAI1@Z 0000000180173980 f   GuBucketPruner.obj
 0001:00172b00       ?removePairInternal@BucketPrunerMap@Gu@physx@@QEAAXAEBUPrunerPayload@23@II@Z 0000000180173b00 f   GuBucketPruner.obj
 0001:00172c70       ?resizeCore@BucketPrunerCore@Gu@physx@@AEAAXXZ 0000000180173c70 f   GuBucketPruner.obj
 0001:00172eb0       ?setTransform@BucketPruner@Gu@physx@@UEAA_NIAEBV?$PxTransformT@M@3@@Z 0000000180173eb0 f i GuBucketPruner.obj
 0001:00172f10       ?shiftOrigin@CompanionPrunerBucket@@UEAAXAEBV?$PxVec3T@M@physx@@@Z 0000000180173f10 f   GuSecondaryPruner.obj
 0001:00172f10       ?shiftOrigin@BucketPruner@Gu@physx@@UEAAXAEBV?$PxVec3T@M@3@@Z 0000000180173f10 f   GuBucketPruner.obj
 0001:00172f20       ?shiftOrigin@BucketPrunerCore@Gu@physx@@QEAAXAEBV?$PxVec3T@M@3@@Z 0000000180173f20 f   GuBucketPruner.obj
 0001:00173e60       ?sweep@BucketPruner@Gu@physx@@UEBA_NAEBVShapeData@23@AEBV?$PxVec3T@M@3@AEAMAEAUPrunerRaycastCallback@23@@Z 0000000180174e60 f   GuBucketPruner.obj
 0001:00173e80       ?sweep@BucketPrunerCore@Gu@physx@@QEBA_NAEBVShapeData@23@AEBV?$PxVec3T@M@3@AEAMAEAUPrunerRaycastCallback@23@@Z 0000000180174e80 f   GuBucketPruner.obj
 0001:00173f50       ?updateObject@BucketPrunerCore@Gu@physx@@QEAA_NAEBVPxBounds3@3@AEBUPrunerPayload@23@AEBV?$PxTransformT@M@3@@Z 0000000180174f50 f   GuBucketPruner.obj
 0001:00173fb0       ?updateObjects@BucketPruner@Gu@physx@@UEAAXPEBIIM0PEBVPxBounds3@3@PEBUPxTransformPadded@3@@Z 0000000180174fb0 f   GuBucketPruner.obj
 0001:001740c0       ?visualize@CompanionPrunerBucket@@UEBAXAEAVPxRenderOutput@physx@@I@Z 00000001801750c0 f   GuSecondaryPruner.obj
 0001:001740c0       ?visualize@BucketPruner@Gu@physx@@UEBAXAEAVPxRenderOutput@3@II@Z 00000001801750c0 f   GuBucketPruner.obj
 0001:001740d0       ?visualize@BucketPrunerCore@Gu@physx@@QEBAXAEAVPxRenderOutput@3@I@Z 00000001801750d0 f   GuBucketPruner.obj
 0001:001743c0       ?addObject@MaverickNode@Gu@physx@@QEAA_NAEBUPrunerPayload@23@IAEBVPxBounds3@3@AEBV?$PxTransformT@M@3@I@Z 00000001801753c0 f   GuMaverickNode.obj
 0001:001744a0       ?removeMarkedObjects@MaverickNode@Gu@physx@@QEAAII@Z 00000001801754a0 f   GuMaverickNode.obj
 0001:00174620       ?removeObject@MaverickNode@Gu@physx@@QEAA_NIAEAI@Z 0000000180175620 f   GuMaverickNode.obj
 0001:00174790       ?shiftOrigin@MaverickNode@Gu@physx@@QEAAXAEBV?$PxVec3T@M@3@@Z 0000000180175790 f   GuMaverickNode.obj
 0001:00174880       ?updateObject@MaverickNode@Gu@physx@@QEAA_NIAEBVPxBounds3@3@AEBV?$PxTransformT@M@3@@Z 0000000180175880 f   GuMaverickNode.obj
 0001:00174960       ??0ExtendedBucketPruner@Gu@physx@@QEAA@_KW4CompanionPrunerType@12@PEBVPruningPool@12@@Z 0000000180175960 f   GuExtendedBucketPruner.obj
 0001:00174bb0       ??1ExtendedBucketPruner@Gu@physx@@QEAA@XZ 0000000180175bb0 f   GuExtendedBucketPruner.obj
 0001:00174d10       ??R?$AABBTreeOverlap@$00U?$OBBAABBTests@$00@Gu@physx@@VAABBTree@23@UBVHNode@23@U?$MainTreeOverlapPrunerCallback@U?$OBBAABBTests@$00@Gu@physx@@@@@Gu@physx@@QEAA_NAEBVAABBTreeBounds@12@AEBVAABBTree@12@AEBU?$OBBAABBTests@$00@12@AEAU?$MainTreeOverlapPrunerCallback@U?$OBBAABBTests@$00@Gu@physx@@@@@Z 0000000180175d10 f i GuExtendedBucketPruner.obj
 0001:001752f0       ??R?$AABBTreeOverlap@$00U?$OBBAABBTests@$00@Gu@physx@@VAABBTree@23@UBVHNode@23@UOverlapCallbackAdapter@23@@Gu@physx@@QEAA_NAEBVAABBTreeBounds@12@AEBVAABBTree@12@AEBU?$OBBAABBTests@$00@12@AEAUOverlapCallbackAdapter@12@@Z 00000001801762f0 f i GuExtendedBucketPruner.obj
 0001:001758b0       ??R?$AABBTreeOverlap@$00UAABBAABBTest@Gu@physx@@VAABBTree@23@UBVHNode@23@U?$MainTreeOverlapPrunerCallback@UAABBAABBTest@Gu@physx@@@@@Gu@physx@@QEAA_NAEBVAABBTreeBounds@12@AEBVAABBTree@12@AEBUAABBAABBTest@12@AEAU?$MainTreeOverlapPrunerCallback@UAABBAABBTest@Gu@physx@@@@@Z 00000001801768b0 f i GuExtendedBucketPruner.obj
 0001:00175b50       ??R?$AABBTreeOverlap@$00UAABBAABBTest@Gu@physx@@VAABBTree@23@UBVHNode@23@UOverlapCallbackAdapter@23@@Gu@physx@@QEAA_NAEBVAABBTreeBounds@12@AEBVAABBTree@12@AEBUAABBAABBTest@12@AEAUOverlapCallbackAdapter@12@@Z 0000000180176b50 f i GuExtendedBucketPruner.obj
 0001:00175de0       ??R?$AABBTreeOverlap@$00UCapsuleAABBTest@Gu@physx@@VAABBTree@23@UBVHNode@23@U?$MainTreeOverlapPrunerCallback@UCapsuleAABBTest@Gu@physx@@@@@Gu@physx@@QEAA_NAEBVAABBTreeBounds@12@AEBVAABBTree@12@AEBUCapsuleAABBTest@12@AEAU?$MainTreeOverlapPrunerCallback@UCapsuleAABBTest@Gu@physx@@@@@Z 0000000180176de0 f i GuExtendedBucketPruner.obj
 0001:00176180       ??R?$AABBTreeOverlap@$00UCapsuleAABBTest@Gu@physx@@VAABBTree@23@UBVHNode@23@UOverlapCallbackAdapter@23@@Gu@physx@@QEAA_NAEBVAABBTreeBounds@12@AEBVAABBTree@12@AEBUCapsuleAABBTest@12@AEAUOverlapCallbackAdapter@12@@Z 0000000180177180 f i GuExtendedBucketPruner.obj
 0001:00176510       ??R?$AABBTreeOverlap@$00USphereAABBTest@Gu@physx@@VAABBTree@23@UBVHNode@23@U?$MainTreeOverlapPrunerCallback@USphereAABBTest@Gu@physx@@@@@Gu@physx@@QEAA_NAEBVAABBTreeBounds@12@AEBVAABBTree@12@AEBUSphereAABBTest@12@AEAU?$MainTreeOverlapPrunerCallback@USphereAABBTest@Gu@physx@@@@@Z 0000000180177510 f i GuExtendedBucketPruner.obj
 0001:00176820       ??R?$AABBTreeOverlap@$00USphereAABBTest@Gu@physx@@VAABBTree@23@UBVHNode@23@UOverlapCallbackAdapter@23@@Gu@physx@@QEAA_NAEBVAABBTreeBounds@12@AEBVAABBTree@12@AEBUSphereAABBTest@12@AEAUOverlapCallbackAdapter@12@@Z 0000000180177820 f i GuExtendedBucketPruner.obj
 0001:00176b10       ??R?$AABBTreeRaycast@$00$00VAABBTree@Gu@physx@@UBVHNode@23@U?$MainTreeRaycastPrunerCallback@$00@@@Gu@physx@@QEAA_NAEBVAABBTreeBounds@12@AEBVAABBTree@12@AEBV?$PxVec3T@M@2@2AEAM2AEAU?$MainTreeRaycastPrunerCallback@$00@@@Z 0000000180177b10 f i GuExtendedBucketPruner.obj
 0001:00177200       ??R?$AABBTreeRaycast@$00$00VAABBTree@Gu@physx@@UBVHNode@23@URaycastCallbackAdapter@23@@Gu@physx@@QEAA_NAEBVAABBTreeBounds@12@AEBVAABBTree@12@AEBV?$PxVec3T@M@2@2AEAM2AEAURaycastCallbackAdapter@12@@Z 0000000180178200 f i GuExtendedBucketPruner.obj
 0001:001778a0       ??R?$AABBTreeRaycast@$0A@$00VAABBTree@Gu@physx@@UBVHNode@23@U?$MainTreeRaycastPrunerCallback@$0A@@@@Gu@physx@@QEAA_NAEBVAABBTreeBounds@12@AEBVAABBTree@12@AEBV?$PxVec3T@M@2@2AEAM2AEAU?$MainTreeRaycastPrunerCallback@$0A@@@@Z 00000001801788a0 f i GuExtendedBucketPruner.obj
 0001:00177f40       ??R?$AABBTreeRaycast@$0A@$00VAABBTree@Gu@physx@@UBVHNode@23@URaycastCallbackAdapter@23@@Gu@physx@@QEAA_NAEBVAABBTreeBounds@12@AEBVAABBTree@12@AEBV?$PxVec3T@M@2@2AEAM2AEAURaycastCallbackAdapter@12@@Z 0000000180178f40 f i GuExtendedBucketPruner.obj
 0001:001785a0       ?addTree@ExtendedBucketPruner@Gu@physx@@QEAAXAEBVAABBTreeMergeData@23@I@Z 00000001801795a0 f   GuExtendedBucketPruner.obj
 0001:00178860       ?buildMainAABBTree@ExtendedBucketPruner@Gu@physx@@AEAAXXZ 0000000180179860 f   GuExtendedBucketPruner.obj
 0001:00178900       ?create@?$PxHashBase@V?$PxPair@$$CBUPrunerPayload@Gu@physx@@UExtendedBucketPrunerData@23@@physx@@UPrunerPayload@Gu@2@UExtendedBucketPrunerHash@42@UGetKey@?$PxHashMapBase@UPrunerPayload@Gu@physx@@UExtendedBucketPrunerData@23@UExtendedBucketPrunerHash@23@VPxAllocator@3@@2@VPxAllocator@2@$00@physx@@QEAAPEAV?$PxPair@$$CBUPrunerPayload@Gu@physx@@UExtendedBucketPrunerData@23@@2@AEBUPrunerPayload@Gu@2@AEA_N@Z 0000000180179900 f i GuExtendedBucketPruner.obj
 0001:00178ac0       ?eraseCurrentGetNext@PxEraseIterator@?$PxHashBase@V?$PxPair@$$CBUPrunerPayload@Gu@physx@@UExtendedBucketPrunerData@23@@physx@@UPrunerPayload@Gu@2@UExtendedBucketPrunerHash@42@UGetKey@?$PxHashMapBase@UPrunerPayload@Gu@physx@@UExtendedBucketPrunerData@23@UExtendedBucketPrunerHash@23@VPxAllocator@3@@2@VPxAllocator@2@$00@physx@@QEAAPEAV?$PxPair@$$CBUPrunerPayload@Gu@physx@@UExtendedBucketPrunerData@23@@3@_N@Z 0000000180179ac0 f i GuExtendedBucketPruner.obj
 0001:00178bb0       ?eraseInternal@?$PxHashBase@V?$PxPair@$$CBUPrunerPayload@Gu@physx@@UExtendedBucketPrunerData@23@@physx@@UPrunerPayload@Gu@2@UExtendedBucketPrunerHash@42@UGetKey@?$PxHashMapBase@UPrunerPayload@Gu@physx@@UExtendedBucketPrunerData@23@UExtendedBucketPrunerHash@23@VPxAllocator@3@@2@VPxAllocator@2@$00@physx@@AEAA_NPEAI@Z 0000000180179bb0 f i GuExtendedBucketPruner.obj
 0001:00178cd0       ?find@?$PxHashMapBase@UPrunerPayload@Gu@physx@@UExtendedBucketPrunerData@23@UExtendedBucketPrunerHash@23@VPxAllocator@3@@physx@@QEBAPEBV?$PxPair@$$CBUPrunerPayload@Gu@physx@@UExtendedBucketPrunerData@23@@2@AEBUPrunerPayload@Gu@2@@Z 0000000180179cd0 f i GuExtendedBucketPruner.obj
 0001:00178dc0       ?getGlobalBounds@ExtendedBucketPruner@Gu@physx@@QEBAXAEAVPxBounds3@3@@Z 0000000180179dc0 f   GuExtendedBucketPruner.obj
 0001:00178e90       ?overlap@ExtendedBucketPruner@Gu@physx@@QEBA_NAEBVShapeData@23@AEAUPrunerOverlapCallback@23@@Z 0000000180179e90 f   GuExtendedBucketPruner.obj
 0001:00179680       ?raycast@ExtendedBucketPruner@Gu@physx@@QEBA_NAEBV?$PxVec3T@M@3@0AEAMAEAUPrunerRaycastCallback@23@@Z 000000018017a680 f   GuExtendedBucketPruner.obj
 0001:00179760       ?refitMarkedNodes@ExtendedBucketPruner@Gu@physx@@QEAAXPEBVPxBounds3@3@@Z 000000018017a760 f   GuExtendedBucketPruner.obj
 0001:00179c60       ?release@ExtendedBucketPruner@Gu@physx@@QEAAXXZ 000000018017ac60 f   GuExtendedBucketPruner.obj
 0001:00179d30       ?removeMarkedObjects@ExtendedBucketPruner@Gu@physx@@QEAAII@Z 000000018017ad30 f   GuExtendedBucketPruner.obj
 0001:0017a050       ?removeObject@ExtendedBucketPruner@Gu@physx@@QEAA_NAEBUPrunerPayload@23@II0I@Z 000000018017b050 f   GuExtendedBucketPruner.obj
 0001:0017a320       ?reserveInternal@?$PxHashBase@V?$PxPair@$$CBUPrunerPayload@Gu@physx@@UExtendedBucketPrunerData@23@@physx@@UPrunerPayload@Gu@2@UExtendedBucketPrunerHash@42@UGetKey@?$PxHashMapBase@UPrunerPayload@Gu@physx@@UExtendedBucketPrunerData@23@UExtendedBucketPrunerHash@23@VPxAllocator@3@@2@VPxAllocator@2@$00@physx@@AEAAXI@Z 000000018017b320 f i GuExtendedBucketPruner.obj
 0001:0017a520       ?shiftOrigin@ExtendedBucketPruner@Gu@physx@@QEAAXAEBV?$PxVec3T@M@3@@Z 000000018017b520 f   GuExtendedBucketPruner.obj
 0001:0017a5a0       ?swapIndex@ExtendedBucketPruner@Gu@physx@@QEAAXIAEBUPrunerPayload@23@I_N@Z 000000018017b5a0 f   GuExtendedBucketPruner.obj
 0001:0017a670       ?sweep@ExtendedBucketPruner@Gu@physx@@QEBA_NAEBVShapeData@23@AEBV?$PxVec3T@M@3@AEAMAEAUPrunerRaycastCallback@23@@Z 000000018017b670 f   GuExtendedBucketPruner.obj
 0001:0017a800       ?traverseHashEntries@PxEraseIterator@?$PxHashBase@V?$PxPair@$$CBUPrunerPayload@Gu@physx@@UExtendedBucketPrunerData@23@@physx@@UPrunerPayload@Gu@2@UExtendedBucketPrunerHash@42@UGetKey@?$PxHashMapBase@UPrunerPayload@Gu@physx@@UExtendedBucketPrunerData@23@UExtendedBucketPrunerHash@23@VPxAllocator@3@@2@VPxAllocator@2@$00@physx@@AEAAPEAV?$PxPair@$$CBUPrunerPayload@Gu@physx@@UExtendedBucketPrunerData@23@@3@XZ 000000018017b800 f i GuExtendedBucketPruner.obj
 0001:0017a850       ?updateObject@ExtendedBucketPruner@Gu@physx@@QEAA_NAEBVPxBounds3@3@AEBV?$PxTransformT@M@3@AEBUPrunerPayload@23@II@Z 000000018017b850 f   GuExtendedBucketPruner.obj
 0001:0017a920       ?visualize@ExtendedBucketPruner@Gu@physx@@QEBAXAEAVPxRenderOutput@3@I@Z 000000018017b920 f   GuExtendedBucketPruner.obj
 0001:0017a9b0       ??0?$OBBAABBTests@$00@Gu@physx@@QEAA@AEBV?$PxVec3T@M@2@AEBV?$PxMat33T@M@2@0@Z 000000018017b9b0 f i GuSecondaryPruner.obj
 0001:0017c8b0       ??_ECompanionPruner@Gu@physx@@UEAAPEAXI@Z 000000018017d8b0 f i GuSecondaryPruner.obj
 0001:0017c8b0       ??_GCompanionPruner@Gu@physx@@UEAAPEAXI@Z 000000018017d8b0 f i GuSecondaryPruner.obj
 0001:0017c900       ??_ECompanionPrunerAABBTree@@UEAAPEAXI@Z 000000018017d900 f i GuSecondaryPruner.obj
 0001:0017c900       ??_GCompanionPrunerAABBTree@@UEAAPEAXI@Z 000000018017d900 f i GuSecondaryPruner.obj
 0001:0017c9b0       ??_GCompanionPrunerBucket@@UEAAPEAXI@Z 000000018017d9b0 f i GuSecondaryPruner.obj
 0001:0017c9b0       ??_ECompanionPrunerBucket@@UEAAPEAXI@Z 000000018017d9b0 f i GuSecondaryPruner.obj
 0001:0017ca30       ??_ECompanionPrunerIncremental@@UEAAPEAXI@Z 000000018017da30 f i GuSecondaryPruner.obj
 0001:0017ca30       ??_GCompanionPrunerIncremental@@UEAAPEAXI@Z 000000018017da30 f i GuSecondaryPruner.obj
 0001:0017cab0       ?addObject@CompanionPrunerAABBTree@@UEAA_NAEBUPrunerPayload@Gu@physx@@IAEBVPxBounds3@4@AEBV?$PxTransformT@M@4@II@Z 000000018017dab0 f   GuSecondaryPruner.obj
 0001:0017ccf0       ?addObject@CompanionPrunerBucket@@UEAA_NAEBUPrunerPayload@Gu@physx@@IAEBVPxBounds3@4@AEBV?$PxTransformT@M@4@II@Z 000000018017dcf0 f i GuSecondaryPruner.obj
 0001:0017cd10       ?addObject@CompanionPrunerIncremental@@UEAA_NAEBUPrunerPayload@Gu@physx@@IAEBVPxBounds3@4@AEBV?$PxTransformT@M@4@II@Z 000000018017dd10 f i GuSecondaryPruner.obj
 0001:0017cd30       ?addObjectInternal@CompanionPrunerAABBTree@@QEAA_NII@Z 000000018017dd30 f   GuSecondaryPruner.obj
 0001:0017ced0       ?build@CompanionPrunerAABBTree@@UEAAXXZ 000000018017ded0 f   GuSecondaryPruner.obj
 0001:0017d3a0       ?createCompanionPruner@Gu@physx@@YAPEAVCompanionPruner@12@_KW4CompanionPrunerType@12@PEBVPruningPool@12@@Z 000000018017e3a0 f   GuSecondaryPruner.obj
 0001:0017d5b0       ?getGlobalBounds@CompanionPrunerAABBTree@@UEBAXAEAVPxBounds3@physx@@@Z 000000018017e5b0 f   GuSecondaryPruner.obj
 0001:0017d6c0       ?getGlobalBounds@CompanionPrunerBucket@@UEBAXAEAVPxBounds3@physx@@@Z 000000018017e6c0 f i GuSecondaryPruner.obj
 0001:0017d6d0       ?getGlobalBounds@CompanionPrunerIncremental@@UEBAXAEAVPxBounds3@physx@@@Z 000000018017e6d0 f i GuSecondaryPruner.obj
 0001:0017d6e0       ?getNbObjects@CompanionPrunerAABBTree@@UEBAIXZ 000000018017e6e0 f   GuSecondaryPruner.obj
 0001:0017d6f0       ?getNbObjects@CompanionPrunerBucket@@UEBAIXZ 000000018017e6f0 f i GuSecondaryPruner.obj
 0001:0017d700       ?getNbObjects@CompanionPrunerIncremental@@UEBAIXZ 000000018017e700 f i GuSecondaryPruner.obj
 0001:0017d710       ?growAndPushBack@?$PxArray@ULocalData@CompanionPrunerAABBTree@@V?$PxReflectionAllocator@ULocalData@CompanionPrunerAABBTree@@@physx@@@physx@@IEAAAEAULocalData@CompanionPrunerAABBTree@@AEBU34@@Z 000000018017e710 f i GuSecondaryPruner.obj
 0001:0017d830       ?overlap@CompanionPrunerAABBTree@@UEBA_NAEBVShapeData@Gu@physx@@AEAUPrunerOverlapCallback@34@@Z 000000018017e830 f   GuSecondaryPruner.obj
 0001:0017e990       ?overlap@CompanionPrunerBucket@@UEBA_NAEBVShapeData@Gu@physx@@AEAUPrunerOverlapCallback@34@@Z 000000018017f990 f i GuSecondaryPruner.obj
 0001:0017e9b0       ?overlap@CompanionPrunerIncremental@@UEBA_NAEBVShapeData@Gu@physx@@AEAUPrunerOverlapCallback@34@@Z 000000018017f9b0 f i GuSecondaryPruner.obj
 0001:0017e9d0       ?raycast@CompanionPrunerAABBTree@@UEBA_NAEBV?$PxVec3T@M@physx@@0AEAMAEAUPrunerRaycastCallback@Gu@3@@Z 000000018017f9d0 f   GuSecondaryPruner.obj
 0001:0017edb0       ?raycast@CompanionPrunerBucket@@UEBA_NAEBV?$PxVec3T@M@physx@@0AEAMAEAUPrunerRaycastCallback@Gu@3@@Z 000000018017fdb0 f i GuSecondaryPruner.obj
 0001:0017edd0       ?raycast@CompanionPrunerIncremental@@UEBA_NAEBV?$PxVec3T@M@physx@@0AEAMAEAUPrunerRaycastCallback@Gu@3@@Z 000000018017fdd0 f i GuSecondaryPruner.obj
 0001:0017edf0       ?release@CompanionPrunerAABBTree@@UEAAXXZ 000000018017fdf0 f   GuSecondaryPruner.obj
 0001:0017ee00       ?release@CompanionPrunerBucket@@UEAAXXZ 000000018017fe00 f i GuSecondaryPruner.obj
 0001:0017ee10       ?release@CompanionPrunerIncremental@@UEAAXXZ 000000018017fe10 f i GuSecondaryPruner.obj
 0001:0017ee20       ?releaseInternal@CompanionPrunerAABBTree@@QEAAXXZ 000000018017fe20 f   GuSecondaryPruner.obj
 0001:0017eea0       ?removeMarkedObjects@CompanionPrunerAABBTree@@UEAAII@Z 000000018017fea0 f   GuSecondaryPruner.obj
 0001:0017eec0       ?removeMarkedObjects@CompanionPrunerBucket@@UEAAII@Z 000000018017fec0 f i GuSecondaryPruner.obj
 0001:0017eed0       ?removeMarkedObjects@CompanionPrunerIncremental@@UEAAII@Z 000000018017fed0 f i GuSecondaryPruner.obj
 0001:0017eee0       ?removeObject@CompanionPrunerAABBTree@@UEAA_NAEBUPrunerPayload@Gu@physx@@III@Z 000000018017fee0 f   GuSecondaryPruner.obj
 0001:0017ef80       ?removeObject@CompanionPrunerBucket@@UEAA_NAEBUPrunerPayload@Gu@physx@@III@Z 000000018017ff80 f i GuSecondaryPruner.obj
 0001:0017efa0       ?removeObject@CompanionPrunerIncremental@@UEAA_NAEBUPrunerPayload@Gu@physx@@III@Z 000000018017ffa0 f i GuSecondaryPruner.obj
 0001:0017efc0       ?shiftOrigin@CompanionPrunerAABBTree@@UEAAXAEBV?$PxVec3T@M@physx@@@Z 000000018017ffc0 f   GuSecondaryPruner.obj
 0001:0017f0f0       ?shiftOrigin@CompanionPrunerIncremental@@UEAAXAEBV?$PxVec3T@M@physx@@@Z 00000001801800f0 f i GuSecondaryPruner.obj
 0001:0017f100       ?swapIndex@CompanionPrunerIncremental@@UEAAXII@Z 0000000180180100 f i GuSecondaryPruner.obj
 0001:0017f110       ?sweep@CompanionPrunerAABBTree@@UEBA_NAEBVShapeData@Gu@physx@@AEBV?$PxVec3T@M@4@AEAMAEAUPrunerRaycastCallback@34@@Z 0000000180180110 f   GuSecondaryPruner.obj
 0001:0017f640       ?sweep@CompanionPrunerBucket@@UEBA_NAEBVShapeData@Gu@physx@@AEBV?$PxVec3T@M@4@AEAMAEAUPrunerRaycastCallback@34@@Z 0000000180180640 f i GuSecondaryPruner.obj
 0001:0017f660       ?sweep@CompanionPrunerIncremental@@UEBA_NAEBVShapeData@Gu@physx@@AEBV?$PxVec3T@M@4@AEAMAEAUPrunerRaycastCallback@34@@Z 0000000180180660 f i GuSecondaryPruner.obj
 0001:0017f680       ?timeStampChange@CompanionPrunerIncremental@@UEAAXXZ 0000000180180680 f i GuSecondaryPruner.obj
 0001:0017f6a0       ?updateObject@CompanionPrunerAABBTree@@UEAA_NAEBUPrunerPayload@Gu@physx@@IAEBVPxBounds3@4@AEBV?$PxTransformT@M@4@I@Z 00000001801806a0 f   GuSecondaryPruner.obj
 0001:0017f720       ?updateObject@CompanionPrunerBucket@@UEAA_NAEBUPrunerPayload@Gu@physx@@IAEBVPxBounds3@4@AEBV?$PxTransformT@M@4@I@Z 0000000180180720 f i GuSecondaryPruner.obj
 0001:0017f740       ?updateObject@CompanionPrunerIncremental@@UEAA_NAEBUPrunerPayload@Gu@physx@@IAEBVPxBounds3@4@AEBV?$PxTransformT@M@4@I@Z 0000000180180740 f i GuSecondaryPruner.obj
 0001:0017f750       ?visualize@CompanionPrunerAABBTree@@UEBAXAEAVPxRenderOutput@physx@@I@Z 0000000180180750 f   GuSecondaryPruner.obj
 0001:0017f770       ?visualize@CompanionPrunerIncremental@@UEBAXAEAVPxRenderOutput@physx@@I@Z 0000000180180770 f i GuSecondaryPruner.obj
 0001:0017f780       ??0AABBPruner@Gu@physx@@QEAA@_N_KW4CompanionPrunerType@12@W4BVHBuildStrategy@12@I@Z 0000000180180780 f   GuAABBPruner.obj
 0001:0017f8b0       ??1AABBPruner@Gu@physx@@UEAA@XZ 00000001801808b0 f   GuAABBPruner.obj
 0001:0017fa00       ??_GAABBPruner@Gu@physx@@UEAAPEAXI@Z 0000000180180a00 f i GuAABBPruner.obj
 0001:0017fa00       ??_EAABBPruner@Gu@physx@@UEAAPEAXI@Z 0000000180180a00 f i GuAABBPruner.obj
 0001:0017fa70       ?addObjects@AABBPruner@Gu@physx@@UEAA_NPEAIPEBVPxBounds3@3@PEBUPrunerPayload@23@PEBV?$PxTransformT@M@3@I_N@Z 0000000180180a70 f   GuAABBPruner.obj
 0001:0017fd20       ?buildStep@AABBPruner@Gu@physx@@UEAA_N_N@Z 0000000180180d20 f   GuAABBPruner.obj
 0001:00180120       ?commit@AABBPruner@Gu@physx@@UEAAXXZ 0000000180181120 f   GuAABBPruner.obj
 0001:001807f0       ?fullRebuildAABBTree@AABBPruner@Gu@physx@@QEAA_NXZ 00000001801817f0 f   GuAABBPruner.obj
 0001:001809f0       ?getGlobalBounds@AABBPruner@Gu@physx@@UEBAXAEAVPxBounds3@3@@Z 00000001801819f0 f   GuAABBPruner.obj
 0001:00180b20       ?getPayloadData@AABBPruner@Gu@physx@@UEBAAEBUPrunerPayload@23@IPEAUPrunerPayloadData@23@@Z 0000000180181b20 f i GuAABBPruner.obj
 0001:00180b80       ?growAndPushBack@?$PxArray@UNewTreeFixup@AABBPruner@Gu@physx@@V?$PxReflectionAllocator@UNewTreeFixup@AABBPruner@Gu@physx@@@4@@physx@@IEAAAEAUNewTreeFixup@AABBPruner@Gu@2@AEBU3452@@Z 0000000180181b80 f i GuAABBPruner.obj
 0001:00180ca0       ?isDynamic@AABBPruner@Gu@physx@@UEBA_NXZ 0000000180181ca0 f i GuAABBPruner.obj
 0001:00180cb0       ?merge@AABBPruner@Gu@physx@@UEAAXPEBX@Z 0000000180181cb0 f   GuAABBPruner.obj
 0001:00180d30       ?overlap@AABBPruner@Gu@physx@@UEBA_NAEBVShapeData@23@AEAUPrunerOverlapCallback@23@@Z 0000000180181d30 f   GuAABBPruner.obj
 0001:00181310       ?preallocate@AABBPruner@Gu@physx@@UEAAXI@Z 0000000180182310 f i GuAABBPruner.obj
 0001:00181320       ?prepareBuild@AABBPruner@Gu@physx@@UEAA_NXZ 0000000180182320 f   GuAABBPruner.obj
 0001:00181520       ?purge@AABBPruner@Gu@physx@@UEAAXXZ 0000000180182520 f   GuAABBPruner.obj
 0001:00181540       ?raycast@AABBPruner@Gu@physx@@UEBA_NAEBV?$PxVec3T@M@3@0AEAMAEAUPrunerRaycastCallback@23@@Z 0000000180182540 f   GuAABBPruner.obj
 0001:00181630       ?refitUpdatedAndRemoved@AABBPruner@Gu@physx@@QEAAXXZ 0000000180182630 f   GuAABBPruner.obj
 0001:00181700       ?release@AABBPruner@Gu@physx@@QEAAXXZ 0000000180182700 f   GuAABBPruner.obj
 0001:00181830       ?removeObjects@AABBPruner@Gu@physx@@UEAAXPEBIIPEAUPrunerPayloadRemovalCallback@23@@Z 0000000180182830 f   GuAABBPruner.obj
 0001:00181af0       ?setRebuildRateHint@AABBPruner@Gu@physx@@UEAAXI@Z 0000000180182af0 f   GuAABBPruner.obj
 0001:00181b10       ?setTransform@AABBPruner@Gu@physx@@UEAA_NIAEBV?$PxTransformT@M@3@@Z 0000000180182b10 f i GuAABBPruner.obj
 0001:00181b70       ?shiftOrigin@AABBPruner@Gu@physx@@UEAAXAEBV?$PxVec3T@M@3@@Z 0000000180182b70 f   GuAABBPruner.obj
 0001:00181be0       ?sweep@AABBPruner@Gu@physx@@UEBA_NAEBVShapeData@23@AEBV?$PxVec3T@M@3@AEAMAEAUPrunerRaycastCallback@23@@Z 0000000180182be0 f   GuAABBPruner.obj
 0001:00181d70       ?updateObjects@AABBPruner@Gu@physx@@UEAAXPEBIIM0PEBVPxBounds3@3@PEBUPxTransformPadded@3@@Z 0000000180182d70 f   GuAABBPruner.obj
 0001:00182010       ?visualize@AABBPruner@Gu@physx@@UEBAXAEAVPxRenderOutput@3@II@Z 0000000180183010 f   GuAABBPruner.obj
 0001:001820c0       ??0ActorShapeMap@Gu@physx@@QEAA@XZ 00000001801830c0 f   GuActorShapeMap.obj
 0001:00182120       ??1ActorShapeMap@Gu@physx@@QEAA@XZ 0000000180183120 f   GuActorShapeMap.obj
 0001:00182180       ?add@ActorShapeMap@Gu@physx@@QEAA_NIPEBX0_K@Z 0000000180183180 f   GuActorShapeMap.obj
 0001:00182310       ?create@?$PxHashBase@V?$PxPair@$$CBUActorShape@ActorShapeMap@Gu@physx@@_K@physx@@UActorShape@ActorShapeMap@Gu@2@U?$PxHash@UActorShape@ActorShapeMap@Gu@physx@@@2@UGetKey@?$PxHashMapBase@UActorShape@ActorShapeMap@Gu@physx@@_KU?$PxHash@UActorShape@ActorShapeMap@Gu@physx@@@4@VPxAllocator@4@@2@VPxAllocator@2@$00@physx@@QEAAPEAV?$PxPair@$$CBUActorShape@ActorShapeMap@Gu@physx@@_K@2@AEBUActorShape@ActorShapeMap@Gu@2@AEA_N@Z 0000000180183310 f i GuActorShapeMap.obj
 0001:00182500       ?erase@?$PxHashBase@V?$PxPair@$$CBUActorShape@ActorShapeMap@Gu@physx@@_K@physx@@UActorShape@ActorShapeMap@Gu@2@U?$PxHash@UActorShape@ActorShapeMap@Gu@physx@@@2@UGetKey@?$PxHashMapBase@UActorShape@ActorShapeMap@Gu@physx@@_KU?$PxHash@UActorShape@ActorShapeMap@Gu@physx@@@4@VPxAllocator@4@@2@VPxAllocator@2@$00@physx@@QEAA_NAEBUActorShape@ActorShapeMap@Gu@2@AEAV?$PxPair@$$CBUActorShape@ActorShapeMap@Gu@physx@@_K@2@@Z 0000000180183500 f i GuActorShapeMap.obj
 0001:00182710       ?find@ActorShapeMap@Gu@physx@@QEBA_KIPEBX0@Z 0000000180183710 f   GuActorShapeMap.obj
 0001:00182800       ?remove@ActorShapeMap@Gu@physx@@QEAA_NIPEBX0PEA_K@Z 0000000180183800 f   GuActorShapeMap.obj
 0001:00182890       ?reserveInternal@?$PxHashBase@V?$PxPair@$$CBUActorShape@ActorShapeMap@Gu@physx@@_K@physx@@UActorShape@ActorShapeMap@Gu@2@U?$PxHash@UActorShape@ActorShapeMap@Gu@physx@@@2@UGetKey@?$PxHashMapBase@UActorShape@ActorShapeMap@Gu@physx@@_KU?$PxHash@UActorShape@ActorShapeMap@Gu@physx@@@4@VPxAllocator@4@@2@VPxAllocator@2@$00@physx@@AEAAXI@Z 0000000180183890 f i GuActorShapeMap.obj
 0001:00182ab0       ??0QuerySystem@Gu@physx@@QEAA@_KMAEBVAdapter@12@_N@Z 0000000180183ab0 f   GuQuerySystem.obj
 0001:00182b90       ??1QuerySystem@Gu@physx@@QEAA@XZ 0000000180183b90 f   GuQuerySystem.obj
 0001:00182dd0       ??_GPrunerExt@QuerySystem@Gu@physx@@QEAAPEAXI@Z 0000000180183dd0 f i GuQuerySystem.obj
 0001:00182ed0       ?addPruner@QuerySystem@Gu@physx@@QEAAIPEAVPruner@23@I@Z 0000000180183ed0 f   GuQuerySystem.obj
 0001:00183000       ?addPrunerShape@QuerySystem@Gu@physx@@QEAA_KAEBUPrunerPayload@23@I_NAEBV?$PxTransformT@M@3@PEBVPxBounds3@3@@Z 0000000180184000 f   GuQuerySystem.obj
 0001:00183140       ?addToDirtyList@PrunerExt@QuerySystem@Gu@physx@@QEAAXIIAEBV?$PxTransformT@M@4@PEBVPxBounds3@4@@Z 0000000180184140 f   GuQuerySystem.obj
 0001:00183380       ?commitUpdates@QuerySystem@Gu@physx@@QEAAXXZ 0000000180184380 f   GuQuerySystem.obj
 0001:001834a0       ?createTreeOfPruners@QuerySystem@Gu@physx@@QEAAXXZ 00000001801844a0 f   GuQuerySystem.obj
 0001:00183680       ?flushMemory@QuerySystem@Gu@physx@@QEAAXXZ 0000000180184680 f   GuQuerySystem.obj
 0001:00183710       ?getPayloadData@QuerySystem@Gu@physx@@QEBAAEBUPrunerPayload@23@_KPEAUPrunerPayloadData@23@@Z 0000000180184710 f   GuQuerySystem.obj
 0001:00183730       ?growAndPushBack@?$PxArray@PEAUPrunerExt@QuerySystem@Gu@physx@@V?$PxReflectionAllocator@PEAUPrunerExt@QuerySystem@Gu@physx@@@4@@physx@@IEAAAEAPEAUPrunerExt@QuerySystem@Gu@2@AEBQEAU3452@@Z 0000000180184730 f i GuQuerySystem.obj
 0001:00183850       ?overlap@QuerySystem@Gu@physx@@QEBAXAEBVShapeData@23@AEAUPrunerOverlapCallback@23@PEBVPrunerFilter@23@@Z 0000000180184850 f   GuQuerySystem.obj
 0001:00183950       ?processDirtyList@PrunerExt@QuerySystem@Gu@physx@@QEAA_NAEBVAdapter@34@M@Z 0000000180184950 f   GuQuerySystem.obj
 0001:00183b70       ?processDirtyLists@QuerySystem@Gu@physx@@AEAAXXZ 0000000180184b70 f   GuQuerySystem.obj
 0001:00183cd0       ?raycast@QuerySystem@Gu@physx@@QEBAXAEBV?$PxVec3T@M@3@0AEAMAEAUPrunerRaycastCallback@23@PEBVPrunerFilter@23@@Z 0000000180184cd0 f   GuQuerySystem.obj
 0001:00183e10       ?recreate@?$PxArray@UData@PrunerExt@QuerySystem@Gu@physx@@V?$PxReflectionAllocator@UData@PrunerExt@QuerySystem@Gu@physx@@@5@@physx@@IEAAXI@Z 0000000180184e10 f i GuQuerySystem.obj
 0001:00184120       ?removePruner@QuerySystem@Gu@physx@@QEAAXI@Z 0000000180185120 f   GuQuerySystem.obj
 0001:00184200       ?removePrunerShape@QuerySystem@Gu@physx@@QEAAX_KPEAUPrunerPayloadRemovalCallback@23@@Z 0000000180185200 f   GuQuerySystem.obj
 0001:00184420       ?sweep@QuerySystem@Gu@physx@@QEBAXAEBVShapeData@23@AEBV?$PxVec3T@M@3@AEAMAEAUPrunerRaycastCallback@23@PEBVPrunerFilter@23@@Z 0000000180185420 f   GuQuerySystem.obj
 0001:00184550       ?sync@QuerySystem@Gu@physx@@QEAAXIPEBI0PEBVPxBounds3@3@PEBUPxTransformPadded@3@I@Z 0000000180185550 f   GuQuerySystem.obj
 0001:00184600       ?update@QuerySystem@Gu@physx@@QEAAX_N0@Z 0000000180185600 f   GuQuerySystem.obj
 0001:00184770       ?updatePrunerShape@QuerySystem@Gu@physx@@QEAAX_K_NAEBV?$PxTransformT@M@3@PEBVPxBounds3@3@@Z 0000000180185770 f   GuQuerySystem.obj
 0001:00184960       createAABBPruner           0000000180185960 f   GuFactory.obj
 0001:00184a20       createBucketPruner         0000000180185a20 f   GuFactory.obj
 0001:00184ab0       createIncrementalPruner    0000000180185ab0 f   GuFactory.obj
 0001:00184b40       ??$PxSmallSort@I$$CBUSortBoundsPredicate@physx@@@physx@@YAXPEAIHHAEBUSortBoundsPredicate@0@@Z 0000000180185b40 f i GuRTreeCooking.obj
 0001:00184e10       ??$PxSort@IU?$PxLess@I@physx@@V?$PxReflectionAllocator@I@2@@physx@@YAXPEAIIAEBU?$PxLess@I@0@AEBV?$PxReflectionAllocator@I@0@I@Z 0000000180185e10 f i GuRTreeCooking.obj
 0001:00185270       ??$PxSort@IUSortBoundsPredicate@physx@@V?$PxReflectionAllocator@I@2@@physx@@YAXPEAIIAEBUSortBoundsPredicate@0@AEBV?$PxReflectionAllocator@I@0@I@Z 0000000180186270 f i GuRTreeCooking.obj
 0001:00185770       ??$quickSelectFirstK@UBoundsLTE@physx@@@quickSelect@physx@@YAXPEIAIIIIAEBUBoundsLTE@1@@Z 0000000180186770 f i GuRTreeCooking.obj
 0001:00185950       ?allocate@?$PxArray@UInterval@physx@@V?$PxInlineAllocator@$0CAAA@V?$PxReflectionAllocator@UInterval@physx@@@physx@@@2@@physx@@IEAAPEAUInterval@2@I@Z 0000000180186950 f i GuRTreeCooking.obj
 0001:00185a10       ?allocate@?$PxArray@UPxBounds3V@physx@@V?$PxReflectionAllocator@UPxBounds3V@physx@@@2@@physx@@IEAAPEAUPxBounds3V@2@I@Z 0000000180186a10 f i GuRTreeCooking.obj
 0001:00185ab0       ?allocate@?$PxArray@URTreeNodeNQ@physx@@V?$PxReflectionAllocator@URTreeNodeNQ@physx@@@2@@physx@@IEAAPEAURTreeNodeNQ@2@I@Z 0000000180186ab0 f i GuRTreeCooking.obj
 0001:00185b50       ?allocate@?$PxArray@URTreeNodeQ@Gu@physx@@V?$PxReflectionAllocator@URTreeNodeQ@Gu@physx@@@3@@physx@@IEAAPEAURTreeNodeQ@Gu@2@I@Z 0000000180186b50 f i GuRTreeCooking.obj
 0001:00186840       ?buildFromTriangles@RTreeCooker@physx@@SAXAEAURTree@Gu@2@PEBV?$PxVec3T@M@2@IPEBGPEBIIAEAV?$PxArray@IV?$PxReflectionAllocator@I@physx@@@2@PEAURemapCallback@12@MW4Enum@PxMeshCookingHint@2@@Z 0000000180187840 f   GuRTreeCooking.obj
 0001:00186ae0       ?copy@?$PxArray@URTreeNodeNQ@physx@@V?$PxReflectionAllocator@URTreeNodeNQ@physx@@@2@@physx@@KAXPEAURTreeNodeNQ@2@0PEBU32@@Z 0000000180187ae0 f i GuRTreeCooking.obj
 0001:00186ca0       ?growAndPushBack@?$PxArray@UInterval@physx@@V?$PxInlineAllocator@$0CAAA@V?$PxReflectionAllocator@UInterval@physx@@@physx@@@2@@physx@@IEAAAEAUInterval@2@AEBU32@@Z 0000000180187ca0 f i GuRTreeCooking.obj
 0001:00186d80       ?growAndPushBack@?$PxArray@UPxBounds3V@physx@@V?$PxReflectionAllocator@UPxBounds3V@physx@@@2@@physx@@IEAAAEAUPxBounds3V@2@AEBU32@@Z 0000000180187d80 f i GuRTreeCooking.obj
 0001:00186e50       ?growAndPushBack@?$PxArray@URTreeNodeNQ@physx@@V?$PxReflectionAllocator@URTreeNodeNQ@physx@@@2@@physx@@IEAAAEAURTreeNodeNQ@2@AEBU32@@Z 0000000180187e50 f i GuRTreeCooking.obj
 0001:00186f30       ?growAndPushBack@?$PxArray@URTreeNodeQ@Gu@physx@@V?$PxReflectionAllocator@URTreeNodeQ@Gu@physx@@@3@@physx@@IEAAAEAURTreeNodeQ@Gu@2@AEBU342@@Z 0000000180187f30 f i GuRTreeCooking.obj
 0001:00187010       ?recreate@?$PxArray@UPxBounds3V@physx@@V?$PxReflectionAllocator@UPxBounds3V@physx@@@2@@physx@@IEAAXI@Z 0000000180188010 f i GuRTreeCooking.obj
 0001:001870c0       ?recreate@?$PxArray@URTreeNodeNQ@physx@@V?$PxReflectionAllocator@URTreeNodeNQ@physx@@@2@@physx@@IEAAXI@Z 00000001801880c0 f i GuRTreeCooking.obj
 0001:00187150       ?recreate@?$PxArray@URTreeNodeQ@Gu@physx@@V?$PxReflectionAllocator@URTreeNodeQ@Gu@physx@@@3@@physx@@IEAAXI@Z 0000000180188150 f i GuRTreeCooking.obj
 0001:00187210       ?resizeUninitialized@?$PxArray@URTreeNodeNQ@physx@@V?$PxReflectionAllocator@URTreeNodeNQ@physx@@@2@@physx@@QEAAXI@Z 0000000180188210 f i GuRTreeCooking.obj
 0001:00187250       ?sort4@SubSortQuick@physx@@QEAAXPEIAIIAEAV?$PxArray@URTreeNodeNQ@physx@@V?$PxReflectionAllocator@URTreeNodeNQ@physx@@@2@@2@AEAIAEAUPxBounds3V@2@I@Z 0000000180188250 f i GuRTreeCooking.obj
 0001:001875e0       ?sort4@SubSortSAH@physx@@QEAAXPEAIIAEAV?$PxArray@URTreeNodeNQ@physx@@V?$PxReflectionAllocator@URTreeNodeNQ@physx@@@2@@2@AEAIIPEAURTreeNodeNQ@2@@Z 00000001801885e0 f i GuRTreeCooking.obj
 0001:00187e30       ?split@SubSortSAH@physx@@QEAAIPEAII@Z 0000000180188e30 f i GuRTreeCooking.obj
 0001:00188830       cookBVH                    0000000180189830 f   GuCookingBVH.obj
 0001:00188990       createBVH                  0000000180189990 f   GuCookingBVH.obj
 0001:00188af0       cookHeightField            0000000180189af0 f   GuCookingHF.obj
 0001:00188bb0       createHeightField          0000000180189bb0 f   GuCookingHF.obj
 0001:00189190       ?isFinite@?$PxVec3T@M@physx@@QEBA_NXZ 000000018018a190 f i GuCookingConvexMesh.obj
 0001:001891f0       computeHullPolygons        000000018018a1f0 f   GuCookingConvexMesh.obj
 0001:001893d0       cookConvexMesh             000000018018a3d0 f   GuCookingConvexMesh.obj
 0001:00189540       createConvexMesh           000000018018a540 f   GuCookingConvexMesh.obj
 0001:001896e0       validateConvexMesh         000000018018a6e0 f   GuCookingConvexMesh.obj
 0001:00189800       ??1BV4TriangleMeshBuilder@physx@@UEAA@XZ 000000018018a800 f   GuCookingTriangleMesh.obj
 0001:00189890       ??1RTreeTriangleMeshBuilder@physx@@UEAA@XZ 000000018018a890 f   GuCookingTriangleMesh.obj
 0001:00189900       ??_GBV4TriangleMeshBuilder@physx@@UEAAPEAXI@Z 000000018018a900 f i GuCookingTriangleMesh.obj
 0001:00189900       ??_EBV4TriangleMeshBuilder@physx@@UEAAPEAXI@Z 000000018018a900 f i GuCookingTriangleMesh.obj
 0001:00189940       ??_GRTreeTriangleMeshBuilder@physx@@UEAAPEAXI@Z 000000018018a940 f i GuCookingTriangleMesh.obj
 0001:00189940       ??_ERTreeTriangleMeshBuilder@physx@@UEAAPEAXI@Z 000000018018a940 f i GuCookingTriangleMesh.obj
 0001:00189980       ??_ETriangleMeshBuilder@physx@@UEAAPEAXI@Z 000000018018a980 f i GuCookingTriangleMesh.obj
 0001:00189980       ??_GTriangleMeshBuilder@physx@@UEAAPEAXI@Z 000000018018a980 f i GuCookingTriangleMesh.obj
 0001:0018a320       ?buildInertiaTensor@TriangleMeshBuilder@physx@@IEAAXXZ 000000018018b320 f   GuCookingTriangleMesh.obj
 0001:0018a470       ?buildInertiaTensorFromSDF@TriangleMeshBuilder@physx@@IEAAXXZ 000000018018b470 f   GuCookingTriangleMesh.obj
 0001:0018a690       ?cleanMesh@TriangleMeshBuilder@physx@@QEAA_N_NPEAW4Enum@PxTriangleMeshCookingResult@2@@Z 000000018018b690 f   GuCookingTriangleMesh.obj
 0001:0018ab20       ?createGRBMidPhaseAndData@TriangleMeshBuilder@physx@@QEAAXI@Z 000000018018bb20 f   GuCookingTriangleMesh.obj
 0001:0018acd0       ?createMidPhaseStructure@BV32TriangleMeshBuilder@physx@@SAXAEBUPxCookingParams@2@AEAVTriangleMeshData@Gu@2@AEAVBV32Tree@52@@Z 000000018018bcd0 f   GuCookingTriangleMesh.obj
 0001:0018af00       ?createMidPhaseStructure@BV4TriangleMeshBuilder@physx@@UEAAXXZ 000000018018bf00 f   GuCookingTriangleMesh.obj
 0001:0018b1c0       ?createMidPhaseStructure@RTreeTriangleMeshBuilder@physx@@UEAAXXZ 000000018018c1c0 f   GuCookingTriangleMesh.obj
 0001:0018b2b0       ?createSharedEdgeData@TriangleMeshBuilder@physx@@QEAAX_N0@Z 000000018018c2b0 f   GuCookingTriangleMesh.obj
 0001:0018b950       ?createVertMapping@TriangleMeshBuilder@physx@@QEAAXXZ 000000018018c950 f   GuCookingTriangleMesh.obj
 0001:0018bcd0       ?importMesh@TriangleMeshBuilder@physx@@IEAA_NAEBVPxTriangleMeshDesc@2@AEBUPxCookingParams@2@PEAW4Enum@PxTriangleMeshCookingResult@2@_N@Z 000000018018ccd0 f   GuCookingTriangleMesh.obj
 0001:0018c1a0       ?isValid@PxTriangleMeshDesc@physx@@QEBA_NXZ 000000018018d1a0 f i GuCookingTriangleMesh.obj
 0001:0018c280       ?loadFromDescInternal@TriangleMeshBuilder@physx@@IEAA_NAEAVPxTriangleMeshDesc@2@PEAW4Enum@PxTriangleMeshCookingResult@2@_N@Z 000000018018d280 f   GuCookingTriangleMesh.obj
 0001:0018c4a0       ?onMeshIndexFormatChange@BV4TriangleMeshBuilder@physx@@UEAAXXZ 000000018018d4a0 f   GuCookingTriangleMesh.obj
 0001:0018c4e0       ?remap@RTreeCookerRemap@@UEAAXPEAIII@Z 000000018018d4e0 f i GuCookingTriangleMesh.obj
 0001:0018c500       ?remapTopology@TriangleMeshBuilder@physx@@QEAAXPEBI@Z 000000018018d500 f   GuCookingTriangleMesh.obj
 0001:0018c7a0       ?save@TriangleMeshBuilder@physx@@QEBA_NAEAVPxOutputStream@2@_NAEBUPxCookingParams@2@@Z 000000018018d7a0 f   GuCookingTriangleMesh.obj
 0001:0018cf60       ?saveMidPhaseStructure@BV32TriangleMeshBuilder@physx@@SAXPEAVBV32Tree@Gu@2@AEAVPxOutputStream@2@_N@Z 000000018018df60 f   GuCookingTriangleMesh.obj
 0001:0018d160       ?saveMidPhaseStructure@BV4TriangleMeshBuilder@physx@@UEBAXAEAVPxOutputStream@2@_N@Z 000000018018e160 f   GuCookingTriangleMesh.obj
 0001:0018d310       ?saveMidPhaseStructure@RTreeTriangleMeshBuilder@physx@@UEBAXAEAVPxOutputStream@2@_N@Z 000000018018e310 f   GuCookingTriangleMesh.obj
 0001:0018d550       cookTriangleMesh           000000018018e550 f   GuCookingTriangleMesh.obj
 0001:0018d860       createTriangleMesh         000000018018e860 f   GuCookingTriangleMesh.obj
 0001:0018da70       validateTriangleMesh       000000018018ea70 f   GuCookingTriangleMesh.obj
 0001:0018dd20       ??0SoftBodyCollisionData@Gu@physx@@QEAA@XZ 000000018018ed20 f i GuCookingTetrahedronMesh.obj
 0001:0018dd80       ??_GCollisionTetrahedronMeshData@Gu@physx@@UEAAPEAXI@Z 000000018018ed80 f i GuCookingTetrahedronMesh.obj
 0001:0018dd80       ??_ECollisionTetrahedronMeshData@Gu@physx@@UEAAPEAXI@Z 000000018018ed80 f i GuCookingTetrahedronMesh.obj
 0001:0018de50       ??_GPxCollisionTetrahedronMeshData@physx@@UEAAPEAXI@Z 000000018018ee50 f i GuCookingTetrahedronMesh.obj
 0001:0018de50       ??_EPxCollisionTetrahedronMeshData@physx@@UEAAPEAXI@Z 000000018018ee50 f i GuCookingTetrahedronMesh.obj
 0001:0018dea0       ??_GPxSimulationTetrahedronMeshData@physx@@UEAAPEAXI@Z 000000018018eea0 f i GuCookingTetrahedronMesh.obj
 0001:0018dea0       ??_EPxSimulationTetrahedronMeshData@physx@@UEAAPEAXI@Z 000000018018eea0 f i GuCookingTetrahedronMesh.obj
 0001:0018def0       ??_ESimulationTetrahedronMeshData@Gu@physx@@UEAAPEAXI@Z 000000018018eef0 f i GuCookingTetrahedronMesh.obj
 0001:0018def0       ??_GSimulationTetrahedronMeshData@Gu@physx@@UEAAPEAXI@Z 000000018018eef0 f i GuCookingTetrahedronMesh.obj
 0001:0018dfc0       ?closestPtPointTetrahedron@Gu@physx@@YA?AV?$PxVec3T@M@2@AEBV32@0000@Z 000000018018efc0 f i GuCookingTetrahedronMesh.obj
 0001:0018f0f0       ?combineGridModelPartitions@@YAXAEBVTetrahedronMeshData@Gu@physx@@AEAVSoftBodySimulationData@23@PEAPEAI@Z 00000001801900f0 f   GuCookingTetrahedronMesh.obj
 0001:0018f900       ?combineGridModelPartitionsHexMesh@@YAXAEBVTetrahedronMeshData@Gu@physx@@AEAVSoftBodySimulationData@23@PEAPEAI@Z 0000000180190900 f   GuCookingTetrahedronMesh.obj
 0001:00190270       ?computeBarycentric@physx@@YAXAEBV?$PxVec3T@M@1@0000AEAV?$PxVec4T@M@1@@Z 0000000180191270 f i GuCookingTetrahedronMesh.obj
 0001:00190520       ?computeCollisionData@TetrahedronMeshBuilder@physx@@SA_NAEBVPxTetrahedronMeshDesc@2@AEAVTetrahedronMeshData@Gu@2@AEAVSoftBodyCollisionData@52@AEBUPxCookingParams@2@_N@Z 0000000180191520 f   GuCookingTetrahedronMesh.obj
 0001:00190760       ?computeGridModelTetrahedronPartitions@@YAPEAIAEBVTetrahedronMeshData@Gu@physx@@AEAVSoftBodySimulationData@23@@Z 0000000180191760 f   GuCookingTetrahedronMesh.obj
 0001:00190bf0       ?computeModelsMapping@TetrahedronMeshBuilder@physx@@SAXAEAVTetrahedronMeshData@Gu@2@AEBV342@AEBVSoftBodyCollisionData@42@AEAVCollisionMeshMappingData@42@_NPEBUPxBoundedData@2@@Z 0000000180191bf0 f   GuCookingTetrahedronMesh.obj
 0001:001917d0       ?computeRestPoseAndPointMass@@YAXPEAU?$TetrahedronT@I@Gu@physx@@IPEBV?$PxVec3T@M@3@PEAMPEAV?$PxMat33T@M@3@@Z 00000001801927d0 f   GuCookingTetrahedronMesh.obj
 0001:00191c00       ?computeSimData@TetrahedronMeshBuilder@physx@@SAXAEBVPxTetrahedronMeshDesc@2@AEAVTetrahedronMeshData@Gu@2@AEAVSoftBodySimulationData@52@AEBUPxCookingParams@2@@Z 0000000180192c00 f   GuCookingTetrahedronMesh.obj
 0001:001922d0       ?computeTetData@TetrahedronMeshBuilder@physx@@SAXAEBVPxTetrahedronMeshDesc@2@AEAVTetrahedronMeshData@Gu@2@@Z 00000001801932d0 f   GuCookingTetrahedronMesh.obj
 0001:001923b0       ?computeTetrahedronPartition@@YAIPEBU?$TetrahedronT@I@Gu@physx@@IPEAII@Z 00000001801933b0 f   GuCookingTetrahedronMesh.obj
 0001:001924b0       ?createCollisionModelMapping@TetrahedronMeshBuilder@physx@@SAXAEBVTetrahedronMeshData@Gu@2@AEBVSoftBodyCollisionData@42@AEAVCollisionMeshMappingData@42@@Z 00000001801934b0 f   GuCookingTetrahedronMesh.obj
 0001:00192ab0       ?createGRBMidPhaseAndData@TetrahedronMeshBuilder@physx@@SAXIAEAVTetrahedronMeshData@Gu@2@AEAVSoftBodyCollisionData@42@AEBUPxCookingParams@2@@Z 0000000180193ab0 f   GuCookingTetrahedronMesh.obj
 0001:00193820       ?createMidPhaseStructure@BV32TetrahedronMeshBuilder@physx@@SAXAEBUPxCookingParams@2@AEAVTetrahedronMeshData@Gu@2@AEAVBV32Tree@52@AEAVSoftBodyCollisionData@52@@Z 0000000180194820 f   GuCookingTetrahedronMesh.obj
 0001:00193af0       ?createMidPhaseStructure@TetrahedronMeshBuilder@physx@@SAXAEAVTetrahedronMeshData@Gu@2@AEAVSoftBodyCollisionData@42@AEBUPxCookingParams@2@@Z 0000000180194af0 f   GuCookingTetrahedronMesh.obj
 0001:001947c0       ?getData@CollisionTetrahedronMeshData@Gu@physx@@UEAAPEAVPxSoftBodyCollisionData@3@XZ 00000001801957c0 f i GuCookingTetrahedronMesh.obj
 0001:001947c0       ?getData@SimulationTetrahedronMeshData@Gu@physx@@UEAAPEAVPxSoftBodySimulationData@3@XZ 00000001801957c0 f i GuCookingTetrahedronMesh.obj
 0001:001947c0       ?getData@CollisionTetrahedronMeshData@Gu@physx@@UEBAPEBVPxSoftBodyCollisionData@3@XZ 00000001801957c0 f i GuCookingTetrahedronMesh.obj
 0001:001947e0       ?importMesh@TetrahedronMeshBuilder@physx@@SA_NAEBVPxTetrahedronMeshDesc@2@AEBUPxCookingParams@2@AEAVTetrahedronMeshData@Gu@2@AEAVSoftBodyCollisionData@62@_N@Z 00000001801957e0 f   GuCookingTetrahedronMesh.obj
 0001:00194ad0       ?isValid@PxTetrahedronMeshDesc@physx@@QEBA_NXZ 0000000180195ad0 f i GuCookingTetrahedronMesh.obj
 0001:00194b40       ?loadFromDesc@TetrahedronMeshBuilder@physx@@SA_NAEBVPxTetrahedronMeshDesc@2@0VPxSoftBodySimulationDataDesc@2@AEAVTetrahedronMeshData@Gu@2@AEAVSoftBodySimulationData@62@2AEAVSoftBodyCollisionData@62@AEAVCollisionMeshMappingData@62@AEBUPxCookingParams@2@_N@Z 0000000180195b40 f   GuCookingTetrahedronMesh.obj
 0001:00194cb0       ?release@CollisionTetrahedronMeshData@Gu@physx@@UEAAXXZ 0000000180195cb0 f i GuCookingTetrahedronMesh.obj
 0001:00194cd0       ?reserveInternal@?$PxHashBase@V?$PxPair@$$CBVSortedTriangleInds@@I@physx@@VSortedTriangleInds@@USortedTriangleIndsHash@@UGetKey@?$PxHashMapBase@VSortedTriangleInds@@IUSortedTriangleIndsHash@@VPxAllocator@physx@@@2@VPxAllocator@2@$00@physx@@AEAAXI@Z 0000000180195cd0 f i GuCookingTetrahedronMesh.obj
 0001:00194f20       ?saveSoftBodyMeshData@TetrahedronMeshBuilder@physx@@SA_NAEAVPxOutputStream@2@_NAEBUPxCookingParams@2@AEBVTetrahedronMeshData@Gu@2@AEBVSoftBodySimulationData@62@3AEBVSoftBodyCollisionData@62@AEBVCollisionMeshMappingData@62@@Z 0000000180195f20 f   GuCookingTetrahedronMesh.obj
 0001:00195630       ?saveTetrahedronMeshData@TetrahedronMeshBuilder@physx@@SA_NAEAVPxOutputStream@2@_NAEBUPxCookingParams@2@AEBVTetrahedronMeshData@Gu@2@@Z 0000000180196630 f   GuCookingTetrahedronMesh.obj
 0001:001957e0       ?smoothMassRatiosWhilePreservingTotalMass@@YAXPEAMIPEBIHMM@Z 00000001801967e0 f   GuCookingTetrahedronMesh.obj
 0001:00195c70       ?support@?$LocalConvex@VTetrahedronV@Gu@physx@@@Gu@physx@@UEBA?AT__m128@@AEBT4@@Z 0000000180196c70 f i GuCookingTetrahedronMesh.obj
 0001:00195d30       ?support@?$LocalConvex@VTetrahedronV@Gu@physx@@@Gu@physx@@UEBA?AT__m128@@AEBT4@AEAH@Z 0000000180196d30 f i GuCookingTetrahedronMesh.obj
 0001:00195ee0       assembleSoftBodyMesh       0000000180196ee0 f   GuCookingTetrahedronMesh.obj
 0001:00195f40       assembleSoftBodyMesh_Sim   0000000180196f40 f   GuCookingTetrahedronMesh.obj
 0001:00195ff0       computeCollisionData       0000000180196ff0 f   GuCookingTetrahedronMesh.obj
 0001:00196200       computeModelsMapping       0000000180197200 f   GuCookingTetrahedronMesh.obj
 0001:00196310       computeSimulationData      0000000180197310 f   GuCookingTetrahedronMesh.obj
 0001:00196510       cookSoftBodyMesh           0000000180197510 f   GuCookingTetrahedronMesh.obj
 0001:00196af0       cookTetrahedronMesh        0000000180197af0 f   GuCookingTetrahedronMesh.obj
 0001:00196be0       createSoftBodyMesh         0000000180197be0 f   GuCookingTetrahedronMesh.obj
 0001:00197240       createTetrahedronMesh      0000000180198240 f   GuCookingTetrahedronMesh.obj
 0001:00199020       ?computeVolumeIntegrals@physx@@YA_NAEBVPxSimpleTriangleMesh@1@MAEAUPxIntegrals@1@@Z 000000018019a020 f   GuCookingVolumeIntegration.obj
 0001:00199060       ?computeVolumeIntegralsEberly@physx@@YA_NAEBVPxConvexMeshDesc@1@MAEAUPxIntegrals@1@AEBV?$PxVec3T@M@1@_N@Z 000000018019a060 f   GuCookingVolumeIntegration.obj
 0001:001996b0       ??0QuickHull@local@@QEAA@AEBUPxCookingParams@physx@@AEBVPxConvexMeshDesc@3@@Z 000000018019a6b0 f   GuCookingQuickHullConvexHullLib.obj
 0001:00199760       ??0QuickHullConvexHullLib@physx@@QEAA@AEBVPxConvexMeshDesc@1@AEBUPxCookingParams@1@@Z 000000018019a760 f   GuCookingQuickHullConvexHullLib.obj
 0001:00199850       ??1?$MemBlock@UQuickHullFace@local@@$00@local@@QEAA@XZ 000000018019a850 f i GuCookingQuickHullConvexHullLib.obj
 0001:00199850       ??1?$MemBlock@UQuickHullHalfEdge@local@@$0A@@local@@QEAA@XZ 000000018019a850 f i GuCookingQuickHullConvexHullLib.obj
 0001:00199910       ??1QuickHull@local@@QEAA@XZ 000000018019a910 f   GuCookingQuickHullConvexHullLib.obj
 0001:00199a60       ??_GConvexHull@physx@@QEAAPEAXI@Z 000000018019aa60 f i GuCookingQuickHullConvexHullLib.obj
 0001:00199b40       ??_GConvexHullLib@physx@@UEAAPEAXI@Z 000000018019ab40 f i GuCookingQuickHullConvexHullLib.obj
 0001:00199b40       ??_EConvexHullLib@physx@@UEAAPEAXI@Z 000000018019ab40 f i GuCookingQuickHullConvexHullLib.obj
 0001:00199b80       ??_GQuickHullConvexHullLib@physx@@UEAAPEAXI@Z 000000018019ab80 f i GuCookingQuickHullConvexHullLib.obj
 0001:00199b80       ??_EQuickHullConvexHullLib@physx@@UEAAPEAXI@Z 000000018019ab80 f i GuCookingQuickHullConvexHullLib.obj
 0001:00199c90       ?addPointToHull@QuickHull@local@@IEAA_NPEBUQuickHullVertex@2@AEAUQuickHullFace@2@AEA_N@Z 000000018019ac90 f   GuCookingQuickHullConvexHullLib.obj
 0001:00199f60       ?addSimplex@QuickHull@local@@IEAAXPEAUQuickHullVertex@2@_N@Z 000000018019af60 f   GuCookingQuickHullConvexHullLib.obj
 0001:0019a430       ?allocate@?$PxArray@PEAUQuickHullFace@local@@V?$PxReflectionAllocator@PEAUQuickHullFace@local@@@physx@@@physx@@IEAAPEAPEAUQuickHullFace@local@@I@Z 000000018019b430 f i GuCookingQuickHullConvexHullLib.obj
 0001:0019a4d0       ?allocate@?$PxArray@PEAUQuickHullHalfEdge@local@@V?$PxReflectionAllocator@PEAUQuickHullHalfEdge@local@@@physx@@@physx@@IEAAPEAPEAUQuickHullHalfEdge@local@@I@Z 000000018019b4d0 f i GuCookingQuickHullConvexHullLib.obj
 0001:0019a570       ?allocate@?$PxArray@PEAUQuickHullVertex@local@@V?$PxReflectionAllocator@PEAUQuickHullVertex@local@@@physx@@@physx@@IEAAPEAPEAUQuickHullVertex@local@@I@Z 000000018019b570 f i GuCookingQuickHullConvexHullLib.obj
 0001:0019a610       ?allocate@?$PxArray@UExpandPoint@local@@V?$PxReflectionAllocator@UExpandPoint@local@@@physx@@@physx@@IEAAPEAUExpandPoint@local@@I@Z 000000018019b610 f i GuCookingQuickHullConvexHullLib.obj
 0001:0019a6b0       ?allocate@?$PxArray@VPxPlane@physx@@V?$PxReflectionAllocator@VPxPlane@physx@@@2@@physx@@IEAAPEAVPxPlane@2@I@Z 000000018019b6b0 f i GuCookingQuickHullConvexHullLib.obj
 0001:0019a750       ?buildHull@QuickHull@local@@QEAA?AW4Enum@QuickHullResult@2@XZ 000000018019b750 f   GuCookingQuickHullConvexHullLib.obj
 0001:0019a9a0       ?calculateHorizon@QuickHull@local@@IEAAXAEBV?$PxVec3T@M@physx@@PEAUQuickHullHalfEdge@2@AEAUQuickHullFace@2@AEAV?$PxArray@PEAUQuickHullHalfEdge@local@@V?$PxReflectionAllocator@PEAUQuickHullHalfEdge@local@@@physx@@@4@AEAV?$PxArray@PEAUQuickHullFace@local@@V?$PxReflectionAllocator@PEAUQuickHullFace@local@@@physx@@@4@@Z 000000018019b9a0 f   GuCookingQuickHullConvexHullLib.obj
 0001:0019ab50       ?canMergeFaces@QuickHull@local@@IEAA_NAEBUQuickHullHalfEdge@2@@Z 000000018019bb50 f   GuCookingQuickHullConvexHullLib.obj
 0001:0019b380       ?cleanupForSimplex@QuickHullConvexHullLib@physx@@IEAA_NPEAV?$PxVec3T@M@2@IPEAUQuickHullVertex@local@@1AEAM2@Z 000000018019c380 f   GuCookingQuickHullConvexHullLib.obj
 0001:0019bf70       ?computeMinMaxVerts@QuickHull@local@@IEAAXXZ 000000018019cf70 f   GuCookingQuickHullConvexHullLib.obj
 0001:0019c340       ?connectHalfEdges@QuickHullFace@local@@AEAAPEAU12@PEAUQuickHullHalfEdge@2@0@Z 000000018019d340 f   GuCookingQuickHullConvexHullLib.obj
 0001:0019c6a0       ?copy@?$PxArray@UExpandPoint@local@@V?$PxReflectionAllocator@UExpandPoint@local@@@physx@@@physx@@KAXPEAUExpandPoint@local@@0PEBU34@@Z 000000018019d6a0 f i GuCookingQuickHullConvexHullLib.obj
 0001:0019c750       ?copy@?$PxArray@VPxPlane@physx@@V?$PxReflectionAllocator@VPxPlane@physx@@@2@@physx@@KAXPEAVPxPlane@2@0PEBV32@@Z 000000018019d750 f i GuCookingQuickHullConvexHullLib.obj
 0001:0019c850       ?createConvexHull@QuickHullConvexHullLib@physx@@UEAA?AW4Enum@PxConvexMeshCookingResult@2@XZ 000000018019d850 f   GuCookingQuickHullConvexHullLib.obj
 0001:0019cc40       ?createEdgeList@QuickHullConvexHullLib@physx@@UEAA_NIPEBEPEAPEAEPEAPEAG2@Z 000000018019dc40 f   GuCookingQuickHullConvexHullLib.obj
 0001:0019ce50       ?createTriangle@QuickHull@local@@IEAAPEAUQuickHullFace@2@AEBUQuickHullVertex@2@00@Z 000000018019de50 f   GuCookingQuickHullConvexHullLib.obj
 0001:0019d1e0       ?doAdjacentMerge@QuickHull@local@@IEAA_NAEAUQuickHullFace@2@_NAEA_N@Z 000000018019e1e0 f   GuCookingQuickHullConvexHullLib.obj
 0001:0019d520       ?expandHull@QuickHullConvexHullLib@physx@@IEAA?AW4Enum@PxConvexMeshCookingResult@2@XZ 000000018019e520 f   GuCookingQuickHullConvexHullLib.obj
 0001:0019e250       ?expandHullOBB@QuickHullConvexHullLib@physx@@IEAA?AW4Enum@PxConvexMeshCookingResult@2@XZ 000000018019f250 f   GuCookingQuickHullConvexHullLib.obj
 0001:0019e6a0       ?fillConvexMeshDesc@QuickHullConvexHullLib@physx@@UEAAXAEAVPxConvexMeshDesc@2@@Z 000000018019f6a0 f   GuCookingQuickHullConvexHullLib.obj
 0001:0019e6f0       ?fillConvexMeshDescFromCroppedHull@QuickHullConvexHullLib@physx@@IEAAXAEAVPxConvexMeshDesc@2@@Z 000000018019f6f0 f   GuCookingQuickHullConvexHullLib.obj
 0001:0019e8f0       ?fillConvexMeshDescFromQuickHull@QuickHullConvexHullLib@physx@@IEAAXAEAVPxConvexMeshDesc@2@@Z 000000018019f8f0 f   GuCookingQuickHullConvexHullLib.obj
 0001:0019ec80       ?findSimplex@QuickHull@local@@IEAA_NXZ 000000018019fc80 f   GuCookingQuickHullConvexHullLib.obj
 0001:0019f930       ?getFreeItem@?$MemBlock@UQuickHullFace@local@@$00@local@@QEAAPEAUQuickHullFace@2@XZ 00000001801a0930 f i GuCookingQuickHullConvexHullLib.obj
 0001:0019fa60       ?getFreeItem@?$MemBlock@UQuickHullHalfEdge@local@@$0A@@local@@QEAAPEAUQuickHullHalfEdge@2@XZ 00000001801a0a60 f i GuCookingQuickHullConvexHullLib.obj
 0001:0019fb30       ?growAndPushBack@?$PxArray@PEAUQuickHullFace@local@@V?$PxReflectionAllocator@PEAUQuickHullFace@local@@@physx@@@physx@@IEAAAEAPEAUQuickHullFace@local@@AEBQEAU34@@Z 00000001801a0b30 f i GuCookingQuickHullConvexHullLib.obj
 0001:0019fbf0       ?growAndPushBack@?$PxArray@PEAUQuickHullHalfEdge@local@@V?$PxReflectionAllocator@PEAUQuickHullHalfEdge@local@@@physx@@@physx@@IEAAAEAPEAUQuickHullHalfEdge@local@@AEBQEAU34@@Z 00000001801a0bf0 f i GuCookingQuickHullConvexHullLib.obj
 0001:0019fcb0       ?growAndPushBack@?$PxArray@PEAUQuickHullVertex@local@@V?$PxReflectionAllocator@PEAUQuickHullVertex@local@@@physx@@@physx@@IEAAAEAPEAUQuickHullVertex@local@@AEBQEAU34@@Z 00000001801a0cb0 f i GuCookingQuickHullConvexHullLib.obj
 0001:0019fd70       ?growAndPushBack@?$PxArray@UExpandPoint@local@@V?$PxReflectionAllocator@UExpandPoint@local@@@physx@@@physx@@IEAAAEAUExpandPoint@local@@AEBU34@@Z 00000001801a0d70 f i GuCookingQuickHullConvexHullLib.obj
 0001:0019fe70       ?growAndPushBack@?$PxArray@VPxPlane@physx@@V?$PxReflectionAllocator@VPxPlane@physx@@@2@@physx@@IEAAAEAVPxPlane@2@AEBV32@@Z 00000001801a0e70 f i GuCookingQuickHullConvexHullLib.obj
 0001:0019ff30       ?init@?$MemBlock@UQuickHullFace@local@@$00@local@@QEAAXI@Z 00000001801a0f30 f i GuCookingQuickHullConvexHullLib.obj
 0001:001a0030       ?init@?$MemBlock@UQuickHullHalfEdge@local@@$0A@@local@@QEAAXI@Z 00000001801a1030 f i GuCookingQuickHullConvexHullLib.obj
 0001:001a00c0       ?mergeAdjacentFace@QuickHullFace@local@@QEAA_NPEAUQuickHullHalfEdge@2@AEAV?$PxArray@PEAUQuickHullFace@local@@V?$PxReflectionAllocator@PEAUQuickHullFace@local@@@physx@@@physx@@@Z 00000001801a10c0 f   GuCookingQuickHullConvexHullLib.obj
 0001:001a0510       ?nextPointToAdd@QuickHull@local@@IEAAPEAUQuickHullVertex@2@AEAPEAUQuickHullFace@2@@Z 00000001801a1510 f   GuCookingQuickHullConvexHullLib.obj
 0001:001a0690       ?parseInputVertices@QuickHull@local@@QEAAXPEBV?$PxVec3T@M@physx@@I@Z 00000001801a1690 f   GuCookingQuickHullConvexHullLib.obj
 0001:001a0820       ?postMergeHull@QuickHull@local@@IEAAXXZ 00000001801a1820 f   GuCookingQuickHullConvexHullLib.obj
 0001:001a0a70       ?preallocate@QuickHull@local@@QEAAXI@Z 00000001801a1a70 f   GuCookingQuickHullConvexHullLib.obj
 0001:001a0bb0       ?recreate@?$PxArray@PEAUQuickHullFace@local@@V?$PxReflectionAllocator@PEAUQuickHullFace@local@@@physx@@@physx@@IEAAXI@Z 00000001801a1bb0 f i GuCookingQuickHullConvexHullLib.obj
 0001:001a0c50       ?recreate@?$PxArray@PEAUQuickHullHalfEdge@local@@V?$PxReflectionAllocator@PEAUQuickHullHalfEdge@local@@@physx@@@physx@@IEAAXI@Z 00000001801a1c50 f i GuCookingQuickHullConvexHullLib.obj
 0001:001a0cf0       ?recreate@?$PxArray@PEAUQuickHullVertex@local@@V?$PxReflectionAllocator@PEAUQuickHullVertex@local@@@physx@@@physx@@IEAAXI@Z 00000001801a1cf0 f i GuCookingQuickHullConvexHullLib.obj
 0001:001a0d90       ?recreate@?$PxArray@UExpandPoint@local@@V?$PxReflectionAllocator@UExpandPoint@local@@@physx@@@physx@@IEAAXI@Z 00000001801a1d90 f i GuCookingQuickHullConvexHullLib.obj
 0001:001a0e20       ?recreate@?$PxArray@VPxPlane@physx@@V?$PxReflectionAllocator@VPxPlane@physx@@@2@@physx@@IEAAXI@Z 00000001801a1e20 f i GuCookingQuickHullConvexHullLib.obj
 0001:001a0eb0       ?resolveUnclaimedPoints@QuickHull@local@@IEAAXAEBV?$PxArray@PEAUQuickHullFace@local@@V?$PxReflectionAllocator@PEAUQuickHullFace@local@@@physx@@@physx@@@Z 00000001801a1eb0 f   GuCookingQuickHullConvexHullLib.obj
 0001:001a1130       ??$copy@V?$PxReflectionAllocator@VPair@@@physx@@@?$PxArray@VPair@@V?$PxReflectionAllocator@VPair@@@physx@@@physx@@IEAAXAEBV01@@Z 00000001801a2130 f i GuCookingConvexPolygonsBuilder.obj
 0001:001a11b0       ??0ConvexPolygonsBuilder@physx@@QEAA@PEAUConvexHullData@Gu@1@_N@Z 00000001801a21b0 f   GuCookingConvexPolygonsBuilder.obj
 0001:001a11d0       ??1ConvexPolygonsBuilder@physx@@QEAA@XZ 00000001801a21d0 f   GuCookingConvexPolygonsBuilder.obj
 0001:001a1a20       ?allocate@?$PxArray@VPair@@V?$PxReflectionAllocator@VPair@@@physx@@@physx@@IEAAPEAVPair@@I@Z 00000001801a2a20 f i GuCookingConvexPolygonsBuilder.obj
 0001:001a24f0       ?computeHullPolygons@ConvexPolygonsBuilder@physx@@QEAA_NAEBIPEBV?$PxVec3T@M@2@0PEBI@Z 00000001801a34f0 f   GuCookingConvexPolygonsBuilder.obj
 0001:001a3550       ?createPolygonData@ConvexPolygonsBuilder@physx@@AEAA_NXZ 00000001801a4550 f   GuCookingConvexPolygonsBuilder.obj
 0001:001a4130       ?createTrianglesFromPolygons@ConvexPolygonsBuilder@physx@@AEAA_NXZ 00000001801a5130 f   GuCookingConvexPolygonsBuilder.obj
 0001:001a57c0       ?growAndPushBack@?$PxArray@VPair@@V?$PxReflectionAllocator@VPair@@@physx@@@physx@@IEAAAEAVPair@@AEBV3@@Z 00000001801a67c0 f i GuCookingConvexPolygonsBuilder.obj
 0001:001a5940       ??0ConvexMeshBuilder@physx@@QEAA@_N@Z 00000001801a6940 f   GuCookingConvexMeshBuilder.obj
 0001:001a59b0       ??1ConvexMeshBuilder@physx@@QEAA@XZ 00000001801a69b0 f   GuCookingConvexMeshBuilder.obj
 0001:001a5e40       ?build@ConvexMeshBuilder@physx@@QEAA_NAEBVPxConvexMeshDesc@2@I_NPEAVConvexHullLib@2@@Z 00000001801a6e40 f   GuCookingConvexMeshBuilder.obj
 0001:001a61d0       ?computeHullPolygons@ConvexMeshBuilder@physx@@QEAA_NAEBIPEBV?$PxVec3T@M@2@0PEBIAEAVPxAllocatorCallback@2@AEAIAEAPEAV32@4AEAPEAI4AEAPEAUPxHullPolygon@2@@Z 00000001801a71d0 f   GuCookingConvexMeshBuilder.obj
 0001:001a63d0       ?computeMassInfo@ConvexMeshBuilder@physx@@QEAAX_N@Z 00000001801a73d0 f   GuCookingConvexMeshBuilder.obj
 0001:001a6760       ?computeSDF@ConvexMeshBuilder@physx@@QEAAXAEBVPxConvexMeshDesc@2@@Z 00000001801a7760 f   GuCookingConvexMeshBuilder.obj
 0001:001a6b60       ?copy@ConvexMeshBuilder@physx@@QEAA_NAEAUConvexHullInitData@Gu@2@@Z 00000001801a7b60 f   GuCookingConvexMeshBuilder.obj
 0001:001a6cc0       ?loadConvexHull@ConvexMeshBuilder@physx@@QEAA_NAEBVPxConvexMeshDesc@2@PEAVConvexHullLib@2@@Z 00000001801a7cc0 f   GuCookingConvexMeshBuilder.obj
 0001:001a6f30       ?save@ConvexMeshBuilder@physx@@QEBA_NAEAVPxOutputStream@2@_N@Z 00000001801a7f30 f   GuCookingConvexMeshBuilder.obj
 0001:001a7350       ??0ConvexHull@physx@@QEAA@AEBV?$PxVec3T@M@1@AEBV?$PxTransformT@M@1@AEBV?$PxArray@VPxPlane@physx@@V?$PxReflectionAllocator@VPxPlane@physx@@@2@@1@@Z 00000001801a8350 f   GuCookingConvexHullUtils.obj
 0001:001a8470       ?allocate@?$PxArray@VHalfEdge@ConvexHull@physx@@V?$PxReflectionAllocator@VHalfEdge@ConvexHull@physx@@@3@@physx@@IEAAPEAVHalfEdge@ConvexHull@2@I@Z 00000001801a9470 f i GuCookingConvexHullUtils.obj
 0001:001a8510       ?assertIntact@ConvexHull@physx@@QEBA_NM@Z 00000001801a9510 f   GuCookingConvexHullUtils.obj
 0001:001a8820       ?computeOBBFromConvex@physx@@YA_NAEBVPxConvexMeshDesc@1@AEAV?$PxVec3T@M@1@AEAV?$PxTransformT@M@1@@Z 00000001801a9820 f   GuCookingConvexHullUtils.obj
 0001:001a8e90       ?computeOBBSIMD@local@@YAXIPEBT__m128@@AEAT2@AEBT2@1@Z 00000001801a9e90 f   GuCookingConvexHullUtils.obj
 0001:001a9270       ?convexHullCrop@physx@@YAPEAVConvexHull@1@AEBV21@AEBVPxPlane@1@M@Z 00000001801aa270 f   GuCookingConvexHullUtils.obj
 0001:001aa050       ?findCandidatePlane@ConvexHull@physx@@QEBAHMM@Z 00000001801ab050 f   GuCookingConvexHullUtils.obj
 0001:001aa4c0       ?growAndPushBack@?$PxArray@VHalfEdge@ConvexHull@physx@@V?$PxReflectionAllocator@VHalfEdge@ConvexHull@physx@@@3@@physx@@IEAAAEAVHalfEdge@ConvexHull@2@AEBV342@@Z 00000001801ab4c0 f i GuCookingConvexHullUtils.obj
 0001:001aa580       ?maxNumVertsPerFace@ConvexHull@physx@@QEBAIXZ 00000001801ab580 f   GuCookingConvexHullUtils.obj
 0001:001aa5f0       ?recreate@?$PxArray@VHalfEdge@ConvexHull@physx@@V?$PxReflectionAllocator@VHalfEdge@ConvexHull@physx@@@3@@physx@@IEAAXI@Z 00000001801ab5f0 f i GuCookingConvexHullUtils.obj
 0001:001aa690       ?resize@?$PxArray@VHalfEdge@ConvexHull@physx@@V?$PxReflectionAllocator@VHalfEdge@ConvexHull@physx@@@3@@physx@@QEAAXIAEBVHalfEdge@ConvexHull@2@@Z 00000001801ab690 f i GuCookingConvexHullUtils.obj
 0001:001aa750       ?resize@?$PxArray@VPxPlane@physx@@V?$PxReflectionAllocator@VPxPlane@physx@@@2@@physx@@QEAAXIAEBVPxPlane@2@@Z 00000001801ab750 f i GuCookingConvexHullUtils.obj
 0001:001aa870       ??1ConvexHullLib@physx@@UEAA@XZ 00000001801ab870 f   GuCookingConvexHullLib.obj
 0001:001aae90       ?cleanupVertices@ConvexHullLib@physx@@IEAA_NIPEBV?$PxVec3T@M@2@IAEAIPEAV32@@Z 00000001801abe90 f   GuCookingConvexHullLib.obj
 0001:001aafd0       ?shiftAndcleanupVertices@ConvexHullLib@physx@@IEAA_NIPEBV?$PxVec3T@M@2@IAEAIPEAV32@@Z 00000001801abfd0 f   GuCookingConvexHullLib.obj
 0001:001ab5b0       ?shiftConvexMeshDesc@ConvexHullLib@physx@@IEAAXAEAVPxConvexMeshDesc@2@@Z 00000001801ac5b0 f   GuCookingConvexHullLib.obj
 0001:001ab670       ?swapLargestFace@ConvexHullLib@physx@@IEAAXAEAVPxConvexMeshDesc@2@@Z 00000001801ac670 f   GuCookingConvexHullLib.obj
 0001:001ab8a0       ??0ConvexHullBuilder@physx@@QEAA@PEAUConvexHullData@Gu@1@_N@Z 00000001801ac8a0 f   GuCookingConvexHullBuilder.obj
 0001:001ab8d0       ??1ConvexHullBuilder@physx@@QEAA@XZ 00000001801ac8d0 f   GuCookingConvexHullBuilder.obj
 0001:001ab9e0       ?calculateVertexMapTable@ConvexHullBuilder@physx@@QEAA_NI_N@Z 00000001801ac9e0 f   GuCookingConvexHullBuilder.obj
 0001:001abba0       ?checkHullPolygons@ConvexHullBuilder@physx@@QEBA_NXZ 00000001801acba0 f   GuCookingConvexHullBuilder.obj
 0001:001ac130       ?copy@ConvexHullBuilder@physx@@QEAA_NAEAUConvexHullData@Gu@2@AEAI@Z 00000001801ad130 f   GuCookingConvexHullBuilder.obj
 0001:001ac3b0       ?createEdgeList@ConvexHullBuilder@physx@@QEAA_N_NI@Z 00000001801ad3b0 f   GuCookingConvexHullBuilder.obj
 0001:001acb00       ?init@ConvexHullBuilder@physx@@QEAA_NIPEBV?$PxVec3T@M@2@PEBIIIPEBUPxHullPolygon@2@_NPEAVConvexHullLib@2@@Z 00000001801adb00 f   GuCookingConvexHullBuilder.obj
 0001:001ad420       ?save@ConvexHullBuilder@physx@@QEBA_NAEAVPxOutputStream@2@_N@Z 00000001801ae420 f   GuCookingConvexHullBuilder.obj
 0001:001ad740       ??0BigConvexDataBuilder@physx@@QEAA@PEBUConvexHullData@Gu@1@PEAVBigConvexData@1@PEBV?$PxVec3T@M@1@@Z 00000001801ae740 f   GuCookingBigConvexDataBuilder.obj
 0001:001ad750       ?computeValencies@BigConvexDataBuilder@physx@@QEAA_NAEBVConvexHullBuilder@2@@Z 00000001801ae750 f   GuCookingBigConvexDataBuilder.obj
 0001:001adb40       ?precompute@BigConvexDataBuilder@physx@@QEAA_NI@Z 00000001801aeb40 f   GuCookingBigConvexDataBuilder.obj
 0001:001ae740       ?save@BigConvexDataBuilder@physx@@QEBA_NAEAVPxOutputStream@2@_N@Z 00000001801af740 f   GuCookingBigConvexDataBuilder.obj
 0001:001ae92f       __imp_load_PxGetFoundation 00000001801af92f f   PhysXFoundation_64:PhysXFoundation_64.dll
 0001:001ae93b       __tailMerge_physxfoundation_64_dll 00000001801af93b     PhysXFoundation_64:PhysXFoundation_64.dll
 0001:001ae9b4       __imp_load_PxGetBroadcastAllocator 00000001801af9b4 f   PhysXFoundation_64:PhysXFoundation_64.dll
 0001:001ae9c0       __imp_load_?PxAtomicIncrement@physx@@YAHPECH@Z 00000001801af9c0 f   PhysXFoundation_64:PhysXFoundation_64.dll
 0001:001ae9cc       __imp_load_??0PxMutexImpl@physx@@QEAA@XZ 00000001801af9cc f   PhysXFoundation_64:PhysXFoundation_64.dll
 0001:001ae9d8       __imp_load_??1PxMutexImpl@physx@@QEAA@XZ 00000001801af9d8 f   PhysXFoundation_64:PhysXFoundation_64.dll
 0001:001ae9e4       __imp_load_?lock@PxMutexImpl@physx@@QEAAXXZ 00000001801af9e4 f   PhysXFoundation_64:PhysXFoundation_64.dll
 0001:001ae9f0       __imp_load_?unlock@PxMutexImpl@physx@@QEAAXXZ 00000001801af9f0 f   PhysXFoundation_64:PhysXFoundation_64.dll
 0001:001ae9fc       __imp_load_?getSize@PxMutexImpl@physx@@SAIXZ 00000001801af9fc f   PhysXFoundation_64:PhysXFoundation_64.dll
 0001:001aea08       __imp_load_?PxAtomicDecrement@physx@@YAHPECH@Z 00000001801afa08 f   PhysXFoundation_64:PhysXFoundation_64.dll
 0001:001aea14       __imp_load_?PxTransformFromSegment@physx@@YA?AV?$PxTransformT@M@1@AEBV?$PxVec3T@M@1@0PEAM@Z 00000001801afa14 f   PhysXFoundation_64:PhysXFoundation_64.dll
 0001:001aea20       __imp_load_?PxAtomicAdd@physx@@YAHPECHH@Z 00000001801afa20 f   PhysXFoundation_64:PhysXFoundation_64.dll
 0001:001aea2c       __imp_load_?getDefaultStackSize@PxThreadImpl@physx@@SAIXZ 00000001801afa2c f   PhysXFoundation_64:PhysXFoundation_64.dll
 0001:001aea38       __imp_load_??0PxThreadImpl@physx@@QEAA@P6APEAXPEAX@Z0PEBD@Z 00000001801afa38 f   PhysXFoundation_64:PhysXFoundation_64.dll
 0001:001aea44       __imp_load_??1PxThreadImpl@physx@@QEAA@XZ 00000001801afa44 f   PhysXFoundation_64:PhysXFoundation_64.dll
 0001:001aea50       __imp_load_?start@PxThreadImpl@physx@@QEAAXIPEAVPxRunnable@2@@Z 00000001801afa50 f   PhysXFoundation_64:PhysXFoundation_64.dll
 0001:001aea5c       __imp_load_?waitForQuit@PxThreadImpl@physx@@QEAA_NXZ 00000001801afa5c f   PhysXFoundation_64:PhysXFoundation_64.dll
 0001:001aea68       __imp_load_?getSize@PxThreadImpl@physx@@SAIXZ 00000001801afa68 f   PhysXFoundation_64:PhysXFoundation_64.dll
 0001:001aea74       __imp_load_?PxOptimizeBoundingBox@physx@@YA?AV?$PxVec3T@M@1@AEAV?$PxMat33T@M@1@@Z 00000001801afa74 f   PhysXFoundation_64:PhysXFoundation_64.dll
 0001:001aea80       __imp_load_?allocate@PxTempAllocator@physx@@QEAAPEAX_KPEBDH@Z 00000001801afa80 f   PhysXFoundation_64:PhysXFoundation_64.dll
 0001:001aea8c       __imp_load_?deallocate@PxTempAllocator@physx@@QEAAXPEAX@Z 00000001801afa8c f   PhysXFoundation_64:PhysXFoundation_64.dll
 0001:001aea98       __imp_load_PxGetProfilerCallback 00000001801afa98 f   PhysXFoundation_64:PhysXFoundation_64.dll
 0001:001aeaa4       __imp_load_??0PxFPUGuard@physx@@QEAA@XZ 00000001801afaa4 f   PhysXFoundation_64:PhysXFoundation_64.dll
 0001:001aeab0       __imp_load_??1PxFPUGuard@physx@@QEAA@XZ 00000001801afab0 f   PhysXFoundation_64:PhysXFoundation_64.dll
 0001:001aeabc       __imp_load_?PxDiagonalize@physx@@YA?AV?$PxVec3T@M@1@AEBV?$PxMat33T@M@1@AEAV?$PxQuatT@M@1@@Z 00000001801afabc f   PhysXFoundation_64:PhysXFoundation_64.dll
 0001:001aeac8       ?DloadAcquireSectionWriteAccess@@YAXXZ 00000001801afac8 f i Delayimp:delayhlp.obj
 0001:001aeb74       ?DloadGetSRWLockFunctionPointers@@YAEXZ 00000001801afb74 f i Delayimp:delayhlp.obj
 0001:001aec10       ?DloadMakePermanentImageCommit@@YAXPEAX_K@Z 00000001801afc10 f i Delayimp:delayhlp.obj
 0001:001aeca8       ?DloadObtainSection@@YAPEAXPEAK0@Z 00000001801afca8 f i Delayimp:delayhlp.obj
 0001:001aed44       ?DloadProtectSection@@YAXKPEAK@Z 00000001801afd44 f i Delayimp:delayhlp.obj
 0001:001aedd4       ?DloadReleaseSectionWriteAccess@@YAXXZ 00000001801afdd4 f i Delayimp:delayhlp.obj
 0001:001aee68       __delayLoadHelper2         00000001801afe68 f   Delayimp:delayhlp.obj
 0001:001af13c       ??3@YAXPEAX_K@Z            00000001801b013c f   LIBCMT:delete_scalar_size.obj
 0001:001af13c       ??_V@YAXPEAX@Z             00000001801b013c f   LIBCMT:delete_array.obj
 0001:001af144       ??_Etype_info@@UEAAPEAXI@Z 00000001801b0144 f i LIBCMT:std_type_info_static.obj
 0001:001af144       ??_Gtype_info@@UEAAPEAXI@Z 00000001801b0144 f i LIBCMT:std_type_info_static.obj
 0001:001af170       ?__scrt_initialize_type_info@@YAXXZ 00000001801b0170 f   LIBCMT:tncleanup.obj
 0001:001af180       ?__scrt_uninitialize_type_info@@YAXXZ 00000001801b0180 f   LIBCMT:tncleanup.obj
 0001:001af1a0       __chkstk                   00000001801b01a0 f   LIBCMT:chkstk.obj
 0001:001af1a0       _alloca_probe              00000001801b01a0 f   LIBCMT:chkstk.obj
 0001:001af1f0       __vdecl_sinf4              00000001801b01f0 f   LIBCMT:svml_ssinf4_dispatch.obj
 0001:001af210       __libm_sse2_sincosf_       00000001801b0210 f   LIBCMT:svml_ssinf4_dispatch.obj
 0001:001af253       __libm_sse2_sincosf4_      00000001801b0253 f   LIBCMT:svml_ssinf4_dispatch.obj
 0001:001af260       ??3@YAXPEAX@Z              00000001801b0260 f   LIBCMT:delete_scalar.obj
 0001:001af268       __scrt_acquire_startup_lock 00000001801b0268 f   LIBCMT:utility.obj
 0001:001af2a4       __scrt_dllmain_after_initialize_c 00000001801b02a4 f   LIBCMT:utility.obj
 0001:001af2d8       __scrt_dllmain_before_initialize_c 00000001801b02d8 f   LIBCMT:utility.obj
 0001:001af2f0       __scrt_dllmain_crt_thread_attach 00000001801b02f0 f   LIBCMT:utility.obj
 0001:001af318       __scrt_dllmain_crt_thread_detach 00000001801b0318 f   LIBCMT:utility.obj
 0001:001af330       __scrt_dllmain_exception_filter 00000001801b0330 f   LIBCMT:utility.obj
 0001:001af390       __scrt_dllmain_uninitialize_c 00000001801b0390 f   LIBCMT:utility.obj
 0001:001af3c0       __scrt_dllmain_uninitialize_critical 00000001801b03c0 f   LIBCMT:utility.obj
 0001:001af3d4       __scrt_initialize_crt      00000001801b03d4 f   LIBCMT:utility.obj
 0001:001af420       __scrt_initialize_onexit_tables 00000001801b0420 f   LIBCMT:utility.obj
 0001:001af4ac       __scrt_is_nonwritable_in_current_image 00000001801b04ac f   LIBCMT:utility.obj
 0001:001af544       __scrt_release_startup_lock 00000001801b0544 f   LIBCMT:utility.obj
 0001:001af568       __scrt_uninitialize_crt    00000001801b0568 f   LIBCMT:utility.obj
 0001:001af594       _onexit                    00000001801b0594 f   LIBCMT:utility.obj
 0001:001af5d0       atexit                     00000001801b05d0 f   LIBCMT:utility.obj
 0001:001af908       _DllMainCRTStartup         00000001801b0908 f   LIBCMT:dll_dllmain.obj
 0001:001af948       __isa_available_init       00000001801b0948 f   LIBCMT:cpu_disp.obj
 0001:001afaf0       __sse2_sinf4@@16           00000001801b0af0 f   LIBCMT:svml_ssinf4_sse2.obj
 0001:001b0430       __sse4_sinf4@@16           00000001801b1430 f   LIBCMT:svml_ssinf4_sse4.obj
 0001:001b0ba4       __scrt_is_ucrt_dll_in_use  00000001801b1ba4 f   LIBCMT:ucrt_detection.obj
 0001:001b0bb0       __crt_debugger_hook        00000001801b1bb0 f   LIBCMT:utility_desktop.obj
 0001:001b0bb8       __scrt_fastfail            00000001801b1bb8 f   LIBCMT:utility_desktop.obj
 0001:001b0d04       __security_init_cookie     00000001801b1d04 f   LIBCMT:gs_support.obj
 0001:001b0db0       __local_stdio_scanf_options 00000001801b1db0 f i LIBCMT:default_local_stdio_options.obj
 0001:001b0db8       __scrt_initialize_default_local_stdio_options 00000001801b1db8 f   LIBCMT:default_local_stdio_options.obj
 0001:001b0dd4       __scrt_get_dyn_tls_init_callback 00000001801b1dd4 f   LIBCMT:dyn_tls_init.obj
 0001:001b0ddc       _RTC_Initialize            00000001801b1ddc f   LIBCMT:initsect.obj
 0001:001b0e18       _RTC_Terminate             00000001801b1e18 f   LIBCMT:initsect.obj
 0001:001b0e60       __common_ssin_cout_rare    00000001801b1e60 f   LIBCMT:svml_s_sin_cout.obj
 0001:001b0ee0       memcpy_repmovs             00000001801b1ee0 f   libvcruntime:memcpy.obj
 0001:001b0f00       memcpy                     00000001801b1f00 f   libvcruntime:memcpy.obj
 0001:001b0f00       memmove                    00000001801b1f00 f   libvcruntime:memcpy.obj
 0001:001b1578       _get_purecall_handler      00000001801b2578 f   libvcruntime:purevirt.obj
 0001:001b1584       _purecall                  00000001801b2584 f   libvcruntime:purevirt.obj
 0001:001b15a8       __std_type_info_compare    00000001801b25a8 f   libvcruntime:std_type_info.obj
 0001:001b15d0       __std_type_info_destroy_list 00000001801b25d0 f   libvcruntime:std_type_info.obj
 0001:001b15fc       __std_type_info_name       00000001801b25fc f   libvcruntime:std_type_info.obj
 0001:001b1730       memset_repmovs             00000001801b2730 f   libvcruntime:memset.obj
 0001:001b1750       memset                     00000001801b2750 f   libvcruntime:memset.obj
 0001:001b18e0       strstr                     00000001801b28e0 f   libvcruntime:strstr.obj
 0001:001b1adc       __vcrt_initialize          00000001801b2adc f   libvcruntime:initialization.obj
 0001:001b1b04       __vcrt_thread_attach       00000001801b2b04 f   libvcruntime:initialization.obj
 0001:001b1b18       __vcrt_thread_detach       00000001801b2b18 f   libvcruntime:initialization.obj
 0001:001b1b2c       __vcrt_uninitialize        00000001801b2b2c f   libvcruntime:initialization.obj
 0001:001b1b48       __vcrt_uninitialize_critical 00000001801b2b48 f   libvcruntime:initialization.obj
 0001:001b1b58       __C_specific_handler       00000001801b2b58 f   libvcruntime:riscchandler.obj
 0001:001b1d64       __DestructExceptionObject  00000001801b2d64 f   libvcruntime:ehhelpers.obj
 0001:001b1dd4       ?_CallMemberFunction0@@YAXQEAX0@Z 00000001801b2dd4 f i libvcruntime:ehhelpers.obj
 0001:001b1dd8       _IsExceptionObjectToBeDestroyed 00000001801b2dd8 f   libvcruntime:ehhelpers.obj
 0001:001b1e08       __AdjustPointer            00000001801b2e08 f   libvcruntime:ehhelpers.obj
 0001:001b1e2c       __FrameUnwindFilter        00000001801b2e2c f   libvcruntime:ehhelpers.obj
 0001:001b1e94       ??$?0$00@DName@@QEAA@PEBDU?$StringLifeSelector@$00@@@Z 00000001801b2e94 f i libvcruntime:undname.obj
 0001:001b1ed4       ??$?0$0A@@DName@@QEAA@PEBDU?$StringLifeSelector@$0A@@@@Z 00000001801b2ed4 f i libvcruntime:undname.obj
 0001:001b1ed4       ??$?0$01@DName@@QEAA@PEBDU?$StringLifeSelector@$01@@@Z 00000001801b2ed4 f i libvcruntime:undname.obj
 0001:001b1f14       ??$?0$01@pcharNode@@QEAA@PEBDHU?$StringLifeSelector@$01@@@Z 00000001801b2f14 f i libvcruntime:undname.obj
 0001:001b1f14       ??$?0$0A@@pcharNode@@QEAA@PEBDHU?$StringLifeSelector@$0A@@@@Z 00000001801b2f14 f i libvcruntime:undname.obj
 0001:001b1f88       ??$append@VcharNode@@@DName@@AEAAXPEBVcharNode@@@Z 00000001801b2f88 f i libvcruntime:undname.obj
 0001:001b1f88       ??$append@VpcharNode@@@DName@@AEAAXPEBVpcharNode@@@Z 00000001801b2f88 f i libvcruntime:undname.obj
 0001:001b1f88       ??$append@VDNameStatusNode@@@DName@@AEAAXPEBVDNameStatusNode@@@Z 00000001801b2f88 f i libvcruntime:undname.obj
 0001:001b1f88       ??$append@VDNameNode@@@DName@@AEAAXPEBVDNameNode@@@Z 00000001801b2f88 f i libvcruntime:undname.obj
 0001:001b1fec       ??$doPchar@$00@DName@@AEAAXPEBDH@Z 00000001801b2fec f i libvcruntime:undname.obj
 0001:001b2090       ??$doPchar@$0A@@DName@@AEAAXPEBDH@Z 00000001801b3090 f i libvcruntime:undname.obj
 0001:001b2090       ??$doPchar@$01@DName@@AEAAXPEBDH@Z 00000001801b3090 f i libvcruntime:undname.obj
 0001:001b2128       ??0DName@@QEAA@AEAPEBDD@Z  00000001801b3128 f   libvcruntime:undname.obj
 0001:001b21d8       ??0DName@@QEAA@AEBUStringLiteral@@@Z 00000001801b31d8 f   libvcruntime:undname.obj
 0001:001b2204       ??0DName@@QEAA@PEAV0@@Z    00000001801b3204 f   libvcruntime:undname.obj
 0001:001b2288       ??0DName@@QEAA@_J@Z        00000001801b3288 f   libvcruntime:undname.obj
 0001:001b2330       ??0DName@@QEAA@_K@Z        00000001801b3330 f   libvcruntime:undname.obj
 0001:001b23c0       ??2@YAPEAX_KAEAV_HeapManager@@H@Z 00000001801b33c0 f   libvcruntime:undname.obj
 0001:001b23ec       ??AReplicator@@QEBA?AVDName@@H@Z 00000001801b33ec f   libvcruntime:undname.obj
 0001:001b242c       ??HDName@@QEBA?AV0@AEBUStringLiteral@@@Z 00000001801b342c f   libvcruntime:undname.obj
 0001:001b2458       ??HDName@@QEBA?AV0@AEBV0@@Z 00000001801b3458 f   libvcruntime:undname.obj
 0001:001b2484       ??HDName@@QEBA?AV0@D@Z     00000001801b3484 f   libvcruntime:undname.obj
 0001:001b24b0       ??HDName@@QEBA?AV0@W4DNameStatus@@@Z 00000001801b34b0 f   libvcruntime:undname.obj
 0001:001b24dc       ??YDName@@QEAAAEAV0@AEBUStringLiteral@@@Z 00000001801b34dc f   libvcruntime:undname.obj
 0001:001b255c       ??YDName@@QEAAAEAV0@AEBV0@@Z 00000001801b355c f   libvcruntime:undname.obj
 0001:001b2610       ??YDName@@QEAAAEAV0@D@Z    00000001801b3610 f   libvcruntime:undname.obj
 0001:001b267c       ??YDName@@QEAAAEAV0@W4DNameStatus@@@Z 00000001801b367c f   libvcruntime:undname.obj
 0001:001b26e8       ??YReplicator@@QEAAAEAV0@AEBVDName@@@Z 00000001801b36e8 f   libvcruntime:undname.obj
 0001:001b2740       ?UScore@UnDecorator@@SA?AUStringLiteral@@W4Tokens@@@Z 00000001801b3740 f   libvcruntime:undname.obj
 0001:001b278c       ?composeDeclaration@UnDecorator@@CA?AVDName@@AEBV2@@Z 00000001801b378c f i libvcruntime:undname.obj
 0001:001b3634       ?doPchar@DName@@AEAAXD@Z   00000001801b4634 f   libvcruntime:undname.obj
 0001:001b3684       ?getAddressOf@UnDecorator@@CA?AVDName@@XZ 00000001801b4684 f   libvcruntime:undname.obj
 0001:001b3714       ?getArgumentList@UnDecorator@@CA?AVDName@@XZ 00000001801b4714 f   libvcruntime:undname.obj
 0001:001b38a8       ?getArgumentTypes@UnDecorator@@CA?AVDName@@XZ 00000001801b48a8 f   libvcruntime:undname.obj
 0001:001b3a04       ?getArrayAccess@UnDecorator@@CA?AVDName@@XZ 00000001801b4a04 f   libvcruntime:undname.obj
 0001:001b3aa0       ?getArrayObject@UnDecorator@@CA?AVDName@@XZ 00000001801b4aa0 f   libvcruntime:undname.obj
 0001:001b3b68       ?getArrayType@UnDecorator@@CA?AVDName@@AEBV2@@Z 00000001801b4b68 f i libvcruntime:undname.obj
 0001:001b3db0       ?getBasedType@UnDecorator@@CA?AVDName@@XZ 00000001801b4db0 f   libvcruntime:undname.obj
 0001:001b3ea8       ?getBasicDataType@UnDecorator@@CA?AVDName@@AEBV2@@Z 00000001801b4ea8 f   libvcruntime:undname.obj
 0001:001b4458       ?getCallingConvention@UnDecorator@@CA?AVDName@@XZ 00000001801b5458 f   libvcruntime:undname.obj
 0001:001b4598       ?getDataIndirectType@UnDecorator@@CA?AVDName@@AEBV2@W4IndirectionKind@@0H@Z 00000001801b5598 f   libvcruntime:undname.obj
 0001:001b4e30       ?getDataType@UnDecorator@@CA?AVDName@@PEAV2@@Z 00000001801b5e30 f   libvcruntime:undname.obj
 0001:001b4f44       ?getDecoratedName@UnDecorator@@CA?AVDName@@XZ 00000001801b5f44 f   libvcruntime:undname.obj
 0001:001b5228       ?getDimension@UnDecorator@@CA?AVDName@@_N@Z 00000001801b6228 f   libvcruntime:undname.obj
 0001:001b5374       ?getDispatchTarget@UnDecorator@@CA?AVDName@@XZ 00000001801b6374 f   libvcruntime:undname.obj
 0001:001b53c0       ?getECSUDataType@UnDecorator@@CA?AVDName@@XZ 00000001801b63c0 f   libvcruntime:undname.obj
 0001:001b55a0       ?getEnumType@UnDecorator@@CA?AVDName@@XZ 00000001801b65a0 f i libvcruntime:undname.obj
 0001:001b56d0       ?getExtendedDataIndirectType@UnDecorator@@CA?AVDName@@AEAW4IndirectionKind@@AEA_NH@Z 00000001801b66d0 f   libvcruntime:undname.obj
 0001:001b58d8       ?getExternalDataType@UnDecorator@@CA?AVDName@@AEBV2@@Z 00000001801b68d8 f i libvcruntime:undname.obj
 0001:001b5998       ?getFloatingPoint@UnDecorator@@CA?AVDName@@H@Z 00000001801b6998 f   libvcruntime:undname.obj
 0001:001b5ac0       ?getFunctionIndirectType@UnDecorator@@CA?AVDName@@AEBV2@@Z 00000001801b6ac0 f   libvcruntime:undname.obj
 0001:001b5ff8       ?getLastChar@DNameStatusNode@@UEBADXZ 00000001801b6ff8 f i libvcruntime:undname.obj
 0001:001b6004       ?getLastChar@charNode@@UEBADXZ 00000001801b7004 f i libvcruntime:undname.obj
 0001:001b6008       ?getLastChar@pDNameNode@@UEBADXZ 00000001801b7008 f i libvcruntime:undname.obj
 0001:001b6034       ?getLastChar@pairNode@@UEBADXZ 00000001801b7034 f i libvcruntime:undname.obj
 0001:001b606c       ?getLastChar@pcharNode@@UEBADXZ 00000001801b706c f i libvcruntime:undname.obj
 0001:001b6080       ?getLexicalFrame@UnDecorator@@CA?AVDName@@XZ 00000001801b7080 f i libvcruntime:undname.obj
 0001:001b60e4       ?getMemberAccess@UnDecorator@@CA?AVDName@@XZ 00000001801b70e4 f   libvcruntime:undname.obj
 0001:001b6178       ?getMemoryWithBuffer@_HeapManager@@QEAAPEAX_K@Z 00000001801b7178 f   libvcruntime:undname.obj
 0001:001b6208       ?getNoexcept@UnDecorator@@CA?AVDName@@XZ 00000001801b7208 f   libvcruntime:undname.obj
 0001:001b626c       ?getNumberOfDimensions@UnDecorator@@CAHXZ 00000001801b726c f   libvcruntime:undname.obj
 0001:001b62e0       ?getOperatorName@UnDecorator@@CA?AVDName@@_NPEA_N@Z 00000001801b72e0 f i libvcruntime:undname.obj
 0001:001b6cd4       ?getPointerToMember@UnDecorator@@CA?AVDName@@XZ 00000001801b7cd4 f   libvcruntime:undname.obj
 0001:001b6dcc       ?getPrimaryDataType@UnDecorator@@CA?AVDName@@AEBV2@@Z 00000001801b7dcc f   libvcruntime:undname.obj
 0001:001b7080       ?getPtrRefDataType@UnDecorator@@CA?AVDName@@AEBV2@H@Z 00000001801b8080 f   libvcruntime:undname.obj
 0001:001b724c       ?getPtrRefType@UnDecorator@@CA?AVDName@@AEBV2@0W4IndirectionKind@@@Z 00000001801b824c f   libvcruntime:undname.obj
 0001:001b7424       ?getRestrictionSpec@UnDecorator@@CA?AVDName@@XZ 00000001801b8424 f   libvcruntime:undname.obj
 0001:001b75f0       ?getReturnType@UnDecorator@@CA?AVDName@@PEAV2@@Z 00000001801b85f0 f   libvcruntime:undname.obj
 0001:001b7624       ?getScope@UnDecorator@@CA?AVDName@@XZ 00000001801b8624 f   libvcruntime:undname.obj
 0001:001b7ad8       ?getScopedName@UnDecorator@@CA?AVDName@@XZ 00000001801b8ad8 f   libvcruntime:undname.obj
 0001:001b7c14       ?getSignedDimension@UnDecorator@@CA?AVDName@@XZ 00000001801b8c14 f   libvcruntime:undname.obj
 0001:001b7c9c       ?getString@DNameStatusNode@@UEBAPEADPEAD0@Z 00000001801b8c9c f i libvcruntime:undname.obj
 0001:001b7ce4       ?getString@charNode@@UEBAPEADPEAD0@Z 00000001801b8ce4 f i libvcruntime:undname.obj
 0001:001b7cf8       ?getString@pDNameNode@@UEBAPEADPEAD0@Z 00000001801b8cf8 f i libvcruntime:undname.obj
 0001:001b7d28       ?getString@pairNode@@UEBAPEADPEAD0@Z 00000001801b8d28 f i libvcruntime:undname.obj
 0001:001b7d74       ?getString@pcharNode@@UEBAPEADPEAD0@Z 00000001801b8d74 f i libvcruntime:undname.obj
 0001:001b7dac       ?getStringEncoding@UnDecorator@@CA?AVDName@@W4PrefixKind@@H@Z 00000001801b8dac f   libvcruntime:undname.obj
 0001:001b7e90       ?getStringObject@UnDecorator@@CA?AVDName@@XZ 00000001801b8e90 f   libvcruntime:undname.obj
 0001:001b7ef8       ?getSymbolName@UnDecorator@@CA?AVDName@@XZ 00000001801b8ef8 f i libvcruntime:undname.obj
 0001:001b7f44       ?getTemplateArgumentList@UnDecorator@@CA?AVDName@@XZ 00000001801b8f44 f   libvcruntime:undname.obj
 0001:001b81b8       ?getTemplateName@UnDecorator@@CA?AVDName@@_N@Z 00000001801b91b8 f   libvcruntime:undname.obj
 0001:001b844c       ?getTemplateNonTypeArgument@UnDecorator@@CA?AVDName@@XZ 00000001801b944c f   libvcruntime:undname.obj
 0001:001b8980       ?getTemplateTypeArgument@UnDecorator@@CA?AVDName@@XZ 00000001801b9980 f   libvcruntime:undname.obj
 0001:001b8ae8       ?getThrowTypes@UnDecorator@@CA?AVDName@@XZ 00000001801b9ae8 f   libvcruntime:undname.obj
 0001:001b8b0c       ?getTypeEncoding@UnDecorator@@CAHXZ 00000001801b9b0c f i libvcruntime:undname.obj
 0001:001b8e9c       ?getUndecoratedName@UnDecorator@@QEAAPEADPEADH@Z 00000001801b9e9c f i libvcruntime:undname.obj
 0001:001b8ff0       ?getUnionObject@UnDecorator@@CA?AVDName@@XZ 00000001801b9ff0 f   libvcruntime:undname.obj
 0001:001b90c8       ?getVCallThunkType@UnDecorator@@CA?AVDName@@XZ 00000001801ba0c8 f i libvcruntime:undname.obj
 0001:001b9140       ?getValue@UnDecorator@@CA?AV?$optional@_K@std@@XZ 00000001801ba140 f   libvcruntime:undname.obj
 0001:001b91b4       ?getValueObject@UnDecorator@@CA?AVDName@@XZ 00000001801ba1b4 f   libvcruntime:undname.obj
 0001:001b930c       ?getVdispMapType@UnDecorator@@CA?AVDName@@AEBV2@@Z 00000001801ba30c f i libvcruntime:undname.obj
 0001:001b9388       ?getVfTableType@UnDecorator@@CA?AVDName@@AEBV2@@Z 00000001801ba388 f i libvcruntime:undname.obj
 0001:001b9590       ?getZName@UnDecorator@@CA?AVDName@@_N0@Z 00000001801ba590 f   libvcruntime:undname.obj
 0001:001b9878       ?length@pDNameNode@@UEBAHXZ 00000001801ba878 f i libvcruntime:undname.obj
 0001:001b98a0       ?length@pairNode@@UEBAHXZ  00000001801ba8a0 f i libvcruntime:undname.obj
 0001:001b98e8       ?parseDecoratedName@UnDecorator@@CA?AVDName@@XZ 00000001801ba8e8 f   libvcruntime:undname.obj
 0001:001b99fc       ?raw_length@pDNameNode@@UEBAHXZ 00000001801ba9fc f i libvcruntime:undname.obj
 0001:001b9a00       ?raw_length@pairNode@@UEBAHXZ 00000001801baa00 f i libvcruntime:undname.obj
 0001:001b9a04       __unDName                  00000001801baa04 f   libvcruntime:undname.obj
 0001:001b9a2c       __unDNameEx                00000001801baa2c f   libvcruntime:undname.obj
 0001:001b9b60       sprintf_s                  00000001801bab60 f i libvcruntime:undname.obj
 0001:001b9bb4       __vcrt_freefls             00000001801babb4 f   libvcruntime:per_thread_data.obj
 0001:001b9bd4       __vcrt_freeptd             00000001801babd4 f   libvcruntime:per_thread_data.obj
 0001:001b9c24       __vcrt_getptd              00000001801bac24 f   libvcruntime:per_thread_data.obj
 0001:001b9c40       __vcrt_getptd_noexit       00000001801bac40 f   libvcruntime:per_thread_data.obj
 0001:001b9d00       __vcrt_initialize_ptd      00000001801bad00 f   libvcruntime:per_thread_data.obj
 0001:001b9d48       __vcrt_uninitialize_ptd    00000001801bad48 f   libvcruntime:per_thread_data.obj
 0001:001b9d6c       __vcrt_initialize_locks    00000001801bad6c f   libvcruntime:locks.obj
 0001:001b9da0       __vcrt_lock                00000001801bada0 f   libvcruntime:locks.obj
 0001:001b9dbc       __vcrt_uninitialize_locks  00000001801badbc f   libvcruntime:locks.obj
 0001:001b9df4       __vcrt_unlock              00000001801badf4 f   libvcruntime:locks.obj
 0001:001b9e20       _NLG_Notify                00000001801bae20 f   libvcruntime:notify.obj
 0001:001b9e40       __NLG_Dispatch2            00000001801bae40 f   libvcruntime:notify.obj
 0001:001b9e50       __NLG_Return2              00000001801bae50 f   libvcruntime:notify.obj
 0001:001b9e54       __except_validate_context_record 00000001801bae54 f   libvcruntime:jbcxrval.obj
 0001:001b9e8c       ??$_CallSETranslator@V__FrameHandler4@@@@YAHPEAUEHExceptionRecord@@PEA_KPEAU_CONTEXT@@PEAU_xDISPATCHER_CONTEXT@@PEAUFuncInfo4@FH4@@K1H@Z 00000001801bae8c f i libvcruntime:risctrnsctrl.obj
 0001:001b9ee0       ?DecompFuncInfo@FH4@@YA_JPEAEAEAUFuncInfo4@1@_KH_N@Z 00000001801baee0 f i libvcruntime:risctrnsctrl.obj
 0001:001ba004       ?ExecutionInCatch@__FrameHandler4@@SA_NPEAU_xDISPATCHER_CONTEXT@@PEAUFuncInfo4@FH4@@@Z 00000001801bb004 f   libvcruntime:risctrnsctrl.obj
 0001:001ba00c       ?FrameUnwindToEmptyState@__FrameHandler4@@SAXPEA_KPEAU_xDISPATCHER_CONTEXT@@PEAUFuncInfo4@FH4@@@Z 00000001801bb00c f   libvcruntime:risctrnsctrl.obj
 0001:001ba040       ?GetEstablisherFrame@__FrameHandler4@@SAPEA_KPEA_KPEAU_xDISPATCHER_CONTEXT@@PEAUFuncInfo4@FH4@@0@Z 00000001801bb040 f   libvcruntime:risctrnsctrl.obj
 0001:001ba064       ?GetRangeOfTrysToCheck@__FrameHandler4@@SA?AU?$pair@Viterator@TryBlockMap4@FH4@@V123@@std@@AEAVTryBlockMap4@FH4@@HPEAU_xDISPATCHER_CONTEXT@@PEAUFuncInfo4@5@H@Z 00000001801bb064 f   libvcruntime:risctrnsctrl.obj
 0001:001ba1cc       ?UnwindNestedFrames@__FrameHandler4@@SAXPEA_KPEAUEHExceptionRecord@@PEAU_CONTEXT@@0PEAXPEAUFuncInfo4@FH4@@HHPEAUHandlerType4@5@PEAU_xDISPATCHER_CONTEXT@@E@Z 00000001801bb1cc f   libvcruntime:risctrnsctrl.obj
 0001:001ba2ec       ?setBuffer@TryBlockMap4@FH4@@QEAAXViterator@12@@Z 00000001801bb2ec f i libvcruntime:risctrnsctrl.obj
 0001:001ba4ac       _CreateFrameInfo           00000001801bb4ac f   libvcruntime:risctrnsctrl.obj
 0001:001ba4e8       _FindAndUnlinkFrame        00000001801bb4e8 f   libvcruntime:risctrnsctrl.obj
 0001:001ba53c       _GetImageBase              00000001801bb53c f   libvcruntime:risctrnsctrl.obj
 0001:001ba550       _GetThrowImageBase         00000001801bb550 f   libvcruntime:risctrnsctrl.obj
 0001:001ba564       _SetImageBase              00000001801bb564 f   libvcruntime:risctrnsctrl.obj
 0001:001ba57c       _SetThrowImageBase         00000001801bb57c f   libvcruntime:risctrnsctrl.obj
 0001:001ba594       __CxxFrameHandler4         00000001801bb594 f   libvcruntime:risctrnsctrl.obj
 0001:001ba7a4       __vcrt_FlsAlloc            00000001801bb7a4 f   libvcruntime:winapi_downlevel.obj
 0001:001ba7ec       __vcrt_FlsFree             00000001801bb7ec f   libvcruntime:winapi_downlevel.obj
 0001:001ba834       __vcrt_FlsGetValue         00000001801bb834 f   libvcruntime:winapi_downlevel.obj
 0001:001ba87c       __vcrt_FlsSetValue         00000001801bb87c f   libvcruntime:winapi_downlevel.obj
 0001:001ba8d0       __vcrt_InitializeCriticalSectionEx 00000001801bb8d0 f   libvcruntime:winapi_downlevel.obj
 0001:001ba934       ?StateFromControlPc@__FrameHandler4@@SAHPEAUFuncInfo4@FH4@@PEAU_xDISPATCHER_CONTEXT@@@Z 00000001801bb934 f   libvcruntime:ehstate.obj
 0001:001ba93c       ?StateFromIp@__FrameHandler4@@SAHPEAUFuncInfo4@FH4@@PEAU_xDISPATCHER_CONTEXT@@_K@Z 00000001801bb93c f   libvcruntime:ehstate.obj
 0001:001bb5ac       ??$TypeMatchHelper@V__FrameHandler3@@@@YAHPEBU_s_HandlerType@@PEBU_s_CatchableType@@PEBU_s_ThrowInfo@@@Z 00000001801bc5ac f i libvcruntime:frame.obj
 0001:001bb6ec       ??$TypeMatchHelper@V__FrameHandler4@@@@YAHPEAUHandlerType4@FH4@@PEBU_s_CatchableType@@PEBU_s_ThrowInfo@@@Z 00000001801bc6ec f i libvcruntime:frame.obj
 0001:001bb830       ??$__InternalCxxFrameHandler@V__FrameHandler4@@@@YA?AW4_EXCEPTION_DISPOSITION@@PEAUEHExceptionRecord@@PEA_KPEAU_CONTEXT@@PEAU_xDISPATCHER_CONTEXT@@PEAUFuncInfo4@FH4@@H1E@Z 00000001801bc830 f i libvcruntime:frame.obj
 0001:001bbac4       ??0HandlerMap4@FH4@@QEAA@PEBUTryBlockMapEntry4@1@_KH@Z 00000001801bcac4 f i libvcruntime:frame.obj
 0001:001bbb40       ??0TryBlockMap4@FH4@@QEAA@PEBUFuncInfo4@1@_K@Z 00000001801bcb40 f i libvcruntime:frame.obj
 0001:001bbc18       ??0bad_exception@std@@QEAA@AEBV01@@Z 00000001801bcc18 f i libvcruntime:frame.obj
 0001:001bbc54       ??0bad_exception@std@@QEAA@XZ 00000001801bcc54 f i libvcruntime:frame.obj
 0001:001bbc74       ??0exception@std@@QEAA@AEBV01@@Z 00000001801bcc74 f i libvcruntime:frame.obj
 0001:001bbca8       ??1bad_exception@std@@UEAA@XZ 00000001801bcca8 f i libvcruntime:frame.obj
 0001:001bbcbc       ??_Gbad_exception@std@@UEAAPEAXI@Z 00000001801bccbc f i libvcruntime:frame.obj
 0001:001bbcbc       ??_Ebad_exception@std@@UEAAPEAXI@Z 00000001801bccbc f i libvcruntime:frame.obj
 0001:001bbcbc       ??_Gexception@std@@UEAAPEAXI@Z 00000001801bccbc f i libvcruntime:frame.obj
 0001:001bbcbc       ??_Eexception@std@@UEAAPEAXI@Z 00000001801bccbc f i libvcruntime:frame.obj
 0001:001bbd00       ?CxxCallCatchBlock@__FrameHandler4@@SAPEAXPEAU_EXCEPTION_RECORD@@@Z 00000001801bcd00 f   libvcruntime:frame.obj
 0001:001bbf50       ?DecompHandler@HandlerMap4@FH4@@AEAAXXZ 00000001801bcf50 f i libvcruntime:frame.obj
 0001:001bc190       ?FrameUnwindToState@__FrameHandler4@@SAXPEA_KPEAU_xDISPATCHER_CONTEXT@@PEAUFuncInfo4@FH4@@H@Z 00000001801bd190 f   libvcruntime:frame.obj
 0001:001bc5f0       ?ReadEntry@UWMap4@FH4@@AEAAXPEAPEAE@Z 00000001801bd5f0 f i libvcruntime:frame.obj
 0001:001bc690       ?_CallMemberFunction1@@YAXQEAX00@Z 00000001801bd690 f i libvcruntime:frame.obj
 0001:001bc69c       ?_CallMemberFunction2@@YAXQEAX00H@Z 00000001801bd69c f i libvcruntime:frame.obj
 0001:001bc6ac       ?getStartStop@UWMap4@FH4@@QEAAXHHAEAViterator@12@0@Z 00000001801bd6ac f i libvcruntime:frame.obj
 0001:001bc77c       ?getStateFromIterators@UWMap4@FH4@@SAHAEBViterator@12@H0H0@Z 00000001801bd77c f i libvcruntime:frame.obj
 0001:001bc844       ?what@exception@std@@UEBAPEBDXZ 00000001801bd844 f i libvcruntime:frame.obj
 0001:001bc870       _CallSettingFrame          00000001801bd870 f   libvcruntime:handlers.obj
 0001:001bc8c0       _CallSettingFrame_LookupContinuationIndex 00000001801bd8c0 f   libvcruntime:handlers.obj
 0001:001bc8f0       _CallSettingFrame_NotifyContinuationAddr 00000001801bd8f0 f   libvcruntime:handlers.obj
 0001:001bc920       _CallSettingFrameEncoded   00000001801bd920 f   libvcruntime:handlers.obj
 0001:001bc968       __std_exception_copy       00000001801bd968 f   libvcruntime:std_exception.obj
 0001:001bc9f8       __std_exception_destroy    00000001801bd9f8 f   libvcruntime:std_exception.obj
 0001:001bca20       _CxxThrowException         00000001801bda20 f   libvcruntime:throw.obj
 0001:001bcac0       cosf                       00000001801bdac0 f   libucrt:cosf.obj
 0001:001bcfc0       sinf                       00000001801bdfc0 f   libucrt:sinf.obj
 0001:001bd6c0       tanf                       00000001801be6c0 f   libucrt:tanf.obj
 0001:001bdd34       __acrt_initialize_stdio    00000001801bed34 f   libucrt:_file.obj
 0001:001bde54       __acrt_iob_func            00000001801bee54 f   libucrt:_file.obj
 0001:001bde68       __acrt_uninitialize_stdio  00000001801bee68 f   libucrt:_file.obj
 0001:001bdec4       _lock_file                 00000001801beec4 f   libucrt:_file.obj
 0001:001bded0       _unlock_file               00000001801beed0 f   libucrt:_file.obj
 0001:001be0e8       ??$ensure_buffer_is_big_enough@D@formatting_buffer@__crt_stdio_output@@QEAA_N_K@Z 00000001801bf0e8 f i libucrt:output.obj
 0001:001be190       ??$type_case_integer_parse_into_buffer@I@?$output_processor@DV?$string_output_adapter@D@__crt_stdio_output@@V?$format_validation_base@DV?$string_output_adapter@D@__crt_stdio_output@@@2@@__crt_stdio_output@@AEAAXII_N@Z 00000001801bf190 f i libucrt:output.obj
 0001:001be190       ??$type_case_integer_parse_into_buffer@I@?$output_processor@DV?$stream_output_adapter@D@__crt_stdio_output@@V?$standard_base@DV?$stream_output_adapter@D@__crt_stdio_output@@@2@@__crt_stdio_output@@AEAAXII_N@Z 00000001801bf190 f i libucrt:output.obj
 0001:001be218       ??$type_case_integer_parse_into_buffer@_K@?$output_processor@DV?$string_output_adapter@D@__crt_stdio_output@@V?$format_validation_base@DV?$string_output_adapter@D@__crt_stdio_output@@@2@@__crt_stdio_output@@AEAAX_KI_N@Z 00000001801bf218 f i libucrt:output.obj
 0001:001be218       ??$type_case_integer_parse_into_buffer@_K@?$output_processor@DV?$stream_output_adapter@D@__crt_stdio_output@@V?$standard_base@DV?$stream_output_adapter@D@__crt_stdio_output@@@2@@__crt_stdio_output@@AEAAX_KI_N@Z 00000001801bf218 f i libucrt:output.obj
 0001:001be2a8       ??$write_multiple_characters@V?$stream_output_adapter@D@__crt_stdio_output@@D@__crt_stdio_output@@YAXAEBV?$stream_output_adapter@D@0@DHQEAH@Z 00000001801bf2a8 f i libucrt:output.obj
 0001:001be334       ??$write_multiple_characters@V?$string_output_adapter@D@__crt_stdio_output@@D@__crt_stdio_output@@YAXAEBV?$string_output_adapter@D@0@DHQEAH@Z 00000001801bf334 f i libucrt:output.obj
 0001:001be3ac       ??0_LocaleUpdate@@QEAA@QEAU__crt_locale_pointers@@@Z 00000001801bf3ac f i libucrt:output.obj
 0001:001be580       ?crop_zeroes@__crt_stdio_output@@YAXPEADQEAU__crt_locale_pointers@@@Z 00000001801bf580 f i libucrt:output.obj
 0001:001be620       ?force_decimal_point@__crt_stdio_output@@YAXPEADQEAU__crt_locale_pointers@@@Z 00000001801bf620 f i libucrt:output.obj
 0001:001be698       ?parse_int_from_format_string@?$output_processor@DV?$string_output_adapter@D@__crt_stdio_output@@V?$format_validation_base@DV?$string_output_adapter@D@__crt_stdio_output@@@2@@__crt_stdio_output@@AEAA_NQEAH@Z 00000001801bf698 f i libucrt:output.obj
 0001:001be698       ?parse_int_from_format_string@?$output_processor@DV?$stream_output_adapter@D@__crt_stdio_output@@V?$standard_base@DV?$stream_output_adapter@D@__crt_stdio_output@@@2@@__crt_stdio_output@@AEAA_NQEAH@Z 00000001801bf698 f i libucrt:output.obj
 0001:001be73c       ?process@?$output_processor@DV?$stream_output_adapter@D@__crt_stdio_output@@V?$standard_base@DV?$stream_output_adapter@D@__crt_stdio_output@@@2@@__crt_stdio_output@@QEAAHXZ 00000001801bf73c f i libucrt:output.obj
 0001:001be950       ?process@?$output_processor@DV?$string_output_adapter@D@__crt_stdio_output@@V?$format_validation_base@DV?$string_output_adapter@D@__crt_stdio_output@@@2@@__crt_stdio_output@@QEAAHXZ 00000001801bf950 f i libucrt:output.obj
 0001:001beb64       ?state_case_normal@?$output_processor@DV?$stream_output_adapter@D@__crt_stdio_output@@V?$standard_base@DV?$stream_output_adapter@D@__crt_stdio_output@@@2@@__crt_stdio_output@@AEAA_NXZ 00000001801bfb64 f i libucrt:output.obj
 0001:001bebd4       ?state_case_normal@?$output_processor@DV?$string_output_adapter@D@__crt_stdio_output@@V?$format_validation_base@DV?$string_output_adapter@D@__crt_stdio_output@@@2@@__crt_stdio_output@@AEAA_NXZ 00000001801bfbd4 f i libucrt:output.obj
 0001:001bec48       ?state_case_normal_tchar@?$output_processor@DV?$stream_output_adapter@D@__crt_stdio_output@@V?$standard_base@DV?$stream_output_adapter@D@__crt_stdio_output@@@2@@__crt_stdio_output@@AEAA_ND@Z 00000001801bfc48 f i libucrt:output.obj
 0001:001becec       ?state_case_normal_tchar@?$output_processor@DV?$string_output_adapter@D@__crt_stdio_output@@V?$format_validation_base@DV?$string_output_adapter@D@__crt_stdio_output@@@2@@__crt_stdio_output@@AEAA_ND@Z 00000001801bfcec f i libucrt:output.obj
 0001:001bed94       ?state_case_size@?$output_processor@DV?$stream_output_adapter@D@__crt_stdio_output@@V?$standard_base@DV?$stream_output_adapter@D@__crt_stdio_output@@@2@@__crt_stdio_output@@AEAA_NXZ 00000001801bfd94 f i libucrt:output.obj
 0001:001bef04       ?state_case_size@?$output_processor@DV?$string_output_adapter@D@__crt_stdio_output@@V?$format_validation_base@DV?$string_output_adapter@D@__crt_stdio_output@@@2@@__crt_stdio_output@@AEAA_NXZ 00000001801bff04 f i libucrt:output.obj
 0001:001bf074       ?state_case_type@?$output_processor@DV?$stream_output_adapter@D@__crt_stdio_output@@V?$standard_base@DV?$stream_output_adapter@D@__crt_stdio_output@@@2@@__crt_stdio_output@@AEAA_NXZ 00000001801c0074 f i libucrt:output.obj
 0001:001bf2f8       ?state_case_type@?$output_processor@DV?$string_output_adapter@D@__crt_stdio_output@@V?$format_validation_base@DV?$string_output_adapter@D@__crt_stdio_output@@@2@@__crt_stdio_output@@AEAA_NXZ 00000001801c02f8 f i libucrt:output.obj
 0001:001bf560       ?to_integer_size@__crt_stdio_output@@YA_KW4length_modifier@1@@Z 00000001801c0560 f i libucrt:output.obj
 0001:001bf5c8       ?type_case_Z@?$output_processor@DV?$stream_output_adapter@D@__crt_stdio_output@@V?$standard_base@DV?$stream_output_adapter@D@__crt_stdio_output@@@2@@__crt_stdio_output@@AEAA_NXZ 00000001801c05c8 f i libucrt:output.obj
 0001:001bf5c8       ?type_case_Z@?$output_processor@DV?$string_output_adapter@D@__crt_stdio_output@@V?$format_validation_base@DV?$string_output_adapter@D@__crt_stdio_output@@@2@@__crt_stdio_output@@AEAA_NXZ 00000001801c05c8 f i libucrt:output.obj
 0001:001bf63c       ?type_case_a@?$output_processor@DV?$stream_output_adapter@D@__crt_stdio_output@@V?$standard_base@DV?$stream_output_adapter@D@__crt_stdio_output@@@2@@__crt_stdio_output@@AEAA_NXZ 00000001801c063c f i libucrt:output.obj
 0001:001bf63c       ?type_case_a@?$output_processor@DV?$string_output_adapter@D@__crt_stdio_output@@V?$format_validation_base@DV?$string_output_adapter@D@__crt_stdio_output@@@2@@__crt_stdio_output@@AEAA_NXZ 00000001801c063c f i libucrt:output.obj
 0001:001bf7f8       ?type_case_c_tchar@?$output_processor@DV?$string_output_adapter@D@__crt_stdio_output@@V?$format_validation_base@DV?$string_output_adapter@D@__crt_stdio_output@@@2@@__crt_stdio_output@@AEAA_ND@Z 00000001801c07f8 f i libucrt:output.obj
 0001:001bf7f8       ?type_case_c_tchar@?$output_processor@DV?$stream_output_adapter@D@__crt_stdio_output@@V?$standard_base@DV?$stream_output_adapter@D@__crt_stdio_output@@@2@@__crt_stdio_output@@AEAA_ND@Z 00000001801c07f8 f i libucrt:output.obj
 0001:001bf8c0       ?type_case_integer@?$output_processor@DV?$stream_output_adapter@D@__crt_stdio_output@@V?$standard_base@DV?$stream_output_adapter@D@__crt_stdio_output@@@2@@__crt_stdio_output@@AEAA_NI_N@Z 00000001801c08c0 f i libucrt:output.obj
 0001:001bf8c0       ?type_case_integer@?$output_processor@DV?$string_output_adapter@D@__crt_stdio_output@@V?$format_validation_base@DV?$string_output_adapter@D@__crt_stdio_output@@@2@@__crt_stdio_output@@AEAA_NI_N@Z 00000001801c08c0 f i libucrt:output.obj
 0001:001bfa40       ?type_case_n@?$output_processor@DV?$stream_output_adapter@D@__crt_stdio_output@@V?$standard_base@DV?$stream_output_adapter@D@__crt_stdio_output@@@2@@__crt_stdio_output@@AEAA_NXZ 00000001801c0a40 f i libucrt:output.obj
 0001:001bfa40       ?type_case_n@?$output_processor@DV?$string_output_adapter@D@__crt_stdio_output@@V?$format_validation_base@DV?$string_output_adapter@D@__crt_stdio_output@@@2@@__crt_stdio_output@@AEAA_NXZ 00000001801c0a40 f i libucrt:output.obj
 0001:001bfac8       ?type_case_s@?$output_processor@DV?$string_output_adapter@D@__crt_stdio_output@@V?$format_validation_base@DV?$string_output_adapter@D@__crt_stdio_output@@@2@@__crt_stdio_output@@AEAA_NXZ 00000001801c0ac8 f i libucrt:output.obj
 0001:001bfac8       ?type_case_s@?$output_processor@DV?$stream_output_adapter@D@__crt_stdio_output@@V?$standard_base@DV?$stream_output_adapter@D@__crt_stdio_output@@@2@@__crt_stdio_output@@AEAA_NXZ 00000001801c0ac8 f i libucrt:output.obj
 0001:001bfb60       ?validate_stream_is_ansi_if_required@?$__acrt_stdio_char_traits@D@@SA_NQEAU_iobuf@@@Z 00000001801c0b60 f i libucrt:output.obj
 0001:001bfbfc       ?write_stored_string_tchar@?$output_processor@DV?$stream_output_adapter@D@__crt_stdio_output@@V?$standard_base@DV?$stream_output_adapter@D@__crt_stdio_output@@@2@@__crt_stdio_output@@AEAA_ND@Z 00000001801c0bfc f i libucrt:output.obj
 0001:001bfd20       ?write_stored_string_tchar@?$output_processor@DV?$string_output_adapter@D@__crt_stdio_output@@V?$format_validation_base@DV?$string_output_adapter@D@__crt_stdio_output@@@2@@__crt_stdio_output@@AEAA_ND@Z 00000001801c0d20 f i libucrt:output.obj
 0001:001bfdfc       ?write_string@?$string_output_adapter@D@__crt_stdio_output@@QEBAXQEBDHQEAHAEAV__crt_deferred_errno_cache@@@Z 00000001801c0dfc f i libucrt:output.obj
 0001:001bfea0       ?write_string_impl@?$output_adapter_common@DV?$stream_output_adapter@D@__crt_stdio_output@@@__crt_stdio_output@@IEBAXQEBDHQEAHAEAV__crt_deferred_errno_cache@@@Z 00000001801c0ea0 f i libucrt:output.obj
 0001:001bff98       __stdio_common_vfprintf    00000001801c0f98 f   libucrt:output.obj
 0001:001c0024       __stdio_common_vsprintf_s  00000001801c1024 f   libucrt:output.obj
 0001:001c0088       _fpclass                   00000001801c1088 f   libucrt:ieeemisc.obj
 0001:001c0110       powf                       00000001801c1110 f   libucrt:powf.obj
 0001:001c0fd8       atan2f                     00000001801c1fd8 f   libucrt:atan2f.obj
 0001:001c13e0       strcmp                     00000001801c23e0 f   libucrt:strcmp.obj
 0001:001c1448       acosf                      00000001801c2448 f   libucrt:acosf.obj
 0001:001c1674       free                       00000001801c2674 f   libucrt:free.obj
 0001:001c1688       _seh_filter_dll            00000001801c2688 f   libucrt:exception_filter.obj
 0001:001c169c       _seh_filter_exe            00000001801c269c f   libucrt:exception_filter.obj
 0001:001c1a8c       __acrt_initialize_thread_local_exit_callback 00000001801c2a8c f   libucrt:exit.obj
 0001:001c1a94       _cexit                     00000001801c2a94 f   libucrt:exit.obj
 0001:001c1aa4       _exit                      00000001801c2aa4 f   libucrt:exit.obj
 0001:001c1ab0       _is_c_termination_complete 00000001801c2ab0 f   libucrt:exit.obj
 0001:001c1c78       __acrt_allocate_buffer_for_argv 00000001801c2c78 f   libucrt:argv_parsing.obj
 0001:001c1cd8       _configure_narrow_argv     00000001801c2cd8 f   libucrt:argv_parsing.obj
 0001:001c2050       __dcrt_uninitialize_environments_nolock 00000001801c3050 f   libucrt:environment_initialization.obj
 0001:001c2088       _initialize_narrow_environment 00000001801c3088 f   libucrt:environment_initialization.obj
 0001:001c23d0       _crt_atexit                00000001801c33d0 f   libucrt:onexit.obj
 0001:001c23e0       _execute_onexit_table      00000001801c33e0 f   libucrt:onexit.obj
 0001:001c241c       _initialize_onexit_table   00000001801c341c f   libucrt:onexit.obj
 0001:001c2444       _register_onexit_function  00000001801c3444 f   libucrt:onexit.obj
 0001:001c24c4       __acrt_uninitialize_command_line 00000001801c34c4 f   libucrt:argv_data.obj
 0001:001c25bc       __acrt_initialize          00000001801c35bc f   libucrt:initialization.obj
 0001:001c25d0       __acrt_thread_attach       00000001801c35d0 f   libucrt:initialization.obj
 0001:001c25e4       __acrt_thread_detach       00000001801c35e4 f   libucrt:initialization.obj
 0001:001c25f4       __acrt_uninitialize        00000001801c35f4 f   libucrt:initialization.obj
 0001:001c262c       __acrt_uninitialize_critical 00000001801c362c f   libucrt:initialization.obj
 0001:001c263c       _initterm                  00000001801c363c f   libucrt:initterm.obj
 0001:001c26a0       _initterm_e                00000001801c36a0 f   libucrt:initterm.obj
 0001:001c26e0       terminate                  00000001801c36e0 f   libucrt:terminate.obj
 0001:001c2700       abort                      00000001801c3700 f   libucrt:abort.obj
 0001:001c2758       malloc                     00000001801c3758 f   libucrt:malloc.obj
 0001:001c2760       strcpy_s                   00000001801c3760 f   libucrt:strcpy_s.obj
 0001:001c27c0       ??$parse_integer@KV?$c_string_character_source@D@__crt_strtox@@@__crt_strtox@@YAKQEAU__crt_locale_pointers@@V?$c_string_character_source@D@0@H_N@Z 00000001801c37c0 f i libucrt:atox.obj
 0001:001c2ac4       _ischartype_l              00000001801c3ac4 f i libucrt:atox.obj
 0001:001c2b3c       atol                       00000001801c3b3c f   libucrt:atox.obj
 0001:001c2b80       strncmp                    00000001801c3b80 f   libucrt:strncmp.obj
 0001:001c2c00       calloc                     00000001801c3c00 f   libucrt:calloc.obj
 0001:001c2c08       wcsncmp                    00000001801c3c08 f   libucrt:wcsncmp.obj
 0001:001c2c40       __remainder_piby2d2f_forAsm 00000001801c3c40 f   libucrt:remainder_piby2f_forasm.obj
 0001:001c2d90       __remainder_piby2_fma3     00000001801c3d90 f   libucrt:remainder_piby2_forfma3.obj
 0001:001c2f80       __remainder_piby2_fma3_bdl 00000001801c3f80 f   libucrt:remainder_piby2_forfma3.obj
 0001:001c2ff8       _cosf_special              00000001801c3ff8 f   libucrt:sincos_special.obj
 0001:001c3098       _sinf_special              00000001801c4098 f   libucrt:sincos_special.obj
 0001:001c30ac       _tanf_special              00000001801c40ac f   libucrt:sincos_special.obj
 0001:001c30c0       _clrfp                     00000001801c40c0 f   libucrt:fpctrl.obj
 0001:001c30e0       _ctrlfp                    00000001801c40e0 f   libucrt:fpctrl.obj
 0001:001c315c       _set_statfp                00000001801c415c f   libucrt:fpctrl.obj
 0001:001c317c       _statfp                    00000001801c417c f   libucrt:fpctrl.obj
 0001:001c3190       __acrt_initialize_fma3     00000001801c4190 f   libucrt:fma3_available.obj
 0001:001c3200       __remainder_piby2d2f_forC  00000001801c4200 f   libucrt:remainder_piby2f_forc.obj
 0001:001c338c       __acrt_call_reportfault    00000001801c438c f   libucrt:invalid_parameter.obj
 0001:001c34e8       __acrt_initialize_invalid_parameter_handler 00000001801c44e8 f   libucrt:invalid_parameter.obj
 0001:001c34f0       _invalid_parameter         00000001801c44f0 f   libucrt:invalid_parameter.obj
 0001:001c35a0       _invalid_parameter_noinfo  00000001801c45a0 f   libucrt:invalid_parameter.obj
 0001:001c35c0       _invoke_watson             00000001801c45c0 f   libucrt:invalid_parameter.obj
 0001:001c3608       __acrt_errno_from_os_error 00000001801c4608 f   libucrt:errno.obj
 0001:001c3650       __acrt_errno_map_os_error  00000001801c4650 f   libucrt:errno.obj
 0001:001c36a0       __doserrno                 00000001801c46a0 f   libucrt:errno.obj
 0001:001c36c0       _errno                     00000001801c46c0 f   libucrt:errno.obj
 0001:001c36e0       _calloc_base               00000001801c46e0 f   libucrt:calloc_base.obj
 0001:001c3758       _free_base                 00000001801c4758 f   libucrt:free_base.obj
 0001:001c3970       __acrt_AppPolicyGetProcessTerminationMethodInternal 00000001801c4970 f   libucrt:winapi_thunks.obj
 0001:001c39c0       __acrt_AreFileApisANSI     00000001801c49c0 f   libucrt:winapi_thunks.obj
 0001:001c39fc       __acrt_FlsAlloc            00000001801c49fc f   libucrt:winapi_thunks.obj
 0001:001c3a44       __acrt_FlsFree             00000001801c4a44 f   libucrt:winapi_thunks.obj
 0001:001c3a8c       __acrt_FlsGetValue         00000001801c4a8c f   libucrt:winapi_thunks.obj
 0001:001c3ad4       __acrt_FlsSetValue         00000001801c4ad4 f   libucrt:winapi_thunks.obj
 0001:001c3b28       __acrt_InitializeCriticalSectionEx 00000001801c4b28 f   libucrt:winapi_thunks.obj
 0001:001c3b8c       __acrt_LCMapStringEx       00000001801c4b8c f   libucrt:winapi_thunks.obj
 0001:001c3c68       __acrt_LocaleNameToLCID    00000001801c4c68 f   libucrt:winapi_thunks.obj
 0001:001c3cb8       __acrt_initialize_winapi_thunks 00000001801c4cb8 f   libucrt:winapi_thunks.obj
 0001:001c3cec       __acrt_uninitialize_winapi_thunks 00000001801c4cec f   libucrt:winapi_thunks.obj
 0001:001c3d30       _fcloseall                 00000001801c4d30 f   libucrt:closeall.obj
 0001:001c3fc0       __acrt_stdio_flush_nolock  00000001801c4fc0 f   libucrt:fflush.obj
 0001:001c403c       _fflush_nolock             00000001801c503c f   libucrt:fflush.obj
 0001:001c4088       _flushall                  00000001801c5088 f   libucrt:fflush.obj
 0001:001c4090       __acrt_stdio_free_buffer_nolock 00000001801c5090 f   libucrt:_freebuf.obj
 0001:001c42cc       __acrt_initialize_lowio    00000001801c52cc f   libucrt:ioinit.obj
 0001:001c4308       __acrt_uninitialize_lowio  00000001801c5308 f   libucrt:ioinit.obj
 0001:001c4348       _malloc_base               00000001801c5348 f   libucrt:malloc_base.obj
 0001:001c43a8       strtol                     00000001801c53a8 f   libucrt:strtox.obj
 0001:001c43d4       _mbtowc_l                  00000001801c53d4 f   libucrt:mbtowc.obj
 0001:001c4554       mbtowc                     00000001801c5554 f   libucrt:mbtowc.obj
 0001:001c455c       _wctomb_s_l                00000001801c555c f   libucrt:wctomb.obj
 0001:001c46f8       strnlen                    00000001801c56f8 f   libucrt:strnlen.obj
 0001:001c4848       wcsnlen                    00000001801c5848 f   libucrt:strnlen.obj
 0001:001c4d98       __acrt_freeptd             00000001801c5d98 f   libucrt:per_thread_data.obj
 0001:001c4ddc       __acrt_getptd              00000001801c5ddc f   libucrt:per_thread_data.obj
 0001:001c4eb0       __acrt_getptd_head         00000001801c5eb0 f   libucrt:per_thread_data.obj
 0001:001c4f58       __acrt_getptd_noexit       00000001801c5f58 f   libucrt:per_thread_data.obj
 0001:001c5024       __acrt_initialize_ptd      00000001801c6024 f   libucrt:per_thread_data.obj
 0001:001c5060       __acrt_uninitialize_ptd    00000001801c6060 f   libucrt:per_thread_data.obj
 0001:001c5084       __acrt_update_locale_info  00000001801c6084 f   libucrt:locale_update.obj
 0001:001c50b8       __acrt_update_multibyte_info 00000001801c60b8 f   libucrt:locale_update.obj
 0001:001c5af8       __acrt_fp_format           00000001801c6af8 f   libucrt:cvt.obj
 0001:001c5e30       _fileno                    00000001801c6e30 f   libucrt:fileno.obj
 0001:001c5e58       _fputc_nolock              00000001801c6e58 f   libucrt:fputc.obj
 0001:001c5e70       _get_printf_count_output   00000001801c6e70 f   libucrt:printf_count_output.obj
 0001:001c5e88       __acrt_should_use_temporary_buffer 00000001801c6e88 f   libucrt:_sftbuf.obj
 0001:001c5ed0       __acrt_stdio_begin_temporary_buffering_nolock 00000001801c6ed0 f   libucrt:_sftbuf.obj
 0001:001c5f98       __acrt_stdio_end_temporary_buffering_nolock 00000001801c6f98 f   libucrt:_sftbuf.obj
 0001:001c6044       __acrt_set_locale_changed  00000001801c7044 f   libucrt:wsetlocale.obj
 0001:001c6050       __acrt_uninitialize_locale 00000001801c7050 f   libucrt:wsetlocale.obj
 0001:001c61a4       _handle_error              00000001801c71a4 f   libucrt:libm_error.obj
 0001:001c62cc       _handle_errorf             00000001801c72cc f   libucrt:libm_error.obj
 0001:001c6400       _handle_nan                00000001801c7400 f   libucrt:libm_error.obj
 0001:001c641c       _handle_nanf               00000001801c741c f   libucrt:libm_error.obj
 0001:001c6430       _powf_special              00000001801c7430 f   libucrt:pow_special.obj
 0001:001c65bc       __acrt_initialize_locks    00000001801c75bc f   libucrt:locks.obj
 0001:001c6604       __acrt_lock                00000001801c7604 f   libucrt:locks.obj
 0001:001c6620       __acrt_uninitialize_locks  00000001801c7620 f   libucrt:locks.obj
 0001:001c6658       __acrt_unlock              00000001801c7658 f   libucrt:locks.obj
 0001:001c6674       __acrt_get_process_end_policy 00000001801c7674 f   libucrt:win_policies.obj
 0001:001c66c4       ??$__acrt_mbs_to_wcs_cp@U__crt_win32_buffer_internal_dynamic_resizing@@@@YAHQEBDAEAV?$__crt_win32_buffer@_WU__crt_win32_buffer_internal_dynamic_resizing@@@@I@Z 00000001801c76c4 f i libucrt:argv_wildcards.obj
 0001:001c683c       ??$__acrt_wcs_to_mbs_cp@U__crt_win32_buffer_internal_dynamic_resizing@@@@YAHQEB_WAEAV?$__crt_win32_buffer@DU__crt_win32_buffer_internal_dynamic_resizing@@@@I@Z 00000001801c783c f i libucrt:argv_wildcards.obj
 0001:001c706c       __acrt_expand_narrow_argv_wildcards 00000001801c806c f   libucrt:argv_wildcards.obj
 0001:001c7074       ??$__acrt_wcs_to_mbs_cp@U__crt_win32_buffer_no_resizing@@@@YAHQEB_WAEAV?$__crt_win32_buffer@DU__crt_win32_buffer_no_resizing@@@@I@Z 00000001801c8074 f i libucrt:getmodulefilenamea.obj
 0001:001c7188       __acrt_GetModuleFileNameA  00000001801c8188 f   libucrt:getmodulefilenamea.obj
 0001:001c79d0       __acrt_initialize_multibyte 00000001801c89d0 f   libucrt:mbctype.obj
 0001:001c7a30       __acrt_update_thread_multibyte_data 00000001801c8a30 f   libucrt:mbctype.obj
 0001:001c7a4c       _setmbcp_nolock            00000001801c8a4c f   libucrt:mbctype.obj
 0001:001c7d80       _ismbblead                 00000001801c8d80 f   libucrt:ismbbyte.obj
 0001:001c7d94       __acrt_initialize_command_line 00000001801c8d94 f   libucrt:argv_data.obj
 0001:001c7dbc       __acrt_MultiByteToWideChar 00000001801c8dbc f   libucrt:multibytetowidechar.obj
 0001:001c7e18       __acrt_WideCharToMultiByte 00000001801c8e18 f   libucrt:widechartomultibyte.obj
 0001:001c7ec8       __dcrt_get_narrow_environment_from_os 00000001801c8ec8 f   libucrt:get_environment_from_os.obj
 0001:001c7fcc       _recalloc_base             00000001801c8fcc f   libucrt:recalloc.obj
 0001:001c8064       __acrt_initialize_heap     00000001801c9064 f   libucrt:heap_handle.obj
 0001:001c8080       __acrt_uninitialize_heap   00000001801c9080 f   libucrt:heap_handle.obj
 0001:001c808c       __acrt_execute_initializers 00000001801c908c f   libucrt:shared_initialization.obj
 0001:001c810c       __acrt_execute_uninitializers 00000001801c910c f   libucrt:shared_initialization.obj
 0001:001c8148       __acrt_initialize_new_handler 00000001801c9148 f   libucrt:new_handler.obj
 0001:001c8150       _callnewh                  00000001801c9150 f   libucrt:new_handler.obj
 0001:001c8180       _query_new_handler         00000001801c9180 f   libucrt:new_handler.obj
 0001:001c81fc       __acrt_get_sigabrt_handler 00000001801c91fc f   libucrt:signal.obj
 0001:001c822c       __acrt_initialize_signal_handlers 00000001801c922c f   libucrt:signal.obj
 0001:001c824c       raise                      00000001801c924c f   libucrt:signal.obj
 0001:001c84b8       __acrt_has_user_matherr    00000001801c94b8 f   libucrt:matherr.obj
 0001:001c84d8       __acrt_initialize_user_matherr 00000001801c94d8 f   libucrt:matherr.obj
 0001:001c84e0       __acrt_invoke_user_matherr 00000001801c94e0 f   libucrt:matherr.obj
 0001:001c8510       __pctype_func              00000001801c9510 f   libucrt:ctype.obj
 0001:001c8540       _isctype_l                 00000001801c9540 f   libucrt:isctype.obj
 0001:001c8660       _get_fpsr                  00000001801c9660 f   libucrt:fpsr.obj
 0001:001c8670       _set_fpsr                  00000001801c9670 f   libucrt:fpsr.obj
 0001:001c867a       _fclrf                     00000001801c967a f   libucrt:fpsr.obj
 0001:001c868e       _frnd                      00000001801c968e f   libucrt:fpsr.obj
 0001:001c86b0       _query_new_mode            00000001801c96b0 f   libucrt:new_mode.obj
 0001:001c86b8       __acrt_DownlevelLocaleNameToLCID 00000001801c96b8 f   libucrt:lcidtoname_downlevel.obj
 0001:001c8768       _fclose_nolock             00000001801c9768 f   libucrt:fclose.obj
 0001:001c87ec       fclose                     00000001801c97ec f   libucrt:fclose.obj
 0001:001c88dc       _commit                    00000001801c98dc f   libucrt:commit.obj
 0001:001c91ec       _write                     00000001801ca1ec f   libucrt:write.obj
 0001:001c92d8       _write_nolock              00000001801ca2d8 f   libucrt:write.obj
 0001:001c95bc       __acrt_lowio_create_handle_array 00000001801ca5bc f   libucrt:osfinfo.obj
 0001:001c9664       __acrt_lowio_destroy_handle_array 00000001801ca664 f   libucrt:osfinfo.obj
 0001:001c96b4       __acrt_lowio_ensure_fh_exists 00000001801ca6b4 f   libucrt:osfinfo.obj
 0001:001c975c       __acrt_lowio_lock_fh       00000001801ca75c f   libucrt:osfinfo.obj
 0001:001c9784       __acrt_lowio_unlock_fh     00000001801ca784 f   libucrt:osfinfo.obj
 0001:001c97ac       _free_osfhnd               00000001801ca7ac f   libucrt:osfinfo.obj
 0001:001c9868       _get_osfhandle             00000001801ca868 f   libucrt:osfinfo.obj
 0001:001c98e0       _isleadbyte_l              00000001801ca8e0 f i libucrt:_wctype.obj
 0001:001c992c       ?__mbrtowc_utf8@__crt_mbstring@@YA_KPEA_WPEBD_KPEAU_Mbstatet@@@Z 00000001801ca92c f   libucrt:mbrtowc.obj
 0001:001c9968       ?__mbsrtowcs_utf8@__crt_mbstring@@YA_KPEA_WPEAPEBD_KPEAU_Mbstatet@@@Z 00000001801ca968 f   libucrt:mbrtowc.obj
 0001:001c9ae0       ?__c32rtomb_utf8@__crt_mbstring@@YA_KPEAD_UPEAU_Mbstatet@@@Z 00000001801caae0 f   libucrt:c32rtomb.obj
 0001:001c9b94       __acrt_add_locale_ref      00000001801cab94 f   libucrt:locale_refcounting.obj
 0001:001c9c20       __acrt_free_locale         00000001801cac20 f   libucrt:locale_refcounting.obj
 0001:001c9d98       __acrt_locale_add_lc_time_reference 00000001801cad98 f   libucrt:locale_refcounting.obj
 0001:001c9dc0       __acrt_locale_free_lc_time_if_unreferenced 00000001801cadc0 f   libucrt:locale_refcounting.obj
 0001:001c9df8       __acrt_locale_release_lc_time_reference 00000001801cadf8 f   libucrt:locale_refcounting.obj
 0001:001c9e20       __acrt_release_locale_ref  00000001801cae20 f   libucrt:locale_refcounting.obj
 0001:001c9ec8       __acrt_update_thread_locale_data 00000001801caec8 f   libucrt:locale_refcounting.obj
 0001:001c9f38       _updatetlocinfoEx_nolock   00000001801caf38 f   libucrt:locale_refcounting.obj
 0001:001c9fa0       __acrt_fp_strflt_to_string 00000001801cafa0 f   libucrt:_fptostr.obj
 0001:001ca100       ?divide@__crt_strtox@@YA_KAEAUbig_integer@1@AEBU21@@Z 00000001801cb100 f i libucrt:cfout.obj
 0001:001ca52c       __acrt_fltout              00000001801cb52c f   libucrt:cfout.obj
 0001:001cb7f8       fegetround                 00000001801cc7f8 f   libucrt:fegetround.obj
 0001:001cb96c       __acrt_stdio_flush_and_write_narrow_nolock 00000001801cc96c f   libucrt:_flsbuf.obj
 0001:001cba24       _isatty                    00000001801cca24 f   libucrt:isatty.obj
 0001:001cba84       __acrt_locale_free_monetary 00000001801cca84 f   libucrt:initmon.obj
 0001:001cbb90       __acrt_locale_free_numeric 00000001801ccb90 f   libucrt:initnum.obj
 0001:001cbc54       __acrt_locale_free_time    00000001801ccc54 f   libucrt:inittime.obj
 0001:001cbd5c       __acrt_GetStringTypeA      00000001801ccd5c f   libucrt:getstringtypea.obj
 0001:001cbeec       _raise_exc                 00000001801cceec f   libucrt:fpexcept.obj
 0001:001cbf14       _raise_exc_ex              00000001801ccf14 f   libucrt:fpexcept.obj
 0001:001cc224       _raise_excf                00000001801cd224 f   libucrt:fpexcept.obj
 0001:001cc250       _set_errno_from_matherr    00000001801cd250 f   libucrt:fpexcept.obj
 0001:001cc280       qsort                      00000001801cd280 f   libucrt:qsort.obj
 0001:001cc620       strncpy_s                  00000001801cd620 f   libucrt:strncpy_s.obj
 0001:001cc7a0       strpbrk                    00000001801cd7a0 f   libucrt:strpbrk.obj
 0001:001ccb68       _mbsdec                    00000001801cdb68 f   libucrt:mbsdec.obj
 0001:001ccb70       _mbsdec_l                  00000001801cdb70 f   libucrt:mbsdec.obj
 0001:001ccf1c       __acrt_LCMapStringA        00000001801cdf1c f   libucrt:lcmapstringa.obj
 0001:001ccfcc       _msize_base                00000001801cdfcc f   libucrt:msize.obj
 0001:001cd008       _realloc_base              00000001801ce008 f   libucrt:realloc_base.obj
 0001:001cd084       __ascii_wcsnicmp           00000001801ce084 f   libucrt:wcsnicmp.obj
 0001:001cd144       _close                     00000001801ce144 f   libucrt:close.obj
 0001:001cd1e8       _close_nolock              00000001801ce1e8 f   libucrt:close.obj
 0001:001cd2a8       ?__acrt_stdio_free_stream@@YAXV__crt_stdio_stream@@@Z 00000001801ce2a8 f   libucrt:stream.obj
 0001:001cd450       _lseeki64                  00000001801ce450 f   libucrt:lseek.obj
 0001:001cd458       _lseeki64_nolock           00000001801ce458 f   libucrt:lseek.obj
 0001:001cd460       _putwch_nolock             00000001801ce460 f   libucrt:putwch.obj
 0001:001cd49c       _query_app_type            00000001801ce49c f   libucrt:report_runtime_error.obj
 0001:001cd4a4       ?__mbrtoc32_utf8@__crt_mbstring@@YA_KPEA_UPEBD_KPEAU_Mbstatet@@@Z 00000001801ce4a4 f   libucrt:mbrtoc32.obj
 0001:001cd67c       _controlfp_s               00000001801ce67c f   libucrt:contrlfp.obj
 0001:001cd6e0       fegetenv                   00000001801ce6e0 f   libucrt:fegetenv.obj
 0001:001cd700       fesetenv                   00000001801ce700 f   libucrt:fesetenv.obj
 0001:001cd74c       feholdexcept               00000001801ce74c f   libucrt:feholdexcept.obj
 0001:001cd79c       ceil                       00000001801ce79c f   libucrt:ceil.obj
 0001:001cd860       log10                      00000001801ce860 f   libucrt:log10.obj
 0001:001cde0c       __acrt_fenv_get_common_round_control 00000001801cee0c f   libucrt:_fenvutils.obj
 0001:001cde18       __acrt_fenv_get_control    00000001801cee18 f   libucrt:_fenvutils.obj
 0001:001cdf0c       __acrt_fenv_get_status     00000001801cef0c f   libucrt:_fenvutils.obj
 0001:001cdf60       __acrt_fenv_set_control    00000001801cef60 f   libucrt:_fenvutils.obj
 0001:001ce0a8       __acrt_fenv_set_status     00000001801cf0a8 f   libucrt:_fenvutils.obj
 0001:001ce12c       __acrt_stdio_allocate_buffer_nolock 00000001801cf12c f   libucrt:_getbuf.obj
 0001:001ce198       __strncnt                  00000001801cf198 f   libucrt:strncnt.obj
 0001:001ce1b0       __dcrt_lowio_ensure_console_output_initialized 00000001801cf1b0 f   libucrt:initcon.obj
 0001:001ce204       __dcrt_terminate_console_output 00000001801cf204 f   libucrt:initcon.obj
 0001:001ce220       __dcrt_write_console       00000001801cf220 f   libucrt:initcon.obj
 0001:001ce2e0       _clearfp                   00000001801cf2e0 f   libucrt:ieee.obj
 0001:001ce350       _control87                 00000001801cf350 f   libucrt:ieee.obj
 0001:001ce620       _log10_special             00000001801cf620 f   libucrt:log_special.obj
 0001:001ce6e0       _FindPESection             00000001801cf6e0 f   LIBCMT:pesect.obj
 0001:001ce730       _IsNonwritableInCurrentImage 00000001801cf730 f   LIBCMT:pesect.obj
 0001:001ce780       _ValidateImageBase         00000001801cf780 f   LIBCMT:pesect.obj
 0001:001ce7b0       __GSHandlerCheck           00000001801cf7b0 f   LIBCMT:gshandler.obj
 0001:001ce7d0       __GSHandlerCheckCommon     00000001801cf7d0 f   LIBCMT:gshandler.obj
 0001:001ce840       __security_check_cookie    00000001801cf840 f   LIBCMT:amdsecgs.obj
 0001:001ce860       __GSHandlerCheck_SEH       00000001801cf860 f   LIBCMT:gshandlerseh.obj
 0001:001ce8e8       __raise_securityfailure    00000001801cf8e8 f   LIBCMT:gs_report.obj
 0001:001ce91c       __report_gsfailure         00000001801cf91c f   LIBCMT:gs_report.obj
 0001:001ce9f0       __report_rangecheckfailure 00000001801cf9f0 f   LIBCMT:gs_report.obj
 0001:001cea04       __report_securityfailure   00000001801cfa04 f   LIBCMT:gs_report.obj
 0001:001ceb84       strrchr                    00000001801cfb84 f   libvcruntime:strrchr.obj
 0001:001cecc0       memcmp                     00000001801cfcc0 f   libvcruntime:memcmp.obj
 0001:001ceda0       _guard_dispatch_icall_nop  00000001801cfda0 f   LIBCMT:guard_dispatch.obj
 0001:001cedc0       _guard_xfg_dispatch_icall_nop 00000001801cfdc0 f   LIBCMT:guard_xfg_dispatch.obj
 0002:00000000       __imp_GetLastError         00000001801d1000     kernel32:KERNEL32.dll
 0002:00000008       __imp_FreeLibrary          00000001801d1008     kernel32:KERNEL32.dll
 0002:00000010       __imp_GetProcAddress       00000001801d1010     kernel32:KERNEL32.dll
 0002:00000018       __imp_LoadLibraryA         00000001801d1018     kernel32:KERNEL32.dll
 0002:00000020       __imp_RaiseException       00000001801d1020     kernel32:KERNEL32.dll
 0002:00000028       __imp_GetSystemInfo        00000001801d1028     kernel32:KERNEL32.dll
 0002:00000030       __imp_VirtualProtect       00000001801d1030     kernel32:KERNEL32.dll
 0002:00000038       __imp_VirtualQuery         00000001801d1038     kernel32:KERNEL32.dll
 0002:00000040       __imp_GetModuleHandleW     00000001801d1040     kernel32:KERNEL32.dll
 0002:00000048       __imp_LoadLibraryExA       00000001801d1048     kernel32:KERNEL32.dll
 0002:00000050       __imp_InitializeSListHead  00000001801d1050     kernel32:KERNEL32.dll
 0002:00000058       __imp_RtlCaptureContext    00000001801d1058     kernel32:KERNEL32.dll
 0002:00000060       __imp_RtlLookupFunctionEntry 00000001801d1060     kernel32:KERNEL32.dll
 0002:00000068       __imp_RtlVirtualUnwind     00000001801d1068     kernel32:KERNEL32.dll
 0002:00000070       __imp_IsDebuggerPresent    00000001801d1070     kernel32:KERNEL32.dll
 0002:00000078       __imp_UnhandledExceptionFilter 00000001801d1078     kernel32:KERNEL32.dll
 0002:00000080       __imp_SetUnhandledExceptionFilter 00000001801d1080     kernel32:KERNEL32.dll
 0002:00000088       __imp_GetStartupInfoW      00000001801d1088     kernel32:KERNEL32.dll
 0002:00000090       __imp_IsProcessorFeaturePresent 00000001801d1090     kernel32:KERNEL32.dll
 0002:00000098       __imp_QueryPerformanceCounter 00000001801d1098     kernel32:KERNEL32.dll
 0002:000000a0       __imp_GetCurrentProcessId  00000001801d10a0     kernel32:KERNEL32.dll
 0002:000000a8       __imp_GetCurrentThreadId   00000001801d10a8     kernel32:KERNEL32.dll
 0002:000000b0       __imp_GetSystemTimeAsFileTime 00000001801d10b0     kernel32:KERNEL32.dll
 0002:000000b8       __imp_InterlockedPushEntrySList 00000001801d10b8     kernel32:KERNEL32.dll
 0002:000000c0       __imp_InterlockedFlushSList 00000001801d10c0     kernel32:KERNEL32.dll
 0002:000000c8       __imp_RtlUnwindEx          00000001801d10c8     kernel32:KERNEL32.dll
 0002:000000d0       __imp_SetLastError         00000001801d10d0     kernel32:KERNEL32.dll
 0002:000000d8       __imp_EnterCriticalSection 00000001801d10d8     kernel32:KERNEL32.dll
 0002:000000e0       __imp_LeaveCriticalSection 00000001801d10e0     kernel32:KERNEL32.dll
 0002:000000e8       __imp_DeleteCriticalSection 00000001801d10e8     kernel32:KERNEL32.dll
 0002:000000f0       __imp_InitializeCriticalSectionAndSpinCount 00000001801d10f0     kernel32:KERNEL32.dll
 0002:000000f8       __imp_TlsAlloc             00000001801d10f8     kernel32:KERNEL32.dll
 0002:00000100       __imp_TlsGetValue          00000001801d1100     kernel32:KERNEL32.dll
 0002:00000108       __imp_TlsSetValue          00000001801d1108     kernel32:KERNEL32.dll
 0002:00000110       __imp_TlsFree              00000001801d1110     kernel32:KERNEL32.dll
 0002:00000118       __imp_LoadLibraryExW       00000001801d1118     kernel32:KERNEL32.dll
 0002:00000120       __imp_EncodePointer        00000001801d1120     kernel32:KERNEL32.dll
 0002:00000128       __imp_RtlPcToFileHeader    00000001801d1128     kernel32:KERNEL32.dll
 0002:00000130       __imp_GetCurrentProcess    00000001801d1130     kernel32:KERNEL32.dll
 0002:00000138       __imp_ExitProcess          00000001801d1138     kernel32:KERNEL32.dll
 0002:00000140       __imp_TerminateProcess     00000001801d1140     kernel32:KERNEL32.dll
 0002:00000148       __imp_GetModuleHandleExW   00000001801d1148     kernel32:KERNEL32.dll
 0002:00000150       __imp_GetModuleFileNameW   00000001801d1150     kernel32:KERNEL32.dll
 0002:00000158       __imp_HeapAlloc            00000001801d1158     kernel32:KERNEL32.dll
 0002:00000160       __imp_HeapFree             00000001801d1160     kernel32:KERNEL32.dll
 0002:00000168       __imp_LCMapStringW         00000001801d1168     kernel32:KERNEL32.dll
 0002:00000170       __imp_GetStdHandle         00000001801d1170     kernel32:KERNEL32.dll
 0002:00000178       __imp_GetFileType          00000001801d1178     kernel32:KERNEL32.dll
 0002:00000180       __imp_FindClose            00000001801d1180     kernel32:KERNEL32.dll
 0002:00000188       __imp_FindFirstFileExW     00000001801d1188     kernel32:KERNEL32.dll
 0002:00000190       __imp_FindNextFileW        00000001801d1190     kernel32:KERNEL32.dll
 0002:00000198       __imp_IsValidCodePage      00000001801d1198     kernel32:KERNEL32.dll
 0002:000001a0       __imp_GetACP               00000001801d11a0     kernel32:KERNEL32.dll
 0002:000001a8       __imp_GetOEMCP             00000001801d11a8     kernel32:KERNEL32.dll
 0002:000001b0       __imp_GetCPInfo            00000001801d11b0     kernel32:KERNEL32.dll
 0002:000001b8       __imp_GetCommandLineA      00000001801d11b8     kernel32:KERNEL32.dll
 0002:000001c0       __imp_GetCommandLineW      00000001801d11c0     kernel32:KERNEL32.dll
 0002:000001c8       __imp_MultiByteToWideChar  00000001801d11c8     kernel32:KERNEL32.dll
 0002:000001d0       __imp_WideCharToMultiByte  00000001801d11d0     kernel32:KERNEL32.dll
 0002:000001d8       __imp_GetEnvironmentStringsW 00000001801d11d8     kernel32:KERNEL32.dll
 0002:000001e0       __imp_FreeEnvironmentStringsW 00000001801d11e0     kernel32:KERNEL32.dll
 0002:000001e8       __imp_GetProcessHeap       00000001801d11e8     kernel32:KERNEL32.dll
 0002:000001f0       __imp_FlushFileBuffers     00000001801d11f0     kernel32:KERNEL32.dll
 0002:000001f8       __imp_WriteFile            00000001801d11f8     kernel32:KERNEL32.dll
 0002:00000200       __imp_GetConsoleOutputCP   00000001801d1200     kernel32:KERNEL32.dll
 0002:00000208       __imp_GetConsoleMode       00000001801d1208     kernel32:KERNEL32.dll
 0002:00000210       __imp_SetStdHandle         00000001801d1210     kernel32:KERNEL32.dll
 0002:00000218       __imp_GetFileSizeEx        00000001801d1218     kernel32:KERNEL32.dll
 0002:00000220       __imp_SetFilePointerEx     00000001801d1220     kernel32:KERNEL32.dll
 0002:00000228       __imp_GetStringTypeW       00000001801d1228     kernel32:KERNEL32.dll
 0002:00000230       __imp_HeapSize             00000001801d1230     kernel32:KERNEL32.dll
 0002:00000238       __imp_HeapReAlloc          00000001801d1238     kernel32:KERNEL32.dll
 0002:00000240       __imp_CloseHandle          00000001801d1240     kernel32:KERNEL32.dll
 0002:00000248       __imp_CreateFileW          00000001801d1248     kernel32:KERNEL32.dll
 0002:00000250       __imp_WriteConsoleW        00000001801d1250     kernel32:KERNEL32.dll
 0002:00000258       \177KERNEL32_NULL_THUNK_DATA 00000001801d1258     kernel32:KERNEL32.dll
 0002:00000260       __guard_check_icall_fptr   00000001801d1260     LIBCMT:guard_support.obj
 0002:00000268       __guard_xfg_check_icall_fptr 00000001801d1268     LIBCMT:guard_support.obj
 0002:00000270       __guard_dispatch_icall_fptr 00000001801d1270     LIBCMT:guard_support.obj
 0002:00000278       __guard_xfg_dispatch_icall_fptr 00000001801d1278     LIBCMT:guard_support.obj
 0002:00000280       __guard_xfg_table_dispatch_icall_fptr 00000001801d1280     LIBCMT:guard_support.obj
 0002:00000288       __xc_a                     00000001801d1288     LIBCMT:initializers.obj
 0002:00001b40       __xc_z                     00000001801d2b40     LIBCMT:initializers.obj
 0002:00001b48       __xi_a                     00000001801d2b48     LIBCMT:initializers.obj
 0002:00001b50       __acrt_stdio_initializer   00000001801d2b50     libucrt:stdio_initializer.obj
 0002:00001b58       __acrt_tran_fma3_initializer 00000001801d2b58     libucrt:fma3_initializer.obj
 0002:00001b60       __acrt_multibyte_initializer 00000001801d2b60     libucrt:multibyte_initializer.obj
 0002:00001b68       __xi_z                     00000001801d2b68     LIBCMT:initializers.obj
 0002:00001b70       __xp_a                     00000001801d2b70     LIBCMT:initializers.obj
 0002:00001b78       __acrt_locale_terminator   00000001801d2b78     libucrt:locale_initializer.obj
 0002:00001b80       __dcrt_console_output_terminator 00000001801d2b80     libucrt:console_output_initializer.obj
 0002:00001b88       __acrt_stdio_terminator    00000001801d2b88     libucrt:stdio_initializer.obj
 0002:00001b90       __xp_z                     00000001801d2b90     LIBCMT:initializers.obj
 0002:00001b98       __xt_a                     00000001801d2b98     LIBCMT:initializers.obj
 0002:00001ba0       __xt_z                     00000001801d2ba0     LIBCMT:initializers.obj
 0002:00001bb0       ??_C@_08MDGMHCHN@PtrTable@ 00000001801d2bb0     CmPtrTable.obj
 0002:00001bbc       ??_C@_04GKJNKENE@void@     00000001801d2bbc     CmPtrTable.obj
 0002:00001bc8       ??_C@_07DFEBJDHE@mSingle@  00000001801d2bc8     CmPtrTable.obj
 0002:00001bd0       ??_C@_05NLHHBMOH@PxU16@    00000001801d2bd0     CmPtrTable.obj
 0002:00001bd8       ??_C@_06EPKHJPIM@mCount@   00000001801d2bd8     CmPtrTable.obj
 0002:00001be0       ??_C@_04DDKJGDCM@bool@     00000001801d2be0     CmPtrTable.obj
 0002:00001be8       ??_C@_0M@DAGELID@mOwnsMemory@ 00000001801d2be8     CmPtrTable.obj
 0002:00001bf8       ??_C@_0M@MMPOMMLP@mBufferUsed@ 00000001801d2bf8     CmPtrTable.obj
 0002:00001c04       ??_C@_05LMJPANIN@PxU32@    00000001801d2c04     CmPtrTable.obj
 0002:00001c10       ??_C@_09PMLNMEMN@mFreeSlot@ 00000001801d2c10     CmPtrTable.obj
 0002:00001c20       ??_7PxCollection@physx@@6B@ 00000001801d2c20     CmCollection.obj
 0002:00001ca0       ??_C@_00CNPNBAHC@@         00000001801d2ca0     CmCollection.obj
 0002:00001ca8       ??_7Collection@Cm@physx@@6B@ 00000001801d2ca8     CmCollection.obj
 0002:00001d30       ??_C@_0GE@GBACBMOC@PxCollection?3?3add?5called?5for?5an@ 00000001801d2d30     CmCollection.obj
 0002:00001da0       ??_C@_0FE@DHIALGFE@F?3?2Downloads?2repos?2PhysX?9104?42?9@ 00000001801d2da0     CmCollection.obj
 0002:00001e00       ??_C@_0EM@OMMGDOMK@PxCollection?3?3add?5called?5with?5a@ 00000001801d2e00     CmCollection.obj
 0002:00001e50       ??_C@_0FG@GCBFMCCP@F?3?2Downloads?2repos?2PhysX?9104?42?9@ 00000001801d2e50     CmCollection.obj
 0002:00001ea8       ??_C@_0BM@OIFKLHDN@?$DMallocation?5names?5disabled?$DO@ 00000001801d2ea8     CmCollection.obj
 0002:00001ec8       ??_7RadixSort@Cm@physx@@6B@ 00000001801d2ec8     CmRadixSort.obj
 0002:00001ed0       ??_7RadixSortBuffered@Cm@physx@@6B@ 00000001801d2ed0     CmRadixSort.obj
 0002:00001ee0       ??_C@_0FD@IABNMGNK@F?3?2Downloads?2repos?2PhysX?9104?42?9@ 00000001801d2ee0     CmRadixSort.obj
 0002:00001f40       __xmm@00000001000000010000000100000001 00000001801d2f40     CmRadixSort.obj
 0002:00001f50       __xmm@00000003000000020000000100000000 00000001801d2f50     CmRadixSort.obj
 0002:00001f60       __real@343bbd2e            00000001801d2f60     CmVisualization.obj
 0002:00001f64       __real@3d00adfd            00000001801d2f64     CmVisualization.obj
 0002:00001f68       __real@3d4ccccd            00000001801d2f68     CmVisualization.obj
 0002:00001f6c       __real@3d80adfd            00000001801d2f6c     CmVisualization.obj
 0002:00001f70       __real@3e19999a            00000001801d2f70     CmVisualization.obj
 0002:00001f74       __real@3e490fdb            00000001801d2f74     CmVisualization.obj
 0002:00001f78       __real@3e800000            00000001801d2f78     CmVisualization.obj
 0002:00001f7c       __real@3e99999a            00000001801d2f7c     CmVisualization.obj
 0002:00001f80       __real@3ea0d97c            00000001801d2f80     CmVisualization.obj
 0002:00001f84       __real@3eddb3d7            00000001801d2f84     CmVisualization.obj
 0002:00001f88       __real@3f000000            00000001801d2f88     CmVisualization.obj
 0002:00001f8c       __real@3f3504f3            00000001801d2f8c     CmVisualization.obj
 0002:00001f90       __real@3f800000            00000001801d2f90     CmVisualization.obj
 0002:00001f94       __real@3fc00000            00000001801d2f94     CmVisualization.obj
 0002:00001f98       __real@3fddb3d7            00000001801d2f98     CmVisualization.obj
 0002:00001f9c       __real@40100000            00000001801d2f9c     CmVisualization.obj
 0002:00001fa0       __real@40490fdb            00000001801d2fa0     CmVisualization.obj
 0002:00001fa4       __real@40c90fdb            00000001801d2fa4     CmVisualization.obj
 0002:00001fa8       __real@b3bbbd2e            00000001801d2fa8     CmVisualization.obj
 0002:00001fac       __real@beddb3d7            00000001801d2fac     CmVisualization.obj
 0002:00001fb0       __real@c0000000            00000001801d2fb0     CmVisualization.obj
 0002:00001fc0       __xmm@3f800000000000000000000000000000 00000001801d2fc0     CmVisualization.obj
 0002:00001fd0       __xmm@7fffffff7fffffff7fffffff7fffffff 00000001801d2fd0     CmVisualization.obj
 0002:00001fe0       __xmm@80000000800000008000000080000000 00000001801d2fe0     CmVisualization.obj
 0002:00001ff0       ??_C@_0BB@CPDDPFKD@GetUpdatedModule@ 00000001801d2ff0     CmWindowsModuleUpdateLoader.obj
 0002:00002010       ??_C@_0GL@DBEHOFIA@F?3?2Downloads?2repos?2PhysX?9104?42?9@ 00000001801d3010     CmWindowsModuleUpdateLoader.obj
 0002:00002080       ??_C@_0CP@PGOIOJOO@?$CFs?3?$CFi?3?5loadLibrary?5error?5when?5l@ 00000001801d3080     CmWindowsModuleUpdateLoader.obj
 0002:000020b0       ??_C@_0BA@EGLNOO@PhysXFoundation@ 00000001801d30b0     CmWindowsDelayLoadHook.obj
 0002:000020c0       ??_C@_0M@ILKNCJKN@PhysXCommon@ 00000001801d30c0     CmWindowsDelayLoadHook.obj
 0002:000020f0       __real@3f7ff972            00000001801d30f0     GuBox.obj
 0002:00002100       __xmm@000000003a83126f3a83126f3a83126f 00000001801d3100     GuBox.obj
 0002:00002110       __xmm@00000000ba83126fba83126fba83126f 00000001801d3110     GuBox.obj
 0002:00002120       __xmm@3a83126f3a83126f3a83126f3a83126f 00000001801d3120     GuBox.obj
 0002:00002130       __xmm@ba83126fba83126fba83126fba83126f 00000001801d3130     GuBox.obj
 0002:00002160       ??_7RemapCallback@RTreeCooker@physx@@6B@ 00000001801d3160     GuCookingTriangleMesh.obj
 0002:00002160       ??_7RaycastCallback@PxBVH@physx@@6B@ 00000001801d3160     GuQuerySystem.obj
 0002:00002160       ??_7EntityReport@Gu@physx@@6B@ 00000001801d3160     GuSweepsHF.obj
 0002:00002160       ??_7OverlapReport@Gu@physx@@6B@ 00000001801d3160     GuCCTSweepTests.obj
 0002:00002160       ??_7OverlapCallback@PxBVH@physx@@6B@ 00000001801d3160     GuQuerySystem.obj
 0002:00002180       __real@3b03126f            00000001801d3180     GuCCTSweepTests.obj
 0002:00002184       __real@40000000            00000001801d3184     GuCCTSweepTests.obj
 0002:000021c0       ??_7SupportLocal@Gu@physx@@6B@ 00000001801d31c0     GuGeometryQuery.obj
 0002:000021e0       ??_7?$SupportLocalImpl@VBoxV@Gu@physx@@@Gu@physx@@6B@ 00000001801d31e0     GuGeometryQuery.obj
 0002:00002200       ??_7?$SupportLocalImpl@VConvexHullV@Gu@physx@@@Gu@physx@@6B@ 00000001801d3200     GuGeometryQuery.obj
 0002:00002220       ??_C@_0EO@NJLHEPPN@F?3?2Downloads?2repos?2PhysX?9104?42?9@ 00000001801d3220     GuGeometryQuery.obj
 0002:00002270       __real@30d1b7e9            00000001801d3270     GuGeometryQuery.obj
 0002:00002274       __real@322bcc77            00000001801d3274     GuGeometryQuery.obj
 0002:00002278       __real@358637bd            00000001801d3278     GuGeometryQuery.obj
 0002:0000227c       __real@3a83126f            00000001801d327c     GuGeometryQuery.obj
 0002:00002280       __real@3ccccccd            00000001801d3280     GuGeometryQuery.obj
 0002:00002284       __real@3dcccccd            00000001801d3284     GuGeometryQuery.obj
 0002:00002288       __real@49742400            00000001801d3288     GuGeometryQuery.obj
 0002:0000228c       __real@7f7fffff            00000001801d328c     GuGeometryQuery.obj
 0002:00002290       __real@bf800000            00000001801d3290     GuGeometryQuery.obj
 0002:000022a0       __xmm@0000000000000000000000003f800000 00000001801d32a0     GuGeometryQuery.obj
 0002:000022b0       __xmm@00000000000000003f80000000000000 00000001801d32b0     GuGeometryQuery.obj
 0002:000022c0       __xmm@00000000000000003f8000003f800000 00000001801d32c0     GuGeometryQuery.obj
 0002:000022d0       __xmm@000000003f8000000000000000000000 00000001801d32d0     GuGeometryQuery.obj
 0002:000022e0       __xmm@000000003f8000003f8000003f800000 00000001801d32e0     GuGeometryQuery.obj
 0002:000022f0       __xmm@00000000ffffffffffffffffffffffff 00000001801d32f0     GuGeometryQuery.obj
 0002:00002300       __xmm@3d4ccccd3d4ccccd3d4ccccd3d4ccccd 00000001801d3300     GuGeometryQuery.obj
 0002:00002310       __xmm@3e19999a3e19999a3e19999a3e19999a 00000001801d3310     GuGeometryQuery.obj
 0002:00002320       __xmm@3e4ccccd3e4ccccd3e4ccccd3e4ccccd 00000001801d3320     GuGeometryQuery.obj
 0002:00002330       __xmm@3e8000003e8000003e8000003e800000 00000001801d3330     GuGeometryQuery.obj
 0002:00002340       __xmm@3f7ef9db3f7ef9db3f7ef9db3f7ef9db 00000001801d3340     GuGeometryQuery.obj
 0002:00002350       __xmm@3f7ff2e53f7ff2e53f7ff2e53f7ff2e5 00000001801d3350     GuGeometryQuery.obj
 0002:00002360       __xmm@7f7fffff7f7fffff7f7fffff7f7fffff 00000001801d3360     GuGeometryQuery.obj
 0002:00002370       __xmm@bf000000bf000000bf000000bf000000 00000001801d3370     GuGeometryQuery.obj
 0002:000023b0       ??_C@_0EM@BDFDGBD@Inserting?5object?5failed?3?5Object@ 00000001801d33b0     GuMeshFactory.obj
 0002:00002420       ??_7CallbackRaycast@RTree@Gu@physx@@6B@ 00000001801d3420     GuMidphaseRTree.obj
 0002:00002420       ??_7PxInsertionCallback@physx@@6B@ 00000001801d3420     GuMeshFactory.obj
 0002:00002420       ??_7CallbackRefit@RTree@Gu@physx@@6B@ 00000001801d3420     GuTriangleMeshRTree.obj
 0002:00002430       ??_C@_0FI@OFAAPLDG@F?3?2Downloads?2repos?2PhysX?9104?42?9@ 00000001801d3430     GuMeshFactory.obj
 0002:00002488       ??_7PxCollisionMeshMappingData@physx@@6B@ 00000001801d3488     GuMeshFactory.obj
 0002:00002498       ??_7MeshFactory@Gu@physx@@6B@ 00000001801d3498     GuMeshFactory.obj
 0002:000024a0       ??_7MeshDataBase@Gu@physx@@6B@ 00000001801d34a0     GuMeshFactory.obj
 0002:000024b0       ??_C@_0FI@LNGPFLB@F?3?2Downloads?2repos?2PhysX?9104?42?9@ 00000001801d34b0     GuMeshFactory.obj
 0002:00002508       ??_7TriangleMeshData@Gu@physx@@6B@ 00000001801d3508     GuMeshFactory.obj
 0002:00002510       ??_7RTreeTriangleData@Gu@physx@@6B@ 00000001801d3510     GuMeshFactory.obj
 0002:00002518       ??_7BV4TriangleData@Gu@physx@@6B@ 00000001801d3518     GuMeshFactory.obj
 0002:00002520       ??_7SoftBodyCollisionData@Gu@physx@@6B@ 00000001801d3520     GuMeshFactory.obj
 0002:00002528       ??_7CollisionMeshMappingData@Gu@physx@@6B@ 00000001801d3528     GuMeshFactory.obj
 0002:00002538       ??_7SoftBodySimulationData@Gu@physx@@6B@ 00000001801d3538     GuMeshFactory.obj
 0002:00002540       ??_C@_0GP@NHELMDAL@Loading?5triangle?5mesh?5failed?3?5D@ 00000001801d3540     GuMeshFactory.obj
 0002:000025b0       ??_C@_0BP@CDOKDACA@RTree?5binary?5image?5load?5error?4@ 00000001801d35b0     GuMeshFactory.obj
 0002:000025d0       ??_C@_0BN@MJPNIELF@BV4?5binary?5image?5load?5error?4@ 00000001801d35d0     GuMeshFactory.obj
 0002:000025f0       ??_C@_0BO@JDPABAOF@BV32?5binary?5image?5load?5error?4@ 00000001801d35f0     GuMeshFactory.obj
 0002:00002610       ??_C@_0EO@NANKEGIE@F?3?2Downloads?2repos?2PhysX?9104?42?9@ 00000001801d3610     GuMeshFactory.obj
 0002:00002660       __xmm@fe7fffff7e7fffff7e7fffff7e7fffff 00000001801d3660     GuMeshFactory.obj
 0002:00002690       ??_C@_06EJKDJEDO@PxBase@   00000001801d3690     GuMetaData.obj
 0002:00002698       ??_C@_07GFCEJNGM@Valency@  00000001801d3698     GuMetaData.obj
 0002:000026a0       ??_C@_07NHGKEEIN@mOffset@  00000001801d36a0     GuMetaData.obj
 0002:000026a8       ??_C@_0BB@BAGHBMNJ@BigConvexRawData@ 00000001801d36a8     GuMetaData.obj
 0002:000026c0       ??_C@_07PBDEJAAC@mSubdiv@  00000001801d36c0     GuMetaData.obj
 0002:000026c8       ??_C@_0L@HNPACPGH@mNbSamples@ 00000001801d36c8     GuMetaData.obj
 0002:000026d4       ??_C@_04NCKNBPPK@PxU8@     00000001801d36d4     GuMetaData.obj
 0002:000026e0       ??_C@_08DEPEKJNI@mSamples@ 00000001801d36e0     GuMetaData.obj
 0002:000026f0       ??_C@_08IJDNJBMI@mNbVerts@ 00000001801d36f0     GuMetaData.obj
 0002:00002700       ??_C@_0M@MMKMIJAF@mNbAdjVerts@ 00000001801d3700     GuMetaData.obj
 0002:00002710       ??_C@_0L@EOKMNILC@mValencies@ 00000001801d3710     GuMetaData.obj
 0002:00002720       ??_C@_0P@DLGEAMHJ@mAdjacentVerts@ 00000001801d3720     GuMetaData.obj
 0002:00002730       ??_C@_03NGLDENDA@SDF@      00000001801d3730     GuMetaData.obj
 0002:00002734       ??_C@_06KDGGGLIJ@PxVec3@   00000001801d3734     GuMetaData.obj
 0002:0000273c       ??_C@_06GIEBFILM@PxReal@   00000001801d373c     GuMetaData.obj
 0002:00002748       ??_C@_0O@PFOPBKAM@BigConvexData@ 00000001801d3748     GuMetaData.obj
 0002:00002758       ??_C@_05PLKALGFN@mData@    00000001801d3758     GuMetaData.obj
 0002:00002760       ??_C@_08PEMCLHEM@mVBuffer@ 00000001801d3760     GuMetaData.obj
 0002:00002770       ??_C@_09FBMAGD@Alignment@  00000001801d3770     GuMetaData.obj
 0002:00002780       ??_C@_0BE@KFHIBEEA@InternalObjectsData@ 00000001801d3780     GuMetaData.obj
 0002:00002798       ??_C@_07NKGFFIBH@mRadius@  00000001801d3798     GuMetaData.obj
 0002:000027a0       ??_C@_08EHFCACAE@mExtents@ 00000001801d37a0     GuMetaData.obj
 0002:000027b0       ??_C@_0BA@LFMGGCBK@HullPolygonData@ 00000001801d37b0     GuMetaData.obj
 0002:000027c0       ??_C@_06BOHHGLB@mPlane@    00000001801d37c0     GuMetaData.obj
 0002:000027c8       ??_C@_06EHMLHGLN@mVRef8@   00000001801d37c8     GuMetaData.obj
 0002:000027d0       ??_C@_09BAHHHINI@mMinIndex@ 00000001801d37d0     GuMetaData.obj
 0002:000027e0       ??_C@_0P@GBLBPIPB@ConvexHullData@ 00000001801d37e0     GuMetaData.obj
 0002:000027f0       ??_C@_09JDCJAPKD@PxBounds3@ 00000001801d37f0     GuMetaData.obj
 0002:000027fc       ??_C@_05NDNHIFA@mAABB@     00000001801d37fc     GuMetaData.obj
 0002:00002808       ??_C@_0O@LNOGEMJI@mCenterOfMass@ 00000001801d3808     GuMetaData.obj
 0002:00002818       ??_C@_09CNMCBBKH@mPolygons@ 00000001801d3818     GuMetaData.obj
 0002:00002828       ??_C@_0BC@KKPDCFJC@mBigConvexRawData@ 00000001801d3828     GuMetaData.obj
 0002:00002840       ??_C@_08MPNAAJLD@mSdfData@ 00000001801d3840     GuMetaData.obj
 0002:00002850       ??_C@_08ELDMKGKH@mNbEdges@ 00000001801d3850     GuMetaData.obj
 0002:00002860       ??_C@_0BA@CGLOHBAC@mNbHullVertices@ 00000001801d3860     GuMetaData.obj
 0002:00002870       ??_C@_0M@HGFFLLDM@mNbPolygons@ 00000001801d3870     GuMetaData.obj
 0002:00002880       ??_C@_09BHJEMDGO@mInternal@ 00000001801d3880     GuMetaData.obj
 0002:00002890       ??_C@_0L@GMFHOMKA@ConvexMesh@ 00000001801d3890     GuMetaData.obj
 0002:000028a0       ??_C@_09ILEBDLJH@mHullData@ 00000001801d38a0     GuMetaData.obj
 0002:000028ac       ??_C@_03DKDIKGNC@mNb@      00000001801d38ac     GuMetaData.obj
 0002:000028b0       ??_C@_0P@ENLHFHMD@mBigConvexData@ 00000001801d38b0     GuMetaData.obj
 0002:000028c0       ??_C@_05ILALLCHK@mMass@    00000001801d38c0     GuMetaData.obj
 0002:000028c8       ??_C@_07DBPDADGB@PxMat33@  00000001801d38c8     GuMetaData.obj
 0002:000028d0       ??_C@_08FNBHNDBI@mInertia@ 00000001801d38d0     GuMetaData.obj
 0002:000028e0       ??_C@_0O@FCKNKLMJ@GuMeshFactory@ 00000001801d38e0     GuMetaData.obj
 0002:000028f0       ??_C@_0N@EGBCLMAK@mMeshFactory@ 00000001801d38f0     GuMetaData.obj
 0002:00002900       ??_C@_0BE@CJJAMAMK@PxHeightFieldSample@ 00000001801d3900     GuMetaData.obj
 0002:00002914       ??_C@_05MBLIPEMA@PxI16@    00000001801d3914     GuMetaData.obj
 0002:0000291c       ??_C@_06LNLHEAAG@height@   00000001801d391c     GuMetaData.obj
 0002:00002928       ??_C@_0N@HHDGHJN@PxBitAndByte@ 00000001801d3928     GuMetaData.obj
 0002:00002938       ??_C@_0P@MBBMLBO@materialIndex0@ 00000001801d3938     GuMetaData.obj
 0002:00002948       ??_C@_0P@BFAKPKFP@materialIndex1@ 00000001801d3948     GuMetaData.obj
 0002:00002958       ??_C@_0BD@EBLPJEOE@PxHeightFieldFlags@ 00000001801d3958     GuMetaData.obj
 0002:00002970       ??_C@_0BK@FNNCFFCN@PxHeightFieldFormat?3?3Enum@ 00000001801d3970     GuMetaData.obj
 0002:00002990       ??_C@_0BA@CLNFMAAA@HeightFieldData@ 00000001801d3990     GuMetaData.obj
 0002:000029a0       ??_C@_04IMCGAIPI@rows@     00000001801d39a0     GuMetaData.obj
 0002:000029a8       ??_C@_07HIFEPIJN@columns@  00000001801d39a8     GuMetaData.obj
 0002:000029b0       ??_C@_08MOAGOABI@rowLimit@ 00000001801d39b0     GuMetaData.obj
 0002:000029c0       ??_C@_08BAGEHOBO@colLimit@ 00000001801d39c0     GuMetaData.obj
 0002:000029d0       ??_C@_09LKDBLADF@nbColumns@ 00000001801d39d0     GuMetaData.obj
 0002:000029e0       ??_C@_07ODIFGGLK@samples@  00000001801d39e0     GuMetaData.obj
 0002:000029e8       ??_C@_0BE@POHEGOJG@convexEdgeThreshold@ 00000001801d39e8     GuMetaData.obj
 0002:000029fc       ??_C@_05GECEPKB@flags@     00000001801d39fc     GuMetaData.obj
 0002:00002a04       ??_C@_06DLEPGFEF@format@   00000001801d3a04     GuMetaData.obj
 0002:00002a10       ??_C@_0BF@MOGDNMPL@PxMaterialTableIndex@ 00000001801d3a10     GuMetaData.obj
 0002:00002a28       ??_C@_0M@JMJICJJO@HeightField@ 00000001801d3a28     GuMetaData.obj
 0002:00002a38       ??_C@_0O@ENGHMLJP@mSampleStride@ 00000001801d3a38     GuMetaData.obj
 0002:00002a48       ??_C@_0L@EBEEMFFB@mMinHeight@ 00000001801d3a48     GuMetaData.obj
 0002:00002a58       ??_C@_0L@EAEIFPOF@mMaxHeight@ 00000001801d3a58     GuMetaData.obj
 0002:00002a68       ??_C@_0N@FEFJOKKE@mModifyCount@ 00000001801d3a68     GuMetaData.obj
 0002:00002a78       ??_C@_09PHDKHCK@RTreePage@ 00000001801d3a78     GuMetaData.obj
 0002:00002a84       ??_C@_04LLPOBGED@minx@     00000001801d3a84     GuMetaData.obj
 0002:00002a8c       ??_C@_04KCOFCHAC@miny@     00000001801d3a8c     GuMetaData.obj
 0002:00002a94       ??_C@_04IJMIHEMB@minz@     00000001801d3a94     GuMetaData.obj
 0002:00002a9c       ??_C@_04GGOBOBGO@maxx@     00000001801d3a9c     GuMetaData.obj
 0002:00002aa4       ??_C@_04HPPKNACP@maxy@     00000001801d3aa4     GuMetaData.obj
 0002:00002aac       ??_C@_04FENHIDOM@maxz@     00000001801d3aac     GuMetaData.obj
 0002:00002ab4       ??_C@_04HHDFEJON@ptrs@     00000001801d3ab4     GuMetaData.obj
 0002:00002abc       ??_C@_05FFEIGAJF@RTree@    00000001801d3abc     GuMetaData.obj
 0002:00002ac4       ??_C@_06OMCHPNEO@PxVec4@   00000001801d3ac4     GuMetaData.obj
 0002:00002ad0       ??_C@_0L@NBIFEFLN@mBoundsMin@ 00000001801d3ad0     GuMetaData.obj
 0002:00002ae0       ??_C@_0L@MDAOKBNC@mBoundsMax@ 00000001801d3ae0     GuMetaData.obj
 0002:00002af0       ??_C@_0N@NJEHLCOF@mInvDiagonal@ 00000001801d3af0     GuMetaData.obj
 0002:00002b00       ??_C@_0BA@BEFIGPFG@mDiagonalScaler@ 00000001801d3b00     GuMetaData.obj
 0002:00002b10       ??_C@_09DICGGKGO@mPageSize@ 00000001801d3b10     GuMetaData.obj
 0002:00002b20       ??_C@_0O@BOFFCNOL@mNumRootPages@ 00000001801d3b20     GuMetaData.obj
 0002:00002b30       ??_C@_0L@JKLGBKAE@mNumLevels@ 00000001801d3b30     GuMetaData.obj
 0002:00002b40       ??_C@_0M@PHDOHJGK@mTotalNodes@ 00000001801d3b40     GuMetaData.obj
 0002:00002b50       ??_C@_0M@GDGHALAO@mTotalPages@ 00000001801d3b50     GuMetaData.obj
 0002:00002b5c       ??_C@_06MHCBBJGP@mFlags@   00000001801d3b5c     GuMetaData.obj
 0002:00002b64       ??_C@_06MMNBLHOK@mPages@   00000001801d3b64     GuMetaData.obj
 0002:00002b70       ??_C@_0P@JNLGHJNH@SourceMeshBase@ 00000001801d3b70     GuMetaData.obj
 0002:00002b80       ??_C@_06JFCLJMNN@mVerts@   00000001801d3b80     GuMetaData.obj
 0002:00002b88       ??_C@_05GNIIDDHH@mType@    00000001801d3b88     GuMetaData.obj
 0002:00002b90       ??_C@_06DHAAKLFK@mRemap@   00000001801d3b90     GuMetaData.obj
 0002:00002b98       ??_C@_0L@LEOGNOEC@SourceMesh@ 00000001801d3b98     GuMetaData.obj
 0002:00002ba8       ??_C@_07MPIKOOAP@mNbTris@  00000001801d3ba8     GuMetaData.obj
 0002:00002bb0       ??_C@_0N@FBMOMEHF@mTriangles32@ 00000001801d3bb0     GuMetaData.obj
 0002:00002bc0       ??_C@_0N@DGCGNFBP@mTriangles16@ 00000001801d3bc0     GuMetaData.obj
 0002:00002bd0       ??_C@_0O@NLNHFNO@QuantizedAABB@ 00000001801d3bd0     GuMetaData.obj
 0002:00002be0       ??_C@_0BC@OOGBEMHH@mData?$FL0?$FN?4mExtents@ 00000001801d3be0     GuMetaData.obj
 0002:00002bf8       ??_C@_0BB@OCEDKIEF@mData?$FL0?$FN?4mCenter@ 00000001801d3bf8     GuMetaData.obj
 0002:00002c10       ??_C@_0BC@HFMEAABI@mData?$FL1?$FN?4mExtents@ 00000001801d3c10     GuMetaData.obj
 0002:00002c28       ??_C@_0BB@CDMNHHIF@mData?$FL1?$FN?4mCenter@ 00000001801d3c28     GuMetaData.obj
 0002:00002c40       ??_C@_0BC@CFKNCOI@mData?$FL2?$FN?4mExtents@ 00000001801d3c40     GuMetaData.obj
 0002:00002c58       ??_C@_0BB@LKCPBBIE@mData?$FL2?$FN?4mCenter@ 00000001801d3c58     GuMetaData.obj
 0002:00002c70       ??_C@_0O@MJJKKPFN@BVDataPackedQ@ 00000001801d3c70     GuMetaData.obj
 0002:00002c80       ??_C@_0O@JFMLAIPJ@CenterExtents@ 00000001801d3c80     GuMetaData.obj
 0002:00002c90       ??_C@_07GNKDIIKJ@mCenter@  00000001801d3c90     GuMetaData.obj
 0002:00002c98       ??_C@_0P@KBMJDPLO@BVDataPackedNQ@ 00000001801d3c98     GuMetaData.obj
 0002:00002ca8       ??_C@_0M@PNCEBOG@LocalBounds@ 00000001801d3ca8     GuMetaData.obj
 0002:00002cb4       ??_C@_05KNFBNCOH@float@    00000001801d3cb4     GuMetaData.obj
 0002:00002cc0       ??_C@_0BC@LADJKHPL@mExtentsMagnitude@ 00000001801d3cc0     GuMetaData.obj
 0002:00002cd8       ??_C@_07HELIOLAF@BV4Tree@  00000001801d3cd8     GuMetaData.obj
 0002:00002ce0       ??_C@_0P@EMMDNPMH@mMeshInterface@ 00000001801d3ce0     GuMetaData.obj
 0002:00002cf0       ??_C@_0N@DCKMHLCL@mLocalBounds@ 00000001801d3cf0     GuMetaData.obj
 0002:00002d00       ??_C@_08EEJOMIJL@mNbNodes@ 00000001801d3d00     GuMetaData.obj
 0002:00002d0c       ??_C@_06FIIIMFIO@mNodes@   00000001801d3d0c     GuMetaData.obj
 0002:00002d18       ??_C@_09FGKNPI@mInitData@  00000001801d3d18     GuMetaData.obj
 0002:00002d28       ??_C@_0BC@CLDEHKCO@mCenterOrMinCoeff@ 00000001801d3d28     GuMetaData.obj
 0002:00002d40       ??_C@_0BD@LAOLBNJ@mExtentsOrMaxCoeff@ 00000001801d3d40     GuMetaData.obj
 0002:00002d58       ??_C@_0P@JEECKKBL@mUserAllocated@ 00000001801d3d58     GuMetaData.obj
 0002:00002d68       ??_C@_0L@GLIMNECG@mQuantized@ 00000001801d3d68     GuMetaData.obj
 0002:00002d78       ??_C@_0L@CCOJDAID@mIsEdgeSet@ 00000001801d3d78     GuMetaData.obj
 0002:00002d88       ??_C@_08BNDBAGDH@mPadding@ 00000001801d3d88     GuMetaData.obj
 0002:00002d98       ??_C@_0N@OJNNNLIB@TriangleMesh@ 00000001801d3d98     GuMetaData.obj
 0002:00002da8       ??_C@_0M@OGEDMEAL@mNbVertices@ 00000001801d3da8     GuMetaData.obj
 0002:00002db8       ??_C@_0N@MGGDNHNI@mNbTriangles@ 00000001801d3db8     GuMetaData.obj
 0002:00002dc8       ??_C@_09LNNEGOJA@mVertices@ 00000001801d3dc8     GuMetaData.obj
 0002:00002dd8       ??_C@_0L@KBOFAKLO@mTriangles@ 00000001801d3dd8     GuMetaData.obj
 0002:00002de8       ??_C@_0P@MHDFIHLD@mExtraTrigData@ 00000001801d3de8     GuMetaData.obj
 0002:00002df8       ??_C@_0N@MGIKKCI@mGeomEpsilon@ 00000001801d3df8     GuMetaData.obj
 0002:00002e08       ??_C@_0BB@IFLOOCNA@mMaterialIndices@ 00000001801d3e08     GuMetaData.obj
 0002:00002e20       ??_C@_0L@OPJMBFMI@mFaceRemap@ 00000001801d3e20     GuMetaData.obj
 0002:00002e30       ??_C@_0N@BIOECAPM@mAdjacencies@ 00000001801d3e30     GuMetaData.obj
 0002:00002e40       ??_C@_09CICJHLPI@mEdgeList@ 00000001801d3e40     GuMetaData.obj
 0002:00002e50       ??_C@_0BD@IPKCNNIK@mLocalCenterOfMass@ 00000001801d3e50     GuMetaData.obj
 0002:00002e68       ??_C@_0BA@OCOIGPII@mGRB_triIndices@ 00000001801d3e68     GuMetaData.obj
 0002:00002e78       ??_C@_0BE@JPINNDAH@mGRB_triAdjacencies@ 00000001801d3e78     GuMetaData.obj
 0002:00002e90       ??_C@_0P@EDFJJHEF@mGRB_faceRemap@ 00000001801d3e90     GuMetaData.obj
 0002:00002ea0       ??_C@_0BG@EEALPPCP@mGRB_faceRemapInverse@ 00000001801d3ea0     GuMetaData.obj
 0002:00002eb8       ??_C@_0O@CKMBAIFN@mGRB_BV32Tree@ 00000001801d3eb8     GuMetaData.obj
 0002:00002ec8       ??_C@_0BE@MGIOIICI@mSdfData?4mMeshLower@ 00000001801d3ec8     GuMetaData.obj
 0002:00002ee0       ??_C@_0BC@NNEDELGI@mSdfData?4mSpacing@ 00000001801d3ee0     GuMetaData.obj
 0002:00002ef8       ??_C@_0BB@OHOFDAIL@mSdfData?4mDims?4x@ 00000001801d3ef8     GuMetaData.obj
 0002:00002f10       ??_C@_0BB@POPOABMK@mSdfData?4mDims?4y@ 00000001801d3f10     GuMetaData.obj
 0002:00002f28       ??_C@_0BB@NFNDFCAJ@mSdfData?4mDims?4z@ 00000001801d3f28     GuMetaData.obj
 0002:00002f40       ??_C@_0BC@GMPBGGPI@mSdfData?4mNumSdfs@ 00000001801d3f40     GuMetaData.obj
 0002:00002f58       ??_C@_0O@BCEBBLNE@mSdfData?4mSdf@ 00000001801d3f58     GuMetaData.obj
 0002:00002f68       ??_C@_0BG@HMHEFHIE@mSdfData?4mSubgridSize@ 00000001801d3f68     GuMetaData.obj
 0002:00002f80       ??_C@_0BI@OFJBKPGB@mSdfData?4mNumStartSlots@ 00000001801d3f80     GuMetaData.obj
 0002:00002f98       ??_C@_0BM@MGEPBEON@mSdfData?4mSubgridStartSlots@ 00000001801d3f98     GuMetaData.obj
 0002:00002fb8       ??_C@_0BJ@PKKGJLNM@mSdfData?4mNumSubgridSdfs@ 00000001801d3fb8     GuMetaData.obj
 0002:00002fd8       ??_C@_0BF@HLMPGIBH@mSdfData?4mSubgridSdf@ 00000001801d3fd8     GuMetaData.obj
 0002:00002ff0       ??_C@_0CF@GMJNHGOK@mSdfData?4mSdfSubgrids3DTexBlock@ 00000001801d3ff0     GuMetaData.obj
 0002:00003018       ??_C@_0CF@HFIGEHKL@mSdfData?4mSdfSubgrids3DTexBlock@ 00000001801d4018     GuMetaData.obj
 0002:00003040       ??_C@_0CF@FOKLBEGI@mSdfData?4mSdfSubgrids3DTexBlock@ 00000001801d4040     GuMetaData.obj
 0002:00003068       ??_C@_0BO@EIPCIOJH@mSdfData?4mSubgridsMinSdfValue@ 00000001801d4068     GuMetaData.obj
 0002:00003088       ??_C@_0BO@NIIBJOHN@mSdfData?4mSubgridsMaxSdfValue@ 00000001801d4088     GuMetaData.obj
 0002:000030a8       ??_C@_0BO@GKGODKFG@mSdfData?4mBytesPerSparsePixel@ 00000001801d40a8     GuMetaData.obj
 0002:000030c8       ??_C@_0BJ@LEBGJKBE@mAccumulatedTrianglesRef@ 00000001801d40c8     GuMetaData.obj
 0002:000030e8       ??_C@_0BF@OJMCNCDP@mTrianglesReferences@ 00000001801d40e8     GuMetaData.obj
 0002:00003100       ??_C@_0BH@LDGPOFA@mNbTrianglesReferences@ 00000001801d4100     GuMetaData.obj
 0002:00003118       ??_C@_0BC@IFGECKF@RTreeTriangleMesh@ 00000001801d4118     GuMetaData.obj
 0002:0000312c       ??_C@_06JDIHDDGN@mRTree@   00000001801d412c     GuMetaData.obj
 0002:00003138       ??_C@_0BA@LNNFPOKA@BV4TriangleMesh@ 00000001801d4138     GuMetaData.obj
 0002:00003148       ??_C@_08FKLPEGDB@mBV4Tree@ 00000001801d4148     GuMetaData.obj
 0002:00003180       ??_7?$SupportLocalImpl@VConvexHullNoScaleV@Gu@physx@@@Gu@physx@@6B@ 00000001801d4180     GuMTD.obj
 0002:000031a0       ?absMask@?1??FAbs@aos@physx@@YA?AT__m128@@T4@@Z@4QBIB 00000001801d41a0     GuMTD.obj
 0002:000031b0       ??_7GjkConvex@Gu@physx@@6B@ 00000001801d41b0     GuMTD.obj
 0002:000031e0       ??_7?$LocalConvex@VCapsuleV@Gu@physx@@@Gu@physx@@6B@ 00000001801d41e0     GuMTD.obj
 0002:00003210       ??_7?$LocalConvex@VConvexHullV@Gu@physx@@@Gu@physx@@6B@ 00000001801d4210     GuMTD.obj
 0002:00003240       __real@2edbe6ff            00000001801d4240     GuMTD.obj
 0002:00003244       __real@34000000            00000001801d4244     GuMTD.obj
 0002:00003248       __real@ff7fffff            00000001801d4248     GuMTD.obj
 0002:00003250       __xmm@34000000340000003400000034000000 00000001801d4250     GuMTD.obj
 0002:00003260       __xmm@358637bd358637bd358637bd358637bd 00000001801d4260     GuMTD.obj
 0002:00003270       __xmm@3dcccccd3dcccccd3dcccccd3dcccccd 00000001801d4270     GuMTD.obj
 0002:00003280       __xmm@3f7ff1413f7ff1413f7ff1413f7ff141 00000001801d4280     GuMTD.obj
 0002:00003290       __xmm@3f8000003f8000003f8000003f800000 00000001801d4290     GuMTD.obj
 0002:000032a0       ??_7?$RelativeConvex@VBoxV@Gu@physx@@@Gu@physx@@6B@ 00000001801d42a0     GuOverlapTests.obj
 0002:000032f0       ??_7?$RelativeConvex@VConvexHullV@Gu@physx@@@Gu@physx@@6B@ 00000001801d42f0     GuOverlapTests.obj
 0002:00003320       ??_C@_0EC@MLIJOGHA@Height?5Field?5Overlap?5test?5calle@ 00000001801d4320     GuOverlapTests.obj
 0002:00003370       ??_C@_0FJ@LCEKEDNM@F?3?2Downloads?2repos?2PhysX?9104?42?9@ 00000001801d4370     GuOverlapTests.obj
 0002:000033d0       ??_C@_0EC@GJLDADPE@Height?5Field?5Raycast?5test?5calle@ 00000001801d43d0     GuRaycastTests.obj
 0002:00003420       ??_C@_0FJ@EBIHDEHG@F?3?2Downloads?2repos?2PhysX?9104?42?9@ 00000001801d4420     GuRaycastTests.obj
 0002:000034b0       __real@1e3ce508            00000001801d44b0     GuRaycastTests.obj
 0002:000034b4       __real@28800000            00000001801d44b4     GuRaycastTests.obj
 0002:000034b8       __real@33d6bf95            00000001801d44b8     GuRaycastTests.obj
 0002:000034bc       __real@3727c5ac            00000001801d44bc     GuRaycastTests.obj
 0002:000034c0       __real@38d1b717            00000001801d44c0     GuRaycastTests.obj
 0002:000034c4       __real@3f0147ae            00000001801d44c4     GuRaycastTests.obj
 0002:000034c8       __real@3f7ffffe            00000001801d44c8     GuRaycastTests.obj
 0002:000034cc       __real@3f800347            00000001801d44cc     GuRaycastTests.obj
 0002:000034d0       __real@41200000            00000001801d44d0     GuRaycastTests.obj
 0002:000034d4       __real@80000000            00000001801d44d4     GuRaycastTests.obj
 0002:000034d8       __real@b3d6bf95            00000001801d44d8     GuRaycastTests.obj
 0002:000034dc       __real@b8d1b717            00000001801d44dc     GuRaycastTests.obj
 0002:000034e0       __real@c1200000            00000001801d44e0     GuRaycastTests.obj
 0002:00003520       ??_7?$MeshHitCallback@UPxGeomRaycastHit@physx@@@Gu@physx@@6B@ 00000001801d4520     GuSweepMTD.obj
 0002:00003530       ??_7MeshMTDGenerationCallback@@6B@ 00000001801d4530     GuSweepMTD.obj
 0002:00003540       ??_7MidPhaseQueryLocalReport@@6B@ 00000001801d4540     GuSweepMTD.obj
 0002:00003550       __real@3f8147ae            00000001801d4550     GuSweepMTD.obj
 0002:00003554       __real@3f933333            00000001801d4554     GuSweepMTD.obj
 0002:00003580       __real@3c23d70a            00000001801d4580     GuSweepSharedTests.obj
 0002:00003584       __real@42c80000            00000001801d4584     GuSweepSharedTests.obj
 0002:00003590       __xmm@ffffffffffffffffffffffffffffffff 00000001801d4590     GuSweepSharedTests.obj
 0002:000035c0       ??_C@_0EA@GNDJNJGB@Height?5Field?5Sweep?5test?5called?5@ 00000001801d45c0     GuSweepTests.obj
 0002:00003600       ??_C@_0FH@EFLCGANA@F?3?2Downloads?2repos?2PhysX?9104?42?9@ 00000001801d4600     GuSweepTests.obj
 0002:00003658       ??_7?$LocalConvex@VBoxV@Gu@physx@@@Gu@physx@@6B@ 00000001801d4658     GuSweepTests.obj
 0002:00003688       ??_7?$LocalConvex@VTriangleV@Gu@physx@@@Gu@physx@@6B@ 00000001801d4688     GuSweepTests.obj
 0002:000036c0       __xmm@00000002000000020000000200000002 00000001801d46c0     GuSweepTests.obj
 0002:000036d0       __xmm@3eaaaa9f3eaaaa9f3eaaaa9f3eaaaa9f 00000001801d46d0     GuSweepTests.obj
 0002:00003788       ??_7PxRunnable@physx@@6B@  00000001801d4788     GuSDF.obj
 0002:000037a0       ??_C@_0FA@DGNPPAHP@F?3?2Downloads?2repos?2PhysX?9104?42?9@ 00000001801d47a0     GuSDF.obj
 0002:000037f0       ??_7?$PxThreadT@V?$PxReflectionAllocator@VPxThreadImpl@physx@@@physx@@@physx@@6B@ 00000001801d47f0     GuSDF.obj
 0002:00003800       ??_C@_06FJHNOCKE@thread@   00000001801d4800     GuSDF.obj
 0002:00003810       ??_C@_0EP@COGCCFOC@F?3?2Downloads?2repos?2PhysX?9104?42?9@ 00000001801d4810     GuSDF.obj
 0002:00003860       __real@37800080            00000001801d4860     GuSDF.obj
 0002:00003864       __real@3b808081            00000001801d4864     GuSDF.obj
 0002:00003868       __real@3eaaaaab            00000001801d4868     GuSDF.obj
 0002:0000386c       __real@3f400000            00000001801d486c     GuSDF.obj
 0002:00003870       __real@3f7d70a4            00000001801d4870     GuSDF.obj
 0002:00003874       __real@4996b438            00000001801d4874     GuSDF.obj
 0002:00003878       __real@7e7fffff            00000001801d4878     GuSDF.obj
 0002:0000387c       __real@bf000000            00000001801d487c     GuSDF.obj
 0002:00003880       __real@fe7fffff            00000001801d4880     GuSDF.obj
 0002:00003890       __xmm@00000001000000000000000000000000 00000001801d4890     GuSDF.obj
 0002:000038a0       __xmm@80000000800000000000000000000000 00000001801d48a0     GuSDF.obj
 0002:000038b0       __real@437f0000            00000001801d48b0     GuCookingSDF.obj
 0002:000038b4       __real@477fff00            00000001801d48b4     GuCookingSDF.obj
 0002:000038e0       ??_7?$RelativeConvex@UCustomConvexV@@@Gu@physx@@6B@ 00000001801d48e0     GuGjkQuery.obj
 0002:00003910       ??_7?$LocalConvex@UCustomConvexV@@@Gu@physx@@6B@ 00000001801d4910     GuGjkQuery.obj
 0002:00003940       ??_7?$LocalConvex@UPointConvexV@@@Gu@physx@@6B@ 00000001801d4940     GuGjkQuery.obj
 0002:00003970       __xmm@3f0000003f0000003f0000003f000000 00000001801d4970     GuGjkQuery.obj
 0002:000039a0       __real@3da2f983            00000001801d49a0     GuWindingNumber.obj
 0002:000039a4       __real@3e22f983            00000001801d49a4     GuWindingNumber.obj
 0002:000039a8       __real@3f99999a            00000001801d49a8     GuWindingNumber.obj
 0002:00003a10       __real@3c343958            00000001801d4a10     GuCCDSweepConvexMesh.obj
 0002:00003a14       __real@3ca3d70a            00000001801d4a14     GuCCDSweepConvexMesh.obj
 0002:00003a18       __real@3f0ccccd            00000001801d4a18     GuCCDSweepConvexMesh.obj
 0002:00003a1c       __real@3f8ccccd            00000001801d4a1c     GuCCDSweepConvexMesh.obj
 0002:00003a20       __real@b58637bd            00000001801d4a20     GuCCDSweepConvexMesh.obj
 0002:00003a50       ??_7?$RelativeConvex@VCapsuleV@Gu@physx@@@Gu@physx@@6B@ 00000001801d4a50     GuCCDSweepPrimitives.obj
 0002:00003a80       ??_7?$RelativeConvex@VTriangleV@Gu@physx@@@Gu@physx@@6B@ 00000001801d4a80     GuCCDSweepPrimitives.obj
 0002:00003ab0       __real@3ba3d70a            00000001801d4ab0     GuCCDSweepPrimitives.obj
 0002:00003ab4       __real@501502f9            00000001801d4ab4     GuCCDSweepPrimitives.obj
 0002:00003ae0       ??_C@_0FP@BHNCEEAG@F?3?2Downloads?2repos?2PhysX?9104?42?9@ 00000001801d4ae0     GuAdjacencies.obj
 0002:00003b40       ??_C@_0DA@FMEHLBKI@Adjacencies?3?3UpdateLink?3?5invali@ 00000001801d4b40     GuAdjacencies.obj
 0002:00003b70       ??_C@_0EA@CPHOACLK@Adjacencies?3?3CreateDatabase?3?5ca@ 00000001801d4b70     GuAdjacencies.obj
 0002:00003bb0       ??_C@_0FM@GOHLFMAL@F?3?2Downloads?2repos?2PhysX?9104?42?9@ 00000001801d4bb0     GuEdgeList.obj
 0002:00003c10       ??_C@_0CO@GBNJFPN@EdgeList?3?3CreateFacesToEdges?3?5N@ 00000001801d4c10     GuEdgeList.obj
 0002:00003c40       ??_C@_0CO@EHJBBMNK@EdgeList?3?3ComputeActiveEdges?3?5N@ 00000001801d4c40     GuEdgeList.obj
 0002:00003c70       ??_C@_0DI@GBHLFOFP@ActiveEdges?3?3ComputeConvexEdges@ 00000001801d4c70     GuEdgeList.obj
 0002:00003ca8       ??_C@_0DM@JOGBLHDI@ActiveEdges?3?3ComputeConvexEdges@ 00000001801d4ca8     GuEdgeList.obj
 0002:00003cf0       ??_C@_0ED@FEMJKPEL@ActiveEdges?3?3ComputeConvexEdges@ 00000001801d4cf0     GuEdgeList.obj
 0002:00003d40       ??_C@_0EB@BFDPMFCD@ActiveEdges?3?3ComputeConvexEdges@ 00000001801d4d40     GuEdgeList.obj
 0002:00003d84       __real@bf7fbe77            00000001801d4d84     GuEdgeList.obj
 0002:00003d88       ??_7Quantizer@Gu@physx@@6B@ 00000001801d4d88     GuQuantizer.obj
 0002:00003db0       ??_7QuantizerImpl@@6B@     00000001801d4db0     GuQuantizer.obj
 0002:00003de0       ??_C@_0FN@FOFBNHDG@F?3?2Downloads?2repos?2PhysX?9104?42?9@ 00000001801d4de0     GuQuantizer.obj
 0002:00003e40       __real@3f0020c5            00000001801d4e40     GuQuantizer.obj
 0002:00003e44       __real@3f8020c5            00000001801d4e44     GuQuantizer.obj
 0002:00003e50       ??_C@_0FP@DCIJGJFC@F?3?2Downloads?2repos?2PhysX?9104?42?9@ 00000001801d4e50     GuMeshCleaner.obj
 0002:00003eb0       ??_C@_0GB@GKCMIEAJ@F?3?2Downloads?2repos?2PhysX?9104?42?9@ 00000001801d4eb0     GuVertexReducer.obj
 0002:00004010       __real@3f7fbe77            00000001801d5010     GuContactBoxBox.obj
 0002:00004040       __real@3f7ff2e5            00000001801d5040     GuContactCapsuleCapsule.obj
 0002:00004044       __real@40800000            00000001801d5044     GuContactCapsuleCapsule.obj
 0002:000040d0       __real@358637be            00000001801d50d0     GuContactCapsuleMesh.obj
 0002:000040d4       __real@ba83126f            00000001801d50d4     GuContactCapsuleMesh.obj
 0002:00004130       ??_7ConvexMeshContactGenerationCallback@@6B@ 00000001801d5130     GuContactConvexMesh.obj
 0002:000041b0       __real@3ec90fdb            00000001801d51b0     GuContactPolygonPolygon.obj
 0002:000041b4       __real@3f490fdb            00000001801d51b4     GuContactPolygonPolygon.obj
 0002:000041b8       __real@3f96cbe4            00000001801d51b8     GuContactPolygonPolygon.obj
 0002:000041bc       __real@3fc90fdb            00000001801d51bc     GuContactPolygonPolygon.obj
 0002:000041c0       __real@3ffb53d2            00000001801d51c0     GuContactPolygonPolygon.obj
 0002:000041c4       __real@4016cbe4            00000001801d51c4     GuContactPolygonPolygon.obj
 0002:000041c8       __real@402feddf            00000001801d51c8     GuContactPolygonPolygon.obj
 0002:000041d0       __xmm@ff7fffffff7fffffff7fffffff7fffff 00000001801d51d0     GuContactPolygonPolygon.obj
 0002:00004240       ??_C@_0EN@MFGCCDDK@F?3?2Downloads?2repos?2PhysX?9104?42?9@ 00000001801d5240     GuContactSphereMesh.obj
 0002:00004290       ??_C@_0GB@DIKPOACN@F?3?2Downloads?2repos?2PhysX?9104?42?9@ 00000001801d5290     GuBigConvexData.obj
 0002:00004320       ??_C@_0N@CDGINLLF@PxConvexMesh@ 00000001801d5320     GuConvexMesh.obj
 0002:00004330       ??_7PxBase@physx@@6B@      00000001801d5330     GuConvexMesh.obj
 0002:00004358       ??_C@_0N@OPPDBGAG@PxRefCounted@ 00000001801d5358     GuConvexMesh.obj
 0002:00004368       ??_7ConvexMesh@Gu@physx@@6B@ 00000001801d5368     GuConvexMesh.obj
 0002:00004400       ??_C@_0FO@BANIEFDC@F?3?2Downloads?2repos?2PhysX?9104?42?9@ 00000001801d5400     GuConvexMesh.obj
 0002:00004460       ??_C@_0DM@NEJKOFIP@Loading?5convex?5mesh?5failed?3?5Dep@ 00000001801d5460     GuConvexMesh.obj
 0002:000044a0       ??_C@_0DB@PAHEPIEL@PxConvexMesh?3?3release?3?5double?5d@ 00000001801d54a0     GuConvexMesh.obj
 0002:000044e0       ??_C@_0FG@JGILIBKF@F?3?2Downloads?2repos?2PhysX?9104?42?9@ 00000001801d54e0     GuConvexMesh.obj
 0002:00004560       __xmm@000000000000000000000000ffffffff 00000001801d5560     GuConvexSupportTable.obj
 0002:00004570       __xmm@0000000000000000ffffffff00000000 00000001801d5570     GuConvexSupportTable.obj
 0002:00004580       __xmm@0000000000000000ffffffffffffffff 00000001801d5580     GuConvexSupportTable.obj
 0002:00004590       __xmm@00000000ffffffff0000000000000000 00000001801d5590     GuConvexSupportTable.obj
 0002:000045a0       __xmm@00000000ffffffff00000000ffffffff 00000001801d55a0     GuConvexSupportTable.obj
 0002:000045b0       __xmm@00000000ffffffffffffffff00000000 00000001801d55b0     GuConvexSupportTable.obj
 0002:00004680       __real@2b8cbccc            00000001801d5680     GuDistanceSegmentTriangle.obj
 0002:00004690       __xmm@3f8000013f8000013f8000013f800001 00000001801d5690     GuDistanceSegmentTriangle.obj
 0002:000046a0       __xmm@b4000000b4000000b4000000b4000000 00000001801d56a0     GuDistanceSegmentTriangle.obj
 0002:00004700       __xmm@38d1b71738d1b71738d1b71738d1b717 00000001801d5700     GuGJKSimplex.obj
 0002:00004730       ??_C@_0O@PBAKPCEC@PxHeightField@ 00000001801d5730     GuHeightField.obj
 0002:00004740       ??_7HeightField@Gu@physx@@6B@ 00000001801d5740     GuHeightField.obj
 0002:000047f8       ??_C@_0DC@BDMMBOKH@PxHeightField?3?3release?3?5double?5@ 00000001801d57f8     GuHeightField.obj
 0002:00004830       ??_C@_0FL@IDOGDMIE@F?3?2Downloads?2repos?2PhysX?9104?42?9@ 00000001801d5830     GuHeightField.obj
 0002:00004890       ??_C@_0CI@DMKEKGNK@Gu?3?3HeightField?3?3load?3?5PX_ALLOC@ 00000001801d5890     GuHeightField.obj
 0002:000048c0       ??_C@_0EP@GKEGGMCO@F?3?2Downloads?2repos?2PhysX?9104?42?9@ 00000001801d58c0     GuHeightField.obj
 0002:00004930       __real@3a03126f            00000001801d5930     GuHeightFieldUtil.obj
 0002:00004934       __real@3f19999a            00000001801d5934     GuHeightFieldUtil.obj
 0002:00004940       __xmm@40000000000000000000000000000000 00000001801d5940     GuHeightFieldUtil.obj
 0002:000049d0       ??_7HeightFieldTraceSegmentReport@@6B@ 00000001801d59d0     GuSweepsHF.obj
 0002:000049e0       ??_7CapsuleTraceSegmentReport@@6B@ 00000001801d59e0     GuSweepsHF.obj
 0002:000049f0       ??_7ConvexTraceSegmentReport@@6B@ 00000001801d59f0     GuSweepsHF.obj
 0002:00004a00       ??_7BoxTraceSegmentReport@@6B@ 00000001801d5a00     GuSweepsHF.obj
 0002:00004a10       __real@aedbe6ff            00000001801d5a10     GuSweepsHF.obj
 0002:00004a40       __real@3089705f            00000001801d5a40     GuIntersectionRayBox.obj
 0002:00004a44       __real@b4000000            00000001801d5a44     GuIntersectionRayBox.obj
 0002:00004a50       __xmm@000000003089705f3089705f3089705f 00000001801d5a50     GuIntersectionRayBox.obj
 0002:00004a60       __xmm@00000000bf800000bf800000bf800000 00000001801d5a60     GuIntersectionRayBox.obj
 0002:00004a90       __real@ffc00000            00000001801d5a90     GuIntersectionTriangleTriangle.obj
 0002:00004aa0       __xmm@ffc00000ffc00000ffc00000ffc00000 00000001801d5aa0     GuIntersectionTriangleTriangle.obj
 0002:00004ad0       ??_7SourceMeshBase@Gu@physx@@6B@ 00000001801d5ad0     GuBV4.obj
 0002:00004af8       ??_7SourceMesh@Gu@physx@@6B@ 00000001801d5af8     GuBV4.obj
 0002:00004b20       ??_7TetrahedronSourceMesh@Gu@physx@@6B@ 00000001801d5b20     GuBV4.obj
 0002:00004b50       ??_C@_0FF@LDKDGNJE@F?3?2Downloads?2repos?2PhysX?9104?42?9@ 00000001801d5b50     GuBV4.obj
 0002:00004bd0       ??_C@_0FK@JBFOCGJB@F?3?2Downloads?2repos?2PhysX?9104?42?9@ 00000001801d5bd0     GuBV4Build.obj
 0002:00004c2c       __real@38000100            00000001801d5c2c     GuBV4Build.obj
 0002:00004c30       __real@3e93cd3a            00000001801d5c30     GuBV4Build.obj
 0002:00004c34       __real@46fffe00            00000001801d5c34     GuBV4Build.obj
 0002:00004c38       __real@be93cd3a            00000001801d5c38     GuBV4Build.obj
 0002:00004c60       __xmm@0000ffff0000ffff0000ffff0000ffff 00000001801d5c60     GuBV4_AABBSweep.obj
 0002:00004c70       __xmm@3089705f3089705f3089705f3089705f 00000001801d5c70     GuBV4_AABBSweep.obj
 0002:00004c80       __xmm@33d6bf9533d6bf9533d6bf9533d6bf95 00000001801d5c80     GuBV4_AABBSweep.obj
 0002:00004c90       __xmm@40000000400000004000000040000000 00000001801d5c90     GuBV4_AABBSweep.obj
 0002:00004d60       __real@00000000            00000001801d5d60     GuBV4_Raycast.obj
 0002:00004d90       __real@4f7fffff            00000001801d5d90     GuBV4_SphereOverlap.obj
 0002:00004de0       __xmm@000000007f7fffff0000000000000000 00000001801d5de0     GuMidphaseBV4.obj
 0002:00004e50       ??_C@_0FD@EHCCILIF@Adjacency?5information?5not?5creat@ 00000001801d5e50     GuMeshQuery.obj
 0002:00004eb0       ??_C@_0FL@IAAOMEOP@F?3?2Downloads?2repos?2PhysX?9104?42?9@ 00000001801d5eb0     GuMeshQuery.obj
 0002:00004f10       ??_C@_0FL@BKNMAHIA@PxMeshQuery?3?3findOverlapTriangl@ 00000001801d5f10     GuMeshQuery.obj
 0002:00004f70       ??_C@_0BA@MBAFFELP@MeshQuery?4sweep@ 00000001801d5f70     GuMeshQuery.obj
 0002:00004f80       __real@4cbebc20            00000001801d5f80     GuMeshQuery.obj
 0002:00004fb0       ??_7Callback@RTree@Gu@physx@@6B@ 00000001801d5fb0     GuMidphaseRTree.obj
 0002:00004fc8       ??_7?$RayRTreeCallback@$00$0A@@@6BCallbackRaycast@RTree@Gu@physx@@@ 00000001801d5fc8     GuMidphaseRTree.obj
 0002:00004fc8       ??_7?$RayRTreeCallback@$0A@$0A@@@6BCallbackRaycast@RTree@Gu@physx@@@ 00000001801d5fc8     GuMidphaseRTree.obj
 0002:00004fd8       ??_7?$RayRTreeCallback@$0A@$0A@@@6BCallback@RTree@Gu@physx@@@ 00000001801d5fd8     GuMidphaseRTree.obj
 0002:00004fd8       ??_7?$RayRTreeCallback@$00$0A@@@6BCallback@RTree@Gu@physx@@@ 00000001801d5fd8     GuMidphaseRTree.obj
 0002:00004ff0       ??_7RayMeshColliderCallback@@6B@ 00000001801d5ff0     GuMidphaseRTree.obj
 0002:00005000       ??_C@_0EN@DPPFLBLF@Point?9mesh?5distance?5query?5not?5s@ 00000001801d6000     GuMidphaseRTree.obj
 0002:00005050       ??_C@_0FP@FDAKKKHE@F?3?2Downloads?2repos?2PhysX?9104?42?9@ 00000001801d6050     GuMidphaseRTree.obj
 0002:000050b0       ??_7?$RayRTreeCallback@$0A@$00@@6BCallbackRaycast@RTree@Gu@physx@@@ 00000001801d60b0     GuMidphaseRTree.obj
 0002:000050c0       ??_7?$RayRTreeCallback@$0A@$00@@6BCallback@RTree@Gu@physx@@@ 00000001801d60c0     GuMidphaseRTree.obj
 0002:000050d8       ??_7?$RayRTreeCallback@$00$00@@6BCallbackRaycast@RTree@Gu@physx@@@ 00000001801d60d8     GuMidphaseRTree.obj
 0002:000050e8       ??_7?$RayRTreeCallback@$00$00@@6BCallback@RTree@Gu@physx@@@ 00000001801d60e8     GuMidphaseRTree.obj
 0002:00005160       __xmm@7f7fffff000000000000000000000000 00000001801d6160     GuMidphaseRTree.obj
 0002:000051e0       ??_7?$PxReportCallback@UPxGeomIndexPair@physx@@@physx@@6B@ 00000001801d61e0     GuOverlapTestsMesh.obj
 0002:00005200       ??_C@_0EP@CEFGCJKJ@PxGeometryQuery?3?3overlap?$CI?$CJ?3?5onl@ 00000001801d6200     GuOverlapTestsMesh.obj
 0002:00005250       ??_C@_0GC@NNJPJMEB@F?3?2Downloads?2repos?2PhysX?9104?42?9@ 00000001801d6250     GuOverlapTestsMesh.obj
 0002:000052c0       ?MN@RTreePage@Gu@physx@@2MB 00000001801d62c0     GuRTree.obj
 0002:000052c4       ?MX@RTreePage@Gu@physx@@2MB 00000001801d62c4     GuRTree.obj
 0002:000052f0       ??_C@_0FH@OOJANJLP@F?3?2Downloads?2repos?2PhysX?9104?42?9@ 00000001801d62f0     GuRTree.obj
 0002:000053c0       ??_7SweepShapeMeshHitCallback@Gu@physx@@6B@ 00000001801d63c0     GuSweepsMesh.obj
 0002:000053d0       ??_7SweepCapsuleMeshHitCallback@Gu@physx@@6B@ 00000001801d63d0     GuSweepsMesh.obj
 0002:000053e0       ??_7SweepBoxMeshHitCallback@Gu@physx@@6B@ 00000001801d63e0     GuSweepsMesh.obj
 0002:000053f0       ??_7SweepConvexMeshHitCallback@Gu@physx@@6B@ 00000001801d63f0     GuSweepsMesh.obj
 0002:00005420       ??_C@_0P@GGNFNHKF@PxTriangleMesh@ 00000001801d6420     GuTriangleMesh.obj
 0002:00005430       ??_7TriangleMesh@Gu@physx@@6B@ 00000001801d6430     GuTriangleMesh.obj
 0002:00005508       ??_C@_0DD@LOOPMCGG@PxTriangleMesh?3?3release?3?5double@ 00000001801d6508     GuTriangleMesh.obj
 0002:00005540       ??_C@_0FH@PMPAJDGI@PxTriangleMesh?3?3getVerticesForM@ 00000001801d6540     GuTriangleMesh.obj
 0002:000055a0       ??_C@_0FO@COIIOKND@F?3?2Downloads?2repos?2PhysX?9104?42?9@ 00000001801d65a0     GuTriangleMesh.obj
 0002:00005600       ??_C@_0EF@GMNFLDH@PxTriangleMesh?3?3refitBVH?$CI?$CJ?5is?5n@ 00000001801d6600     GuTriangleMesh.obj
 0002:00005650       __xmm@38383838383838383838383838383838 00000001801d6650     GuTriangleMesh.obj
 0002:00005680       ??_C@_0BE@CNJKIINO@PxBVH34TriangleMesh@ 00000001801d6680     GuTriangleMeshBV4.obj
 0002:00005698       ??_7BV4TriangleMesh@Gu@physx@@6B@ 00000001801d6698     GuTriangleMeshBV4.obj
 0002:00005770       ??_C@_0EF@JLFNNPLP@BVH34?5trees?3?5refit?5operation?5on@ 00000001801d6770     GuTriangleMeshBV4.obj
 0002:000057c0       ??_C@_0GB@PEJFNEKJ@F?3?2Downloads?2repos?2PhysX?9104?42?9@ 00000001801d67c0     GuTriangleMeshBV4.obj
 0002:00005824       __real@3951b717            00000001801d6824     GuTriangleMeshBV4.obj
 0002:00005850       ??_C@_0BE@EIFHCCBO@PxBVH33TriangleMesh@ 00000001801d6850     GuTriangleMeshRTree.obj
 0002:00005868       ??_7RTreeTriangleMesh@Gu@physx@@6B@ 00000001801d6868     GuTriangleMeshRTree.obj
 0002:00005940       ??_7?$RefitCallback@G@physx@@6B@ 00000001801d6940     GuTriangleMeshRTree.obj
 0002:00005950       ??_7?$RefitCallback@I@physx@@6B@ 00000001801d6950     GuTriangleMeshRTree.obj
 0002:00005980       ??_C@_0FG@ILJCBFCB@F?3?2Downloads?2repos?2PhysX?9104?42?9@ 00000001801d6980     GuBV32.obj
 0002:00005a00       ??_C@_0FL@NFMEBKNK@F?3?2Downloads?2repos?2PhysX?9104?42?9@ 00000001801d6a00     GuBV32Build.obj
 0002:00005a80       ??_C@_0BC@FDAIDHBP@PxTetrahedronMesh@ 00000001801d6a80     GuTetrahedronMesh.obj
 0002:00005a98       ??_C@_0BC@FBICGJIB@PxSoftBodyAuxData@ 00000001801d6a98     GuTetrahedronMesh.obj
 0002:00005ab0       ??_C@_0P@CLLFGFAA@PxSoftBodyMesh@ 00000001801d6ab0     GuTetrahedronMesh.obj
 0002:00005ac0       ??_7SoftBodyAuxData@Gu@physx@@6B@ 00000001801d6ac0     GuTetrahedronMesh.obj
 0002:00005b00       ??_7TetrahedronMesh@Gu@physx@@6B@ 00000001801d6b00     GuTetrahedronMesh.obj
 0002:00005b78       ??_7BVTetrahedronMesh@Gu@physx@@6B@ 00000001801d6b78     GuTetrahedronMesh.obj
 0002:00005bf0       ??_7SoftBodyMesh@Gu@physx@@6B@ 00000001801d6bf0     GuTetrahedronMesh.obj
 0002:00005c70       ??_C@_0DG@JJNMDPMD@PxTetrahedronMesh?3?3release?3?5dou@ 00000001801d6c70     GuTetrahedronMesh.obj
 0002:00005ca8       ??_C@_0DD@GGFGEPII@PxSoftBodyMesh?3?3release?3?5double@ 00000001801d6ca8     GuTetrahedronMesh.obj
 0002:00005ce0       ??_C@_0GB@BGNGDODN@F?3?2Downloads?2repos?2PhysX?9104?42?9@ 00000001801d6ce0     GuTetrahedronMesh.obj
 0002:00005d70       __xmm@00000000358637bd358637bd358637bd 00000001801d6d70     GuPCMContactBoxBox.obj
 0002:00005d80       __xmm@3f4ccccd3f4ccccd3f4ccccd3f4ccccd 00000001801d6d80     GuPCMContactBoxBox.obj
 0002:00005d90       __xmm@3f8003473f8003473f8003473f800347 00000001801d6d90     GuPCMContactBoxBox.obj
 0002:00005da0       __xmm@ffffffff00000000ffffffffffffffff 00000001801d6da0     GuPCMContactBoxBox.obj
 0002:00005dd0       ??_7?$LocalConvex@VConvexHullNoScaleV@Gu@physx@@@Gu@physx@@6B@ 00000001801d6dd0     GuPCMContactBoxConvex.obj
 0002:00005e00       __xmm@3f3504f33f3504f33f3504f33f3504f3 00000001801d6e00     GuPCMContactBoxConvex.obj
 0002:00005e50       __xmm@ffffffffffffffffffffffff00000000 00000001801d6e50     GuPCMContactCapsuleCapsule.obj
 0002:00005e80       __xmm@3fa000003fa000003fa000003fa00000 00000001801d6e80     GuPCMContactCapsuleConvex.obj
 0002:00005eb0       ??_7PCMCapsuleVsHeightfieldContactGenerationCallback@@6B@ 00000001801d6eb0     GuPCMContactCapsuleHeightField.obj
 0002:00005ec0       __real@3f7f3b64            00000001801d6ec0     GuPCMContactCapsuleHeightField.obj
 0002:00005f10       __xmm@3f7ff9723f7ff9723f7ff9723f7ff972 00000001801d6f10     GuPCMContactCapsuleMesh.obj
 0002:00005f20       __xmm@3f7fffef3f7fffef3f7fffef3f7fffef 00000001801d6f20     GuPCMContactCapsuleMesh.obj
 0002:00005f30       __xmm@60ad78ec60ad78ec60ad78ec60ad78ec 00000001801d6f30     GuPCMContactCapsuleMesh.obj
 0002:00005f60       ??_7?$SupportLocalImpl@VTriangleV@Gu@physx@@@Gu@physx@@6B@ 00000001801d6f60     GuPCMContactConvexCommon.obj
 0002:00005f80       __xmm@3cf5c2803cf5c2803cf5c2803cf5c280 00000001801d6f80     GuPCMContactConvexCommon.obj
 0002:00005f90       __xmm@3f7851ec3f7851ec3f7851ec3f7851ec 00000001801d6f90     GuPCMContactConvexCommon.obj
 0002:00005fc0       ??_7?$RelativeConvex@VConvexHullNoScaleV@Gu@physx@@@Gu@physx@@6B@ 00000001801d6fc0     GuPCMContactConvexConvex.obj
 0002:00006010       ??_7PCMConvexVsHeightfieldContactGenerationCallback@physx@@6B@ 00000001801d7010     GuPCMContactConvexHeightField.obj
 0002:00006020       __xmm@3f19999a3f19999a3f19999a3f19999a 00000001801d7020     GuPCMContactConvexHeightField.obj
 0002:00006060       ??_7PCMConvexVsMeshContactGenerationCallback@physx@@6B@ 00000001801d7060     GuPCMContactConvexMesh.obj
 0002:00006090       __xmm@3f34fdf43f34fdf43f34fdf43f34fdf4 00000001801d7090     GuPCMContactGenBoxConvex.obj
 0002:000060c0       __xmm@3f80a3d73f80a3d73f80a3d73f80a3d7 00000001801d70c0     GuPCMContactGenSphereCapsule.obj
 0002:000060d0       __xmm@bba3d70abba3d70abba3d70abba3d70a 00000001801d70d0     GuPCMContactGenSphereCapsule.obj
 0002:00006100       __xmm@3f7ffd613f7ffd613f7ffd613f7ffd61 00000001801d7100     GuPCMContactPlaneBox.obj
 0002:00006130       __real@3b23d70b            00000001801d7130     GuPCMContactPlaneCapsule.obj
 0002:00006140       __xmm@3ca3d70a3ca3d70a3ca3d70a3ca3d70a 00000001801d7140     GuPCMContactPlaneCapsule.obj
 0002:00006170       __xmm@3a03126f3a03126f3a03126f3a03126f 00000001801d7170     GuPCMContactPlaneConvex.obj
 0002:00006200       ??_7PCMSphereVsHeightfieldContactGenerationCallback@physx@@6B@ 00000001801d7200     GuPCMContactSphereHeightField.obj
 0002:00006250       ??_C@_0FG@IACIDBCO@F?3?2Downloads?2repos?2PhysX?9104?42?9@ 00000001801d7250     GuPCMContactSphereMesh.obj
 0002:000062f0       __xmm@3727c5ac3727c5ac3727c5ac3727c5ac 00000001801d72f0     GuPCMContactSphereSphere.obj
 0002:00006320       __xmm@3f7f06f73f7f06f73f7f06f73f7f06f7 00000001801d7320     GuPCMContactCustomGeometry.obj
 0002:00006330       ?gPCMBoxPolygonData@Gu@physx@@3QBEB 00000001801d7330     GuPCMShapeConvex.obj
 0002:00006390       ?invalidateThresholds@Gu@physx@@3QBMB 00000001801d7390     GuPersistentContactManifold.obj
 0002:000063a8       ?invalidateQuatThresholds@Gu@physx@@3QBMB 00000001801d73a8     GuPersistentContactManifold.obj
 0002:000063c0       ?invalidateThresholds2@Gu@physx@@3QBMB 00000001801d73c0     GuPersistentContactManifold.obj
 0002:000063d0       ?invalidateQuatThresholds2@Gu@physx@@3QBMB 00000001801d73d0     GuPersistentContactManifold.obj
 0002:00006400       __xmm@00000000340000003400000034000000 00000001801d7400     GuPersistentContactManifold.obj
 0002:00006410       __xmm@000000003f8000003f80000000000000 00000001801d7410     GuPersistentContactManifold.obj
 0002:00006420       __xmm@00000000bf8000003f80000000000000 00000001801d7420     GuPersistentContactManifold.obj
 0002:00006430       __xmm@ffffffffffffffff00000000ffffffff 00000001801d7430     GuPersistentContactManifold.obj
 0002:000064a0       __real@b727c5ac            00000001801d74a0     GuSweepBoxSphere.obj
 0002:00006510       ??_C@_0GC@BPLFPJBD@F?3?2Downloads?2repos?2PhysX?9104?42?9@ 00000001801d7510     GuSweepCapsuleBox.obj
 0002:000065a0       __real@3f7fff58            00000001801d75a0     GuSweepCapsuleTriangle.obj
 0002:00006610       ??_C@_0CH@DHJGKCPD@Gu?3?3computeBounds?3?5Unknown?5shap@ 00000001801d7610     GuBounds.obj
 0002:00006640       ??_C@_0FD@CNNEKILE@F?3?2Downloads?2repos?2PhysX?9104?42?9@ 00000001801d7640     GuBounds.obj
 0002:00006694       __real@34800000            00000001801d7694     GuBounds.obj
 0002:00006698       __real@3f7fffef            00000001801d7698     GuBounds.obj
 0002:000066a0       __xmm@3f8147ae3f8147ae3f8147ae3f8147ae 00000001801d76a0     GuBounds.obj
 0002:000066d0       ??_C@_0FF@IMNBCOPE@F?3?2Downloads?2repos?2PhysX?9104?42?9@ 00000001801d76d0     GuAABBTree.obj
 0002:00006730       __xmm@5a60b17f5a60b17f5a60b17f5a60b17f 00000001801d7730     GuAABBTree.obj
 0002:00006740       __xmm@da60b17fda60b17fda60b17fda60b17f 00000001801d7740     GuAABBTree.obj
 0002:000067b0       ??_C@_0GA@CBKGMEEB@F?3?2Downloads?2repos?2PhysX?9104?42?9@ 00000001801d77b0     GuIncrementalAABBTree.obj
 0002:00006810       ??_C@_0EN@PJFHBFOE@F?3?2Downloads?2repos?2PhysX?9104?42?9@ 00000001801d7810     GuIncrementalAABBTree.obj
 0002:00006860       __real@40400000            00000001801d7860     GuIncrementalAABBTree.obj
 0002:00006870       ??_C@_0FA@FOONLOKI@F?3?2Downloads?2repos?2PhysX?9104?42?9@ 00000001801d7870     GuSAH.obj
 0002:000068e0       ??_7PxBVH@physx@@6B@       00000001801d78e0     GuBVH.obj
 0002:00006970       ??_C@_05OKJNPKBM@PxBVH@    00000001801d7970     GuBVH.obj
 0002:00006978       ??_7RefCountable@Cm@physx@@6B@ 00000001801d7978     GuBVH.obj
 0002:00006988       ??_7BVH@Gu@physx@@6BPxBVH@2@@ 00000001801d7988     GuBVH.obj
 0002:00006a18       ??_7BVH@Gu@physx@@6BRefCountable@Cm@2@@ 00000001801d7a18     GuBVH.obj
 0002:00006a30       ??_C@_0FA@EMIFCNFN@F?3?2Downloads?2repos?2PhysX?9104?42?9@ 00000001801d7a30     GuBVH.obj
 0002:00006a80       ??_C@_0CK@HAIOEINI@PxBVH?3?3release?3?5double?5deletion@ 00000001801d7a80     GuBVH.obj
 0002:00006ad0       ??_C@_0GG@EGLHLGED@F?3?2Downloads?2repos?2PhysX?9104?42?9@ 00000001801d7ad0     GuIncrementalAABBPrunerCore.obj
 0002:00006b38       __real@3f80a3d7            00000001801d7b38     GuIncrementalAABBPrunerCore.obj
 0002:00006b60       ??_7BasePruner@Gu@physx@@6B@ 00000001801d7b60     GuIncrementalAABBPruner.obj
 0002:00006b78       ??_7IncrementalAABBPruner@Gu@physx@@6B@ 00000001801d7b78     GuIncrementalAABBPruner.obj
 0002:00006c00       ??_C@_0BM@FLAABPLG@SceneQuery?4prunerAddObjects@ 00000001801d7c00     GuIncrementalAABBPruner.obj
 0002:00006c20       ??_C@_0BP@EAAOKPEE@SceneQuery?4prunerUpdateObjects@ 00000001801d7c20     GuIncrementalAABBPruner.obj
 0002:00006c40       ??_C@_0BP@EHMBNBOH@SceneQuery?4prunerRemoveObjects@ 00000001801d7c40     GuIncrementalAABBPruner.obj
 0002:00006c60       ??_C@_0BI@HOKOKBIM@SceneQuery?4prunerCommit@ 00000001801d7c60     GuIncrementalAABBPruner.obj
 0002:00006c80       ??_C@_0GC@ENPBMCO@F?3?2Downloads?2repos?2PhysX?9104?42?9@ 00000001801d7c80     GuIncrementalAABBPruner.obj
 0002:00006d10       ??_C@_0BE@PKINCBHP@PruningPool?3?3resize@ 00000001801d7d10     GuPruningPool.obj
 0002:00006d30       ??_C@_0FI@PHJACOHD@F?3?2Downloads?2repos?2PhysX?9104?42?9@ 00000001801d7d30     GuPruningPool.obj
 0002:00006d88       ??_C@_0BI@HMDEMGJB@PruningPool?3?3addObjects@ 00000001801d7d88     GuPruningPool.obj
 0002:00006da0       ??_C@_0BK@JPNIEHEJ@PruningPool?3?3removeObject@ 00000001801d7da0     GuPruningPool.obj
 0002:00006dc0       ??_C@_0BJ@GNLAFFBD@PruningPool?3?3shiftOrigin@ 00000001801d7dc0     GuPruningPool.obj
 0002:00006de0       ??_C@_0CE@MGPCCKGE@PruningPool?3?3updateAndInflateBo@ 00000001801d7de0     GuPruningPool.obj
 0002:00006e50       ??_7BucketPruner@Gu@physx@@6B@ 00000001801d7e50     GuBucketPruner.obj
 0002:00006ee0       ??_C@_0FJ@PFFIANPC@F?3?2Downloads?2repos?2PhysX?9104?42?9@ 00000001801d7ee0     GuBucketPruner.obj
 0002:00006f40       __xmm@000000007e7fffff7e7fffff7e7fffff 00000001801d7f40     GuBucketPruner.obj
 0002:00006f50       __xmm@00000000fe7ffffffe7ffffffe7fffff 00000001801d7f50     GuBucketPruner.obj
 0002:00006f60       __xmm@3f13cd3a3f13cd3a3f13cd3a3f13cd3a 00000001801d7f60     GuBucketPruner.obj
 0002:00006f70       __xmm@bf13cd3abf13cd3abf13cd3a3f13cd3a 00000001801d7f70     GuBucketPruner.obj
 0002:00006f80       ?mIndices@MaverickNode@Gu@physx@@2QBIB 00000001801d7f80     GuMaverickNode.obj
 0002:00006fe0       ??_C@_0GB@ECJMPNNA@F?3?2Downloads?2repos?2PhysX?9104?42?9@ 00000001801d7fe0     GuExtendedBucketPruner.obj
 0002:00007070       ??_7CompanionPruner@Gu@physx@@6B@ 00000001801d8070     GuSecondaryPruner.obj
 0002:000070f0       ??_7CompanionPrunerBucket@@6B@ 00000001801d80f0     GuSecondaryPruner.obj
 0002:00007170       ??_7CompanionPrunerIncremental@@6B@ 00000001801d8170     GuSecondaryPruner.obj
 0002:000071f0       ??_7CompanionPrunerAABBTree@@6B@ 00000001801d81f0     GuSecondaryPruner.obj
 0002:00007270       ??_C@_0FM@KHCLCJKI@F?3?2Downloads?2repos?2PhysX?9104?42?9@ 00000001801d8270     GuSecondaryPruner.obj
 0002:000072f0       ??_7AABBPruner@Gu@physx@@6B@ 00000001801d82f0     GuAABBPruner.obj
 0002:00007390       ??_C@_0CC@JANKLMNO@SceneQuery?4bucketPrunerAddObjec@ 00000001801d8390     GuAABBPruner.obj
 0002:000073b8       ??_C@_0CB@JOCHAJIC@SceneQuery?4prunerNewTreeFinaliz@ 00000001801d83b8     GuAABBPruner.obj
 0002:000073e0       ??_C@_0BP@IOICCIGM@SceneQuery?4prunerNewTreeSwitch@ 00000001801d83e0     GuAABBPruner.obj
 0002:00007400       ??_C@_0CA@LJGALBJD@SceneQuery?4prunerNewTreeMapping@ 00000001801d8400     GuAABBPruner.obj
 0002:00007420       ??_C@_0CD@OCIEMIME@SceneQuery?4prunerNewTreeFinalRe@ 00000001801d8420     GuAABBPruner.obj
 0002:00007448       ??_C@_0CG@PMFEEPAE@SceneQuery?4prunerNewTreeRemoveO@ 00000001801d8448     GuAABBPruner.obj
 0002:00007470       ??_C@_0BL@NAENOAHO@SceneQuery?4prunerBuildStep@ 00000001801d8470     GuAABBPruner.obj
 0002:00007490       ??_C@_0CC@MJCIDELA@SceneQuery?4prunerNewTreeFullRef@ 00000001801d8490     GuAABBPruner.obj
 0002:000074b8       ??_C@_0BI@DAHHAEPA@SceneQuery?4prepareBuild@ 00000001801d84b8     GuAABBPruner.obj
 0002:000074d0       ??_C@_0FH@NNLCOAMC@F?3?2Downloads?2repos?2PhysX?9104?42?9@ 00000001801d84d0     GuAABBPruner.obj
 0002:00007528       ??_C@_0CF@PDMDBIIO@SceneQuery?4prunerFullRebuildAAB@ 00000001801d8528     GuAABBPruner.obj
 0002:00007550       ??_C@_0CE@GKMPPEJP@SceneQuery?4prunerUpdateBucketPr@ 00000001801d8550     GuAABBPruner.obj
 0002:00007578       ??_C@_0CI@MKOHFNNO@SceneQuery?4prunerRefitUpdatedAn@ 00000001801d8578     GuAABBPruner.obj
 0002:000075a0       ??_C@_0FK@JDOJHMEC@F?3?2Downloads?2repos?2PhysX?9104?42?9@ 00000001801d85a0     GuActorShapeMap.obj
 0002:00007620       ??_C@_0BF@DNABLJAF@Invalid?5pruner?5index@ 00000001801d8620     GuQuerySystem.obj
 0002:00007640       ??_C@_0FI@KJPGNGPJ@F?3?2Downloads?2repos?2PhysX?9104?42?9@ 00000001801d8640     GuQuerySystem.obj
 0002:00007698       ??_C@_0BO@MMDENGGP@QuerySystem?4processDirtyLists@ 00000001801d8698     GuQuerySystem.obj
 0002:000076b8       ??_C@_0BE@PHJMAGEL@QuerySystem?3?3update@ 00000001801d86b8     GuQuerySystem.obj
 0002:000076d0       ??_C@_0BK@GODFCMPK@QuerySystem?4commitUpdates@ 00000001801d86d0     GuQuerySystem.obj
 0002:00007720       ??_C@_0CA@NAJNANMC@QuerySystem?4createTreeOfPruners@ 00000001801d8720     GuQuerySystem.obj
 0002:00007760       ??_C@_0FE@KJGJLING@F?3?2Downloads?2repos?2PhysX?9104?42?9@ 00000001801d8760     GuFactory.obj
 0002:000077e0       ?reductionFactors@SubSortQuick@physx@@2QBMB 00000001801d87e0     GuRTreeCooking.obj
 0002:000077f0       ?stopAtTrisPerLeaf1@SubSortQuick@physx@@2QBIB 00000001801d87f0     GuRTreeCooking.obj
 0002:000078a0       ??_C@_0GB@KEEILHCF@F?3?2Downloads?2repos?2PhysX?9104?42?9@ 00000001801d88a0     GuRTreeCooking.obj
 0002:00007904       __real@41100000            00000001801d8904     GuRTreeCooking.obj
 0002:00007908       __real@41700000            00000001801d8908     GuRTreeCooking.obj
 0002:0000790c       __real@42200000            00000001801d890c     GuRTreeCooking.obj
 0002:00007910       __xmm@00000004000000030000000200000001 00000001801d8910     GuRTreeCooking.obj
 0002:00007940       ??_C@_0FO@FCFGLFAF@F?3?2Downloads?2repos?2PhysX?9104?42?9@ 00000001801d8940     GuCookingHF.obj
 0002:000079a0       ??_C@_0EK@EKAIJEBL@Cooking?3?3cookConvexMesh?3?5user?9p@ 00000001801d89a0     GuCookingConvexMesh.obj
 0002:000079f0       ??_C@_0FA@GFFGAPML@Cooking?3?3cookConvexMesh?3?5provid@ 00000001801d89f0     GuCookingConvexMesh.obj
 0002:00007a40       ??_C@_0EP@PKDCPNNO@Cooking?3?3cookConvexMesh?3?5provid@ 00000001801d8a40     GuCookingConvexMesh.obj
 0002:00007a90       ??_C@_0EO@LKFMMDE@Cooking?3?3cookConvexMesh?3?5user?9p@ 00000001801d8a90     GuCookingConvexMesh.obj
 0002:00007ae0       ??_C@_0EL@KJEPJALG@Cooking?3?3cookConvexMesh?3?5user?9p@ 00000001801d8ae0     GuCookingConvexMesh.obj
 0002:00007b30       ??_C@_0FM@LHMEBKMM@Cooking?3?3cookConvexMesh?3?5GPU?9co@ 00000001801d8b30     GuCookingConvexMesh.obj
 0002:00007b90       ??_C@_0FJ@FHCFFABE@Cooking?3?3cookConvexMesh?3?5GPU?9co@ 00000001801d8b90     GuCookingConvexMesh.obj
 0002:00007bf0       ??_C@_0GG@FIHCMOFO@F?3?2Downloads?2repos?2PhysX?9104?42?9@ 00000001801d8bf0     GuCookingConvexMesh.obj
 0002:00007c80       ??_7TriangleMeshBuilder@physx@@6B@ 00000001801d8c80     GuCookingTriangleMesh.obj
 0002:00007ca8       ??_7RTreeTriangleMeshBuilder@physx@@6B@ 00000001801d8ca8     GuCookingTriangleMesh.obj
 0002:00007cd0       ??_7BV4TriangleMeshBuilder@physx@@6B@ 00000001801d8cd0     GuCookingTriangleMesh.obj
 0002:00007d00       ??_C@_0GI@CNBBLEDJ@F?3?2Downloads?2repos?2PhysX?9104?42?9@ 00000001801d8d00     GuCookingTriangleMesh.obj
 0002:00007d68       ??_C@_0DJ@IGODLHLP@TriangleMesh?3?5Enable?5mesh?5weldi@ 00000001801d8d68     GuCookingTriangleMesh.obj
 0002:00007db0       ??_C@_0FJ@HHJLKGDF@TriangleMesh?3?5triangles?5are?5too@ 00000001801d8db0     GuCookingTriangleMesh.obj
 0002:00007e10       ??_C@_0CN@KGPHHHLK@TriangleMesh?3?5mesh?5is?5too?5big?5f@ 00000001801d8e10     GuCookingTriangleMesh.obj
 0002:00007e40       ??_C@_0DD@CMJGDCNN@TriangleMesh?3?3loadFromDesc?3?5des@ 00000001801d8e40     GuCookingTriangleMesh.obj
 0002:00007e80       ??_C@_0ED@ILJJNHIP@TriangleMesh?3?3loadFromDesc?3?5mPa@ 00000001801d8e80     GuCookingTriangleMesh.obj
 0002:00007ec8       ??_C@_0BJ@BKHDBBHO@cleaning?5the?5mesh?5failed@ 00000001801d8ec8     GuCookingTriangleMesh.obj
 0002:00007ee8       ??_C@_0BK@JIDHMMCE@BV4?5tree?5failed?5to?5build?4@ 00000001801d8ee8     GuCookingTriangleMesh.obj
 0002:00007f08       ??_C@_0BL@DHNECNBE@BV32?5tree?5failed?5to?5build?4@ 00000001801d8f08     GuCookingTriangleMesh.obj
 0002:00007f28       ??_7RTreeCookerRemap@@6B@  00000001801d8f28     GuCookingTriangleMesh.obj
 0002:00007f40       ??_C@_0FC@PJIHAFK@Cooking?3?3validateTriangleMesh?3?5@ 00000001801d8f40     GuCookingTriangleMesh.obj
 0002:00007f94       __real@48742400            00000001801d8f94     GuCookingTriangleMesh.obj
 0002:00007fc0       ??_7PxCollisionTetrahedronMeshData@physx@@6B@ 00000001801d8fc0     GuCookingTetrahedronMesh.obj
 0002:00007ff0       ??_7PxSimulationTetrahedronMeshData@physx@@6B@ 00000001801d8ff0     GuCookingTetrahedronMesh.obj
 0002:00008010       ??_7CollisionTetrahedronMeshData@Gu@physx@@6B@ 00000001801d9010     GuCookingTetrahedronMesh.obj
 0002:00008040       ??_7SimulationTetrahedronMeshData@Gu@physx@@6B@ 00000001801d9040     GuCookingTetrahedronMesh.obj
 0002:00008060       ??_C@_0GL@BPEIDAHC@F?3?2Downloads?2repos?2PhysX?9104?42?9@ 00000001801d9060     GuCookingTetrahedronMesh.obj
 0002:000080d0       ??_C@_0EG@BKGBJDHG@computeRestPoseAndPointMass?$CI?$CJ?3?5@ 00000001801d90d0     GuCookingTetrahedronMesh.obj
 0002:00008118       ??_7?$LocalConvex@VTetrahedronV@Gu@physx@@@Gu@physx@@6B@ 00000001801d9118     GuCookingTetrahedronMesh.obj
 0002:00008148       ??_C@_0CD@OJGNHLOE@BV4_AABBTree?5tree?5failed?5to?5bui@ 00000001801d9148     GuCookingTetrahedronMesh.obj
 0002:00008170       ??_C@_0DG@NCNIEEHB@TetrahedronMesh?3?3loadFromDesc?3?5@ 00000001801d9170     GuCookingTetrahedronMesh.obj
 0002:000081b0       ??_C@_0EG@CJIFGLMC@TetrahedronMesh?3?3loadFromDesc?3?5@ 00000001801d91b0     GuCookingTetrahedronMesh.obj
 0002:000081f8       __real@3e2aaaab            00000001801d91f8     GuCookingTetrahedronMesh.obj
 0002:000081fc       __real@be2aaaab            00000001801d91fc     GuCookingTetrahedronMesh.obj
 0002:00008200       __xmm@00000003000000030000000300000003 00000001801d9200     GuCookingTetrahedronMesh.obj
 0002:00008230       __real@3bc79ca10c924223    00000001801d9230     GuCookingVolumeIntegration.obj
 0002:00008238       __real@3f91111111111111    00000001801d9238     GuCookingVolumeIntegration.obj
 0002:00008240       __real@3fa5555555555555    00000001801d9240     GuCookingVolumeIntegration.obj
 0002:00008248       __real@3fa999999999999a    00000001801d9248     GuCookingVolumeIntegration.obj
 0002:00008250       __real@3fb5555555555555    00000001801d9250     GuCookingVolumeIntegration.obj
 0002:00008258       __real@3fc5555555555555    00000001801d9258     GuCookingVolumeIntegration.obj
 0002:00008260       __real@3fd5555555555555    00000001801d9260     GuCookingVolumeIntegration.obj
 0002:00008268       __real@3fe0000000000000    00000001801d9268     GuCookingVolumeIntegration.obj
 0002:00008270       __real@3ff0000000000000    00000001801d9270     GuCookingVolumeIntegration.obj
 0002:00008278       __real@4008000000000000    00000001801d9278     GuCookingVolumeIntegration.obj
 0002:00008280       __real@4010000000000000    00000001801d9280     GuCookingVolumeIntegration.obj
 0002:00008288       __real@bf91111111111111    00000001801d9288     GuCookingVolumeIntegration.obj
 0002:00008290       __real@bfa999999999999a    00000001801d9290     GuCookingVolumeIntegration.obj
 0002:00008298       __real@bfb5555555555555    00000001801d9298     GuCookingVolumeIntegration.obj
 0002:000082a0       __real@bfc5555555555555    00000001801d92a0     GuCookingVolumeIntegration.obj
 0002:000082b0       __xmm@3c0888893c0888893c0888893c088889 00000001801d92b0     GuCookingVolumeIntegration.obj
 0002:000082c0       __xmm@3c8888893c8888893c8888893c888889 00000001801d92c0     GuCookingVolumeIntegration.obj
 0002:000082d0       __xmm@3d2aaaab3d2aaaab3d2aaaab3d2aaaab 00000001801d92d0     GuCookingVolumeIntegration.obj
 0002:000082e0       __xmm@3e2aaaab3e2aaaab3e2aaaab3e2aaaab 00000001801d92e0     GuCookingVolumeIntegration.obj
 0002:000082f0       __xmm@3f811111111111113f81111111111111 00000001801d92f0     GuCookingVolumeIntegration.obj
 0002:00008300       __xmm@3f811111111111113f91111111111111 00000001801d9300     GuCookingVolumeIntegration.obj
 0002:00008310       __xmm@3f911111111111113f91111111111111 00000001801d9310     GuCookingVolumeIntegration.obj
 0002:00008320       __xmm@3fa55555555555553fa5555555555555 00000001801d9320     GuCookingVolumeIntegration.obj
 0002:00008330       __xmm@3fa55555555555553fc5555555555555 00000001801d9330     GuCookingVolumeIntegration.obj
 0002:00008340       __xmm@7fffffffffffffff7fffffffffffffff 00000001801d9340     GuCookingVolumeIntegration.obj
 0002:00008350       __xmm@80000000000000008000000000000000 00000001801d9350     GuCookingVolumeIntegration.obj
 0002:00008360       ??_7ConvexHullLib@physx@@6B@ 00000001801d9360     GuCookingQuickHullConvexHullLib.obj
 0002:00008380       ??_7QuickHullConvexHullLib@physx@@6B@ 00000001801d9380     GuCookingQuickHullConvexHullLib.obj
 0002:000083a0       ??_C@_0HC@CCHPHICC@F?3?2Downloads?2repos?2PhysX?9104?42?9@ 00000001801d93a0     GuCookingQuickHullConvexHullLib.obj
 0002:00008420       ??_C@_0GA@EPPAEJPM@QuickHullConvexHullLib?3?3findSim@ 00000001801d9420     GuCookingQuickHullConvexHullLib.obj
 0002:00008480       ??_C@_0FB@NEBIJMML@QuickHullConvexHullLib?3?3findSim@ 00000001801d9480     GuCookingQuickHullConvexHullLib.obj
 0002:000084e0       ??_C@_0FB@CLLCBEMM@QuickHullConvexHullLib?3?3findSim@ 00000001801d94e0     GuCookingQuickHullConvexHullLib.obj
 0002:00008534       __real@34c00000            00000001801d9534     GuCookingQuickHullConvexHullLib.obj
 0002:00008538       ??_C@_0DP@PJBJBEGF@Meshmerizer?3?3extractHullPolygon@ 00000001801d9538     GuCookingConvexPolygonsBuilder.obj
 0002:00008580       ??_C@_0HB@PCHDLAHD@F?3?2Downloads?2repos?2PhysX?9104?42?9@ 00000001801d9580     GuCookingConvexPolygonsBuilder.obj
 0002:000085f8       ??_C@_0DL@IAFKOCCK@ConvexHullBuilder?3?5convex?5hull?5@ 00000001801d95f8     GuCookingConvexPolygonsBuilder.obj
 0002:00008640       ??_C@_0GF@OJLJHAMH@ConvexHullBuilder?3?3CreateTriang@ 00000001801d9640     GuCookingConvexPolygonsBuilder.obj
 0002:000086d0       ??_C@_0DF@LLFJIJGM@Gu?3?3ConvexMesh?3?3loadFromDesc?3?5d@ 00000001801d96d0     GuCookingConvexMeshBuilder.obj
 0002:00008710       ??_C@_0HK@JOGKIEAA@Gu?3?3ConvexMesh?3?5Mesh?5has?5a?5nega@ 00000001801d9710     GuCookingConvexMeshBuilder.obj
 0002:00008790       ??_C@_0DH@NJPPHFFD@Gu?3?3ConvexMesh?3?5Error?5computing@ 00000001801d9790     GuCookingConvexMeshBuilder.obj
 0002:000087c8       ??_C@_0DJ@LJDLGLDJ@Gu?3?3ConvexMesh?3?3loadConvexHull?3@ 00000001801d97c8     GuCookingConvexMeshBuilder.obj
 0002:00008810       ??_C@_0HJ@KJANPPOE@ConvexMeshBuilder?3?3computeHullP@ 00000001801d9810     GuCookingConvexMeshBuilder.obj
 0002:00008890       ??_C@_0GN@MIJOPEGN@F?3?2Downloads?2repos?2PhysX?9104?42?9@ 00000001801d9890     GuCookingConvexMeshBuilder.obj
 0002:00008900       ??_C@_0O@JMAGMMGG@PxHullPolygon@ 00000001801d9900     GuCookingConvexMeshBuilder.obj
 0002:00008910       __real@3f13cd3a            00000001801d9910     GuCookingConvexMeshBuilder.obj
 0002:00008940       ??_C@_0GL@GOMPGAGJ@F?3?2Downloads?2repos?2PhysX?9104?42?9@ 00000001801d9940     GuCookingConvexHullUtils.obj
 0002:000089ac       __real@3e20d97c            00000001801d99ac     GuCookingConvexHullUtils.obj
 0002:000089b0       ??_C@_0GJ@JNJCLCHJ@F?3?2Downloads?2repos?2PhysX?9104?42?9@ 00000001801d99b0     GuCookingConvexHullLib.obj
 0002:00008a20       ??_C@_0JE@PABBNGEL@ConvexHullLib?3?3cleanupVertices?3@ 00000001801d9a20     GuCookingConvexHullLib.obj
 0002:00008ae0       ??_C@_0GN@GDKFEDI@F?3?2Downloads?2repos?2PhysX?9104?42?9@ 00000001801d9ae0     GuCookingConvexHullBuilder.obj
 0002:00008b50       ??_C@_0EB@DCEIFDGC@ConvexHullBuilder?3?3init?3?5convex@ 00000001801d9b50     GuCookingConvexHullBuilder.obj
 0002:00008ba0       ??_C@_0FM@KICBLCBH@Gu?3?3ConvexMesh?3?3checkHullPolygo@ 00000001801d9ba0     GuCookingConvexHullBuilder.obj
 0002:00008c00       ??_C@_0GO@HBFIOGLL@Gu?3?3ConvexMesh?3?3checkHullPolygo@ 00000001801d9c00     GuCookingConvexHullBuilder.obj
 0002:00008c70       ??_C@_0HF@OLJFBIEL@ConvexHullBuilder?3?5convex?5hull?5@ 00000001801d9c70     GuCookingConvexHullBuilder.obj
 0002:00008cf0       ??_C@_0OG@JNHFOIL@ConvexHullBuilder?3?5convex?5hull?5@ 00000001801d9cf0     GuCookingConvexHullBuilder.obj
 0002:00008de0       ??_C@_0EJ@NIOIBAKH@Cooking?3?3cookConvexMesh?3?5non?9ma@ 00000001801d9de0     GuCookingConvexHullBuilder.obj
 0002:00008e50       ??_C@_0HA@BEJKMEA@F?3?2Downloads?2repos?2PhysX?9104?42?9@ 00000001801d9e50     GuCookingBigConvexDataBuilder.obj
 0002:00008ec0       __sz_PhysXFoundation_64_dll 00000001801d9ec0     PhysXFoundation_64:PhysXFoundation_64.dll
 0002:00008ed8       ??_C@_1BK@DBDEIDLH@?$AAK?$AAE?$AAR?$AAN?$AAE?$AAL?$AA3?$AA2?$AA?4?$AAD?$AAL?$AAL@ 00000001801d9ed8     Delayimp:delayhlp.obj
 0002:00008ef8       ??_C@_0BI@OMNLIJDB@AcquireSRWLockExclusive@ 00000001801d9ef8     Delayimp:delayhlp.obj
 0002:00008f10       ??_C@_0BI@HMIEPCNJ@ReleaseSRWLockExclusive@ 00000001801d9f10     Delayimp:delayhlp.obj
 0002:00008f28       __pfnDliFailureHook2       00000001801d9f28     Delayimp:delayhk1.obj
 0002:00008f38       ??_7type_info@@6B@         00000001801d9f38     LIBCMT:std_type_info_static.obj
 0002:00008fa0       _pDefaultRawDllMain        00000001801d9fa0     LIBCMT:dll_dllmain.obj
 0002:00008fa0       _pRawDllMain               00000001801d9fa0     LIBCMT:dll_dllmain.obj
 0002:00008fb0       _load_config_used          00000001801d9fb0     LIBCMT:loadcfg.obj
 0002:000090e8       _pDestructExceptionObject  00000001801da0e8     libvcruntime:ehhelpers.obj
 0002:000097f0       ??_C@_08EHJDFFNH@__based?$CI@ 00000001801da7f0     libvcruntime:undname.obj
 0002:00009800       ??_C@_07KOLFKCDI@__cdecl@  00000001801da800     libvcruntime:undname.obj
 0002:00009808       ??_C@_08GHMPAG@__pascal@   00000001801da808     libvcruntime:undname.obj
 0002:00009818       ??_C@_09IFJBGAPI@__stdcall@ 00000001801da818     libvcruntime:undname.obj
 0002:00009828       ??_C@_0L@NPHFGOKO@__thiscall@ 00000001801da828     libvcruntime:undname.obj
 0002:00009838       ??_C@_0L@JMKHOMEK@__fastcall@ 00000001801da838     libvcruntime:undname.obj
 0002:00009848       ??_C@_0N@BCKKPABJ@__vectorcall@ 00000001801da848     libvcruntime:undname.obj
 0002:00009858       ??_C@_09HIJEGCPM@__clrcall@ 00000001801da858     libvcruntime:undname.obj
 0002:00009864       ??_C@_06GHPCKEAG@__eabi@   00000001801da864     libvcruntime:undname.obj
 0002:00009870       ??_C@_09IOPIDJLG@__swift_1@ 00000001801da870     libvcruntime:undname.obj
 0002:00009880       ??_C@_09KFNFGKHF@__swift_2@ 00000001801da880     libvcruntime:undname.obj
 0002:00009890       ??_C@_07JOMMBBKO@__ptr64@  00000001801da890     libvcruntime:undname.obj
 0002:00009898       ??_C@_0L@PILCLIHE@__restrict@ 00000001801da898     libvcruntime:undname.obj
 0002:000098a8       ??_C@_0M@GFIIJFMG@__unaligned@ 00000001801da8a8     libvcruntime:undname.obj
 0002:000098b8       ??_C@_09DHDLOLLB@restrict?$CI@ 00000001801da8b8     libvcruntime:undname.obj
 0002:000098c4       ??_C@_04NIHEBCM@?5new@     00000001801da8c4     libvcruntime:undname.obj
 0002:000098d0       ??_C@_07FPCDHGMM@?5delete@ 00000001801da8d0     libvcruntime:undname.obj
 0002:000098d8       ??_C@_01NEMOKFLO@?$DN@     00000001801da8d8     libvcruntime:undname.obj
 0002:000098dc       ??_C@_02GPIOPFAK@?$DO?$DO@ 00000001801da8dc     libvcruntime:undname.obj
 0002:000098e0       ??_C@_02FODMEDOG@?$DM?$DM@ 00000001801da8e0     libvcruntime:undname.obj
 0002:000098e4       ??_C@_01DCLJPIOD@?$CB@     00000001801da8e4     libvcruntime:undname.obj
 0002:000098e8       ??_C@_02EGOFBIJA@?$DN?$DN@ 00000001801da8e8     libvcruntime:undname.obj
 0002:000098ec       ??_C@_02FDNJECIE@?$CB?$DN@ 00000001801da8ec     libvcruntime:undname.obj
 0002:000098f0       ??_C@_02GPECMEKF@?$FL?$FN@ 00000001801da8f0     libvcruntime:undname.obj
 0002:000098f8       ??_C@_08LHJFAFGD@operator@ 00000001801da8f8     libvcruntime:undname.obj
 0002:00009904       ??_C@_02HBOOOICD@?9?$DO@   00000001801da904     libvcruntime:undname.obj
 0002:00009908       ??_C@_01NBENCBCI@?$CK@     00000001801da908     libvcruntime:undname.obj
 0002:0000990c       ??_C@_02ECNGHCIF@?$CL?$CL@ 00000001801da90c     libvcruntime:undname.obj
 0002:00009910       ??_C@_02BAABKJLB@?9?9@     00000001801da910     libvcruntime:undname.obj
 0002:00009914       ??_C@_01JOAMLHOP@?9@       00000001801da914     libvcruntime:undname.obj
 0002:00009918       ??_C@_01MIFGBAGJ@?$CL@     00000001801da918     libvcruntime:undname.obj
 0002:0000991c       ??_C@_01HNPIGOCE@?$CG@     00000001801da91c     libvcruntime:undname.obj
 0002:00009920       ??_C@_03MNHNFDLC@?9?$DO?$CK@ 00000001801da920     libvcruntime:undname.obj
 0002:00009924       ??_C@_01KMDKNFGN@?1@       00000001801da924     libvcruntime:undname.obj
 0002:00009928       ??_C@_01FGNFDNOH@?$CF@     00000001801da928     libvcruntime:undname.obj
 0002:0000992c       ??_C@_01MNNFJEPP@?$DM@     00000001801da92c     libvcruntime:undname.obj
 0002:00009930       ??_C@_02EHCHHCKH@?$DM?$DN@ 00000001801da930     libvcruntime:undname.obj
 0002:00009934       ??_C@_01PPODPGHN@?$DO@     00000001801da934     libvcruntime:undname.obj
 0002:00009938       ??_C@_02EEKDKGMJ@?$DO?$DN@ 00000001801da938     libvcruntime:undname.obj
 0002:0000993c       ??_C@_01IHBHIGKO@?0@       00000001801da93c     libvcruntime:undname.obj
 0002:00009940       ??_C@_02HCKGKOFO@?$CI?$CJ@ 00000001801da940     libvcruntime:undname.obj
 0002:00009944       ??_C@_01PJKLJHI@?$HO@      00000001801da944     libvcruntime:undname.obj
 0002:00009948       ??_C@_01JKBOJNNK@?$FO@     00000001801da948     libvcruntime:undname.obj
 0002:0000994c       ??_C@_01DNKMNLPK@?$HM@     00000001801da94c     libvcruntime:undname.obj
 0002:00009950       ??_C@_02PPKAJPJL@?$CG?$CG@ 00000001801da950     libvcruntime:undname.obj
 0002:00009954       ??_C@_02NONPIBCD@?$HM?$HM@ 00000001801da954     libvcruntime:undname.obj
 0002:00009958       ??_C@_02FPIMKNGF@?$CK?$DN@ 00000001801da958     libvcruntime:undname.obj
 0002:0000995c       ??_C@_02FOEOMHFC@?$CL?$DN@ 00000001801da95c     libvcruntime:undname.obj
 0002:00009960       ??_C@_02FKMDLLOA@?9?$DN@   00000001801da960     libvcruntime:undname.obj
 0002:00009964       ??_C@_02FJEHGPIO@?1?$DN@   00000001801da964     libvcruntime:undname.obj
 0002:00009968       ??_C@_02FENAOKFI@?$CF?$DN@ 00000001801da968     libvcruntime:undname.obj
 0002:0000996c       ??_C@_03IKFCCPFF@?$DO?$DO?$DN@ 00000001801da96c     libvcruntime:undname.obj
 0002:00009970       ??_C@_03CDNPDDLA@?$DM?$DM?$DN@ 00000001801da970     libvcruntime:undname.obj
 0002:00009974       ??_C@_02FGJGFEAB@?$CG?$DN@ 00000001801da974     libvcruntime:undname.obj
 0002:00009978       ??_C@_02DHLNPPGH@?$HM?$DN@ 00000001801da978     libvcruntime:undname.obj
 0002:0000997c       ??_C@_02MHEGNOJ@?$FO?$DN@  00000001801da97c     libvcruntime:undname.obj
 0002:00009980       ??_C@_09IFPLHPGF@?$GAvftable?8@ 00000001801da980     libvcruntime:undname.obj
 0002:00009990       ??_C@_09BLBHBJP@?$GAvbtable?8@ 00000001801da990     libvcruntime:undname.obj
 0002:000099a0       ??_C@_07FEEIOKP@?$GAvcall?8@ 00000001801da9a0     libvcruntime:undname.obj
 0002:000099a8       ??_C@_08LLFFHHDJ@?$GAtypeof?8@ 00000001801da9a8     libvcruntime:undname.obj
 0002:000099b8       ??_C@_0BF@KDPPACIK@?$GAlocal?5static?5guard?8@ 00000001801da9b8     libvcruntime:undname.obj
 0002:000099d0       ??_C@_08OBABFOLI@?$GAstring?8@ 00000001801da9d0     libvcruntime:undname.obj
 0002:000099e0       ??_C@_0BD@JDLKDPAB@?$GAvbase?5destructor?8@ 00000001801da9e0     libvcruntime:undname.obj
 0002:000099f8       ??_C@_0BN@DEGPLNFK@?$GAvector?5deleting?5destructor?8@ 00000001801da9f8     libvcruntime:undname.obj
 0002:00009a18       ??_C@_0BO@OBMKPJIG@?$GAdefault?5constructor?5closure?8@ 00000001801daa18     libvcruntime:undname.obj
 0002:00009a38       ??_C@_0BN@IMDCHIKM@?$GAscalar?5deleting?5destructor?8@ 00000001801daa38     libvcruntime:undname.obj
 0002:00009a58       ??_C@_0BO@PFGOCPJJ@?$GAvector?5constructor?5iterator?8@ 00000001801daa58     libvcruntime:undname.obj
 0002:00009a78       ??_C@_0BN@LFPFMEDL@?$GAvector?5destructor?5iterator?8@ 00000001801daa78     libvcruntime:undname.obj
 0002:00009a98       ??_C@_0CE@IKBNEHA@?$GAvector?5vbase?5constructor?5itera@ 00000001801daa98     libvcruntime:undname.obj
 0002:00009ac0       ??_C@_0BL@NILFHHPC@?$GAvirtual?5displacement?5map?8@ 00000001801daac0     libvcruntime:undname.obj
 0002:00009ae0       ??_C@_0CB@JONCMFFK@?$GAeh?5vector?5constructor?5iterator@ 00000001801daae0     libvcruntime:undname.obj
 0002:00009b08       ??_C@_0CA@GCEOPDGL@?$GAeh?5vector?5destructor?5iterator?8@ 00000001801dab08     libvcruntime:undname.obj
 0002:00009b28       ??_C@_0CH@OOJPLCPH@?$GAeh?5vector?5vbase?5constructor?5it@ 00000001801dab28     libvcruntime:undname.obj
 0002:00009b50       ??_C@_0BL@LLKPOHJI@?$GAcopy?5constructor?5closure?8@ 00000001801dab50     libvcruntime:undname.obj
 0002:00009b70       ??_C@_0BA@KBCDOMBN@?$GAudt?5returning?8@ 00000001801dab70     libvcruntime:undname.obj
 0002:00009b80       ??_C@_03KLGMFNMG@?$GAEH@   00000001801dab80     libvcruntime:undname.obj
 0002:00009b84       ??_C@_05KHLCHHI@?$GARTTI@  00000001801dab84     libvcruntime:undname.obj
 0002:00009b90       ??_C@_0BA@KKLDJDLB@?$GAlocal?5vftable?8@ 00000001801dab90     libvcruntime:undname.obj
 0002:00009ba0       ??_C@_0CE@IIHCMGGL@?$GAlocal?5vftable?5constructor?5clos@ 00000001801daba0     libvcruntime:undname.obj
 0002:00009bc4       ??_C@_06FHBGPFGH@?5new?$FL?$FN@ 00000001801dabc4     libvcruntime:undname.obj
 0002:00009bd0       ??_C@_09LBNFPBCA@?5delete?$FL?$FN@ 00000001801dabd0     libvcruntime:undname.obj
 0002:00009be0       ??_C@_0P@HJKNJFNN@?$GAomni?5callsig?8@ 00000001801dabe0     libvcruntime:undname.obj
 0002:00009bf0       ??_C@_0BL@CNOONJFP@?$GAplacement?5delete?5closure?8@ 00000001801dabf0     libvcruntime:undname.obj
 0002:00009c10       ??_C@_0BN@CKNJLHMB@?$GAplacement?5delete?$FL?$FN?5closure?8@ 00000001801dac10     libvcruntime:undname.obj
 0002:00009c30       ??_C@_0CG@CFDHKGGD@?$GAmanaged?5vector?5constructor?5ite@ 00000001801dac30     libvcruntime:undname.obj
 0002:00009c58       ??_C@_0CF@IMGKMJNO@?$GAmanaged?5vector?5destructor?5iter@ 00000001801dac58     libvcruntime:undname.obj
 0002:00009c80       ??_C@_0CG@HLDDJMAG@?$GAeh?5vector?5copy?5constructor?5ite@ 00000001801dac80     libvcruntime:undname.obj
 0002:00009ca8       ??_C@_0CM@FCBBDIGB@?$GAeh?5vector?5vbase?5copy?5construct@ 00000001801daca8     libvcruntime:undname.obj
 0002:00009cd8       ??_C@_0BL@CLIPGLGB@?$GAdynamic?5initializer?5for?5?8@ 00000001801dacd8     libvcruntime:undname.obj
 0002:00009cf8       ??_C@_0CB@PDBIFEP@?$GAdynamic?5atexit?5destructor?5for?5@ 00000001801dacf8     libvcruntime:undname.obj
 0002:00009d20       ??_C@_0CD@CGAJBKEJ@?$GAvector?5copy?5constructor?5iterat@ 00000001801dad20     libvcruntime:undname.obj
 0002:00009d48       ??_C@_0CJ@GJELGAMM@?$GAvector?5vbase?5copy?5constructor?5@ 00000001801dad48     libvcruntime:undname.obj
 0002:00009d78       ??_C@_0CL@FGIJHLCE@?$GAmanaged?5vector?5copy?5constructo@ 00000001801dad78     libvcruntime:undname.obj
 0002:00009da8       ??_C@_0BM@PMGGMLDN@?$GAlocal?5static?5thread?5guard?8@ 00000001801dada8     libvcruntime:undname.obj
 0002:00009dc8       ??_C@_0N@BDNMDMOL@operator?5?$CC?$CC?5@ 00000001801dadc8     libvcruntime:undname.obj
 0002:00009dd8       ??_C@_0BC@GGEBGALA@operator?5co_await@ 00000001801dadd8     libvcruntime:undname.obj
 0002:00009df0       ??_C@_0M@GAAIMMOH@operator?$DM?$DN?$DO@ 00000001801dadf0     libvcruntime:undname.obj
 0002:00009e00       ??_C@_0BC@DAFEJGAK@?5Type?5Descriptor?8@ 00000001801dae00     libvcruntime:undname.obj
 0002:00009e18       ??_C@_0BM@LDKODKLH@?5Base?5Class?5Descriptor?5at?5?$CI@ 00000001801dae18     libvcruntime:undname.obj
 0002:00009e38       ??_C@_0BD@LGICGFMM@?5Base?5Class?5Array?8@ 00000001801dae38     libvcruntime:undname.obj
 0002:00009e50       ??_C@_0BN@MECKDCOJ@?5Class?5Hierarchy?5Descriptor?8@ 00000001801dae50     libvcruntime:undname.obj
 0002:00009e70       ??_C@_0BK@CFCOFLF@?5Complete?5Object?5Locator?8@ 00000001801dae70     libvcruntime:undname.obj
 0002:00009e90       ??_C@_0BG@JNJLAMPM@?$GAanonymous?5namespace?8@ 00000001801dae90     libvcruntime:undname.obj
 0002:00009ea8       ??_C@_04HEJADOOB@CV?3?5@   00000001801daea8     libvcruntime:undname.obj
 0002:00009eb0       ??_C@_02MOLJINC@?3?3@      00000001801daeb0     libvcruntime:undname.obj
 0002:00009eb8       ??_C@_0BE@JAEOCHPE@template?9parameter?9@ 00000001801daeb8     libvcruntime:undname.obj
 0002:00009ed0       ??_C@_0BF@LNLGBBNL@?$GAtemplate?9parameter?9@ 00000001801daed0     libvcruntime:undname.obj
 0002:00009ee8       ??_C@_0O@KHGCOMHP@generic?9type?9@ 00000001801daee8     libvcruntime:undname.obj
 0002:00009ef8       ??_C@_0P@ODDENDLM@?$GAgeneric?9type?9@ 00000001801daef8     libvcruntime:undname.obj
 0002:00009f08       ??_C@_02OHHJMEON@?8?8@     00000001801daf08     libvcruntime:undname.obj
 0002:00009f10       ??_C@_0BN@IBLMMFAP@?$GAnon?9type?9template?9parameter@ 00000001801daf10     libvcruntime:undname.obj
 0002:00009f30       ??_C@_03DLDNIBIK@?$CFlf@   00000001801daf30     libvcruntime:undname.obj
 0002:00009f34       ??_C@_04OFALKAJ@?$DP?$DP_C@ 00000001801daf34     libvcruntime:undname.obj
 0002:00009f3c       ??_C@_03KHICJKCI@?4?4?4@   00000001801daf3c     libvcruntime:undname.obj
 0002:00009f40       ??_C@_04HIBGFPH@NULL@      00000001801daf40     libvcruntime:undname.obj
 0002:00009f48       ??_C@_02DPKJAMEF@?$CFd@    00000001801daf48     libvcruntime:undname.obj
 0002:00009f50       ??_C@_0BK@IHCCFNEL@?$GAtemplate?9type?9parameter?9@ 00000001801daf50     libvcruntime:undname.obj
 0002:00009f70       ??_C@_0BK@OFCNNNKO@?$GAgeneric?9class?9parameter?9@ 00000001801daf70     libvcruntime:undname.obj
 0002:00009f90       ??_C@_0BL@NGJBLFIL@?$GAgeneric?9method?9parameter?9@ 00000001801daf90     libvcruntime:undname.obj
 0002:00009fb0       ??_C@_07OHNGEDJK@nullptr@  00000001801dafb0     libvcruntime:undname.obj
 0002:00009fb8       ??_C@_0BE@EODMJLIF@?$GAtemplate?9parameter@ 00000001801dafb8     libvcruntime:undname.obj
 0002:00009fcc       ??_C@_03OPGICMGF@?$HN?8?5@ 00000001801dafcc     libvcruntime:undname.obj
 0002:00009fd0       ??_C@_02IGFCGPIL@?$HN?8@   00000001801dafd0     libvcruntime:undname.obj
 0002:00009fd8       ??_C@_0N@CBHHHENL@?$GAvtordispex?$HL@ 00000001801dafd8     libvcruntime:undname.obj
 0002:00009fe8       ??_C@_0L@GHPFDFH@?$GAvtordisp?$HL@ 00000001801dafe8     libvcruntime:undname.obj
 0002:00009ff8       ??_C@_0L@HNGCOGAE@?$GAadjustor?$HL@ 00000001801daff8     libvcruntime:undname.obj
 0002:0000a008       ??_C@_0CB@KJDOOODE@?$GAlocal?5static?5destructor?5helper@ 00000001801db008     libvcruntime:undname.obj
 0002:0000a030       ??_C@_0DB@ILEFOCIJ@?$GAtemplate?5static?5data?5member?5co@ 00000001801db030     libvcruntime:undname.obj
 0002:0000a068       ??_C@_0DA@HGFJFBBE@?$GAtemplate?5static?5data?5member?5de@ 00000001801db068     libvcruntime:undname.obj
 0002:0000a098       ??_C@_07PGOEDBHP@static?5@ 00000001801db098     libvcruntime:undname.obj
 0002:0000a0a0       ??_C@_08NIEOINHE@virtual?5@ 00000001801db0a0     libvcruntime:undname.obj
 0002:0000a0b0       ??_C@_09LAPHOOG@private?3?5@ 00000001801db0b0     libvcruntime:undname.obj
 0002:0000a0c0       ??_C@_0M@GAIFPFIP@protected?3?5@ 00000001801db0c0     libvcruntime:undname.obj
 0002:0000a0d0       ??_C@_08GPDDCMKI@public?3?5@ 00000001801db0d0     libvcruntime:undname.obj
 0002:0000a0e0       ??_C@_08KJLFOPNE@?$FLthunk?$FN?3@ 00000001801db0e0     libvcruntime:undname.obj
 0002:0000a0f0       ??_C@_0M@DHNBOJMP@extern?5?$CCC?$CC?5@ 00000001801db0f0     libvcruntime:undname.obj
 0002:0000a0fc       ??_C@_02KCKGHPCA@?$CJ?5@   00000001801db0fc     libvcruntime:undname.obj
 0002:0000a100       ??_C@_05CIHEBHNO@char?5@   00000001801db100     libvcruntime:undname.obj
 0002:0000a108       ??_C@_06EHJMALKF@short?5@  00000001801db108     libvcruntime:undname.obj
 0002:0000a110       ??_C@_04LAHKHJMA@int?5@    00000001801db110     libvcruntime:undname.obj
 0002:0000a118       ??_C@_05CJIMAING@long?5@   00000001801db118     libvcruntime:undname.obj
 0002:0000a120       ??_C@_09EBBEKKIH@unsigned?5@ 00000001801db120     libvcruntime:undname.obj
 0002:0000a12c       ??_C@_05BEFAKPML@void?5@   00000001801db12c     libvcruntime:undname.obj
 0002:0000a138       ??_C@_09GAIEOBLP@volatile?5@ 00000001801db138     libvcruntime:undname.obj
 0002:0000a148       ??_C@_08PABEKFH@volatile@  00000001801db148     libvcruntime:undname.obj
 0002:0000a158       ??_C@_0BA@LKIJLKPP@std?3?3nullptr_t?5@ 00000001801db158     libvcruntime:undname.obj
 0002:0000a168       ??_C@_0P@GCOCNKDM@std?3?3nullptr_t@ 00000001801db168     libvcruntime:undname.obj
 0002:0000a178       ??_C@_0L@EGPHHEKN@?$DMellipsis?$DO@ 00000001801db178     libvcruntime:undname.obj
 0002:0000a184       ??_C@_04EENFHACM@?0?4?4?4@ 00000001801db184     libvcruntime:undname.obj
 0002:0000a190       ??_C@_0M@ELJOJFFH@?0?$DMellipsis?$DO@ 00000001801db190     libvcruntime:undname.obj
 0002:0000a1a0       ??_C@_09DNHFEOJI@?5noexcept@ 00000001801db1a0     libvcruntime:undname.obj
 0002:0000a1ac       ??_C@_03PBJBJNON@cpu@      00000001801db1ac     libvcruntime:undname.obj
 0002:0000a1b0       ??_C@_03DCBBJBAA@amp@      00000001801db1b0     libvcruntime:undname.obj
 0002:0000a1b4       ??_C@_02KEGNLNML@?0?5@     00000001801db1b4     libvcruntime:undname.obj
 0002:0000a1b8       ??_C@_04ENMBGAPA@char@     00000001801db1b8     libvcruntime:undname.obj
 0002:0000a1c0       ??_C@_05BFKKPKCG@short@    00000001801db1c0     libvcruntime:undname.obj
 0002:0000a1c8       ??_C@_03JBIPMCLC@int@      00000001801db1c8     libvcruntime:undname.obj
 0002:0000a1cc       ??_C@_04GOKPGOLB@long@     00000001801db1cc     libvcruntime:undname.obj
 0002:0000a1d4       ??_C@_06BNJCAIGJ@double@   00000001801db1d4     libvcruntime:undname.obj
 0002:0000a1dc       ??_C@_06EBGKOKIG@__int8@   00000001801db1dc     libvcruntime:undname.obj
 0002:0000a1e8       ??_C@_07ICFHOGAF@__int16@  00000001801db1e8     libvcruntime:undname.obj
 0002:0000a1f0       ??_C@_07OFLPPHGP@__int32@  00000001801db1f0     libvcruntime:undname.obj
 0002:0000a1f8       ??_C@_07LFCOJCAC@__int64@  00000001801db1f8     libvcruntime:undname.obj
 0002:0000a200       ??_C@_08GAHOLHEO@__int128@ 00000001801db200     libvcruntime:undname.obj
 0002:0000a210       ??_C@_09EEKGDCPH@?$DMunknown?$DO@ 00000001801db210     libvcruntime:undname.obj
 0002:0000a220       ??_C@_07CFHGOPCN@char8_t@  00000001801db220     libvcruntime:undname.obj
 0002:0000a228       ??_C@_08HBIPOFJB@char16_t@ 00000001801db228     libvcruntime:undname.obj
 0002:0000a238       ??_C@_08IECNCBKG@char32_t@ 00000001801db238     libvcruntime:undname.obj
 0002:0000a248       ??_C@_07CLGGIAMF@wchar_t@  00000001801db248     libvcruntime:undname.obj
 0002:0000a250       ??_C@_04HAPDLBFF@auto@     00000001801db250     libvcruntime:undname.obj
 0002:0000a258       ??_C@_0P@LHCGKIGK@decltype?$CIauto?$CJ@ 00000001801db258     libvcruntime:undname.obj
 0002:0000a268       ??_C@_06GCICPBLB@__w64?5@  00000001801db268     libvcruntime:undname.obj
 0002:0000a270       ??_C@_07NFANNNEC@UNKNOWN@  00000001801db270     libvcruntime:undname.obj
 0002:0000a278       ??_C@_07EDHNAJHC@signed?5@ 00000001801db278     libvcruntime:undname.obj
 0002:0000a280       ??_C@_05BNCCCJPP@const@    00000001801db280     libvcruntime:undname.obj
 0002:0000a288       ??_C@_09EFNPDFFP@?5volatile@ 00000001801db288     libvcruntime:undname.obj
 0002:0000a298       ??_C@_0P@GCIFDJCJ@?$GAunknown?5ecsu?8@ 00000001801db298     libvcruntime:undname.obj
 0002:0000a2a8       ??_C@_06MOJHIBMG@union?5@  00000001801db2a8     libvcruntime:undname.obj
 0002:0000a2b0       ??_C@_07DIBCDNGL@struct?5@ 00000001801db2b0     libvcruntime:undname.obj
 0002:0000a2b8       ??_C@_06LJBABKPM@class?5@  00000001801db2b8     libvcruntime:undname.obj
 0002:0000a2c0       ??_C@_08KOFANOFK@coclass?5@ 00000001801db2c0     libvcruntime:undname.obj
 0002:0000a2d0       ??_C@_0N@DLIEFKNA@cointerface?5@ 00000001801db2d0     libvcruntime:undname.obj
 0002:0000a2e0       ??_C@_05LJGMCFOG@enum?5@   00000001801db2e0     libvcruntime:undname.obj
 0002:0000a2e8       ??_C@_06LIJLOJAG@const?5@  00000001801db2e8     libvcruntime:undname.obj
 0002:0000a2f0       ??_C@_02KJPKDIBN@?$CG?5@   00000001801db2f0     libvcruntime:undname.obj
 0002:0000a2f4       ??_C@_03PCKGMOPB@?$CG?$CG?5@ 00000001801db2f4     libvcruntime:undname.obj
 0002:0000a2f8       ??_C@_0M@EALIELKG@cli?3?3array?$DM@ 00000001801db2f8     libvcruntime:undname.obj
 0002:0000a308       ??_C@_0O@GKABPPIF@cli?3?3pin_ptr?$DM@ 00000001801db308     libvcruntime:undname.obj
 0002:0000a318       ??_C@_02GOGNNPBN@?$CJ?$FL@ 00000001801db318     libvcruntime:undname.obj
 0002:0000a31c       ??_C@_06EEGAIFAK@?$HLflat?$HN@ 00000001801db31c     libvcruntime:undname.obj
 0002:0000a324       ??_C@_05JIBOFOHK@?$HLfor?5@ 00000001801db324     libvcruntime:undname.obj
 0002:0000a32c       ??_C@_02MDINNEEG@s?5@      00000001801db32c     libvcruntime:undname.obj
 0002:0000a338       ??_7charNode@@6B@          00000001801db338     libvcruntime:undname.obj
 0002:0000a360       ??_7pcharNode@@6B@         00000001801db360     libvcruntime:undname.obj
 0002:0000a388       ??_7pDNameNode@@6B@        00000001801db388     libvcruntime:undname.obj
 0002:0000a3b0       ??_7DNameStatusNode@@6B@   00000001801db3b0     libvcruntime:undname.obj
 0002:0000a3d8       ??_7pairNode@@6B@          00000001801db3d8     libvcruntime:undname.obj
 0002:0000a500       ??_C@_04OKOHEJBO@?5?$DP?$DP?5@ 00000001801db500     libvcruntime:undname.obj
 0002:0000a510       ?nodes@?1??make@DNameStatusNode@@SAPEBV2@W4DNameStatus@@@Z@4QBV2@B 00000001801db510     libvcruntime:undname.obj
 0002:0000a550       ?s_negLengthTab@FH4@@3QBCB 00000001801db550     libvcruntime:risctrnsctrl.obj
 0002:0000a560       ?s_shiftTab@FH4@@3QBEB     00000001801db560     libvcruntime:risctrnsctrl.obj
 0002:0000a620       ??_C@_1DM@KHCHBNEB@?$AAa?$AAp?$AAi?$AA?9?$AAm?$AAs?$AA?9?$AAw?$AAi?$AAn?$AA?9?$AAc?$AAo?$AAr?$AAe@ 00000001801db620     libvcruntime:winapi_downlevel.obj
 0002:0000a660       ??_C@_1DK@LPPGFMPP@?$AAa?$AAp?$AAi?$AA?9?$AAm?$AAs?$AA?9?$AAw?$AAi?$AAn?$AA?9?$AAc?$AAo?$AAr?$AAe@ 00000001801db660     libvcruntime:winapi_downlevel.obj
 0002:0000a6a0       ??_C@_1BC@GDMECMAK@?$AAk?$AAe?$AAr?$AAn?$AAe?$AAl?$AA3?$AA2@ 00000001801db6a0     libvcruntime:winapi_downlevel.obj
 0002:0000a6b8       ??_C@_1BA@PFFKHIOG@?$AAa?$AAp?$AAi?$AA?9?$AAm?$AAs?$AA?9@ 00000001801db6b8     libvcruntime:winapi_downlevel.obj
 0002:0000a6d0       ??_C@_08KNHFBNJ@FlsAlloc@  00000001801db6d0     libvcruntime:winapi_downlevel.obj
 0002:0000a6e8       ??_C@_07PEJMOBNF@FlsFree@  00000001801db6e8     libvcruntime:winapi_downlevel.obj
 0002:0000a6f8       ??_C@_0M@GDNOONDI@FlsGetValue@ 00000001801db6f8     libvcruntime:winapi_downlevel.obj
 0002:0000a710       ??_C@_0M@JCPCPOEF@FlsSetValue@ 00000001801db710     libvcruntime:winapi_downlevel.obj
 0002:0000a728       ??_C@_0BM@HCFOFFN@InitializeCriticalSectionEx@ 00000001801db728     libvcruntime:winapi_downlevel.obj
 0002:0000a750       ??_7exception@std@@6B@     00000001801db750     libvcruntime:frame.obj
 0002:0000a760       ??_C@_0BC@EOODALEL@Unknown?5exception@ 00000001801db760     libvcruntime:frame.obj
 0002:0000a780       ??_7bad_exception@std@@6B@ 00000001801db780     libvcruntime:frame.obj
 0002:0000a790       ??_C@_0O@DPKOEFFH@bad?5exception@ 00000001801db790     libvcruntime:frame.obj
 0002:0000aae0       ?standard_lookup_table_spectre@__crt_stdio_output@@3V?$spectre_mitigated_lookup_table@Ustate_transition_pair@__crt_stdio_output@@$0IA@@1@B 00000001801dbae0     libucrt:output.obj
 0002:0000aee0       ?format_validation_lookup_table_spectre@__crt_stdio_output@@3V?$spectre_mitigated_lookup_table@Ustate_transition_pair@__crt_stdio_output@@$0IA@@1@B 00000001801dbee0     libucrt:output.obj
 0002:0000b2e0       ??_C@_1O@CEDCILHN@?$AA?$CI?$AAn?$AAu?$AAl?$AAl?$AA?$CJ@ 00000001801dc2e0     libucrt:output.obj
 0002:0000b2f0       ??_C@_06OJHGLDPL@?$CInull?$CJ@ 00000001801dc2f0     libucrt:output.obj
 0002:0000c388       __real@3f1a36e2eb1c432d    00000001801dd388     libucrt:atan2f.obj
 0002:0000c390       __real@3fb0000000000000    00000001801dd390     libucrt:atan2f.obj
 0002:0000c398       __real@3fc2492482bd6be1    00000001801dd398     libucrt:atan2f.obj
 0002:0000c3a0       __real@3fc99999999643a3    00000001801dd3a0     libucrt:atan2f.obj
 0002:0000c3a8       __real@3fd5555555550877    00000001801dd3a8     libucrt:atan2f.obj
 0002:0000c3b0       __real@3fd5555555555538    00000001801dd3b0     libucrt:atan2f.obj
 0002:0000c3b8       __real@3ff921fb54442d18    00000001801dd3b8     libucrt:atan2f.obj
 0002:0000c3c0       __real@400921fb54442d18    00000001801dd3c0     libucrt:atan2f.obj
 0002:0000c3c8       __real@4070000000000000    00000001801dd3c8     libucrt:atan2f.obj
 0002:0000c3d0       __real@bf490fdb            00000001801dd3d0     libucrt:atan2f.obj
 0002:0000c3d4       __real@bfc90fdb            00000001801dd3d4     libucrt:atan2f.obj
 0002:0000c3d8       __real@c016cbe4            00000001801dd3d8     libucrt:atan2f.obj
 0002:0000c3dc       __real@c0490fdb            00000001801dd3dc     libucrt:atan2f.obj
 0002:0000c3e0       ??_C@_05FFFCHCED@acosf@    00000001801dd3e0     libucrt:acosf.obj
 0002:0000c3e8       __real@3b81ce6b            00000001801dd3e8     libucrt:acosf.obj
 0002:0000c3f0       __real@3c91a62633145c07    00000001801dd3f0     libucrt:acosf.obj
 0002:0000c3f8       __real@3d678bdd            00000001801dd3f8     libucrt:acosf.obj
 0002:0000c3fc       __real@3e3c94dc            00000001801dd3fc     libucrt:acosf.obj
 0002:0000c400       __real@3f561f0d            00000001801dd400     libucrt:acosf.obj
 0002:0000c404       __real@3f8d6fa5            00000001801dd404     libucrt:acosf.obj
 0002:0000c408       __real@bc5b3fe1            00000001801dd408     libucrt:acosf.obj
 0002:0000c410       __acrt_exception_action_table 00000001801dd410     libucrt:exception_filter.obj
 0002:0000c4d0       __acrt_signal_action_table_count 00000001801dd4d0     libucrt:exception_filter.obj
 0002:0000c4d8       __acrt_signal_action_first_fpe_index 00000001801dd4d8     libucrt:exception_filter.obj
 0002:0000c4e0       __acrt_signal_action_fpe_count 00000001801dd4e0     libucrt:exception_filter.obj
 0002:0000c4e8       ??_C@_1BI@BGOHAHKC@?$AAm?$AAs?$AAc?$AAo?$AAr?$AAe?$AAe?$AA?4?$AAd?$AAl?$AAl@ 00000001801dd4e8     libucrt:exit.obj
 0002:0000c500       ??_C@_0P@MIGLKIOC@CorExitProcess@ 00000001801dd500     libucrt:exit.obj
 0002:0000c780       ??_C@_04LAGPAAHP@sinf@     00000001801dd780     libucrt:sincos_special.obj
 0002:0000c788       ??_C@_04OBBKPIAC@cosf@     00000001801dd788     libucrt:sincos_special.obj
 0002:0000c790       ??_C@_04MHPLPEIA@tanf@     00000001801dd790     libucrt:sincos_special.obj
 0002:0000c7a0       __Lcosfarray               00000001801dd7a0     libucrt:lsincosf_array.obj
 0002:0000c7d0       __Lsinfarray               00000001801dd7d0     libucrt:lsincosf_array.obj
 0002:0000c7f0       __L_2_by_pi_bits           00000001801dd7f0     libucrt:l2_by_pi_bits.obj
 0002:0000cb50       ??_C@_1EA@JGEFHKEI@?$AAa?$AAp?$AAi?$AA?9?$AAm?$AAs?$AA?9?$AAw?$AAi?$AAn?$AA?9?$AAc?$AAo?$AAr?$AAe@ 00000001801ddb50     libucrt:winapi_thunks.obj
 0002:0000cb90       ??_C@_1DI@IJCEHOCB@?$AAa?$AAp?$AAi?$AA?9?$AAm?$AAs?$AA?9?$AAw?$AAi?$AAn?$AA?9?$AAc?$AAo?$AAr?$AAe@ 00000001801ddb90     libucrt:winapi_thunks.obj
 0002:0000cbd0       ??_C@_1EI@MPIAOHOC@?$AAa?$AAp?$AAi?$AA?9?$AAm?$AAs?$AA?9?$AAw?$AAi?$AAn?$AA?9?$AAc?$AAo?$AAr?$AAe@ 00000001801ddbd0     libucrt:winapi_thunks.obj
 0002:0000cc20       ??_C@_1FK@FPHCKFIE@?$AAa?$AAp?$AAi?$AA?9?$AAm?$AAs?$AA?9?$AAw?$AAi?$AAn?$AA?9?$AAc?$AAo?$AAr?$AAe@ 00000001801ddc20     libucrt:winapi_thunks.obj
 0002:0000cc80       ??_C@_1EM@DILCGIIO@?$AAa?$AAp?$AAi?$AA?9?$AAm?$AAs?$AA?9?$AAw?$AAi?$AAn?$AA?9?$AAc?$AAo?$AAr?$AAe@ 00000001801ddc80     libucrt:winapi_thunks.obj
 0002:0000ccd0       ??_C@_1DM@LNCGDDPN@?$AAa?$AAp?$AAi?$AA?9?$AAm?$AAs?$AA?9?$AAw?$AAi?$AAn?$AA?9?$AAc?$AAo?$AAr?$AAe@ 00000001801ddcd0     libucrt:winapi_thunks.obj
 0002:0000cd10       ??_C@_1DO@FPAPJEMD@?$AAa?$AAp?$AAi?$AA?9?$AAm?$AAs?$AA?9?$AAw?$AAi?$AAn?$AA?9?$AAc?$AAo?$AAr?$AAe@ 00000001801ddd10     libucrt:winapi_thunks.obj
 0002:0000cd50       ??_C@_1DK@NDHNAHIO@?$AAa?$AAp?$AAi?$AA?9?$AAm?$AAs?$AA?9?$AAw?$AAi?$AAn?$AA?9?$AAc?$AAo?$AAr?$AAe@ 00000001801ddd50     libucrt:winapi_thunks.obj
 0002:0000cd90       ??_C@_1DM@KGHDGBCM@?$AAa?$AAp?$AAi?$AA?9?$AAm?$AAs?$AA?9?$AAw?$AAi?$AAn?$AA?9?$AAc?$AAo?$AAr?$AAe@ 00000001801ddd90     libucrt:winapi_thunks.obj
 0002:0000cdd0       ??_C@_1EO@IJIOEFOH@?$AAa?$AAp?$AAi?$AA?9?$AAm?$AAs?$AA?9?$AAw?$AAi?$AAn?$AA?9?$AAr?$AAt?$AAc?$AAo@ 00000001801dddd0     libucrt:winapi_thunks.obj
 0002:0000ce20       ??_C@_1FG@HHGEKANL@?$AAa?$AAp?$AAi?$AA?9?$AAm?$AAs?$AA?9?$AAw?$AAi?$AAn?$AA?9?$AAs?$AAe?$AAc?$AAu@ 00000001801dde20     libucrt:winapi_thunks.obj
 0002:0000ce80       ??_C@_1EG@DBIOJECG@?$AAe?$AAx?$AAt?$AA?9?$AAm?$AAs?$AA?9?$AAw?$AAi?$AAn?$AA?9?$AAn?$AAt?$AAu?$AAs@ 00000001801dde80     libucrt:winapi_thunks.obj
 0002:0000ced0       ??_C@_1EO@FIHMJCLF@?$AAe?$AAx?$AAt?$AA?9?$AAm?$AAs?$AA?9?$AAw?$AAi?$AAn?$AA?9?$AAn?$AAt?$AAu?$AAs@ 00000001801dded0     libucrt:winapi_thunks.obj
 0002:0000cf20       ??_C@_1BC@DNHGCMLG@?$AAa?$AAd?$AAv?$AAa?$AAp?$AAi?$AA3?$AA2@ 00000001801ddf20     libucrt:winapi_thunks.obj
 0002:0000cf38       ??_C@_1M@OAIMIKLP@?$AAn?$AAt?$AAd?$AAl?$AAl@ 00000001801ddf38     libucrt:winapi_thunks.obj
 0002:0000cf50       ??_C@_1EG@DPGNFKGC@?$AAa?$AAp?$AAi?$AA?9?$AAm?$AAs?$AA?9?$AAw?$AAi?$AAn?$AA?9?$AAa?$AAp?$AAp?$AAm@ 00000001801ddf50     libucrt:winapi_thunks.obj
 0002:0000cf98       ??_C@_1O@BCCLBEOE@?$AAu?$AAs?$AAe?$AAr?$AA3?$AA2@ 00000001801ddf98     libucrt:winapi_thunks.obj
 0002:0000cfa8       ??_C@_1BA@IAIFMGEF@?$AAe?$AAx?$AAt?$AA?9?$AAm?$AAs?$AA?9@ 00000001801ddfa8     libucrt:winapi_thunks.obj
 0002:0000cfc0       ??_C@_0BA@FHFNEAED@AreFileApisANSI@ 00000001801ddfc0     libucrt:winapi_thunks.obj
 0002:0000d000       ??_C@_0O@KKBNKAPF@LCMapStringEx@ 00000001801de000     libucrt:winapi_thunks.obj
 0002:0000d018       ??_C@_0BB@HBDEELFH@LocaleNameToLCID@ 00000001801de018     libucrt:winapi_thunks.obj
 0002:0000d030       ??_C@_0CF@OJOFEIGO@AppPolicyGetProcessTerminationM@ 00000001801de030     libucrt:winapi_thunks.obj
 0002:0000d0e0       ??_C@_03OEIAHPBN@INF@      00000001801de0e0     libucrt:cvt.obj
 0002:0000d0e4       ??_C@_03OJHLLCGB@inf@      00000001801de0e4     libucrt:cvt.obj
 0002:0000d0e8       ??_C@_03LKNCIKJB@NAN@      00000001801de0e8     libucrt:cvt.obj
 0002:0000d0ec       ??_C@_03LHCJEHON@nan@      00000001801de0ec     libucrt:cvt.obj
 0002:0000d0f0       ??_C@_09OFJJIMPC@NAN?$CISNAN?$CJ@ 00000001801de0f0     libucrt:cvt.obj
 0002:0000d100       ??_C@_09IPFBKMDL@nan?$CIsnan?$CJ@ 00000001801de100     libucrt:cvt.obj
 0002:0000d110       ??_C@_08IKHNHAJ@NAN?$CIIND?$CJ@ 00000001801de110     libucrt:cvt.obj
 0002:0000d120       ??_C@_08OFCDMILK@nan?$CIind?$CJ@ 00000001801de120     libucrt:cvt.obj
 0002:0000d12c       ??_C@_05KLBDPFGC@e?$CL000@ 00000001801de12c     libucrt:cvt.obj
 0002:0000d140       __lc_time_c                00000001801de140     libucrt:nlsdata.obj
 0002:0000d400       ??_C@_03KOEHGMDN@Sun@      00000001801de400     libucrt:nlsdata.obj
 0002:0000d404       ??_C@_03PDAGKDH@Mon@       00000001801de404     libucrt:nlsdata.obj
 0002:0000d408       ??_C@_03NAGEINEP@Tue@      00000001801de408     libucrt:nlsdata.obj
 0002:0000d40c       ??_C@_03MHOMLAJA@Wed@      00000001801de40c     libucrt:nlsdata.obj
 0002:0000d410       ??_C@_03IOFIKPDN@Thu@      00000001801de410     libucrt:nlsdata.obj
 0002:0000d414       ??_C@_03IDIOELNC@Fri@      00000001801de414     libucrt:nlsdata.obj
 0002:0000d418       ??_C@_03FEFJNEK@Sat@       00000001801de418     libucrt:nlsdata.obj
 0002:0000d41c       ??_C@_06OOPIFAJ@Sunday@    00000001801de41c     libucrt:nlsdata.obj
 0002:0000d424       ??_C@_06JLEDEDGH@Monday@   00000001801de424     libucrt:nlsdata.obj
 0002:0000d430       ??_C@_07BAAGCFCM@Tuesday@  00000001801de430     libucrt:nlsdata.obj
 0002:0000d438       ??_C@_09DLIGFAKA@Wednesday@ 00000001801de438     libucrt:nlsdata.obj
 0002:0000d448       ??_C@_08HACCIKIA@Thursday@ 00000001801de448     libucrt:nlsdata.obj
 0002:0000d454       ??_C@_06JECMNKMI@Friday@   00000001801de454     libucrt:nlsdata.obj
 0002:0000d460       ??_C@_08INBOOONO@Saturday@ 00000001801de460     libucrt:nlsdata.obj
 0002:0000d46c       ??_C@_03JIHJHPIE@Jan@      00000001801de46c     libucrt:nlsdata.obj
 0002:0000d470       ??_C@_03HJBDCHOM@Feb@      00000001801de470     libucrt:nlsdata.obj
 0002:0000d474       ??_C@_03ODNJBKGA@Mar@      00000001801de474     libucrt:nlsdata.obj
 0002:0000d478       ??_C@_03LEOLGMJP@Apr@      00000001801de478     libucrt:nlsdata.obj
 0002:0000d47c       ??_C@_03CNMDKL@May@        00000001801de47c     libucrt:nlsdata.obj
 0002:0000d480       ??_C@_03IDFGHECI@Jun@      00000001801de480     libucrt:nlsdata.obj
 0002:0000d484       ??_C@_03LBGABGKK@Jul@      00000001801de484     libucrt:nlsdata.obj
 0002:0000d488       ??_C@_03IFJFEIGA@Aug@      00000001801de488     libucrt:nlsdata.obj
 0002:0000d48c       ??_C@_03GGCAPAJC@Sep@      00000001801de48c     libucrt:nlsdata.obj
 0002:0000d490       ??_C@_03BMAOKBAD@Oct@      00000001801de490     libucrt:nlsdata.obj
 0002:0000d494       ??_C@_03JPJOFNIA@Nov@      00000001801de494     libucrt:nlsdata.obj
 0002:0000d498       ??_C@_03MKABNOCG@Dec@      00000001801de498     libucrt:nlsdata.obj
 0002:0000d4a0       ??_C@_07CGJPFGJA@January@  00000001801de4a0     libucrt:nlsdata.obj
 0002:0000d4a8       ??_C@_08GNJGEPFN@February@ 00000001801de4a8     libucrt:nlsdata.obj
 0002:0000d4b4       ??_C@_05HPCKOFNC@March@    00000001801de4b4     libucrt:nlsdata.obj
 0002:0000d4bc       ??_C@_05DMJDNLEJ@April@    00000001801de4bc     libucrt:nlsdata.obj
 0002:0000d4c4       ??_C@_04CNLMGBGM@June@     00000001801de4c4     libucrt:nlsdata.obj
 0002:0000d4cc       ??_C@_04MIEPOIFP@July@     00000001801de4cc     libucrt:nlsdata.obj
 0002:0000d4d4       ??_C@_06LBBHFDDG@August@   00000001801de4d4     libucrt:nlsdata.obj
 0002:0000d4e0       ??_C@_09BHHEALKD@September@ 00000001801de4e0     libucrt:nlsdata.obj
 0002:0000d4f0       ??_C@_07JJNFCEND@October@  00000001801de4f0     libucrt:nlsdata.obj
 0002:0000d4f8       ??_C@_08HCHEGEOA@November@ 00000001801de4f8     libucrt:nlsdata.obj
 0002:0000d508       ??_C@_08EDHMEBNP@December@ 00000001801de508     libucrt:nlsdata.obj
 0002:0000d514       ??_C@_02DEDBPAFC@AM@       00000001801de514     libucrt:nlsdata.obj
 0002:0000d518       ??_C@_02CJNFDJBF@PM@       00000001801de518     libucrt:nlsdata.obj
 0002:0000d520       ??_C@_08BPBNCDIB@MM?1dd?1yy@ 00000001801de520     libucrt:nlsdata.obj
 0002:0000d530       ??_C@_0BE@CKGJFCPC@dddd?0?5MMMM?5dd?0?5yyyy@ 00000001801de530     libucrt:nlsdata.obj
 0002:0000d548       ??_C@_08JCCMCCIL@HH?3mm?3ss@ 00000001801de548     libucrt:nlsdata.obj
 0002:0000d558       ??_C@_17MBGCMIPB@?$AAS?$AAu?$AAn@ 00000001801de558     libucrt:nlsdata.obj
 0002:0000d560       ??_C@_17KBOMKBF@?$AAM?$AAo?$AAn@ 00000001801de560     libucrt:nlsdata.obj
 0002:0000d568       ??_C@_17BMKGEGOJ@?$AAT?$AAu?$AAe@ 00000001801de568     libucrt:nlsdata.obj
 0002:0000d570       ??_C@_17CJEDCEPE@?$AAW?$AAe?$AAd@ 00000001801de570     libucrt:nlsdata.obj
 0002:0000d578       ??_C@_17PDPHAADD@?$AAT?$AAh?$AAu@ 00000001801de578     libucrt:nlsdata.obj
 0002:0000d580       ??_C@_17HFOLPPLP@?$AAF?$AAr?$AAi@ 00000001801de580     libucrt:nlsdata.obj
 0002:0000d588       ??_C@_17GGIBDPIH@?$AAS?$AAa?$AAt@ 00000001801de588     libucrt:nlsdata.obj
 0002:0000d590       ??_C@_1O@IHNHDHPB@?$AAS?$AAu?$AAn?$AAd?$AAa?$AAy@ 00000001801de590     libucrt:nlsdata.obj
 0002:0000d5a0       ??_C@_1O@MMNBFLIA@?$AAM?$AAo?$AAn?$AAd?$AAa?$AAy@ 00000001801de5a0     libucrt:nlsdata.obj
 0002:0000d5b0       ??_C@_1BA@ENFBFFEK@?$AAT?$AAu?$AAe?$AAs?$AAd?$AAa?$AAy@ 00000001801de5b0     libucrt:nlsdata.obj
 0002:0000d5c0       ??_C@_1BE@EBOGMDOH@?$AAW?$AAe?$AAd?$AAn?$AAe?$AAs?$AAd?$AAa?$AAy@ 00000001801de5c0     libucrt:nlsdata.obj
 0002:0000d5d8       ??_C@_1BC@HHMNLIHE@?$AAT?$AAh?$AAu?$AAr?$AAs?$AAd?$AAa?$AAy@ 00000001801de5d8     libucrt:nlsdata.obj
 0002:0000d5f0       ??_C@_1O@PDICJHAG@?$AAF?$AAr?$AAi?$AAd?$AAa?$AAy@ 00000001801de5f0     libucrt:nlsdata.obj
 0002:0000d600       ??_C@_1BC@ENMNNPAJ@?$AAS?$AAa?$AAt?$AAu?$AAr?$AAd?$AAa?$AAy@ 00000001801de600     libucrt:nlsdata.obj
 0002:0000d618       ??_C@_17DKNBKCHM@?$AAJ?$AAa?$AAn@ 00000001801de618     libucrt:nlsdata.obj
 0002:0000d620       ??_C@_17LMDJEKJN@?$AAF?$AAe?$AAb@ 00000001801de620     libucrt:nlsdata.obj
 0002:0000d628       ??_C@_17CKNLEDEC@?$AAM?$AAa?$AAr@ 00000001801de628     libucrt:nlsdata.obj
 0002:0000d630       ??_C@_17LFPOIHDD@?$AAA?$AAp?$AAr@ 00000001801de630     libucrt:nlsdata.obj
 0002:0000d638       ??_C@_17PNNKMEED@?$AAM?$AAa?$AAy@ 00000001801de638     libucrt:nlsdata.obj
 0002:0000d640       ??_C@_17KCJGOCPB@?$AAJ?$AAu?$AAn@ 00000001801de640     libucrt:nlsdata.obj
 0002:0000d648       ??_C@_17IJPCKHK@?$AAJ?$AAu?$AAl@ 00000001801de648     libucrt:nlsdata.obj
 0002:0000d650       ??_C@_17ICPELBCN@?$AAA?$AAu?$AAg@ 00000001801de650     libucrt:nlsdata.obj
 0002:0000d658       ??_C@_17HCHCOKMG@?$AAS?$AAe?$AAp@ 00000001801de658     libucrt:nlsdata.obj
 0002:0000d660       ??_C@_17FNLKOI@?$AAO?$AAc?$AAt@ 00000001801de660     libucrt:nlsdata.obj
 0002:0000d668       ??_C@_17BBDMLCIG@?$AAN?$AAo?$AAv@ 00000001801de668     libucrt:nlsdata.obj
 0002:0000d670       ??_C@_17EGKACKIF@?$AAD?$AAe?$AAc@ 00000001801de670     libucrt:nlsdata.obj
 0002:0000d678       ??_C@_1BA@EFMEIEBA@?$AAJ?$AAa?$AAn?$AAu?$AAa?$AAr?$AAy@ 00000001801de678     libucrt:nlsdata.obj
 0002:0000d688       ??_C@_1BC@JGDDFFAM@?$AAF?$AAe?$AAb?$AAr?$AAu?$AAa?$AAr?$AAy@ 00000001801de688     libucrt:nlsdata.obj
 0002:0000d6a0       ??_C@_1M@IKEENEDF@?$AAM?$AAa?$AAr?$AAc?$AAh@ 00000001801de6a0     libucrt:nlsdata.obj
 0002:0000d6b0       ??_C@_1M@GJNLMHFD@?$AAA?$AAp?$AAr?$AAi?$AAl@ 00000001801de6b0     libucrt:nlsdata.obj
 0002:0000d6c0       ??_C@_19EPFLPGAP@?$AAJ?$AAu?$AAn?$AAe@ 00000001801de6c0     libucrt:nlsdata.obj
 0002:0000d6d0       ??_C@_19BIFMLPCD@?$AAJ?$AAu?$AAl?$AAy@ 00000001801de6d0     libucrt:nlsdata.obj
 0002:0000d6e0       ??_C@_1O@PAHLKOAC@?$AAA?$AAu?$AAg?$AAu?$AAs?$AAt@ 00000001801de6e0     libucrt:nlsdata.obj
 0002:0000d6f0       ??_C@_1BE@DKAAMBJL@?$AAS?$AAe?$AAp?$AAt?$AAe?$AAm?$AAb?$AAe?$AAr@ 00000001801de6f0     libucrt:nlsdata.obj
 0002:0000d708       ??_C@_1BA@EPANDLNG@?$AAO?$AAc?$AAt?$AAo?$AAb?$AAe?$AAr@ 00000001801de708     libucrt:nlsdata.obj
 0002:0000d718       ??_C@_1BC@BGLIFPF@?$AAN?$AAo?$AAv?$AAe?$AAm?$AAb?$AAe?$AAr@ 00000001801de718     libucrt:nlsdata.obj
 0002:0000d730       ??_C@_1BC@FEMKIFH@?$AAD?$AAe?$AAc?$AAe?$AAm?$AAb?$AAe?$AAr@ 00000001801de730     libucrt:nlsdata.obj
 0002:0000d744       ??_C@_15ODEHAHHF@?$AAA?$AAM@ 00000001801de744     libucrt:nlsdata.obj
 0002:0000d74c       ??_C@_15CLMNNGEL@?$AAP?$AAM@ 00000001801de74c     libucrt:nlsdata.obj
 0002:0000d758       ??_C@_1BC@IEBCMHCM@?$AAM?$AAM?$AA?1?$AAd?$AAd?$AA?1?$AAy?$AAy@ 00000001801de758     libucrt:nlsdata.obj
 0002:0000d770       ??_C@_1CI@KNAKOEBC@?$AAd?$AAd?$AAd?$AAd?$AA?0?$AA?5?$AAM?$AAM?$AAM?$AAM?$AA?5?$AAd?$AAd?$AA?0?$AA?5@ 00000001801de770     libucrt:nlsdata.obj
 0002:0000d798       ??_C@_1BC@GDGBMEMK@?$AAH?$AAH?$AA?3?$AAm?$AAm?$AA?3?$AAs?$AAs@ 00000001801de798     libucrt:nlsdata.obj
